ARM GAS  C:\Users\User\AppData\Local\Temp\ccuDfRLx.s 			page 1


   1              		.syntax unified
   2              		.cpu cortex-m0
   3              		.fpu softvfp
   4              		.eabi_attribute 20, 1
   5              		.eabi_attribute 21, 1
   6              		.eabi_attribute 23, 3
   7              		.eabi_attribute 24, 1
   8              		.eabi_attribute 25, 1
   9              		.eabi_attribute 26, 1
  10              		.eabi_attribute 30, 6
  11              		.eabi_attribute 34, 0
  12              		.eabi_attribute 18, 4
  13              		.thumb
  14              		.syntax unified
  15              		.file	"ADC.c"
  16              		.text
  17              	.Ltext0:
  18              		.cfi_sections	.debug_frame
  19              		.global	ADC_initVar
  20              		.bss
  21              		.type	ADC_initVar, %object
  22              		.size	ADC_initVar, 1
  23              	ADC_initVar:
  24 0000 00       		.space	1
  25              		.comm	ADC_offset,4,4
  26              		.comm	ADC_countsPer10Volt,8,4
  27              		.section	.rodata
  28              		.align	2
  29              		.type	ADC_channelsConfig, %object
  30              		.size	ADC_channelsConfig, 8
  31              	ADC_channelsConfig:
  32 0000 00040000 		.word	1024
  33 0004 00040000 		.word	1024
  34              		.section	.text.ADC_Start,"ax",%progbits
  35              		.align	2
  36              		.global	ADC_Start
  37              		.code	16
  38              		.thumb_func
  39              		.type	ADC_Start, %function
  40              	ADC_Start:
  41              	.LFB2:
  42              		.file 1 "Generated_Source\\PSoC4\\ADC.c"
   1:Generated_Source\PSoC4/ADC.c **** /*******************************************************************************
   2:Generated_Source\PSoC4/ADC.c **** * File Name: ADC.c
   3:Generated_Source\PSoC4/ADC.c **** * Version 2.50
   4:Generated_Source\PSoC4/ADC.c **** *
   5:Generated_Source\PSoC4/ADC.c **** * Description:
   6:Generated_Source\PSoC4/ADC.c **** *  This file provides the source code to the API for the Sequencing Successive
   7:Generated_Source\PSoC4/ADC.c **** *  Approximation ADC Component Component.
   8:Generated_Source\PSoC4/ADC.c **** *
   9:Generated_Source\PSoC4/ADC.c **** * Note:
  10:Generated_Source\PSoC4/ADC.c **** *
  11:Generated_Source\PSoC4/ADC.c **** ********************************************************************************
  12:Generated_Source\PSoC4/ADC.c **** * Copyright 2008-2017, Cypress Semiconductor Corporation.  All rights reserved.
  13:Generated_Source\PSoC4/ADC.c **** * You may use this file only in accordance with the license, terms, conditions,
  14:Generated_Source\PSoC4/ADC.c **** * disclaimers, and limitations in the end user license agreement accompanying
  15:Generated_Source\PSoC4/ADC.c **** * the software package with which this file was provided.
ARM GAS  C:\Users\User\AppData\Local\Temp\ccuDfRLx.s 			page 2


  16:Generated_Source\PSoC4/ADC.c **** *******************************************************************************/
  17:Generated_Source\PSoC4/ADC.c **** 
  18:Generated_Source\PSoC4/ADC.c **** #include "ADC.h"
  19:Generated_Source\PSoC4/ADC.c **** 
  20:Generated_Source\PSoC4/ADC.c **** 
  21:Generated_Source\PSoC4/ADC.c **** /***************************************
  22:Generated_Source\PSoC4/ADC.c **** * Global data allocation
  23:Generated_Source\PSoC4/ADC.c **** ***************************************/
  24:Generated_Source\PSoC4/ADC.c **** uint8 ADC_initVar = 0u;
  25:Generated_Source\PSoC4/ADC.c **** volatile int16 ADC_offset[ADC_TOTAL_CHANNELS_NUM];
  26:Generated_Source\PSoC4/ADC.c **** volatile int32 ADC_countsPer10Volt[ADC_TOTAL_CHANNELS_NUM];   /* Gain compensation */
  27:Generated_Source\PSoC4/ADC.c **** 
  28:Generated_Source\PSoC4/ADC.c **** 
  29:Generated_Source\PSoC4/ADC.c **** /***************************************
  30:Generated_Source\PSoC4/ADC.c **** * Local data allocation
  31:Generated_Source\PSoC4/ADC.c **** ***************************************/
  32:Generated_Source\PSoC4/ADC.c **** /* Channels configuration generated by customiser */
  33:Generated_Source\PSoC4/ADC.c **** static const uint32 CYCODE ADC_channelsConfig[] = { 0x00000400u, 0x00000400u };
  34:Generated_Source\PSoC4/ADC.c **** 
  35:Generated_Source\PSoC4/ADC.c **** 
  36:Generated_Source\PSoC4/ADC.c **** /*******************************************************************************
  37:Generated_Source\PSoC4/ADC.c **** * Function Name: ADC_Start
  38:Generated_Source\PSoC4/ADC.c **** ********************************************************************************
  39:Generated_Source\PSoC4/ADC.c **** *
  40:Generated_Source\PSoC4/ADC.c **** * Summary:
  41:Generated_Source\PSoC4/ADC.c **** *  Performs all required initialization for this component
  42:Generated_Source\PSoC4/ADC.c **** *  and enables the power. The power will be set to the appropriate
  43:Generated_Source\PSoC4/ADC.c **** *  power based on the clock frequency.
  44:Generated_Source\PSoC4/ADC.c **** *
  45:Generated_Source\PSoC4/ADC.c **** * Parameters:
  46:Generated_Source\PSoC4/ADC.c **** *  None.
  47:Generated_Source\PSoC4/ADC.c **** *
  48:Generated_Source\PSoC4/ADC.c **** * Return:
  49:Generated_Source\PSoC4/ADC.c **** *  None.
  50:Generated_Source\PSoC4/ADC.c **** *
  51:Generated_Source\PSoC4/ADC.c **** * Global variables:
  52:Generated_Source\PSoC4/ADC.c **** *  The ADC_initVar variable is used to indicate when/if initial
  53:Generated_Source\PSoC4/ADC.c **** *  configuration of this component has happened. The variable is initialized to
  54:Generated_Source\PSoC4/ADC.c **** *  zero and set to 1 the first time ADC_Start() is called. This allows for
  55:Generated_Source\PSoC4/ADC.c **** *  component Re-Start without re-initialization in all subsequent calls to the
  56:Generated_Source\PSoC4/ADC.c **** *  ADC_Start() routine.
  57:Generated_Source\PSoC4/ADC.c **** *  If re-initialization of the component is required the variable should be set
  58:Generated_Source\PSoC4/ADC.c **** *  to zero before call of ADC_Start() routine, or the user may call
  59:Generated_Source\PSoC4/ADC.c **** *  ADC_Init() and ADC_Enable() as done in the
  60:Generated_Source\PSoC4/ADC.c **** *  ADC_Start() routine.
  61:Generated_Source\PSoC4/ADC.c **** *
  62:Generated_Source\PSoC4/ADC.c **** *******************************************************************************/
  63:Generated_Source\PSoC4/ADC.c **** void ADC_Start(void)
  64:Generated_Source\PSoC4/ADC.c **** {
  43              		.loc 1 64 0
  44              		.cfi_startproc
  45              		@ args = 0, pretend = 0, frame = 0
  46              		@ frame_needed = 1, uses_anonymous_args = 0
  47 0000 80B5     		push	{r7, lr}
  48              		.cfi_def_cfa_offset 8
  49              		.cfi_offset 7, -8
  50              		.cfi_offset 14, -4
ARM GAS  C:\Users\User\AppData\Local\Temp\ccuDfRLx.s 			page 3


  51 0002 00AF     		add	r7, sp, #0
  52              		.cfi_def_cfa_register 7
  65:Generated_Source\PSoC4/ADC.c ****     /* If not Initialized then initialize all required hardware and software */
  66:Generated_Source\PSoC4/ADC.c ****     if(ADC_initVar == 0u)
  53              		.loc 1 66 0
  54 0004 064B     		ldr	r3, .L3
  55 0006 1B78     		ldrb	r3, [r3]
  56 0008 002B     		cmp	r3, #0
  57 000a 04D1     		bne	.L2
  67:Generated_Source\PSoC4/ADC.c ****     {
  68:Generated_Source\PSoC4/ADC.c ****         ADC_Init();
  58              		.loc 1 68 0
  59 000c FFF7FEFF 		bl	ADC_Init
  69:Generated_Source\PSoC4/ADC.c ****         ADC_initVar = 1u;
  60              		.loc 1 69 0
  61 0010 034B     		ldr	r3, .L3
  62 0012 0122     		movs	r2, #1
  63 0014 1A70     		strb	r2, [r3]
  64              	.L2:
  70:Generated_Source\PSoC4/ADC.c ****     }
  71:Generated_Source\PSoC4/ADC.c ****     ADC_Enable();
  65              		.loc 1 71 0
  66 0016 FFF7FEFF 		bl	ADC_Enable
  72:Generated_Source\PSoC4/ADC.c **** }
  67              		.loc 1 72 0
  68 001a C046     		nop
  69 001c BD46     		mov	sp, r7
  70              		@ sp needed
  71 001e 80BD     		pop	{r7, pc}
  72              	.L4:
  73              		.align	2
  74              	.L3:
  75 0020 00000000 		.word	ADC_initVar
  76              		.cfi_endproc
  77              	.LFE2:
  78              		.size	ADC_Start, .-ADC_Start
  79              		.section	.text.ADC_Init,"ax",%progbits
  80              		.align	2
  81              		.global	ADC_Init
  82              		.code	16
  83              		.thumb_func
  84              		.type	ADC_Init, %function
  85              	ADC_Init:
  86              	.LFB3:
  73:Generated_Source\PSoC4/ADC.c **** 
  74:Generated_Source\PSoC4/ADC.c **** 
  75:Generated_Source\PSoC4/ADC.c **** /*******************************************************************************
  76:Generated_Source\PSoC4/ADC.c **** * Function Name: ADC_Init
  77:Generated_Source\PSoC4/ADC.c **** ********************************************************************************
  78:Generated_Source\PSoC4/ADC.c **** *
  79:Generated_Source\PSoC4/ADC.c **** * Summary:
  80:Generated_Source\PSoC4/ADC.c **** *  Initialize component's parameters to the parameters set by user in the
  81:Generated_Source\PSoC4/ADC.c **** *  customizer of the component placed onto schematic. Usually called in
  82:Generated_Source\PSoC4/ADC.c **** *  ADC_Start().
  83:Generated_Source\PSoC4/ADC.c **** *
  84:Generated_Source\PSoC4/ADC.c **** * Parameters:
  85:Generated_Source\PSoC4/ADC.c **** *  None.
ARM GAS  C:\Users\User\AppData\Local\Temp\ccuDfRLx.s 			page 4


  86:Generated_Source\PSoC4/ADC.c **** *
  87:Generated_Source\PSoC4/ADC.c **** * Return:
  88:Generated_Source\PSoC4/ADC.c **** *  None.
  89:Generated_Source\PSoC4/ADC.c **** *
  90:Generated_Source\PSoC4/ADC.c **** * Global variables:
  91:Generated_Source\PSoC4/ADC.c **** *  The ADC_offset variable is initialized.
  92:Generated_Source\PSoC4/ADC.c **** *
  93:Generated_Source\PSoC4/ADC.c **** *******************************************************************************/
  94:Generated_Source\PSoC4/ADC.c **** void ADC_Init(void)
  95:Generated_Source\PSoC4/ADC.c **** {
  87              		.loc 1 95 0
  88              		.cfi_startproc
  89              		@ args = 0, pretend = 0, frame = 16
  90              		@ frame_needed = 1, uses_anonymous_args = 0
  91 0000 80B5     		push	{r7, lr}
  92              		.cfi_def_cfa_offset 8
  93              		.cfi_offset 7, -8
  94              		.cfi_offset 14, -4
  95 0002 84B0     		sub	sp, sp, #16
  96              		.cfi_def_cfa_offset 24
  97 0004 00AF     		add	r7, sp, #0
  98              		.cfi_def_cfa_register 7
  96:Generated_Source\PSoC4/ADC.c ****     uint32 chNum;
  97:Generated_Source\PSoC4/ADC.c ****     uint32 tmpRegVal;
  98:Generated_Source\PSoC4/ADC.c ****     int32 counts;
  99:Generated_Source\PSoC4/ADC.c **** 
 100:Generated_Source\PSoC4/ADC.c ****     #if(ADC_TOTAL_CHANNELS_NUM > 1u)
 101:Generated_Source\PSoC4/ADC.c ****         static const uint8 CYCODE ADC_InputsPlacement[] =
 102:Generated_Source\PSoC4/ADC.c ****         {
 103:Generated_Source\PSoC4/ADC.c ****             (uint8)(ADC_cy_psoc4_sarmux_8__CH_0_PORT << 4u) |
 104:Generated_Source\PSoC4/ADC.c ****             (uint8)ADC_cy_psoc4_sarmux_8__CH_0_PIN
 105:Generated_Source\PSoC4/ADC.c ****             ,(uint8)(ADC_cy_psoc4_sarmux_8__CH_1_PORT << 4u) |
 106:Generated_Source\PSoC4/ADC.c ****              (uint8)ADC_cy_psoc4_sarmux_8__CH_1_PIN
 107:Generated_Source\PSoC4/ADC.c ****             #if(ADC_TOTAL_CHANNELS_NUM > 2u)
 108:Generated_Source\PSoC4/ADC.c ****                 ,(uint8)(ADC_cy_psoc4_sarmux_8__CH_2_PORT << 4u) |
 109:Generated_Source\PSoC4/ADC.c ****                  (uint8)ADC_cy_psoc4_sarmux_8__CH_2_PIN
 110:Generated_Source\PSoC4/ADC.c ****             #endif /* End ADC_TOTAL_CHANNELS_NUM > 2u */
 111:Generated_Source\PSoC4/ADC.c ****             #if(ADC_TOTAL_CHANNELS_NUM > 3u)
 112:Generated_Source\PSoC4/ADC.c ****                 ,(uint8)(ADC_cy_psoc4_sarmux_8__CH_3_PORT << 4u) |
 113:Generated_Source\PSoC4/ADC.c ****                  (uint8)ADC_cy_psoc4_sarmux_8__CH_3_PIN
 114:Generated_Source\PSoC4/ADC.c ****             #endif /* End ADC_TOTAL_CHANNELS_NUM > 3u */
 115:Generated_Source\PSoC4/ADC.c ****             #if(ADC_TOTAL_CHANNELS_NUM > 4u)
 116:Generated_Source\PSoC4/ADC.c ****                 ,(uint8)(ADC_cy_psoc4_sarmux_8__CH_4_PORT << 4u) |
 117:Generated_Source\PSoC4/ADC.c ****                  (uint8)ADC_cy_psoc4_sarmux_8__CH_4_PIN
 118:Generated_Source\PSoC4/ADC.c ****             #endif /* End ADC_TOTAL_CHANNELS_NUM > 4u */
 119:Generated_Source\PSoC4/ADC.c ****             #if(ADC_TOTAL_CHANNELS_NUM > 5u)
 120:Generated_Source\PSoC4/ADC.c ****                 ,(uint8)(ADC_cy_psoc4_sarmux_8__CH_5_PORT << 4u) |
 121:Generated_Source\PSoC4/ADC.c ****                  (uint8)ADC_cy_psoc4_sarmux_8__CH_5_PIN
 122:Generated_Source\PSoC4/ADC.c ****             #endif /* End ADC_TOTAL_CHANNELS_NUM > 5u */
 123:Generated_Source\PSoC4/ADC.c ****             #if(ADC_TOTAL_CHANNELS_NUM > 6u)
 124:Generated_Source\PSoC4/ADC.c ****                 ,(uint8)(ADC_cy_psoc4_sarmux_8__CH_6_PORT << 4u) |
 125:Generated_Source\PSoC4/ADC.c ****                  (uint8)ADC_cy_psoc4_sarmux_8__CH_6_PIN
 126:Generated_Source\PSoC4/ADC.c ****             #endif /* End ADC_TOTAL_CHANNELS_NUM > 6u */
 127:Generated_Source\PSoC4/ADC.c ****             #if(ADC_TOTAL_CHANNELS_NUM > 7u)
 128:Generated_Source\PSoC4/ADC.c ****                 ,(uint8)(ADC_cy_psoc4_sarmux_8__CH_7_PORT << 4u) |
 129:Generated_Source\PSoC4/ADC.c ****                  (uint8)ADC_cy_psoc4_sarmux_8__CH_7_PIN
 130:Generated_Source\PSoC4/ADC.c ****             #endif /* End ADC_TOTAL_CHANNELS_NUM > 7u */
ARM GAS  C:\Users\User\AppData\Local\Temp\ccuDfRLx.s 			page 5


 131:Generated_Source\PSoC4/ADC.c ****             #if(ADC_TOTAL_CHANNELS_NUM > 8u)
 132:Generated_Source\PSoC4/ADC.c ****                 ,(uint8)(ADC_cy_psoc4_sarmux_8__CH_8_PORT << 4u) |
 133:Generated_Source\PSoC4/ADC.c ****                  (uint8)ADC_cy_psoc4_sarmux_8__CH_8_PIN
 134:Generated_Source\PSoC4/ADC.c ****             #endif /* End ADC_TOTAL_CHANNELS_NUM > 8u */
 135:Generated_Source\PSoC4/ADC.c ****             #if(ADC_TOTAL_CHANNELS_NUM > 9u)
 136:Generated_Source\PSoC4/ADC.c ****                 ,(uint8)(ADC_cy_psoc4_sarmux_8__CH_9_PORT << 4u) |
 137:Generated_Source\PSoC4/ADC.c ****                  (uint8)ADC_cy_psoc4_sarmux_8__CH_9_PIN
 138:Generated_Source\PSoC4/ADC.c ****             #endif /* End ADC_TOTAL_CHANNELS_NUM > 9u */
 139:Generated_Source\PSoC4/ADC.c ****             #if(ADC_TOTAL_CHANNELS_NUM > 10u)
 140:Generated_Source\PSoC4/ADC.c ****                 ,(uint8)(ADC_cy_psoc4_sarmux_8__CH_10_PORT << 4u) |
 141:Generated_Source\PSoC4/ADC.c ****                  (uint8)ADC_cy_psoc4_sarmux_8__CH_10_PIN
 142:Generated_Source\PSoC4/ADC.c ****             #endif /* End ADC_TOTAL_CHANNELS_NUM > 10u */
 143:Generated_Source\PSoC4/ADC.c ****             #if(ADC_TOTAL_CHANNELS_NUM > 11u)
 144:Generated_Source\PSoC4/ADC.c ****                 ,(uint8)(ADC_cy_psoc4_sarmux_8__CH_11_PORT << 4u) |
 145:Generated_Source\PSoC4/ADC.c ****                  (uint8)ADC_cy_psoc4_sarmux_8__CH_11_PIN
 146:Generated_Source\PSoC4/ADC.c ****             #endif /* End ADC_TOTAL_CHANNELS_NUM > 11u */
 147:Generated_Source\PSoC4/ADC.c ****             #if(ADC_TOTAL_CHANNELS_NUM > 12u)
 148:Generated_Source\PSoC4/ADC.c ****                 ,(uint8)(ADC_cy_psoc4_sarmux_8__CH_12_PORT << 4u) |
 149:Generated_Source\PSoC4/ADC.c ****                  (uint8)ADC_cy_psoc4_sarmux_8__CH_12_PIN
 150:Generated_Source\PSoC4/ADC.c ****             #endif /* End ADC_TOTAL_CHANNELS_NUM > 12u */
 151:Generated_Source\PSoC4/ADC.c ****             #if(ADC_TOTAL_CHANNELS_NUM > 13u)
 152:Generated_Source\PSoC4/ADC.c ****                 ,(uint8)(ADC_cy_psoc4_sarmux_8__CH_13_PORT << 4u) |
 153:Generated_Source\PSoC4/ADC.c ****                  (uint8)ADC_cy_psoc4_sarmux_8__CH_13_PIN
 154:Generated_Source\PSoC4/ADC.c ****             #endif /* End ADC_TOTAL_CHANNELS_NUM > 13u */
 155:Generated_Source\PSoC4/ADC.c ****             #if(ADC_TOTAL_CHANNELS_NUM > 14u)
 156:Generated_Source\PSoC4/ADC.c ****                 ,(uint8)(ADC_cy_psoc4_sarmux_8__CH_14_PORT << 4u) |
 157:Generated_Source\PSoC4/ADC.c ****                  (uint8)ADC_cy_psoc4_sarmux_8__CH_14_PIN
 158:Generated_Source\PSoC4/ADC.c ****             #endif /* End ADC_TOTAL_CHANNELS_NUM > 14u */
 159:Generated_Source\PSoC4/ADC.c ****             #if(ADC_TOTAL_CHANNELS_NUM > 15u)
 160:Generated_Source\PSoC4/ADC.c ****                 ,(uint8)(ADC_cy_psoc4_sarmux_8__CH_15_PORT << 4u) |
 161:Generated_Source\PSoC4/ADC.c ****                  (uint8)ADC_cy_psoc4_sarmux_8__CH_15_PIN
 162:Generated_Source\PSoC4/ADC.c ****             #endif /* End ADC_TOTAL_CHANNELS_NUM > 15u */
 163:Generated_Source\PSoC4/ADC.c ****             #if(ADC_TOTAL_CHANNELS_NUM > 16u)
 164:Generated_Source\PSoC4/ADC.c ****                 ,(uint8)(ADC_cy_psoc4_sarmux_8__CH_16_PORT << 4u) |
 165:Generated_Source\PSoC4/ADC.c ****                  (uint8)ADC_cy_psoc4_sarmux_8__CH_16_PIN
 166:Generated_Source\PSoC4/ADC.c ****             #endif /* End ADC_TOTAL_CHANNELS_NUM > 16u */
 167:Generated_Source\PSoC4/ADC.c ****         };
 168:Generated_Source\PSoC4/ADC.c ****     #endif /* End ADC_TOTAL_CHANNELS_NUM > 1u */
 169:Generated_Source\PSoC4/ADC.c **** 
 170:Generated_Source\PSoC4/ADC.c ****     #if(ADC_IRQ_REMOVE == 0u)
 171:Generated_Source\PSoC4/ADC.c ****         /* Start and set interrupt vector */
 172:Generated_Source\PSoC4/ADC.c ****         CyIntSetPriority(ADC_INTC_NUMBER, ADC_INTC_PRIOR_NUMBER);
  99              		.loc 1 172 0
 100 0006 0321     		movs	r1, #3
 101 0008 0F20     		movs	r0, #15
 102 000a FFF7FEFF 		bl	CyIntSetPriority
 173:Generated_Source\PSoC4/ADC.c ****         (void)CyIntSetVector(ADC_INTC_NUMBER, &ADC_ISR);
 103              		.loc 1 173 0
 104 000e 7A4B     		ldr	r3, .L21
 105 0010 1900     		movs	r1, r3
 106 0012 0F20     		movs	r0, #15
 107 0014 FFF7FEFF 		bl	CyIntSetVector
 174:Generated_Source\PSoC4/ADC.c ****     #endif   /* End ADC_IRQ_REMOVE */
 175:Generated_Source\PSoC4/ADC.c **** 
 176:Generated_Source\PSoC4/ADC.c ****     /* Init SAR and MUX registers */
 177:Generated_Source\PSoC4/ADC.c ****     ADC_SAR_CHAN_EN_REG = ADC_DEFAULT_EN_CHANNELS;
 108              		.loc 1 177 0
ARM GAS  C:\Users\User\AppData\Local\Temp\ccuDfRLx.s 			page 6


 109 0018 784B     		ldr	r3, .L21+4
 110 001a 0122     		movs	r2, #1
 111 001c 1A60     		str	r2, [r3]
 178:Generated_Source\PSoC4/ADC.c ****     ADC_SAR_CTRL_REG |= ADC_DEFAULT_CTRL_REG_CFG | 
 179:Generated_Source\PSoC4/ADC.c ****         /* Enable the SAR internal pump when global pump is enabled */
 180:Generated_Source\PSoC4/ADC.c ****         (((ADC_PUMP_CTRL_REG & ADC_PUMP_CTRL_ENABLED) != 0u) ? 
 112              		.loc 1 180 0
 113 001e 784B     		ldr	r3, .L21+8
 114 0020 1B68     		ldr	r3, [r3]
 178:Generated_Source\PSoC4/ADC.c ****     ADC_SAR_CTRL_REG |= ADC_DEFAULT_CTRL_REG_CFG | 
 115              		.loc 1 178 0
 116 0022 002B     		cmp	r3, #0
 117 0024 01DA     		bge	.L6
 178:Generated_Source\PSoC4/ADC.c ****     ADC_SAR_CTRL_REG |= ADC_DEFAULT_CTRL_REG_CFG | 
 118              		.loc 1 178 0 is_stmt 0 discriminator 1
 119 0026 7749     		ldr	r1, .L21+12
 120 0028 00E0     		b	.L7
 121              	.L6:
 178:Generated_Source\PSoC4/ADC.c ****     ADC_SAR_CTRL_REG |= ADC_DEFAULT_CTRL_REG_CFG | 
 122              		.loc 1 178 0 discriminator 2
 123 002a 7749     		ldr	r1, .L21+16
 124              	.L7:
 178:Generated_Source\PSoC4/ADC.c ****     ADC_SAR_CTRL_REG |= ADC_DEFAULT_CTRL_REG_CFG | 
 125              		.loc 1 178 0 discriminator 4
 126 002c 774B     		ldr	r3, .L21+20
 127 002e 774A     		ldr	r2, .L21+20
 128 0030 1268     		ldr	r2, [r2]
 129 0032 0A43     		orrs	r2, r1
 130 0034 1A60     		str	r2, [r3]
 181:Generated_Source\PSoC4/ADC.c ****         ADC_BOOSTPUMP_EN : 0u);
 182:Generated_Source\PSoC4/ADC.c ****     ADC_SAR_SAMPLE_CTRL_REG = ADC_DEFAULT_SAMPLE_CTRL_REG_CFG;
 131              		.loc 1 182 0 is_stmt 1 discriminator 4
 132 0036 764B     		ldr	r3, .L21+24
 133 0038 764A     		ldr	r2, .L21+28
 134 003a 1A60     		str	r2, [r3]
 183:Generated_Source\PSoC4/ADC.c ****     ADC_SAR_RANGE_THRES_REG = ADC_DEFAULT_RANGE_THRES_REG_CFG;
 135              		.loc 1 183 0 discriminator 4
 136 003c 764B     		ldr	r3, .L21+32
 137 003e 774A     		ldr	r2, .L21+36
 138 0040 1A60     		str	r2, [r3]
 184:Generated_Source\PSoC4/ADC.c ****     ADC_SAR_RANGE_COND_REG  = ADC_COMPARE_MODE;
 139              		.loc 1 184 0 discriminator 4
 140 0042 774B     		ldr	r3, .L21+40
 141 0044 0022     		movs	r2, #0
 142 0046 1A60     		str	r2, [r3]
 185:Generated_Source\PSoC4/ADC.c ****     ADC_SAR_SAMPLE_TIME01_REG = ADC_DEFAULT_SAMPLE_TIME01_REG_CFG;
 143              		.loc 1 185 0 discriminator 4
 144 0048 764B     		ldr	r3, .L21+44
 145 004a 774A     		ldr	r2, .L21+48
 146 004c 1A60     		str	r2, [r3]
 186:Generated_Source\PSoC4/ADC.c ****     ADC_SAR_SAMPLE_TIME23_REG = ADC_DEFAULT_SAMPLE_TIME23_REG_CFG;
 147              		.loc 1 186 0 discriminator 4
 148 004e 774B     		ldr	r3, .L21+52
 149 0050 754A     		ldr	r2, .L21+48
 150 0052 1A60     		str	r2, [r3]
 187:Generated_Source\PSoC4/ADC.c ****     
 188:Generated_Source\PSoC4/ADC.c ****     /* Connect Vm to VSSA when even one channel is single-ended or multiple channels configured */
ARM GAS  C:\Users\User\AppData\Local\Temp\ccuDfRLx.s 			page 7


 189:Generated_Source\PSoC4/ADC.c ****     #if(ADC_DEFAULT_MUX_SWITCH0 != 0u)
 190:Generated_Source\PSoC4/ADC.c ****         ADC_MUX_SWITCH0_REG |= ADC_DEFAULT_MUX_SWITCH0;
 151              		.loc 1 190 0 discriminator 4
 152 0054 764B     		ldr	r3, .L21+56
 153 0056 764A     		ldr	r2, .L21+56
 154 0058 1268     		ldr	r2, [r2]
 155 005a 8021     		movs	r1, #128
 156 005c 4902     		lsls	r1, r1, #9
 157 005e 0A43     		orrs	r2, r1
 158 0060 1A60     		str	r2, [r3]
 191:Generated_Source\PSoC4/ADC.c ****         /* Set MUX_HW_CTRL_VSSA in MUX_SWITCH_HW_CTRL when multiple channels enabled */
 192:Generated_Source\PSoC4/ADC.c ****         #if(ADC_TOTAL_CHANNELS_NUM > 1u)
 193:Generated_Source\PSoC4/ADC.c ****             ADC_MUX_SWITCH_HW_CTRL_REG |= ADC_DEFAULT_MUX_SWITCH0;
 159              		.loc 1 193 0 discriminator 4
 160 0062 744B     		ldr	r3, .L21+60
 161 0064 734A     		ldr	r2, .L21+60
 162 0066 1268     		ldr	r2, [r2]
 163 0068 8021     		movs	r1, #128
 164 006a 4902     		lsls	r1, r1, #9
 165 006c 0A43     		orrs	r2, r1
 166 006e 1A60     		str	r2, [r3]
 194:Generated_Source\PSoC4/ADC.c ****         #endif /* ADC_TOTAL_CHANNELS_NUM > 1u */
 195:Generated_Source\PSoC4/ADC.c ****     #endif /*ADC_CHANNELS_MODE !=0 */
 196:Generated_Source\PSoC4/ADC.c **** 
 197:Generated_Source\PSoC4/ADC.c ****     ADC_SAR_SATURATE_INTR_MASK_REG = 0u;
 167              		.loc 1 197 0 discriminator 4
 168 0070 714B     		ldr	r3, .L21+64
 169 0072 0022     		movs	r2, #0
 170 0074 1A60     		str	r2, [r3]
 198:Generated_Source\PSoC4/ADC.c ****     ADC_SAR_RANGE_INTR_MASK_REG = 0u;
 171              		.loc 1 198 0 discriminator 4
 172 0076 714B     		ldr	r3, .L21+68
 173 0078 0022     		movs	r2, #0
 174 007a 1A60     		str	r2, [r3]
 199:Generated_Source\PSoC4/ADC.c ****     ADC_SAR_INTR_MASK_REG = ADC_SAR_INTR_MASK;
 175              		.loc 1 199 0 discriminator 4
 176 007c 704B     		ldr	r3, .L21+72
 177 007e 1122     		movs	r2, #17
 178 0080 1A60     		str	r2, [r3]
 200:Generated_Source\PSoC4/ADC.c **** 
 201:Generated_Source\PSoC4/ADC.c ****     #if(ADC_CY_SAR_IP_VER == ADC_CY_SAR_IP_VER0)
 202:Generated_Source\PSoC4/ADC.c ****         ADC_ANA_TRIM_REG = ADC_TRIM_COEF;
 203:Generated_Source\PSoC4/ADC.c ****     #endif /* (ADC_CY_SAR_IP_VER == ADC_CY_SAR_IP_VER0) */
 204:Generated_Source\PSoC4/ADC.c **** 
 205:Generated_Source\PSoC4/ADC.c ****     /* Read and modify default configuration based on characterization */
 206:Generated_Source\PSoC4/ADC.c ****     tmpRegVal = ADC_SAR_DFT_CTRL_REG;
 179              		.loc 1 206 0 discriminator 4
 180 0082 704B     		ldr	r3, .L21+76
 181 0084 1B68     		ldr	r3, [r3]
 182 0086 7B60     		str	r3, [r7, #4]
 207:Generated_Source\PSoC4/ADC.c ****     tmpRegVal &= (uint32)~ADC_DCEN;
 183              		.loc 1 207 0 discriminator 4
 184 0088 7B68     		ldr	r3, [r7, #4]
 185 008a 6F4A     		ldr	r2, .L21+80
 186 008c 1340     		ands	r3, r2
 187 008e 7B60     		str	r3, [r7, #4]
 208:Generated_Source\PSoC4/ADC.c ****     
ARM GAS  C:\Users\User\AppData\Local\Temp\ccuDfRLx.s 			page 8


 209:Generated_Source\PSoC4/ADC.c ****     #if(ADC_CY_SAR_IP_VER == ADC_CY_SAR_IP_VER0)
 210:Generated_Source\PSoC4/ADC.c ****         #if(ADC_NOMINAL_CLOCK_FREQ > (ADC_MAX_FREQUENCY / 2))
 211:Generated_Source\PSoC4/ADC.c ****             tmpRegVal |= ADC_SEL_CSEL_DFT_CHAR;
 212:Generated_Source\PSoC4/ADC.c ****         #else  /* clock speed < 9 Mhz */
 213:Generated_Source\PSoC4/ADC.c ****             tmpRegVal |= ADC_DLY_INC;
 214:Generated_Source\PSoC4/ADC.c ****         #endif /* clock speed > 9 Mhz */
 215:Generated_Source\PSoC4/ADC.c ****     #else
 216:Generated_Source\PSoC4/ADC.c ****         #if ((ADC_DEFAULT_VREF_SEL == ADC__INTERNAL1024) || \
 217:Generated_Source\PSoC4/ADC.c ****              (ADC_DEFAULT_VREF_SEL == ADC__INTERNALVREF))
 218:Generated_Source\PSoC4/ADC.c ****             tmpRegVal |= ADC_DLY_INC;
 219:Generated_Source\PSoC4/ADC.c ****         #else
 220:Generated_Source\PSoC4/ADC.c ****             tmpRegVal |= ADC_DCEN;
 188              		.loc 1 220 0 discriminator 4
 189 0090 7B68     		ldr	r3, [r7, #4]
 190 0092 8022     		movs	r2, #128
 191 0094 9205     		lsls	r2, r2, #22
 192 0096 1343     		orrs	r3, r2
 193 0098 7B60     		str	r3, [r7, #4]
 221:Generated_Source\PSoC4/ADC.c ****             tmpRegVal &= (uint32)~ADC_DLY_INC;
 194              		.loc 1 221 0 discriminator 4
 195 009a 7B68     		ldr	r3, [r7, #4]
 196 009c 0122     		movs	r2, #1
 197 009e 9343     		bics	r3, r2
 198 00a0 7B60     		str	r3, [r7, #4]
 222:Generated_Source\PSoC4/ADC.c ****         #endif /* ((ADC_DEFAULT_VREF_SEL == ADC__INTERNAL1024) || \
 223:Generated_Source\PSoC4/ADC.c ****                    (ADC_DEFAULT_VREF_SEL == ADC__INTERNALVREF)) */
 224:Generated_Source\PSoC4/ADC.c ****     #endif /* (ADC_CY_SAR_IP_VER == ADC_CY_SAR_IP_VER0) */
 225:Generated_Source\PSoC4/ADC.c ****     
 226:Generated_Source\PSoC4/ADC.c ****     ADC_SAR_DFT_CTRL_REG = tmpRegVal;
 199              		.loc 1 226 0 discriminator 4
 200 00a2 684B     		ldr	r3, .L21+76
 201 00a4 7A68     		ldr	r2, [r7, #4]
 202 00a6 1A60     		str	r2, [r3]
 227:Generated_Source\PSoC4/ADC.c **** 
 228:Generated_Source\PSoC4/ADC.c ****     #if(ADC_MAX_RESOLUTION != ADC_RESOLUTION_12)
 229:Generated_Source\PSoC4/ADC.c ****         ADC_WOUNDING_REG = ADC_ALT_WOUNDING;
 230:Generated_Source\PSoC4/ADC.c ****     #endif /* ADC_MAX_RESOLUTION != ADC_RESOLUTION_12 */
 231:Generated_Source\PSoC4/ADC.c **** 
 232:Generated_Source\PSoC4/ADC.c ****     for(chNum = 0u; chNum < ADC_TOTAL_CHANNELS_NUM; chNum++)
 203              		.loc 1 232 0 discriminator 4
 204 00a8 0023     		movs	r3, #0
 205 00aa FB60     		str	r3, [r7, #12]
 206 00ac 9BE0     		b	.L8
 207              	.L20:
 233:Generated_Source\PSoC4/ADC.c ****     {
 234:Generated_Source\PSoC4/ADC.c ****         tmpRegVal = (ADC_channelsConfig[chNum] & ADC_CHANNEL_CONFIG_MASK);
 208              		.loc 1 234 0
 209 00ae 674B     		ldr	r3, .L21+84
 210 00b0 FA68     		ldr	r2, [r7, #12]
 211 00b2 9200     		lsls	r2, r2, #2
 212 00b4 D258     		ldr	r2, [r2, r3]
 213 00b6 DC23     		movs	r3, #220
 214 00b8 9B01     		lsls	r3, r3, #6
 215 00ba 1340     		ands	r3, r2
 216 00bc 7B60     		str	r3, [r7, #4]
 235:Generated_Source\PSoC4/ADC.c ****         #if(ADC_TOTAL_CHANNELS_NUM > 1u)
 236:Generated_Source\PSoC4/ADC.c ****             tmpRegVal |= ADC_InputsPlacement[chNum];
ARM GAS  C:\Users\User\AppData\Local\Temp\ccuDfRLx.s 			page 9


 217              		.loc 1 236 0
 218 00be 644A     		ldr	r2, .L21+88
 219 00c0 FB68     		ldr	r3, [r7, #12]
 220 00c2 D318     		adds	r3, r2, r3
 221 00c4 1B78     		ldrb	r3, [r3]
 222 00c6 1A00     		movs	r2, r3
 223 00c8 7B68     		ldr	r3, [r7, #4]
 224 00ca 1343     		orrs	r3, r2
 225 00cc 7B60     		str	r3, [r7, #4]
 237:Generated_Source\PSoC4/ADC.c ****         #endif /* End ADC_TOTAL_CHANNELS_NUM > 1u */
 238:Generated_Source\PSoC4/ADC.c ****         
 239:Generated_Source\PSoC4/ADC.c ****         
 240:Generated_Source\PSoC4/ADC.c ****         /* When the part is limited to 10-bit then the SUB_RESOLUTION bit
 241:Generated_Source\PSoC4/ADC.c ****         *  will be ignored and the RESOLUTION bit selects between 10-bit
 242:Generated_Source\PSoC4/ADC.c ****         *  (0) and 8-bit (1) resolution.
 243:Generated_Source\PSoC4/ADC.c ****         */
 244:Generated_Source\PSoC4/ADC.c ****         #if((ADC_MAX_RESOLUTION != ADC_RESOLUTION_12) && \
 245:Generated_Source\PSoC4/ADC.c ****             (ADC_ALT_WOUNDING == ADC_WOUNDING_10BIT))
 246:Generated_Source\PSoC4/ADC.c ****             tmpRegVal &= (uint32)(~ADC_ALT_RESOLUTION_ON);
 247:Generated_Source\PSoC4/ADC.c ****         #endif /* ADC_MAX_RESOLUTION != ADC_RESOLUTION_12 */
 248:Generated_Source\PSoC4/ADC.c **** 
 249:Generated_Source\PSoC4/ADC.c ****         #if(ADC_INJ_CHANNEL_ENABLED)
 250:Generated_Source\PSoC4/ADC.c ****         if(chNum < ADC_SEQUENCED_CHANNELS_NUM)
 226              		.loc 1 250 0
 227 00ce FB68     		ldr	r3, [r7, #12]
 228 00d0 002B     		cmp	r3, #0
 229 00d2 2BD1     		bne	.L9
 251:Generated_Source\PSoC4/ADC.c ****         #endif /* ADC_INJ_CHANNEL_ENABLED */
 252:Generated_Source\PSoC4/ADC.c ****         {
 253:Generated_Source\PSoC4/ADC.c ****             CY_SET_REG32((reg32 *)(ADC_SAR_CHAN_CONFIG_IND + (uint32)(chNum << 2)), tmpRegVal);
 230              		.loc 1 253 0
 231 00d4 FB68     		ldr	r3, [r7, #12]
 232 00d6 9B00     		lsls	r3, r3, #2
 233 00d8 5E4A     		ldr	r2, .L21+92
 234 00da 9446     		mov	ip, r2
 235 00dc 6344     		add	r3, r3, ip
 236 00de 7A68     		ldr	r2, [r7, #4]
 237 00e0 1A60     		str	r2, [r3]
 254:Generated_Source\PSoC4/ADC.c **** 
 255:Generated_Source\PSoC4/ADC.c ****             if((ADC_channelsConfig[chNum] & ADC_IS_SATURATE_EN_MASK) != 0u)
 238              		.loc 1 255 0
 239 00e2 5A4B     		ldr	r3, .L21+84
 240 00e4 FA68     		ldr	r2, [r7, #12]
 241 00e6 9200     		lsls	r2, r2, #2
 242 00e8 D358     		ldr	r3, [r2, r3]
 243 00ea 0122     		movs	r2, #1
 244 00ec 1340     		ands	r3, r2
 245 00ee 0AD0     		beq	.L10
 256:Generated_Source\PSoC4/ADC.c ****             {
 257:Generated_Source\PSoC4/ADC.c ****                 ADC_SAR_SATURATE_INTR_MASK_REG |= (uint16)((uint16)1 << chNum);
 246              		.loc 1 257 0
 247 00f0 514B     		ldr	r3, .L21+64
 248 00f2 514A     		ldr	r2, .L21+64
 249 00f4 1168     		ldr	r1, [r2]
 250 00f6 0120     		movs	r0, #1
 251 00f8 FA68     		ldr	r2, [r7, #12]
 252 00fa 9040     		lsls	r0, r0, r2
ARM GAS  C:\Users\User\AppData\Local\Temp\ccuDfRLx.s 			page 10


 253 00fc 0200     		movs	r2, r0
 254 00fe 1204     		lsls	r2, r2, #16
 255 0100 120C     		lsrs	r2, r2, #16
 256 0102 0A43     		orrs	r2, r1
 257 0104 1A60     		str	r2, [r3]
 258              	.L10:
 258:Generated_Source\PSoC4/ADC.c ****             }
 259:Generated_Source\PSoC4/ADC.c **** 
 260:Generated_Source\PSoC4/ADC.c ****             if((ADC_channelsConfig[chNum] & ADC_IS_RANGE_CTRL_EN_MASK) != 0u)
 259              		.loc 1 260 0
 260 0106 514B     		ldr	r3, .L21+84
 261 0108 FA68     		ldr	r2, [r7, #12]
 262 010a 9200     		lsls	r2, r2, #2
 263 010c D358     		ldr	r3, [r2, r3]
 264 010e 0222     		movs	r2, #2
 265 0110 1340     		ands	r3, r2
 266 0112 2BD0     		beq	.L12
 261:Generated_Source\PSoC4/ADC.c ****             {
 262:Generated_Source\PSoC4/ADC.c ****                 ADC_SAR_RANGE_INTR_MASK_REG |= (uint16)((uint16)1 << chNum);
 267              		.loc 1 262 0
 268 0114 494B     		ldr	r3, .L21+68
 269 0116 494A     		ldr	r2, .L21+68
 270 0118 1168     		ldr	r1, [r2]
 271 011a 0120     		movs	r0, #1
 272 011c FA68     		ldr	r2, [r7, #12]
 273 011e 9040     		lsls	r0, r0, r2
 274 0120 0200     		movs	r2, r0
 275 0122 1204     		lsls	r2, r2, #16
 276 0124 120C     		lsrs	r2, r2, #16
 277 0126 0A43     		orrs	r2, r1
 278 0128 1A60     		str	r2, [r3]
 279 012a 1FE0     		b	.L12
 280              	.L9:
 263:Generated_Source\PSoC4/ADC.c ****             }
 264:Generated_Source\PSoC4/ADC.c ****         }
 265:Generated_Source\PSoC4/ADC.c ****         #if(ADC_INJ_CHANNEL_ENABLED)
 266:Generated_Source\PSoC4/ADC.c ****             else
 267:Generated_Source\PSoC4/ADC.c ****             {
 268:Generated_Source\PSoC4/ADC.c ****                 CY_SET_REG32(ADC_SAR_INJ_CHAN_CONFIG_PTR, tmpRegVal | ADC_INJ_TAILGATING);
 281              		.loc 1 268 0
 282 012c 4A4B     		ldr	r3, .L21+96
 283 012e 7A68     		ldr	r2, [r7, #4]
 284 0130 8021     		movs	r1, #128
 285 0132 C905     		lsls	r1, r1, #23
 286 0134 0A43     		orrs	r2, r1
 287 0136 1A60     		str	r2, [r3]
 269:Generated_Source\PSoC4/ADC.c **** 
 270:Generated_Source\PSoC4/ADC.c ****                 if((ADC_channelsConfig[chNum] & ADC_IS_SATURATE_EN_MASK) != 0u)
 288              		.loc 1 270 0
 289 0138 444B     		ldr	r3, .L21+84
 290 013a FA68     		ldr	r2, [r7, #12]
 291 013c 9200     		lsls	r2, r2, #2
 292 013e D358     		ldr	r3, [r2, r3]
 293 0140 0122     		movs	r2, #1
 294 0142 1340     		ands	r3, r2
 295 0144 05D0     		beq	.L13
 271:Generated_Source\PSoC4/ADC.c ****                 {
ARM GAS  C:\Users\User\AppData\Local\Temp\ccuDfRLx.s 			page 11


 272:Generated_Source\PSoC4/ADC.c ****                     ADC_SAR_INTR_MASK_REG |= ADC_INJ_SATURATE_MASK;
 296              		.loc 1 272 0
 297 0146 3E4B     		ldr	r3, .L21+72
 298 0148 3D4A     		ldr	r2, .L21+72
 299 014a 1268     		ldr	r2, [r2]
 300 014c 2021     		movs	r1, #32
 301 014e 0A43     		orrs	r2, r1
 302 0150 1A60     		str	r2, [r3]
 303              	.L13:
 273:Generated_Source\PSoC4/ADC.c ****                 }
 274:Generated_Source\PSoC4/ADC.c **** 
 275:Generated_Source\PSoC4/ADC.c ****                 if((ADC_channelsConfig[chNum] & ADC_IS_RANGE_CTRL_EN_MASK) != 0u)
 304              		.loc 1 275 0
 305 0152 3E4B     		ldr	r3, .L21+84
 306 0154 FA68     		ldr	r2, [r7, #12]
 307 0156 9200     		lsls	r2, r2, #2
 308 0158 D358     		ldr	r3, [r2, r3]
 309 015a 0222     		movs	r2, #2
 310 015c 1340     		ands	r3, r2
 311 015e 05D0     		beq	.L12
 276:Generated_Source\PSoC4/ADC.c ****                 {
 277:Generated_Source\PSoC4/ADC.c ****                     ADC_SAR_INTR_MASK_REG |= ADC_INJ_RANGE_MASK;
 312              		.loc 1 277 0
 313 0160 374B     		ldr	r3, .L21+72
 314 0162 374A     		ldr	r2, .L21+72
 315 0164 1268     		ldr	r2, [r2]
 316 0166 4021     		movs	r1, #64
 317 0168 0A43     		orrs	r2, r1
 318 016a 1A60     		str	r2, [r3]
 319              	.L12:
 278:Generated_Source\PSoC4/ADC.c ****                 }
 279:Generated_Source\PSoC4/ADC.c ****             }
 280:Generated_Source\PSoC4/ADC.c ****         #endif /* ADC_INJ_CHANNEL_ENABLED */
 281:Generated_Source\PSoC4/ADC.c **** 
 282:Generated_Source\PSoC4/ADC.c ****         if((ADC_channelsConfig[chNum] & ADC_ALT_RESOLUTION_ON) != 0u)
 320              		.loc 1 282 0
 321 016c 374B     		ldr	r3, .L21+84
 322 016e FA68     		ldr	r2, [r7, #12]
 323 0170 9200     		lsls	r2, r2, #2
 324 0172 D258     		ldr	r2, [r2, r3]
 325 0174 8023     		movs	r3, #128
 326 0176 9B00     		lsls	r3, r3, #2
 327 0178 1340     		ands	r3, r2
 328 017a 03D0     		beq	.L14
 283:Generated_Source\PSoC4/ADC.c ****         {
 284:Generated_Source\PSoC4/ADC.c ****                counts = (int32)ADC_DEFAULT_MAX_WRK_ALT;
 329              		.loc 1 284 0
 330 017c 8023     		movs	r3, #128
 331 017e 5B00     		lsls	r3, r3, #1
 332 0180 BB60     		str	r3, [r7, #8]
 333 0182 02E0     		b	.L15
 334              	.L14:
 285:Generated_Source\PSoC4/ADC.c ****         }
 286:Generated_Source\PSoC4/ADC.c ****         else
 287:Generated_Source\PSoC4/ADC.c ****         {
 288:Generated_Source\PSoC4/ADC.c ****                counts = (int32)ADC_SAR_WRK_MAX_12BIT;
 335              		.loc 1 288 0
ARM GAS  C:\Users\User\AppData\Local\Temp\ccuDfRLx.s 			page 12


 336 0184 8023     		movs	r3, #128
 337 0186 5B01     		lsls	r3, r3, #5
 338 0188 BB60     		str	r3, [r7, #8]
 339              	.L15:
 289:Generated_Source\PSoC4/ADC.c ****         }
 290:Generated_Source\PSoC4/ADC.c **** 
 291:Generated_Source\PSoC4/ADC.c ****         if((ADC_channelsConfig[chNum] & ADC_DIFFERENTIAL_EN) == 0u)
 340              		.loc 1 291 0
 341 018a 304B     		ldr	r3, .L21+84
 342 018c FA68     		ldr	r2, [r7, #12]
 343 018e 9200     		lsls	r2, r2, #2
 344 0190 D258     		ldr	r2, [r2, r3]
 345 0192 8023     		movs	r3, #128
 346 0194 5B00     		lsls	r3, r3, #1
 347 0196 1340     		ands	r3, r2
 348 0198 05D1     		bne	.L16
 292:Generated_Source\PSoC4/ADC.c ****         {
 293:Generated_Source\PSoC4/ADC.c ****             #if((ADC_DEFAULT_SE_RESULT_FORMAT_SEL == ADC__FSIGNED) && \
 294:Generated_Source\PSoC4/ADC.c ****                 (ADC_DEFAULT_NEG_INPUT_SEL == ADC__VREF))
 295:Generated_Source\PSoC4/ADC.c ****                 /* Set offset to the minus half scale to convert results to unsigned format */
 296:Generated_Source\PSoC4/ADC.c ****                 ADC_offset[chNum] = (int16)(counts / -2);
 297:Generated_Source\PSoC4/ADC.c ****             #else
 298:Generated_Source\PSoC4/ADC.c ****                 ADC_offset[chNum] = 0;
 349              		.loc 1 298 0
 350 019a 304B     		ldr	r3, .L21+100
 351 019c FA68     		ldr	r2, [r7, #12]
 352 019e 5200     		lsls	r2, r2, #1
 353 01a0 0021     		movs	r1, #0
 354 01a2 D152     		strh	r1, [r2, r3]
 355 01a4 09E0     		b	.L17
 356              	.L16:
 299:Generated_Source\PSoC4/ADC.c ****             #endif /* end DEFAULT_SE_RESULT_FORMAT_SEL == ADC__FSIGNED */
 300:Generated_Source\PSoC4/ADC.c ****         }
 301:Generated_Source\PSoC4/ADC.c ****         else    /* Differential channel */
 302:Generated_Source\PSoC4/ADC.c ****         {
 303:Generated_Source\PSoC4/ADC.c ****             #if(ADC_DEFAULT_DIFF_RESULT_FORMAT_SEL == ADC__FUNSIGNED)
 304:Generated_Source\PSoC4/ADC.c ****                 /* Set offset to the half scale to convert results to signed format */
 305:Generated_Source\PSoC4/ADC.c ****                 ADC_offset[chNum] = (int16)(counts / 2);
 357              		.loc 1 305 0
 358 01a6 BB68     		ldr	r3, [r7, #8]
 359 01a8 002B     		cmp	r3, #0
 360 01aa 00DA     		bge	.L18
 361 01ac 0133     		adds	r3, r3, #1
 362              	.L18:
 363 01ae 5B10     		asrs	r3, r3, #1
 364 01b0 19B2     		sxth	r1, r3
 365 01b2 2A4B     		ldr	r3, .L21+100
 366 01b4 FA68     		ldr	r2, [r7, #12]
 367 01b6 5200     		lsls	r2, r2, #1
 368 01b8 D152     		strh	r1, [r2, r3]
 369              	.L17:
 306:Generated_Source\PSoC4/ADC.c ****             #else
 307:Generated_Source\PSoC4/ADC.c ****                 ADC_offset[chNum] = 0;
 308:Generated_Source\PSoC4/ADC.c ****             #endif /* end ADC_DEFAULT_DIFF_RESULT_FORMAT_SEL == ADC__FUNSIGNED */
 309:Generated_Source\PSoC4/ADC.c ****         }
 310:Generated_Source\PSoC4/ADC.c ****         /* Calculate gain in counts per 10 volts with rounding */
 311:Generated_Source\PSoC4/ADC.c ****         ADC_countsPer10Volt[chNum] = (int16)(((counts * ADC_10MV_COUNTS) +
ARM GAS  C:\Users\User\AppData\Local\Temp\ccuDfRLx.s 			page 13


 370              		.loc 1 311 0 discriminator 2
 371 01ba BB68     		ldr	r3, [r7, #8]
 372 01bc 284A     		ldr	r2, .L21+104
 373 01be 5343     		muls	r3, r2
 374 01c0 8022     		movs	r2, #128
 375 01c2 D200     		lsls	r2, r2, #3
 376 01c4 9446     		mov	ip, r2
 377 01c6 6344     		add	r3, r3, ip
 312:Generated_Source\PSoC4/ADC.c ****                             ADC_DEFAULT_VREF_MV_VALUE) / (ADC_DEFAULT_VREF_MV_VALUE * 2));
 378              		.loc 1 312 0 discriminator 2
 379 01c8 002B     		cmp	r3, #0
 380 01ca 02DA     		bge	.L19
 381 01cc 254A     		ldr	r2, .L21+108
 382 01ce 9446     		mov	ip, r2
 383 01d0 6344     		add	r3, r3, ip
 384              	.L19:
 385 01d2 DB12     		asrs	r3, r3, #11
 311:Generated_Source\PSoC4/ADC.c ****                             ADC_DEFAULT_VREF_MV_VALUE) / (ADC_DEFAULT_VREF_MV_VALUE * 2));
 386              		.loc 1 311 0 discriminator 2
 387 01d4 1BB2     		sxth	r3, r3
 388 01d6 1900     		movs	r1, r3
 389 01d8 234B     		ldr	r3, .L21+112
 390 01da FA68     		ldr	r2, [r7, #12]
 391 01dc 9200     		lsls	r2, r2, #2
 392 01de D150     		str	r1, [r2, r3]
 232:Generated_Source\PSoC4/ADC.c ****     {
 393              		.loc 1 232 0 discriminator 2
 394 01e0 FB68     		ldr	r3, [r7, #12]
 395 01e2 0133     		adds	r3, r3, #1
 396 01e4 FB60     		str	r3, [r7, #12]
 397              	.L8:
 232:Generated_Source\PSoC4/ADC.c ****     {
 398              		.loc 1 232 0 is_stmt 0 discriminator 1
 399 01e6 FB68     		ldr	r3, [r7, #12]
 400 01e8 012B     		cmp	r3, #1
 401 01ea 00D8     		bhi	.LCB326
 402 01ec 5FE7     		b	.L20	@long jump
 403              	.LCB326:
 313:Generated_Source\PSoC4/ADC.c ****     }
 314:Generated_Source\PSoC4/ADC.c **** }
 404              		.loc 1 314 0 is_stmt 1
 405 01ee C046     		nop
 406 01f0 BD46     		mov	sp, r7
 407 01f2 04B0     		add	sp, sp, #16
 408              		@ sp needed
 409 01f4 80BD     		pop	{r7, pc}
 410              	.L22:
 411 01f6 C046     		.align	2
 412              	.L21:
 413 01f8 00000000 		.word	ADC_ISR
 414 01fc 20003A40 		.word	1077542944
 415 0200 80033A40 		.word	1077543808
 416 0204 C0201013 		.word	319824064
 417 0208 C0200013 		.word	318775488
 418 020c 00003A40 		.word	1077542912
 419 0210 04003A40 		.word	1077542916
 420 0214 C4000A80 		.word	-2146828092
ARM GAS  C:\Users\User\AppData\Local\Temp\ccuDfRLx.s 			page 14


 421 0218 18003A40 		.word	1077542936
 422 021c 0000FF07 		.word	134152192
 423 0220 1C003A40 		.word	1077542940
 424 0224 10003A40 		.word	1077542928
 425 0228 02000200 		.word	131074
 426 022c 14003A40 		.word	1077542932
 427 0230 00033A40 		.word	1077543680
 428 0234 40033A40 		.word	1077543744
 429 0238 28023A40 		.word	1077543464
 430 023c 38023A40 		.word	1077543480
 431 0240 18023A40 		.word	1077543448
 432 0244 30003A40 		.word	1077542960
 433 0248 FFFFFFDF 		.word	-536870913
 434 024c 00000000 		.word	ADC_channelsConfig
 435 0250 08000000 		.word	ADC_InputsPlacement.4922
 436 0254 80003A40 		.word	1077543040
 437 0258 80023A40 		.word	1077543552
 438 025c 00000000 		.word	ADC_offset
 439 0260 10270000 		.word	10000
 440 0264 FF070000 		.word	2047
 441 0268 00000000 		.word	ADC_countsPer10Volt
 442              		.cfi_endproc
 443              	.LFE3:
 444              		.size	ADC_Init, .-ADC_Init
 445              		.section	.text.ADC_Enable,"ax",%progbits
 446              		.align	2
 447              		.global	ADC_Enable
 448              		.code	16
 449              		.thumb_func
 450              		.type	ADC_Enable, %function
 451              	ADC_Enable:
 452              	.LFB4:
 315:Generated_Source\PSoC4/ADC.c **** 
 316:Generated_Source\PSoC4/ADC.c **** /*******************************************************************************
 317:Generated_Source\PSoC4/ADC.c **** * Function Name: ADC_SAR_1_Enable
 318:Generated_Source\PSoC4/ADC.c **** ********************************************************************************
 319:Generated_Source\PSoC4/ADC.c **** *
 320:Generated_Source\PSoC4/ADC.c **** * Summary:
 321:Generated_Source\PSoC4/ADC.c **** *  Enables the clock and analog power for SAR ADC.
 322:Generated_Source\PSoC4/ADC.c **** *
 323:Generated_Source\PSoC4/ADC.c **** * Parameters:
 324:Generated_Source\PSoC4/ADC.c **** *  None.
 325:Generated_Source\PSoC4/ADC.c **** *
 326:Generated_Source\PSoC4/ADC.c **** * Return:
 327:Generated_Source\PSoC4/ADC.c **** *  None.
 328:Generated_Source\PSoC4/ADC.c **** *
 329:Generated_Source\PSoC4/ADC.c **** *******************************************************************************/
 330:Generated_Source\PSoC4/ADC.c **** void ADC_Enable(void)
 331:Generated_Source\PSoC4/ADC.c **** {
 453              		.loc 1 331 0
 454              		.cfi_startproc
 455              		@ args = 0, pretend = 0, frame = 0
 456              		@ frame_needed = 1, uses_anonymous_args = 0
 457 0000 80B5     		push	{r7, lr}
 458              		.cfi_def_cfa_offset 8
 459              		.cfi_offset 7, -8
 460              		.cfi_offset 14, -4
ARM GAS  C:\Users\User\AppData\Local\Temp\ccuDfRLx.s 			page 15


 461 0002 00AF     		add	r7, sp, #0
 462              		.cfi_def_cfa_register 7
 332:Generated_Source\PSoC4/ADC.c ****     if (0u == (ADC_SAR_CTRL_REG & ADC_ENABLE))
 463              		.loc 1 332 0
 464 0004 0A4B     		ldr	r3, .L27
 465 0006 1B68     		ldr	r3, [r3]
 466 0008 002B     		cmp	r3, #0
 467 000a 0EDB     		blt	.L26
 333:Generated_Source\PSoC4/ADC.c ****     {
 334:Generated_Source\PSoC4/ADC.c ****         #if(ADC_CY_SAR_IP_VER != ADC_CY_SAR_IP_VER0)
 335:Generated_Source\PSoC4/ADC.c **** 
 336:Generated_Source\PSoC4/ADC.c ****             while (0u != (ADC_SAR_STATUS_REG & ADC_STATUS_BUSY))
 468              		.loc 1 336 0
 469 000c C046     		nop
 470              	.L25:
 471              		.loc 1 336 0 is_stmt 0 discriminator 1
 472 000e 094B     		ldr	r3, .L27+4
 473 0010 1B68     		ldr	r3, [r3]
 474 0012 002B     		cmp	r3, #0
 475 0014 FBDB     		blt	.L25
 337:Generated_Source\PSoC4/ADC.c ****             {
 338:Generated_Source\PSoC4/ADC.c ****                 /* wait for SAR to go idle to avoid deadlock */
 339:Generated_Source\PSoC4/ADC.c ****             }
 340:Generated_Source\PSoC4/ADC.c ****         #endif /* (ADC_CY_SAR_IP_VER != ADC_CY_SAR_IP_VER0) */
 341:Generated_Source\PSoC4/ADC.c ****         
 342:Generated_Source\PSoC4/ADC.c ****         ADC_SAR_CTRL_REG |= ADC_ENABLE;
 476              		.loc 1 342 0 is_stmt 1
 477 0016 064B     		ldr	r3, .L27
 478 0018 054A     		ldr	r2, .L27
 479 001a 1268     		ldr	r2, [r2]
 480 001c 8021     		movs	r1, #128
 481 001e 0906     		lsls	r1, r1, #24
 482 0020 0A43     		orrs	r2, r1
 483 0022 1A60     		str	r2, [r3]
 343:Generated_Source\PSoC4/ADC.c ****         
 344:Generated_Source\PSoC4/ADC.c ****         /* The block is ready to use 10 us after the enable signal is set high. */
 345:Generated_Source\PSoC4/ADC.c ****         CyDelayUs(ADC_10US_DELAY);         
 484              		.loc 1 345 0
 485 0024 0A20     		movs	r0, #10
 486 0026 FFF7FEFF 		bl	CyDelayUs
 487              	.L26:
 346:Generated_Source\PSoC4/ADC.c ****     }
 347:Generated_Source\PSoC4/ADC.c **** }
 488              		.loc 1 347 0
 489 002a C046     		nop
 490 002c BD46     		mov	sp, r7
 491              		@ sp needed
 492 002e 80BD     		pop	{r7, pc}
 493              	.L28:
 494              		.align	2
 495              	.L27:
 496 0030 00003A40 		.word	1077542912
 497 0034 08023A40 		.word	1077543432
 498              		.cfi_endproc
 499              	.LFE4:
 500              		.size	ADC_Enable, .-ADC_Enable
 501              		.section	.text.ADC_Stop,"ax",%progbits
ARM GAS  C:\Users\User\AppData\Local\Temp\ccuDfRLx.s 			page 16


 502              		.align	2
 503              		.global	ADC_Stop
 504              		.code	16
 505              		.thumb_func
 506              		.type	ADC_Stop, %function
 507              	ADC_Stop:
 508              	.LFB5:
 348:Generated_Source\PSoC4/ADC.c **** 
 349:Generated_Source\PSoC4/ADC.c **** 
 350:Generated_Source\PSoC4/ADC.c **** /*******************************************************************************
 351:Generated_Source\PSoC4/ADC.c **** * Function Name: ADC_Stop
 352:Generated_Source\PSoC4/ADC.c **** ********************************************************************************
 353:Generated_Source\PSoC4/ADC.c **** *
 354:Generated_Source\PSoC4/ADC.c **** * Summary:
 355:Generated_Source\PSoC4/ADC.c **** *  This function stops ADC conversions and puts the ADC into its lowest power
 356:Generated_Source\PSoC4/ADC.c **** *  mode.
 357:Generated_Source\PSoC4/ADC.c **** *
 358:Generated_Source\PSoC4/ADC.c **** * Parameters:
 359:Generated_Source\PSoC4/ADC.c **** *  None.
 360:Generated_Source\PSoC4/ADC.c **** *
 361:Generated_Source\PSoC4/ADC.c **** * Return:
 362:Generated_Source\PSoC4/ADC.c **** *  None.
 363:Generated_Source\PSoC4/ADC.c **** *
 364:Generated_Source\PSoC4/ADC.c **** *******************************************************************************/
 365:Generated_Source\PSoC4/ADC.c **** void ADC_Stop(void)
 366:Generated_Source\PSoC4/ADC.c **** {
 509              		.loc 1 366 0
 510              		.cfi_startproc
 511              		@ args = 0, pretend = 0, frame = 0
 512              		@ frame_needed = 1, uses_anonymous_args = 0
 513 0000 80B5     		push	{r7, lr}
 514              		.cfi_def_cfa_offset 8
 515              		.cfi_offset 7, -8
 516              		.cfi_offset 14, -4
 517 0002 00AF     		add	r7, sp, #0
 518              		.cfi_def_cfa_register 7
 367:Generated_Source\PSoC4/ADC.c ****     ADC_SAR_CTRL_REG &= (uint32)~ADC_ENABLE;
 519              		.loc 1 367 0
 520 0004 044B     		ldr	r3, .L30
 521 0006 044A     		ldr	r2, .L30
 522 0008 1268     		ldr	r2, [r2]
 523 000a 5200     		lsls	r2, r2, #1
 524 000c 5208     		lsrs	r2, r2, #1
 525 000e 1A60     		str	r2, [r3]
 368:Generated_Source\PSoC4/ADC.c **** }
 526              		.loc 1 368 0
 527 0010 C046     		nop
 528 0012 BD46     		mov	sp, r7
 529              		@ sp needed
 530 0014 80BD     		pop	{r7, pc}
 531              	.L31:
 532 0016 C046     		.align	2
 533              	.L30:
 534 0018 00003A40 		.word	1077542912
 535              		.cfi_endproc
 536              	.LFE5:
 537              		.size	ADC_Stop, .-ADC_Stop
ARM GAS  C:\Users\User\AppData\Local\Temp\ccuDfRLx.s 			page 17


 538              		.section	.text.ADC_StartConvert,"ax",%progbits
 539              		.align	2
 540              		.global	ADC_StartConvert
 541              		.code	16
 542              		.thumb_func
 543              		.type	ADC_StartConvert, %function
 544              	ADC_StartConvert:
 545              	.LFB6:
 369:Generated_Source\PSoC4/ADC.c **** 
 370:Generated_Source\PSoC4/ADC.c **** 
 371:Generated_Source\PSoC4/ADC.c **** /*******************************************************************************
 372:Generated_Source\PSoC4/ADC.c **** * Function Name: ADC_StartConvert
 373:Generated_Source\PSoC4/ADC.c **** ********************************************************************************
 374:Generated_Source\PSoC4/ADC.c **** *
 375:Generated_Source\PSoC4/ADC.c **** * Summary:
 376:Generated_Source\PSoC4/ADC.c **** *  Description:
 377:Generated_Source\PSoC4/ADC.c **** *  For free running mode, this API starts the conversion process and it
 378:Generated_Source\PSoC4/ADC.c **** *  runs continuously.
 379:Generated_Source\PSoC4/ADC.c **** *
 380:Generated_Source\PSoC4/ADC.c **** *  In a triggered mode, this routine triggers every conversion by
 381:Generated_Source\PSoC4/ADC.c **** *  writing into the FW_TRIGGER bit in SAR_START_CTRL reg. In triggered mode,
 382:Generated_Source\PSoC4/ADC.c **** *  every conversion has to start by this API.
 383:Generated_Source\PSoC4/ADC.c **** *
 384:Generated_Source\PSoC4/ADC.c **** * Parameters:
 385:Generated_Source\PSoC4/ADC.c **** *  None.
 386:Generated_Source\PSoC4/ADC.c **** *
 387:Generated_Source\PSoC4/ADC.c **** * Return:
 388:Generated_Source\PSoC4/ADC.c **** *  None.
 389:Generated_Source\PSoC4/ADC.c **** *
 390:Generated_Source\PSoC4/ADC.c **** *******************************************************************************/
 391:Generated_Source\PSoC4/ADC.c **** void ADC_StartConvert(void)
 392:Generated_Source\PSoC4/ADC.c **** {
 546              		.loc 1 392 0
 547              		.cfi_startproc
 548              		@ args = 0, pretend = 0, frame = 0
 549              		@ frame_needed = 1, uses_anonymous_args = 0
 550 0000 80B5     		push	{r7, lr}
 551              		.cfi_def_cfa_offset 8
 552              		.cfi_offset 7, -8
 553              		.cfi_offset 14, -4
 554 0002 00AF     		add	r7, sp, #0
 555              		.cfi_def_cfa_register 7
 393:Generated_Source\PSoC4/ADC.c ****     #if(ADC_DEFAULT_SAMPLE_MODE_SEL == ADC__FREERUNNING)
 394:Generated_Source\PSoC4/ADC.c ****         ADC_SAR_SAMPLE_CTRL_REG |= ADC_CONTINUOUS_EN;
 395:Generated_Source\PSoC4/ADC.c ****     #else /* Firmware trigger */
 396:Generated_Source\PSoC4/ADC.c ****         ADC_SAR_START_CTRL_REG = ADC_FW_TRIGGER;
 556              		.loc 1 396 0
 557 0004 024B     		ldr	r3, .L33
 558 0006 0122     		movs	r2, #1
 559 0008 1A60     		str	r2, [r3]
 397:Generated_Source\PSoC4/ADC.c ****     #endif /* End ADC_DEFAULT_SAMPLE_MODE == ADC__FREERUNNING */
 398:Generated_Source\PSoC4/ADC.c **** 
 399:Generated_Source\PSoC4/ADC.c **** }
 560              		.loc 1 399 0
 561 000a C046     		nop
 562 000c BD46     		mov	sp, r7
 563              		@ sp needed
ARM GAS  C:\Users\User\AppData\Local\Temp\ccuDfRLx.s 			page 18


 564 000e 80BD     		pop	{r7, pc}
 565              	.L34:
 566              		.align	2
 567              	.L33:
 568 0010 24003A40 		.word	1077542948
 569              		.cfi_endproc
 570              	.LFE6:
 571              		.size	ADC_StartConvert, .-ADC_StartConvert
 572              		.section	.text.ADC_StopConvert,"ax",%progbits
 573              		.align	2
 574              		.global	ADC_StopConvert
 575              		.code	16
 576              		.thumb_func
 577              		.type	ADC_StopConvert, %function
 578              	ADC_StopConvert:
 579              	.LFB7:
 400:Generated_Source\PSoC4/ADC.c **** 
 401:Generated_Source\PSoC4/ADC.c **** 
 402:Generated_Source\PSoC4/ADC.c **** /*******************************************************************************
 403:Generated_Source\PSoC4/ADC.c **** * Function Name: ADC_StopConvert
 404:Generated_Source\PSoC4/ADC.c **** ********************************************************************************
 405:Generated_Source\PSoC4/ADC.c **** *
 406:Generated_Source\PSoC4/ADC.c **** * Summary:
 407:Generated_Source\PSoC4/ADC.c **** *  Forces the ADC to stop all conversions.
 408:Generated_Source\PSoC4/ADC.c **** *
 409:Generated_Source\PSoC4/ADC.c **** * Parameters:
 410:Generated_Source\PSoC4/ADC.c **** *  None.
 411:Generated_Source\PSoC4/ADC.c **** *
 412:Generated_Source\PSoC4/ADC.c **** * Return:
 413:Generated_Source\PSoC4/ADC.c **** *  None.
 414:Generated_Source\PSoC4/ADC.c **** *
 415:Generated_Source\PSoC4/ADC.c **** *******************************************************************************/
 416:Generated_Source\PSoC4/ADC.c **** void ADC_StopConvert(void)
 417:Generated_Source\PSoC4/ADC.c **** {
 580              		.loc 1 417 0
 581              		.cfi_startproc
 582              		@ args = 0, pretend = 0, frame = 0
 583              		@ frame_needed = 1, uses_anonymous_args = 0
 584 0000 80B5     		push	{r7, lr}
 585              		.cfi_def_cfa_offset 8
 586              		.cfi_offset 7, -8
 587              		.cfi_offset 14, -4
 588 0002 00AF     		add	r7, sp, #0
 589              		.cfi_def_cfa_register 7
 418:Generated_Source\PSoC4/ADC.c ****     #if(ADC_DEFAULT_SAMPLE_MODE_SEL == ADC__FREERUNNING)
 419:Generated_Source\PSoC4/ADC.c ****         ADC_SAR_SAMPLE_CTRL_REG &= (uint32)(~ADC_CONTINUOUS_EN);
 420:Generated_Source\PSoC4/ADC.c ****     #endif /* ADC_DEFAULT_SAMPLE_MODE == ADC__FREERUNNING */
 421:Generated_Source\PSoC4/ADC.c **** }
 590              		.loc 1 421 0
 591 0004 C046     		nop
 592 0006 BD46     		mov	sp, r7
 593              		@ sp needed
 594 0008 80BD     		pop	{r7, pc}
 595              		.cfi_endproc
 596              	.LFE7:
 597              		.size	ADC_StopConvert, .-ADC_StopConvert
 598              		.section	.text.ADC_IsEndConversion,"ax",%progbits
ARM GAS  C:\Users\User\AppData\Local\Temp\ccuDfRLx.s 			page 19


 599              		.align	2
 600              		.global	ADC_IsEndConversion
 601              		.code	16
 602              		.thumb_func
 603              		.type	ADC_IsEndConversion, %function
 604              	ADC_IsEndConversion:
 605              	.LFB8:
 422:Generated_Source\PSoC4/ADC.c **** 
 423:Generated_Source\PSoC4/ADC.c **** 
 424:Generated_Source\PSoC4/ADC.c **** /*******************************************************************************
 425:Generated_Source\PSoC4/ADC.c **** * Function Name: ADC_IsEndConversion
 426:Generated_Source\PSoC4/ADC.c **** ********************************************************************************
 427:Generated_Source\PSoC4/ADC.c **** *
 428:Generated_Source\PSoC4/ADC.c **** * Summary:
 429:Generated_Source\PSoC4/ADC.c **** *  Description: Checks for ADC end of conversion for the case one
 430:Generated_Source\PSoC4/ADC.c **** *  channel and end of scan for the case of multiple channels. It acts
 431:Generated_Source\PSoC4/ADC.c **** *  as a software version of the EOC. This function provides the
 432:Generated_Source\PSoC4/ADC.c **** *  programmer with two options. In one mode this function
 433:Generated_Source\PSoC4/ADC.c **** *  immediately returns with the conversion status. In the other mode,
 434:Generated_Source\PSoC4/ADC.c **** *  the function does not return (blocking) until the conversion has
 435:Generated_Source\PSoC4/ADC.c **** *  completed.
 436:Generated_Source\PSoC4/ADC.c **** *
 437:Generated_Source\PSoC4/ADC.c **** * Parameters:
 438:Generated_Source\PSoC4/ADC.c **** *  ADC_RETURN_STATUS        -> Immediately returns conversion result status
 439:Generated_Source\PSoC4/ADC.c **** *  ADC_WAIT_FOR_RESULT      -> Does not return until ADC complete
 440:Generated_Source\PSoC4/ADC.c **** *  ADC_RETURN_STATUS_INJ    -> Immediately returns conversion result status
 441:Generated_Source\PSoC4/ADC.c **** *                              for injection channel
 442:Generated_Source\PSoC4/ADC.c **** *  ADC_WAIT_FOR_RESULT_INJ  -> Does not return until ADC completes injection
 443:Generated_Source\PSoC4/ADC.c **** *                              channel conversion
 444:Generated_Source\PSoC4/ADC.c **** *
 445:Generated_Source\PSoC4/ADC.c **** * Return:
 446:Generated_Source\PSoC4/ADC.c **** *  If a non-zero value is returned, the last conversion or scan has completed.
 447:Generated_Source\PSoC4/ADC.c **** *  If the returned value is zero, the ADC is still in the process of a scan.
 448:Generated_Source\PSoC4/ADC.c **** *
 449:Generated_Source\PSoC4/ADC.c **** *******************************************************************************/
 450:Generated_Source\PSoC4/ADC.c **** uint32 ADC_IsEndConversion(uint32 retMode)
 451:Generated_Source\PSoC4/ADC.c **** {
 606              		.loc 1 451 0
 607              		.cfi_startproc
 608              		@ args = 0, pretend = 0, frame = 16
 609              		@ frame_needed = 1, uses_anonymous_args = 0
 610 0000 80B5     		push	{r7, lr}
 611              		.cfi_def_cfa_offset 8
 612              		.cfi_offset 7, -8
 613              		.cfi_offset 14, -4
 614 0002 84B0     		sub	sp, sp, #16
 615              		.cfi_def_cfa_offset 24
 616 0004 00AF     		add	r7, sp, #0
 617              		.cfi_def_cfa_register 7
 618 0006 7860     		str	r0, [r7, #4]
 452:Generated_Source\PSoC4/ADC.c ****     uint32 status = 0u;
 619              		.loc 1 452 0
 620 0008 0023     		movs	r3, #0
 621 000a FB60     		str	r3, [r7, #12]
 453:Generated_Source\PSoC4/ADC.c **** 
 454:Generated_Source\PSoC4/ADC.c ****     if((retMode & (ADC_RETURN_STATUS | ADC_WAIT_FOR_RESULT)) != 0u)
 622              		.loc 1 454 0
ARM GAS  C:\Users\User\AppData\Local\Temp\ccuDfRLx.s 			page 20


 623 000c 7B68     		ldr	r3, [r7, #4]
 624 000e 0322     		movs	r2, #3
 625 0010 1340     		ands	r3, r2
 626 0012 11D0     		beq	.L37
 627              	.L39:
 455:Generated_Source\PSoC4/ADC.c ****     {
 456:Generated_Source\PSoC4/ADC.c ****         do
 457:Generated_Source\PSoC4/ADC.c ****         {
 458:Generated_Source\PSoC4/ADC.c ****             status = ADC_SAR_INTR_REG & ADC_EOS_MASK;
 628              		.loc 1 458 0 discriminator 2
 629 0014 184B     		ldr	r3, .L44
 630 0016 1B68     		ldr	r3, [r3]
 631 0018 0122     		movs	r2, #1
 632 001a 1340     		ands	r3, r2
 633 001c FB60     		str	r3, [r7, #12]
 459:Generated_Source\PSoC4/ADC.c ****         }while((status == 0u) && ((retMode & ADC_WAIT_FOR_RESULT) != 0u));
 634              		.loc 1 459 0 discriminator 2
 635 001e FB68     		ldr	r3, [r7, #12]
 636 0020 002B     		cmp	r3, #0
 637 0022 03D1     		bne	.L38
 638              		.loc 1 459 0 is_stmt 0 discriminator 1
 639 0024 7B68     		ldr	r3, [r7, #4]
 640 0026 0222     		movs	r2, #2
 641 0028 1340     		ands	r3, r2
 642 002a F3D1     		bne	.L39
 643              	.L38:
 460:Generated_Source\PSoC4/ADC.c **** 
 461:Generated_Source\PSoC4/ADC.c ****         if(status != 0u)
 644              		.loc 1 461 0 is_stmt 1
 645 002c FB68     		ldr	r3, [r7, #12]
 646 002e 002B     		cmp	r3, #0
 647 0030 02D0     		beq	.L37
 462:Generated_Source\PSoC4/ADC.c ****         {
 463:Generated_Source\PSoC4/ADC.c ****             /* Clear EOS bit */
 464:Generated_Source\PSoC4/ADC.c ****             ADC_SAR_INTR_REG = ADC_EOS_MASK;
 648              		.loc 1 464 0
 649 0032 114B     		ldr	r3, .L44
 650 0034 0122     		movs	r2, #1
 651 0036 1A60     		str	r2, [r3]
 652              	.L37:
 465:Generated_Source\PSoC4/ADC.c ****         }
 466:Generated_Source\PSoC4/ADC.c ****     }
 467:Generated_Source\PSoC4/ADC.c **** 
 468:Generated_Source\PSoC4/ADC.c ****     #if(ADC_INJ_CHANNEL_ENABLED)
 469:Generated_Source\PSoC4/ADC.c ****         if((retMode & (ADC_RETURN_STATUS_INJ | ADC_WAIT_FOR_RESULT_INJ)) != 0u)
 653              		.loc 1 469 0
 654 0038 7B68     		ldr	r3, [r7, #4]
 655 003a 0C22     		movs	r2, #12
 656 003c 1340     		ands	r3, r2
 657 003e 15D0     		beq	.L40
 658              	.L42:
 470:Generated_Source\PSoC4/ADC.c ****         {
 471:Generated_Source\PSoC4/ADC.c ****             do
 472:Generated_Source\PSoC4/ADC.c ****             {
 473:Generated_Source\PSoC4/ADC.c ****                 status |= ADC_SAR_INTR_REG & ADC_INJ_EOC_MASK;
 659              		.loc 1 473 0
 660 0040 0D4B     		ldr	r3, .L44
ARM GAS  C:\Users\User\AppData\Local\Temp\ccuDfRLx.s 			page 21


 661 0042 1B68     		ldr	r3, [r3]
 662 0044 1022     		movs	r2, #16
 663 0046 1340     		ands	r3, r2
 664 0048 FA68     		ldr	r2, [r7, #12]
 665 004a 1343     		orrs	r3, r2
 666 004c FB60     		str	r3, [r7, #12]
 474:Generated_Source\PSoC4/ADC.c ****             }while(((status & ADC_INJ_EOC_MASK) == 0u) &&
 667              		.loc 1 474 0
 668 004e FB68     		ldr	r3, [r7, #12]
 669 0050 1022     		movs	r2, #16
 670 0052 1340     		ands	r3, r2
 475:Generated_Source\PSoC4/ADC.c ****                    ((retMode & ADC_WAIT_FOR_RESULT_INJ) != 0u));
 671              		.loc 1 475 0
 672 0054 03D1     		bne	.L41
 673              		.loc 1 475 0 is_stmt 0 discriminator 1
 674 0056 7B68     		ldr	r3, [r7, #4]
 675 0058 0822     		movs	r2, #8
 676 005a 1340     		ands	r3, r2
 474:Generated_Source\PSoC4/ADC.c ****             }while(((status & ADC_INJ_EOC_MASK) == 0u) &&
 677              		.loc 1 474 0 is_stmt 1 discriminator 1
 678 005c F0D1     		bne	.L42
 679              	.L41:
 476:Generated_Source\PSoC4/ADC.c **** 
 477:Generated_Source\PSoC4/ADC.c ****             if((status & ADC_INJ_EOC_MASK) != 0u)
 680              		.loc 1 477 0
 681 005e FB68     		ldr	r3, [r7, #12]
 682 0060 1022     		movs	r2, #16
 683 0062 1340     		ands	r3, r2
 684 0064 02D0     		beq	.L40
 478:Generated_Source\PSoC4/ADC.c ****             {
 479:Generated_Source\PSoC4/ADC.c ****                 /* Clear Injection EOS bit */
 480:Generated_Source\PSoC4/ADC.c ****                 ADC_SAR_INTR_REG = ADC_INJ_EOC_MASK;
 685              		.loc 1 480 0
 686 0066 044B     		ldr	r3, .L44
 687 0068 1022     		movs	r2, #16
 688 006a 1A60     		str	r2, [r3]
 689              	.L40:
 481:Generated_Source\PSoC4/ADC.c ****             }
 482:Generated_Source\PSoC4/ADC.c ****         }
 483:Generated_Source\PSoC4/ADC.c ****     #endif /* ADC_INJ_CHANNEL_ENABLED */
 484:Generated_Source\PSoC4/ADC.c **** 
 485:Generated_Source\PSoC4/ADC.c ****     return (status);
 690              		.loc 1 485 0
 691 006c FB68     		ldr	r3, [r7, #12]
 486:Generated_Source\PSoC4/ADC.c **** }
 692              		.loc 1 486 0
 693 006e 1800     		movs	r0, r3
 694 0070 BD46     		mov	sp, r7
 695 0072 04B0     		add	sp, sp, #16
 696              		@ sp needed
 697 0074 80BD     		pop	{r7, pc}
 698              	.L45:
 699 0076 C046     		.align	2
 700              	.L44:
 701 0078 10023A40 		.word	1077543440
 702              		.cfi_endproc
 703              	.LFE8:
ARM GAS  C:\Users\User\AppData\Local\Temp\ccuDfRLx.s 			page 22


 704              		.size	ADC_IsEndConversion, .-ADC_IsEndConversion
 705              		.section	.text.ADC_GetResult16,"ax",%progbits
 706              		.align	2
 707              		.global	ADC_GetResult16
 708              		.code	16
 709              		.thumb_func
 710              		.type	ADC_GetResult16, %function
 711              	ADC_GetResult16:
 712              	.LFB9:
 487:Generated_Source\PSoC4/ADC.c **** 
 488:Generated_Source\PSoC4/ADC.c **** 
 489:Generated_Source\PSoC4/ADC.c **** /*******************************************************************************
 490:Generated_Source\PSoC4/ADC.c **** * Function Name: ADC_GetResult16
 491:Generated_Source\PSoC4/ADC.c **** ********************************************************************************
 492:Generated_Source\PSoC4/ADC.c **** *
 493:Generated_Source\PSoC4/ADC.c **** * Summary:
 494:Generated_Source\PSoC4/ADC.c **** *  Gets the data available in the SAR DATA register.
 495:Generated_Source\PSoC4/ADC.c **** *
 496:Generated_Source\PSoC4/ADC.c **** * Parameters:
 497:Generated_Source\PSoC4/ADC.c **** *  chan: The ADC channel in which to return the result. The first channel
 498:Generated_Source\PSoC4/ADC.c **** *  is 0 and the injection channel if enabled is the number of valid channels.
 499:Generated_Source\PSoC4/ADC.c **** *
 500:Generated_Source\PSoC4/ADC.c **** * Return:
 501:Generated_Source\PSoC4/ADC.c **** *  Returns converted data as a signed 16-bit integer
 502:Generated_Source\PSoC4/ADC.c **** *
 503:Generated_Source\PSoC4/ADC.c **** *******************************************************************************/
 504:Generated_Source\PSoC4/ADC.c **** int16 ADC_GetResult16(uint32 chan)
 505:Generated_Source\PSoC4/ADC.c **** {
 713              		.loc 1 505 0
 714              		.cfi_startproc
 715              		@ args = 0, pretend = 0, frame = 16
 716              		@ frame_needed = 1, uses_anonymous_args = 0
 717 0000 80B5     		push	{r7, lr}
 718              		.cfi_def_cfa_offset 8
 719              		.cfi_offset 7, -8
 720              		.cfi_offset 14, -4
 721 0002 84B0     		sub	sp, sp, #16
 722              		.cfi_def_cfa_offset 24
 723 0004 00AF     		add	r7, sp, #0
 724              		.cfi_def_cfa_register 7
 725 0006 7860     		str	r0, [r7, #4]
 506:Generated_Source\PSoC4/ADC.c ****     uint32 result;
 507:Generated_Source\PSoC4/ADC.c **** 
 508:Generated_Source\PSoC4/ADC.c ****     /* Halt CPU in debug mode if channel is out of valid range */
 509:Generated_Source\PSoC4/ADC.c ****     CYASSERT(chan < ADC_TOTAL_CHANNELS_NUM);
 726              		.loc 1 509 0
 727 0008 7B68     		ldr	r3, [r7, #4]
 728 000a 012B     		cmp	r3, #1
 729 000c 02D9     		bls	.L47
 730              		.loc 1 509 0 is_stmt 0 discriminator 1
 731 000e 0020     		movs	r0, #0
 732 0010 FFF7FEFF 		bl	CyHalt
 733              	.L47:
 510:Generated_Source\PSoC4/ADC.c **** 
 511:Generated_Source\PSoC4/ADC.c ****     if(chan < ADC_SEQUENCED_CHANNELS_NUM)
 734              		.loc 1 511 0 is_stmt 1
 735 0014 7B68     		ldr	r3, [r7, #4]
ARM GAS  C:\Users\User\AppData\Local\Temp\ccuDfRLx.s 			page 23


 736 0016 002B     		cmp	r3, #0
 737 0018 09D1     		bne	.L48
 512:Generated_Source\PSoC4/ADC.c ****     {
 513:Generated_Source\PSoC4/ADC.c ****         result = CY_GET_REG32((reg32 *)(ADC_SAR_CHAN_RESULT_IND + (uint32)(chan << 2u))) &
 738              		.loc 1 513 0
 739 001a 7B68     		ldr	r3, [r7, #4]
 740 001c 9B00     		lsls	r3, r3, #2
 741 001e 094A     		ldr	r2, .L51
 742 0020 9446     		mov	ip, r2
 743 0022 6344     		add	r3, r3, ip
 744 0024 1B68     		ldr	r3, [r3]
 745 0026 1B04     		lsls	r3, r3, #16
 746 0028 1B0C     		lsrs	r3, r3, #16
 747 002a FB60     		str	r3, [r7, #12]
 748 002c 04E0     		b	.L49
 749              	.L48:
 514:Generated_Source\PSoC4/ADC.c ****                 ADC_RESULT_MASK;
 515:Generated_Source\PSoC4/ADC.c ****     }
 516:Generated_Source\PSoC4/ADC.c ****     else
 517:Generated_Source\PSoC4/ADC.c ****     {
 518:Generated_Source\PSoC4/ADC.c ****         #if(ADC_INJ_CHANNEL_ENABLED)
 519:Generated_Source\PSoC4/ADC.c ****             result = ADC_SAR_INJ_RESULT_REG & ADC_RESULT_MASK;
 750              		.loc 1 519 0
 751 002e 064B     		ldr	r3, .L51+4
 752 0030 1B68     		ldr	r3, [r3]
 753 0032 1B04     		lsls	r3, r3, #16
 754 0034 1B0C     		lsrs	r3, r3, #16
 755 0036 FB60     		str	r3, [r7, #12]
 756              	.L49:
 520:Generated_Source\PSoC4/ADC.c ****         #else
 521:Generated_Source\PSoC4/ADC.c ****             result = 0u;
 522:Generated_Source\PSoC4/ADC.c ****         #endif /* ADC_INJ_CHANNEL_ENABLED */
 523:Generated_Source\PSoC4/ADC.c ****     }
 524:Generated_Source\PSoC4/ADC.c **** 
 525:Generated_Source\PSoC4/ADC.c ****     return ( (int16)result );
 757              		.loc 1 525 0
 758 0038 FB68     		ldr	r3, [r7, #12]
 759 003a 1BB2     		sxth	r3, r3
 526:Generated_Source\PSoC4/ADC.c **** }
 760              		.loc 1 526 0
 761 003c 1800     		movs	r0, r3
 762 003e BD46     		mov	sp, r7
 763 0040 04B0     		add	sp, sp, #16
 764              		@ sp needed
 765 0042 80BD     		pop	{r7, pc}
 766              	.L52:
 767              		.align	2
 768              	.L51:
 769 0044 80013A40 		.word	1077543296
 770 0048 90023A40 		.word	1077543568
 771              		.cfi_endproc
 772              	.LFE9:
 773              		.size	ADC_GetResult16, .-ADC_GetResult16
 774              		.section	.text.ADC_SetChanMask,"ax",%progbits
 775              		.align	2
 776              		.global	ADC_SetChanMask
 777              		.code	16
ARM GAS  C:\Users\User\AppData\Local\Temp\ccuDfRLx.s 			page 24


 778              		.thumb_func
 779              		.type	ADC_SetChanMask, %function
 780              	ADC_SetChanMask:
 781              	.LFB10:
 527:Generated_Source\PSoC4/ADC.c **** 
 528:Generated_Source\PSoC4/ADC.c **** 
 529:Generated_Source\PSoC4/ADC.c **** /*******************************************************************************
 530:Generated_Source\PSoC4/ADC.c **** * Function Name: ADC_SetChanMask
 531:Generated_Source\PSoC4/ADC.c **** ********************************************************************************
 532:Generated_Source\PSoC4/ADC.c **** *
 533:Generated_Source\PSoC4/ADC.c **** * Summary:
 534:Generated_Source\PSoC4/ADC.c **** *  Sets the channel enable mask.
 535:Generated_Source\PSoC4/ADC.c **** *
 536:Generated_Source\PSoC4/ADC.c **** * Parameters:
 537:Generated_Source\PSoC4/ADC.c **** *  mask: Sets which channels that will be
 538:Generated_Source\PSoC4/ADC.c **** *  scanned. Setting bits for channels that do not exist will have no
 539:Generated_Source\PSoC4/ADC.c **** *  effect. For example, if only 6 channels were enabled, setting a
 540:Generated_Source\PSoC4/ADC.c **** *  mask of 0x0103 would only enable the last two channels (0 and 1).
 541:Generated_Source\PSoC4/ADC.c **** *  This API will not enable the injection channel.
 542:Generated_Source\PSoC4/ADC.c **** *  Examples: If the component is setup to sequence through 8
 543:Generated_Source\PSoC4/ADC.c **** *  channels, a mask of 0x000F would enable channels 0, 1, 2, and 3.
 544:Generated_Source\PSoC4/ADC.c **** *
 545:Generated_Source\PSoC4/ADC.c **** * Return:
 546:Generated_Source\PSoC4/ADC.c **** *  None.
 547:Generated_Source\PSoC4/ADC.c **** *
 548:Generated_Source\PSoC4/ADC.c **** *******************************************************************************/
 549:Generated_Source\PSoC4/ADC.c **** void ADC_SetChanMask(uint32 mask)
 550:Generated_Source\PSoC4/ADC.c **** {
 782              		.loc 1 550 0
 783              		.cfi_startproc
 784              		@ args = 0, pretend = 0, frame = 8
 785              		@ frame_needed = 1, uses_anonymous_args = 0
 786 0000 80B5     		push	{r7, lr}
 787              		.cfi_def_cfa_offset 8
 788              		.cfi_offset 7, -8
 789              		.cfi_offset 14, -4
 790 0002 82B0     		sub	sp, sp, #8
 791              		.cfi_def_cfa_offset 16
 792 0004 00AF     		add	r7, sp, #0
 793              		.cfi_def_cfa_register 7
 794 0006 7860     		str	r0, [r7, #4]
 551:Generated_Source\PSoC4/ADC.c ****     ADC_SAR_CHAN_EN_REG = mask & ADC_MAX_CHANNELS_EN_MASK;
 795              		.loc 1 551 0
 796 0008 044B     		ldr	r3, .L54
 797 000a 7A68     		ldr	r2, [r7, #4]
 798 000c 0121     		movs	r1, #1
 799 000e 0A40     		ands	r2, r1
 800 0010 1A60     		str	r2, [r3]
 552:Generated_Source\PSoC4/ADC.c **** }
 801              		.loc 1 552 0
 802 0012 C046     		nop
 803 0014 BD46     		mov	sp, r7
 804 0016 02B0     		add	sp, sp, #8
 805              		@ sp needed
 806 0018 80BD     		pop	{r7, pc}
 807              	.L55:
 808 001a C046     		.align	2
ARM GAS  C:\Users\User\AppData\Local\Temp\ccuDfRLx.s 			page 25


 809              	.L54:
 810 001c 20003A40 		.word	1077542944
 811              		.cfi_endproc
 812              	.LFE10:
 813              		.size	ADC_SetChanMask, .-ADC_SetChanMask
 814              		.section	.text.ADC_EnableInjection,"ax",%progbits
 815              		.align	2
 816              		.global	ADC_EnableInjection
 817              		.code	16
 818              		.thumb_func
 819              		.type	ADC_EnableInjection, %function
 820              	ADC_EnableInjection:
 821              	.LFB11:
 553:Generated_Source\PSoC4/ADC.c **** 
 554:Generated_Source\PSoC4/ADC.c **** #if(ADC_INJ_CHANNEL_ENABLED)
 555:Generated_Source\PSoC4/ADC.c **** 
 556:Generated_Source\PSoC4/ADC.c **** 
 557:Generated_Source\PSoC4/ADC.c ****     /*******************************************************************************
 558:Generated_Source\PSoC4/ADC.c ****     * Function Name: ADC_EnableInjection
 559:Generated_Source\PSoC4/ADC.c ****     ********************************************************************************
 560:Generated_Source\PSoC4/ADC.c ****     *
 561:Generated_Source\PSoC4/ADC.c ****     * Summary:
 562:Generated_Source\PSoC4/ADC.c ****     *  Enables the injection channel for the next scan only.
 563:Generated_Source\PSoC4/ADC.c ****     *
 564:Generated_Source\PSoC4/ADC.c ****     * Parameters:
 565:Generated_Source\PSoC4/ADC.c ****     *  None.
 566:Generated_Source\PSoC4/ADC.c ****     *
 567:Generated_Source\PSoC4/ADC.c ****     * Return:
 568:Generated_Source\PSoC4/ADC.c ****     *  None.
 569:Generated_Source\PSoC4/ADC.c ****     *
 570:Generated_Source\PSoC4/ADC.c ****     *******************************************************************************/
 571:Generated_Source\PSoC4/ADC.c ****     void ADC_EnableInjection(void)
 572:Generated_Source\PSoC4/ADC.c ****     {
 822              		.loc 1 572 0
 823              		.cfi_startproc
 824              		@ args = 0, pretend = 0, frame = 0
 825              		@ frame_needed = 1, uses_anonymous_args = 0
 826 0000 80B5     		push	{r7, lr}
 827              		.cfi_def_cfa_offset 8
 828              		.cfi_offset 7, -8
 829              		.cfi_offset 14, -4
 830 0002 00AF     		add	r7, sp, #0
 831              		.cfi_def_cfa_register 7
 573:Generated_Source\PSoC4/ADC.c ****         ADC_SAR_INJ_CHAN_CONFIG_REG |= ADC_INJ_CHAN_EN;
 832              		.loc 1 573 0
 833 0004 044B     		ldr	r3, .L57
 834 0006 044A     		ldr	r2, .L57
 835 0008 1268     		ldr	r2, [r2]
 836 000a 8021     		movs	r1, #128
 837 000c 0906     		lsls	r1, r1, #24
 838 000e 0A43     		orrs	r2, r1
 839 0010 1A60     		str	r2, [r3]
 574:Generated_Source\PSoC4/ADC.c ****     }
 840              		.loc 1 574 0
 841 0012 C046     		nop
 842 0014 BD46     		mov	sp, r7
 843              		@ sp needed
ARM GAS  C:\Users\User\AppData\Local\Temp\ccuDfRLx.s 			page 26


 844 0016 80BD     		pop	{r7, pc}
 845              	.L58:
 846              		.align	2
 847              	.L57:
 848 0018 80023A40 		.word	1077543552
 849              		.cfi_endproc
 850              	.LFE11:
 851              		.size	ADC_EnableInjection, .-ADC_EnableInjection
 852              		.section	.text.ADC_SetLowLimit,"ax",%progbits
 853              		.align	2
 854              		.global	ADC_SetLowLimit
 855              		.code	16
 856              		.thumb_func
 857              		.type	ADC_SetLowLimit, %function
 858              	ADC_SetLowLimit:
 859              	.LFB12:
 575:Generated_Source\PSoC4/ADC.c **** 
 576:Generated_Source\PSoC4/ADC.c **** #endif /* ADC_INJ_CHANNEL_ENABLED */
 577:Generated_Source\PSoC4/ADC.c **** 
 578:Generated_Source\PSoC4/ADC.c **** 
 579:Generated_Source\PSoC4/ADC.c **** /*******************************************************************************
 580:Generated_Source\PSoC4/ADC.c **** * Function Name: ADC_SetLowLimit
 581:Generated_Source\PSoC4/ADC.c **** ********************************************************************************
 582:Generated_Source\PSoC4/ADC.c **** *
 583:Generated_Source\PSoC4/ADC.c **** * Summary:
 584:Generated_Source\PSoC4/ADC.c **** *  Sets the low limit parameter for a limit condition.
 585:Generated_Source\PSoC4/ADC.c **** *
 586:Generated_Source\PSoC4/ADC.c **** * Parameters:
 587:Generated_Source\PSoC4/ADC.c **** *  lowLimit: The low limit for a limit condition.
 588:Generated_Source\PSoC4/ADC.c **** *
 589:Generated_Source\PSoC4/ADC.c **** * Return:
 590:Generated_Source\PSoC4/ADC.c **** *  None.
 591:Generated_Source\PSoC4/ADC.c **** *
 592:Generated_Source\PSoC4/ADC.c **** *******************************************************************************/
 593:Generated_Source\PSoC4/ADC.c **** void ADC_SetLowLimit(uint32 lowLimit)
 594:Generated_Source\PSoC4/ADC.c **** {
 860              		.loc 1 594 0
 861              		.cfi_startproc
 862              		@ args = 0, pretend = 0, frame = 8
 863              		@ frame_needed = 1, uses_anonymous_args = 0
 864 0000 80B5     		push	{r7, lr}
 865              		.cfi_def_cfa_offset 8
 866              		.cfi_offset 7, -8
 867              		.cfi_offset 14, -4
 868 0002 82B0     		sub	sp, sp, #8
 869              		.cfi_def_cfa_offset 16
 870 0004 00AF     		add	r7, sp, #0
 871              		.cfi_def_cfa_register 7
 872 0006 7860     		str	r0, [r7, #4]
 595:Generated_Source\PSoC4/ADC.c ****     ADC_SAR_RANGE_THRES_REG &= (uint32)(~ADC_RANGE_LOW_MASK);
 873              		.loc 1 595 0
 874 0008 084B     		ldr	r3, .L60
 875 000a 084A     		ldr	r2, .L60
 876 000c 1268     		ldr	r2, [r2]
 877 000e 120C     		lsrs	r2, r2, #16
 878 0010 1204     		lsls	r2, r2, #16
 879 0012 1A60     		str	r2, [r3]
ARM GAS  C:\Users\User\AppData\Local\Temp\ccuDfRLx.s 			page 27


 596:Generated_Source\PSoC4/ADC.c ****     ADC_SAR_RANGE_THRES_REG |= lowLimit & ADC_RANGE_LOW_MASK;
 880              		.loc 1 596 0
 881 0014 054B     		ldr	r3, .L60
 882 0016 054A     		ldr	r2, .L60
 883 0018 1168     		ldr	r1, [r2]
 884 001a 7A68     		ldr	r2, [r7, #4]
 885 001c 1204     		lsls	r2, r2, #16
 886 001e 120C     		lsrs	r2, r2, #16
 887 0020 0A43     		orrs	r2, r1
 888 0022 1A60     		str	r2, [r3]
 597:Generated_Source\PSoC4/ADC.c **** }
 889              		.loc 1 597 0
 890 0024 C046     		nop
 891 0026 BD46     		mov	sp, r7
 892 0028 02B0     		add	sp, sp, #8
 893              		@ sp needed
 894 002a 80BD     		pop	{r7, pc}
 895              	.L61:
 896              		.align	2
 897              	.L60:
 898 002c 18003A40 		.word	1077542936
 899              		.cfi_endproc
 900              	.LFE12:
 901              		.size	ADC_SetLowLimit, .-ADC_SetLowLimit
 902              		.section	.text.ADC_SetHighLimit,"ax",%progbits
 903              		.align	2
 904              		.global	ADC_SetHighLimit
 905              		.code	16
 906              		.thumb_func
 907              		.type	ADC_SetHighLimit, %function
 908              	ADC_SetHighLimit:
 909              	.LFB13:
 598:Generated_Source\PSoC4/ADC.c **** 
 599:Generated_Source\PSoC4/ADC.c **** 
 600:Generated_Source\PSoC4/ADC.c **** /*******************************************************************************
 601:Generated_Source\PSoC4/ADC.c **** * Function Name: ADC_SetHighLimit
 602:Generated_Source\PSoC4/ADC.c **** ********************************************************************************
 603:Generated_Source\PSoC4/ADC.c **** *
 604:Generated_Source\PSoC4/ADC.c **** * Summary:
 605:Generated_Source\PSoC4/ADC.c **** *  Sets the low limit parameter for a limit condition.
 606:Generated_Source\PSoC4/ADC.c **** *
 607:Generated_Source\PSoC4/ADC.c **** * Parameters:
 608:Generated_Source\PSoC4/ADC.c **** *  highLimit: The high limit for a limit condition.
 609:Generated_Source\PSoC4/ADC.c **** *
 610:Generated_Source\PSoC4/ADC.c **** * Return:
 611:Generated_Source\PSoC4/ADC.c **** *  None.
 612:Generated_Source\PSoC4/ADC.c **** *
 613:Generated_Source\PSoC4/ADC.c **** *******************************************************************************/
 614:Generated_Source\PSoC4/ADC.c **** void ADC_SetHighLimit(uint32 highLimit)
 615:Generated_Source\PSoC4/ADC.c **** {
 910              		.loc 1 615 0
 911              		.cfi_startproc
 912              		@ args = 0, pretend = 0, frame = 8
 913              		@ frame_needed = 1, uses_anonymous_args = 0
 914 0000 80B5     		push	{r7, lr}
 915              		.cfi_def_cfa_offset 8
 916              		.cfi_offset 7, -8
ARM GAS  C:\Users\User\AppData\Local\Temp\ccuDfRLx.s 			page 28


 917              		.cfi_offset 14, -4
 918 0002 82B0     		sub	sp, sp, #8
 919              		.cfi_def_cfa_offset 16
 920 0004 00AF     		add	r7, sp, #0
 921              		.cfi_def_cfa_register 7
 922 0006 7860     		str	r0, [r7, #4]
 616:Generated_Source\PSoC4/ADC.c ****     ADC_SAR_RANGE_THRES_REG &= (uint32)(~ADC_RANGE_HIGH_MASK);
 923              		.loc 1 616 0
 924 0008 084B     		ldr	r3, .L63
 925 000a 084A     		ldr	r2, .L63
 926 000c 1268     		ldr	r2, [r2]
 927 000e 1204     		lsls	r2, r2, #16
 928 0010 120C     		lsrs	r2, r2, #16
 929 0012 1A60     		str	r2, [r3]
 617:Generated_Source\PSoC4/ADC.c ****     ADC_SAR_RANGE_THRES_REG |= (uint32)(highLimit << ADC_RANGE_HIGH_OFFSET);
 930              		.loc 1 617 0
 931 0014 054B     		ldr	r3, .L63
 932 0016 054A     		ldr	r2, .L63
 933 0018 1168     		ldr	r1, [r2]
 934 001a 7A68     		ldr	r2, [r7, #4]
 935 001c 1204     		lsls	r2, r2, #16
 936 001e 0A43     		orrs	r2, r1
 937 0020 1A60     		str	r2, [r3]
 618:Generated_Source\PSoC4/ADC.c **** }
 938              		.loc 1 618 0
 939 0022 C046     		nop
 940 0024 BD46     		mov	sp, r7
 941 0026 02B0     		add	sp, sp, #8
 942              		@ sp needed
 943 0028 80BD     		pop	{r7, pc}
 944              	.L64:
 945 002a C046     		.align	2
 946              	.L63:
 947 002c 18003A40 		.word	1077542936
 948              		.cfi_endproc
 949              	.LFE13:
 950              		.size	ADC_SetHighLimit, .-ADC_SetHighLimit
 951              		.section	.text.ADC_SetLimitMask,"ax",%progbits
 952              		.align	2
 953              		.global	ADC_SetLimitMask
 954              		.code	16
 955              		.thumb_func
 956              		.type	ADC_SetLimitMask, %function
 957              	ADC_SetLimitMask:
 958              	.LFB14:
 619:Generated_Source\PSoC4/ADC.c **** 
 620:Generated_Source\PSoC4/ADC.c **** 
 621:Generated_Source\PSoC4/ADC.c **** /*******************************************************************************
 622:Generated_Source\PSoC4/ADC.c **** * Function Name: ADC_SetLimitMask
 623:Generated_Source\PSoC4/ADC.c **** ********************************************************************************
 624:Generated_Source\PSoC4/ADC.c **** *
 625:Generated_Source\PSoC4/ADC.c **** * Summary:
 626:Generated_Source\PSoC4/ADC.c **** *  Sets the channel limit condition mask.
 627:Generated_Source\PSoC4/ADC.c **** *
 628:Generated_Source\PSoC4/ADC.c **** * Parameters:
 629:Generated_Source\PSoC4/ADC.c **** *  mask: Sets which channels that may cause a
 630:Generated_Source\PSoC4/ADC.c **** *  limit condition interrupt. Setting bits for channels that do not exist
ARM GAS  C:\Users\User\AppData\Local\Temp\ccuDfRLx.s 			page 29


 631:Generated_Source\PSoC4/ADC.c **** *  will have no effect. For example, if only 6 channels were enabled,
 632:Generated_Source\PSoC4/ADC.c **** *  setting a mask of 0x0103 would only enable the last two channels (0 and 1).
 633:Generated_Source\PSoC4/ADC.c **** *
 634:Generated_Source\PSoC4/ADC.c **** * Return:
 635:Generated_Source\PSoC4/ADC.c **** *  None.
 636:Generated_Source\PSoC4/ADC.c **** *
 637:Generated_Source\PSoC4/ADC.c **** *******************************************************************************/
 638:Generated_Source\PSoC4/ADC.c **** void ADC_SetLimitMask(uint32 mask)
 639:Generated_Source\PSoC4/ADC.c **** {
 959              		.loc 1 639 0
 960              		.cfi_startproc
 961              		@ args = 0, pretend = 0, frame = 8
 962              		@ frame_needed = 1, uses_anonymous_args = 0
 963 0000 80B5     		push	{r7, lr}
 964              		.cfi_def_cfa_offset 8
 965              		.cfi_offset 7, -8
 966              		.cfi_offset 14, -4
 967 0002 82B0     		sub	sp, sp, #8
 968              		.cfi_def_cfa_offset 16
 969 0004 00AF     		add	r7, sp, #0
 970              		.cfi_def_cfa_register 7
 971 0006 7860     		str	r0, [r7, #4]
 640:Generated_Source\PSoC4/ADC.c ****     ADC_SAR_RANGE_INTR_MASK_REG = mask & ADC_MAX_CHANNELS_EN_MASK;
 972              		.loc 1 640 0
 973 0008 044B     		ldr	r3, .L66
 974 000a 7A68     		ldr	r2, [r7, #4]
 975 000c 0121     		movs	r1, #1
 976 000e 0A40     		ands	r2, r1
 977 0010 1A60     		str	r2, [r3]
 641:Generated_Source\PSoC4/ADC.c **** }
 978              		.loc 1 641 0
 979 0012 C046     		nop
 980 0014 BD46     		mov	sp, r7
 981 0016 02B0     		add	sp, sp, #8
 982              		@ sp needed
 983 0018 80BD     		pop	{r7, pc}
 984              	.L67:
 985 001a C046     		.align	2
 986              	.L66:
 987 001c 38023A40 		.word	1077543480
 988              		.cfi_endproc
 989              	.LFE14:
 990              		.size	ADC_SetLimitMask, .-ADC_SetLimitMask
 991              		.section	.text.ADC_SetSatMask,"ax",%progbits
 992              		.align	2
 993              		.global	ADC_SetSatMask
 994              		.code	16
 995              		.thumb_func
 996              		.type	ADC_SetSatMask, %function
 997              	ADC_SetSatMask:
 998              	.LFB15:
 642:Generated_Source\PSoC4/ADC.c **** 
 643:Generated_Source\PSoC4/ADC.c **** 
 644:Generated_Source\PSoC4/ADC.c **** /*******************************************************************************
 645:Generated_Source\PSoC4/ADC.c **** * Function Name: ADC_SetSatMask
 646:Generated_Source\PSoC4/ADC.c **** ********************************************************************************
 647:Generated_Source\PSoC4/ADC.c **** *
ARM GAS  C:\Users\User\AppData\Local\Temp\ccuDfRLx.s 			page 30


 648:Generated_Source\PSoC4/ADC.c **** * Summary:
 649:Generated_Source\PSoC4/ADC.c **** *  Sets the channel saturation event mask.
 650:Generated_Source\PSoC4/ADC.c **** *
 651:Generated_Source\PSoC4/ADC.c **** * Parameters:
 652:Generated_Source\PSoC4/ADC.c **** *  mask: Sets which channels that may cause a
 653:Generated_Source\PSoC4/ADC.c **** *  saturation event interrupt. Setting bits for channels that do not exist
 654:Generated_Source\PSoC4/ADC.c **** *  will have no effect. For example, if only 8 channels were enabled,
 655:Generated_Source\PSoC4/ADC.c **** *  setting a mask of 0x01C0 would only enable two channels (6 and 7).
 656:Generated_Source\PSoC4/ADC.c **** *
 657:Generated_Source\PSoC4/ADC.c **** * Return:
 658:Generated_Source\PSoC4/ADC.c **** *  None.
 659:Generated_Source\PSoC4/ADC.c **** *
 660:Generated_Source\PSoC4/ADC.c **** *******************************************************************************/
 661:Generated_Source\PSoC4/ADC.c **** void ADC_SetSatMask(uint32 mask)
 662:Generated_Source\PSoC4/ADC.c **** {
 999              		.loc 1 662 0
 1000              		.cfi_startproc
 1001              		@ args = 0, pretend = 0, frame = 8
 1002              		@ frame_needed = 1, uses_anonymous_args = 0
 1003 0000 80B5     		push	{r7, lr}
 1004              		.cfi_def_cfa_offset 8
 1005              		.cfi_offset 7, -8
 1006              		.cfi_offset 14, -4
 1007 0002 82B0     		sub	sp, sp, #8
 1008              		.cfi_def_cfa_offset 16
 1009 0004 00AF     		add	r7, sp, #0
 1010              		.cfi_def_cfa_register 7
 1011 0006 7860     		str	r0, [r7, #4]
 663:Generated_Source\PSoC4/ADC.c ****     ADC_SAR_SATURATE_INTR_MASK_REG = mask & ADC_MAX_CHANNELS_EN_MASK;
 1012              		.loc 1 663 0
 1013 0008 044B     		ldr	r3, .L69
 1014 000a 7A68     		ldr	r2, [r7, #4]
 1015 000c 0121     		movs	r1, #1
 1016 000e 0A40     		ands	r2, r1
 1017 0010 1A60     		str	r2, [r3]
 664:Generated_Source\PSoC4/ADC.c **** }
 1018              		.loc 1 664 0
 1019 0012 C046     		nop
 1020 0014 BD46     		mov	sp, r7
 1021 0016 02B0     		add	sp, sp, #8
 1022              		@ sp needed
 1023 0018 80BD     		pop	{r7, pc}
 1024              	.L70:
 1025 001a C046     		.align	2
 1026              	.L69:
 1027 001c 28023A40 		.word	1077543464
 1028              		.cfi_endproc
 1029              	.LFE15:
 1030              		.size	ADC_SetSatMask, .-ADC_SetSatMask
 1031              		.section	.text.ADC_SetOffset,"ax",%progbits
 1032              		.align	2
 1033              		.global	ADC_SetOffset
 1034              		.code	16
 1035              		.thumb_func
 1036              		.type	ADC_SetOffset, %function
 1037              	ADC_SetOffset:
 1038              	.LFB16:
ARM GAS  C:\Users\User\AppData\Local\Temp\ccuDfRLx.s 			page 31


 665:Generated_Source\PSoC4/ADC.c **** 
 666:Generated_Source\PSoC4/ADC.c **** 
 667:Generated_Source\PSoC4/ADC.c **** /*******************************************************************************
 668:Generated_Source\PSoC4/ADC.c **** * Function Name: ADC_SetOffset
 669:Generated_Source\PSoC4/ADC.c **** ********************************************************************************
 670:Generated_Source\PSoC4/ADC.c **** *
 671:Generated_Source\PSoC4/ADC.c **** * Summary:
 672:Generated_Source\PSoC4/ADC.c **** *   Description: Sets the ADC offset which is used by the functions
 673:Generated_Source\PSoC4/ADC.c **** *   ADC_CountsTo_uVolts, ADC_CountsTo_mVolts and ADC_CountsTo_Volts
 674:Generated_Source\PSoC4/ADC.c **** *   to substract the offset from the given reading
 675:Generated_Source\PSoC4/ADC.c **** *   before calculating the voltage conversion.
 676:Generated_Source\PSoC4/ADC.c **** *
 677:Generated_Source\PSoC4/ADC.c **** * Parameters:
 678:Generated_Source\PSoC4/ADC.c **** *  chan: ADC channel number.
 679:Generated_Source\PSoC4/ADC.c **** *  offset: This value is a measured value when the
 680:Generated_Source\PSoC4/ADC.c **** *          inputs are shorted or connected to the same input voltage.
 681:Generated_Source\PSoC4/ADC.c **** *
 682:Generated_Source\PSoC4/ADC.c **** * Return:
 683:Generated_Source\PSoC4/ADC.c **** *  None.
 684:Generated_Source\PSoC4/ADC.c **** *
 685:Generated_Source\PSoC4/ADC.c **** * Global variables:
 686:Generated_Source\PSoC4/ADC.c **** *  ADC_Offset:  Modified to set the user provided offset.
 687:Generated_Source\PSoC4/ADC.c **** *
 688:Generated_Source\PSoC4/ADC.c **** *******************************************************************************/
 689:Generated_Source\PSoC4/ADC.c **** void ADC_SetOffset(uint32 chan, int16 offset)
 690:Generated_Source\PSoC4/ADC.c **** {
 1039              		.loc 1 690 0
 1040              		.cfi_startproc
 1041              		@ args = 0, pretend = 0, frame = 8
 1042              		@ frame_needed = 1, uses_anonymous_args = 0
 1043 0000 80B5     		push	{r7, lr}
 1044              		.cfi_def_cfa_offset 8
 1045              		.cfi_offset 7, -8
 1046              		.cfi_offset 14, -4
 1047 0002 82B0     		sub	sp, sp, #8
 1048              		.cfi_def_cfa_offset 16
 1049 0004 00AF     		add	r7, sp, #0
 1050              		.cfi_def_cfa_register 7
 1051 0006 7860     		str	r0, [r7, #4]
 1052 0008 0A00     		movs	r2, r1
 1053 000a BB1C     		adds	r3, r7, #2
 1054 000c 1A80     		strh	r2, [r3]
 691:Generated_Source\PSoC4/ADC.c ****     /* Halt CPU in debug mode if channel is out of valid range */
 692:Generated_Source\PSoC4/ADC.c ****     CYASSERT(chan < ADC_TOTAL_CHANNELS_NUM);
 1055              		.loc 1 692 0
 1056 000e 7B68     		ldr	r3, [r7, #4]
 1057 0010 012B     		cmp	r3, #1
 1058 0012 02D9     		bls	.L72
 1059              		.loc 1 692 0 is_stmt 0 discriminator 1
 1060 0014 0020     		movs	r0, #0
 1061 0016 FFF7FEFF 		bl	CyHalt
 1062              	.L72:
 693:Generated_Source\PSoC4/ADC.c **** 
 694:Generated_Source\PSoC4/ADC.c ****     ADC_offset[chan] = offset;
 1063              		.loc 1 694 0 is_stmt 1
 1064 001a 054B     		ldr	r3, .L73
 1065 001c 7A68     		ldr	r2, [r7, #4]
ARM GAS  C:\Users\User\AppData\Local\Temp\ccuDfRLx.s 			page 32


 1066 001e 5200     		lsls	r2, r2, #1
 1067 0020 B91C     		adds	r1, r7, #2
 1068 0022 0988     		ldrh	r1, [r1]
 1069 0024 D152     		strh	r1, [r2, r3]
 695:Generated_Source\PSoC4/ADC.c **** }
 1070              		.loc 1 695 0
 1071 0026 C046     		nop
 1072 0028 BD46     		mov	sp, r7
 1073 002a 02B0     		add	sp, sp, #8
 1074              		@ sp needed
 1075 002c 80BD     		pop	{r7, pc}
 1076              	.L74:
 1077 002e C046     		.align	2
 1078              	.L73:
 1079 0030 00000000 		.word	ADC_offset
 1080              		.cfi_endproc
 1081              	.LFE16:
 1082              		.size	ADC_SetOffset, .-ADC_SetOffset
 1083              		.section	.text.ADC_SetGain,"ax",%progbits
 1084              		.align	2
 1085              		.global	ADC_SetGain
 1086              		.code	16
 1087              		.thumb_func
 1088              		.type	ADC_SetGain, %function
 1089              	ADC_SetGain:
 1090              	.LFB17:
 696:Generated_Source\PSoC4/ADC.c **** 
 697:Generated_Source\PSoC4/ADC.c **** 
 698:Generated_Source\PSoC4/ADC.c **** /*******************************************************************************
 699:Generated_Source\PSoC4/ADC.c **** * Function Name: ADC_SetGain
 700:Generated_Source\PSoC4/ADC.c **** ********************************************************************************
 701:Generated_Source\PSoC4/ADC.c **** *
 702:Generated_Source\PSoC4/ADC.c **** * Summary:
 703:Generated_Source\PSoC4/ADC.c **** *  Description: Sets the ADC gain in counts per 10 volt for the voltage
 704:Generated_Source\PSoC4/ADC.c **** *  conversion functions below. This value is set by default by the
 705:Generated_Source\PSoC4/ADC.c **** *  reference and input range settings. It should only be used to further
 706:Generated_Source\PSoC4/ADC.c **** *  calibrate the ADC with a known input or if an external reference is
 707:Generated_Source\PSoC4/ADC.c **** *  used. Affects the ADC_CountsTo_uVolts, ADC_CountsTo_mVolts
 708:Generated_Source\PSoC4/ADC.c **** *  and ADC_CountsTo_Volts functions by supplying the correct
 709:Generated_Source\PSoC4/ADC.c **** *  conversion between ADC counts and voltage.
 710:Generated_Source\PSoC4/ADC.c **** *
 711:Generated_Source\PSoC4/ADC.c **** * Parameters:
 712:Generated_Source\PSoC4/ADC.c **** *  chan: ADC channel number.
 713:Generated_Source\PSoC4/ADC.c **** *  adcGain: ADC gain in counts per 10 volts.
 714:Generated_Source\PSoC4/ADC.c **** *
 715:Generated_Source\PSoC4/ADC.c **** * Return:
 716:Generated_Source\PSoC4/ADC.c **** *  None.
 717:Generated_Source\PSoC4/ADC.c **** *
 718:Generated_Source\PSoC4/ADC.c **** * Global variables:
 719:Generated_Source\PSoC4/ADC.c **** *  ADC_CountsPer10Volt:  modified to set the ADC gain in counts
 720:Generated_Source\PSoC4/ADC.c **** *   per 10 volt.
 721:Generated_Source\PSoC4/ADC.c **** *
 722:Generated_Source\PSoC4/ADC.c **** *******************************************************************************/
 723:Generated_Source\PSoC4/ADC.c **** void ADC_SetGain(uint32 chan, int32 adcGain)
 724:Generated_Source\PSoC4/ADC.c **** {
 1091              		.loc 1 724 0
 1092              		.cfi_startproc
ARM GAS  C:\Users\User\AppData\Local\Temp\ccuDfRLx.s 			page 33


 1093              		@ args = 0, pretend = 0, frame = 8
 1094              		@ frame_needed = 1, uses_anonymous_args = 0
 1095 0000 80B5     		push	{r7, lr}
 1096              		.cfi_def_cfa_offset 8
 1097              		.cfi_offset 7, -8
 1098              		.cfi_offset 14, -4
 1099 0002 82B0     		sub	sp, sp, #8
 1100              		.cfi_def_cfa_offset 16
 1101 0004 00AF     		add	r7, sp, #0
 1102              		.cfi_def_cfa_register 7
 1103 0006 7860     		str	r0, [r7, #4]
 1104 0008 3960     		str	r1, [r7]
 725:Generated_Source\PSoC4/ADC.c ****     /* Halt CPU in debug mode if channel is out of valid range */
 726:Generated_Source\PSoC4/ADC.c ****     CYASSERT(chan < ADC_TOTAL_CHANNELS_NUM);
 1105              		.loc 1 726 0
 1106 000a 7B68     		ldr	r3, [r7, #4]
 1107 000c 012B     		cmp	r3, #1
 1108 000e 02D9     		bls	.L76
 1109              		.loc 1 726 0 is_stmt 0 discriminator 1
 1110 0010 0020     		movs	r0, #0
 1111 0012 FFF7FEFF 		bl	CyHalt
 1112              	.L76:
 727:Generated_Source\PSoC4/ADC.c **** 
 728:Generated_Source\PSoC4/ADC.c ****     ADC_countsPer10Volt[chan] = adcGain;
 1113              		.loc 1 728 0 is_stmt 1
 1114 0016 044B     		ldr	r3, .L77
 1115 0018 7A68     		ldr	r2, [r7, #4]
 1116 001a 9200     		lsls	r2, r2, #2
 1117 001c 3968     		ldr	r1, [r7]
 1118 001e D150     		str	r1, [r2, r3]
 729:Generated_Source\PSoC4/ADC.c **** }
 1119              		.loc 1 729 0
 1120 0020 C046     		nop
 1121 0022 BD46     		mov	sp, r7
 1122 0024 02B0     		add	sp, sp, #8
 1123              		@ sp needed
 1124 0026 80BD     		pop	{r7, pc}
 1125              	.L78:
 1126              		.align	2
 1127              	.L77:
 1128 0028 00000000 		.word	ADC_countsPer10Volt
 1129              		.cfi_endproc
 1130              	.LFE17:
 1131              		.size	ADC_SetGain, .-ADC_SetGain
 1132              		.global	__aeabi_idiv
 1133              		.section	.text.ADC_CountsTo_mVolts,"ax",%progbits
 1134              		.align	2
 1135              		.global	ADC_CountsTo_mVolts
 1136              		.code	16
 1137              		.thumb_func
 1138              		.type	ADC_CountsTo_mVolts, %function
 1139              	ADC_CountsTo_mVolts:
 1140              	.LFB18:
 730:Generated_Source\PSoC4/ADC.c **** 
 731:Generated_Source\PSoC4/ADC.c **** 
 732:Generated_Source\PSoC4/ADC.c **** #if(ADC_DEFAULT_JUSTIFICATION_SEL == ADC__RIGHT)
 733:Generated_Source\PSoC4/ADC.c **** 
ARM GAS  C:\Users\User\AppData\Local\Temp\ccuDfRLx.s 			page 34


 734:Generated_Source\PSoC4/ADC.c **** 
 735:Generated_Source\PSoC4/ADC.c ****     /*******************************************************************************
 736:Generated_Source\PSoC4/ADC.c ****     * Function Name: ADC_CountsTo_mVolts
 737:Generated_Source\PSoC4/ADC.c ****     ********************************************************************************
 738:Generated_Source\PSoC4/ADC.c ****     *
 739:Generated_Source\PSoC4/ADC.c ****     * Summary:
 740:Generated_Source\PSoC4/ADC.c ****     *  This function converts ADC counts to mVolts
 741:Generated_Source\PSoC4/ADC.c ****     *  This function is not available when left data format justification selected.
 742:Generated_Source\PSoC4/ADC.c ****     *
 743:Generated_Source\PSoC4/ADC.c ****     * Parameters:
 744:Generated_Source\PSoC4/ADC.c ****     *  chan: The ADC channel number.
 745:Generated_Source\PSoC4/ADC.c ****     *  adcCounts: Result from the ADC conversion
 746:Generated_Source\PSoC4/ADC.c ****     *
 747:Generated_Source\PSoC4/ADC.c ****     * Return:
 748:Generated_Source\PSoC4/ADC.c ****     *  Results in mVolts
 749:Generated_Source\PSoC4/ADC.c ****     *
 750:Generated_Source\PSoC4/ADC.c ****     * Global variables:
 751:Generated_Source\PSoC4/ADC.c ****     *  ADC_countsPer10Volt:  used to convert ADC counts to mVolts.
 752:Generated_Source\PSoC4/ADC.c ****     *  ADC_Offset:  Used as the offset while converting ADC counts
 753:Generated_Source\PSoC4/ADC.c ****     *   to mVolts.
 754:Generated_Source\PSoC4/ADC.c ****     *
 755:Generated_Source\PSoC4/ADC.c ****     *******************************************************************************/
 756:Generated_Source\PSoC4/ADC.c ****     int16 ADC_CountsTo_mVolts(uint32 chan, int16 adcCounts)
 757:Generated_Source\PSoC4/ADC.c ****     {
 1141              		.loc 1 757 0
 1142              		.cfi_startproc
 1143              		@ args = 0, pretend = 0, frame = 16
 1144              		@ frame_needed = 1, uses_anonymous_args = 0
 1145 0000 80B5     		push	{r7, lr}
 1146              		.cfi_def_cfa_offset 8
 1147              		.cfi_offset 7, -8
 1148              		.cfi_offset 14, -4
 1149 0002 84B0     		sub	sp, sp, #16
 1150              		.cfi_def_cfa_offset 24
 1151 0004 00AF     		add	r7, sp, #0
 1152              		.cfi_def_cfa_register 7
 1153 0006 7860     		str	r0, [r7, #4]
 1154 0008 0A00     		movs	r2, r1
 1155 000a BB1C     		adds	r3, r7, #2
 1156 000c 1A80     		strh	r2, [r3]
 758:Generated_Source\PSoC4/ADC.c ****         int16 mVolts;
 759:Generated_Source\PSoC4/ADC.c **** 
 760:Generated_Source\PSoC4/ADC.c ****         /* Halt CPU in debug mode if channel is out of valid range */
 761:Generated_Source\PSoC4/ADC.c ****         CYASSERT(chan < ADC_TOTAL_CHANNELS_NUM);
 1157              		.loc 1 761 0
 1158 000e 7B68     		ldr	r3, [r7, #4]
 1159 0010 012B     		cmp	r3, #1
 1160 0012 02D9     		bls	.L80
 1161              		.loc 1 761 0 is_stmt 0 discriminator 1
 1162 0014 0020     		movs	r0, #0
 1163 0016 FFF7FEFF 		bl	CyHalt
 1164              	.L80:
 762:Generated_Source\PSoC4/ADC.c **** 
 763:Generated_Source\PSoC4/ADC.c ****         /* Divide the adcCount when accumulate averaging mode selected */
 764:Generated_Source\PSoC4/ADC.c ****         #if(ADC_DEFAULT_AVG_MODE == ADC__ACCUMULATE)
 765:Generated_Source\PSoC4/ADC.c ****             if((ADC_channelsConfig[chan] & ADC_AVERAGING_EN) != 0u)
 766:Generated_Source\PSoC4/ADC.c ****             {
ARM GAS  C:\Users\User\AppData\Local\Temp\ccuDfRLx.s 			page 35


 767:Generated_Source\PSoC4/ADC.c ****                 adcCounts /= ADC_DEFAULT_AVG_SAMPLES_DIV;
 768:Generated_Source\PSoC4/ADC.c ****             }
 769:Generated_Source\PSoC4/ADC.c ****         #endif /* ADC_DEFAULT_AVG_MODE == ADC__ACCUMULATE */
 770:Generated_Source\PSoC4/ADC.c **** 
 771:Generated_Source\PSoC4/ADC.c ****         /* Subtract ADC offset */
 772:Generated_Source\PSoC4/ADC.c ****         adcCounts -= ADC_offset[chan];
 1165              		.loc 1 772 0 is_stmt 1
 1166 001a 1E4B     		ldr	r3, .L86
 1167 001c 7A68     		ldr	r2, [r7, #4]
 1168 001e 5200     		lsls	r2, r2, #1
 1169 0020 D35A     		ldrh	r3, [r2, r3]
 1170 0022 19B2     		sxth	r1, r3
 1171 0024 BB1C     		adds	r3, r7, #2
 1172 0026 1A88     		ldrh	r2, [r3]
 1173 0028 8BB2     		uxth	r3, r1
 1174 002a D31A     		subs	r3, r2, r3
 1175 002c 9AB2     		uxth	r2, r3
 1176 002e BB1C     		adds	r3, r7, #2
 1177 0030 1A80     		strh	r2, [r3]
 773:Generated_Source\PSoC4/ADC.c **** 
 774:Generated_Source\PSoC4/ADC.c ****         mVolts = (int16)((((int32)adcCounts * ADC_10MV_COUNTS) + ( (adcCounts > 0) ?
 1178              		.loc 1 774 0
 1179 0032 BB1C     		adds	r3, r7, #2
 1180 0034 0022     		movs	r2, #0
 1181 0036 9B5E     		ldrsh	r3, [r3, r2]
 1182 0038 174A     		ldr	r2, .L86+4
 1183 003a 5A43     		muls	r2, r3
 775:Generated_Source\PSoC4/ADC.c ****                  (ADC_countsPer10Volt[chan] / 2) : (-(ADC_countsPer10Volt[chan] / 2)) ))
 1184              		.loc 1 775 0
 1185 003c BB1C     		adds	r3, r7, #2
 1186 003e 0021     		movs	r1, #0
 1187 0040 5B5E     		ldrsh	r3, [r3, r1]
 1188 0042 002B     		cmp	r3, #0
 1189 0044 08DD     		ble	.L81
 1190              		.loc 1 775 0 is_stmt 0 discriminator 1
 1191 0046 154B     		ldr	r3, .L86+8
 1192 0048 7968     		ldr	r1, [r7, #4]
 1193 004a 8900     		lsls	r1, r1, #2
 1194 004c CB58     		ldr	r3, [r1, r3]
 1195 004e 002B     		cmp	r3, #0
 1196 0050 00DA     		bge	.L82
 1197 0052 0133     		adds	r3, r3, #1
 1198              	.L82:
 1199 0054 5B10     		asrs	r3, r3, #1
 1200 0056 08E0     		b	.L83
 1201              	.L81:
 1202              		.loc 1 775 0 discriminator 2
 1203 0058 104B     		ldr	r3, .L86+8
 1204 005a 7968     		ldr	r1, [r7, #4]
 1205 005c 8900     		lsls	r1, r1, #2
 1206 005e CB58     		ldr	r3, [r1, r3]
 1207 0060 002B     		cmp	r3, #0
 1208 0062 00DA     		bge	.L84
 1209 0064 0133     		adds	r3, r3, #1
 1210              	.L84:
 1211 0066 5B10     		asrs	r3, r3, #1
 1212 0068 5B42     		rsbs	r3, r3, #0
ARM GAS  C:\Users\User\AppData\Local\Temp\ccuDfRLx.s 			page 36


 1213              	.L83:
 774:Generated_Source\PSoC4/ADC.c ****                  (ADC_countsPer10Volt[chan] / 2) : (-(ADC_countsPer10Volt[chan] / 2)) ))
 1214              		.loc 1 774 0 is_stmt 1
 1215 006a D018     		adds	r0, r2, r3
 776:Generated_Source\PSoC4/ADC.c ****                  / ADC_countsPer10Volt[chan]);
 1216              		.loc 1 776 0
 1217 006c 0B4B     		ldr	r3, .L86+8
 1218 006e 7A68     		ldr	r2, [r7, #4]
 1219 0070 9200     		lsls	r2, r2, #2
 1220 0072 D358     		ldr	r3, [r2, r3]
 1221 0074 1900     		movs	r1, r3
 1222 0076 FFF7FEFF 		bl	__aeabi_idiv
 1223 007a 0300     		movs	r3, r0
 1224 007c 1A00     		movs	r2, r3
 774:Generated_Source\PSoC4/ADC.c ****                  (ADC_countsPer10Volt[chan] / 2) : (-(ADC_countsPer10Volt[chan] / 2)) ))
 1225              		.loc 1 774 0
 1226 007e 0E23     		movs	r3, #14
 1227 0080 FB18     		adds	r3, r7, r3
 1228 0082 1A80     		strh	r2, [r3]
 777:Generated_Source\PSoC4/ADC.c **** 
 778:Generated_Source\PSoC4/ADC.c ****         return( mVolts );
 1229              		.loc 1 778 0
 1230 0084 0E23     		movs	r3, #14
 1231 0086 FB18     		adds	r3, r7, r3
 1232 0088 0022     		movs	r2, #0
 1233 008a 9B5E     		ldrsh	r3, [r3, r2]
 779:Generated_Source\PSoC4/ADC.c ****     }
 1234              		.loc 1 779 0
 1235 008c 1800     		movs	r0, r3
 1236 008e BD46     		mov	sp, r7
 1237 0090 04B0     		add	sp, sp, #16
 1238              		@ sp needed
 1239 0092 80BD     		pop	{r7, pc}
 1240              	.L87:
 1241              		.align	2
 1242              	.L86:
 1243 0094 00000000 		.word	ADC_offset
 1244 0098 10270000 		.word	10000
 1245 009c 00000000 		.word	ADC_countsPer10Volt
 1246              		.cfi_endproc
 1247              	.LFE18:
 1248              		.size	ADC_CountsTo_mVolts, .-ADC_CountsTo_mVolts
 1249              		.global	__aeabi_lmul
 1250              		.global	__aeabi_ldivmod
 1251              		.section	.text.ADC_CountsTo_uVolts,"ax",%progbits
 1252              		.align	2
 1253              		.global	ADC_CountsTo_uVolts
 1254              		.code	16
 1255              		.thumb_func
 1256              		.type	ADC_CountsTo_uVolts, %function
 1257              	ADC_CountsTo_uVolts:
 1258              	.LFB19:
 780:Generated_Source\PSoC4/ADC.c **** 
 781:Generated_Source\PSoC4/ADC.c **** 
 782:Generated_Source\PSoC4/ADC.c ****     /*******************************************************************************
 783:Generated_Source\PSoC4/ADC.c ****     * Function Name: ADC_CountsTo_uVolts
 784:Generated_Source\PSoC4/ADC.c ****     ********************************************************************************
ARM GAS  C:\Users\User\AppData\Local\Temp\ccuDfRLx.s 			page 37


 785:Generated_Source\PSoC4/ADC.c ****     *
 786:Generated_Source\PSoC4/ADC.c ****     * Summary:
 787:Generated_Source\PSoC4/ADC.c ****     *  This function converts ADC counts to micro Volts
 788:Generated_Source\PSoC4/ADC.c ****     *  This function is not available when left data format justification selected.
 789:Generated_Source\PSoC4/ADC.c ****     *
 790:Generated_Source\PSoC4/ADC.c ****     * Parameters:
 791:Generated_Source\PSoC4/ADC.c ****     *  chan: The ADC channel number.
 792:Generated_Source\PSoC4/ADC.c ****     *  adcCounts: Result from the ADC conversion
 793:Generated_Source\PSoC4/ADC.c ****     *
 794:Generated_Source\PSoC4/ADC.c ****     * Return:
 795:Generated_Source\PSoC4/ADC.c ****     *  Results in uVolts
 796:Generated_Source\PSoC4/ADC.c ****     *
 797:Generated_Source\PSoC4/ADC.c ****     * Global variables:
 798:Generated_Source\PSoC4/ADC.c ****     *  ADC_countsPer10Volt:  used to convert ADC counts to uVolts.
 799:Generated_Source\PSoC4/ADC.c ****     *  ADC_Offset:  Used as the offset while converting ADC counts
 800:Generated_Source\PSoC4/ADC.c ****     *   to mVolts.
 801:Generated_Source\PSoC4/ADC.c ****     *
 802:Generated_Source\PSoC4/ADC.c ****     * Theory:
 803:Generated_Source\PSoC4/ADC.c ****     *  Care must be taken to not exceed the maximum value for a 31 bit signed
 804:Generated_Source\PSoC4/ADC.c ****     *  number in the conversion to uVolts and at the same time not loose
 805:Generated_Source\PSoC4/ADC.c ****     *  resolution.
 806:Generated_Source\PSoC4/ADC.c ****     *  To convert adcCounts to microVolts it is required to be multiplied
 807:Generated_Source\PSoC4/ADC.c ****     *  on 10 million and later divide on gain in counts per 10V.
 808:Generated_Source\PSoC4/ADC.c ****     *
 809:Generated_Source\PSoC4/ADC.c ****     *******************************************************************************/
 810:Generated_Source\PSoC4/ADC.c ****     int32 ADC_CountsTo_uVolts(uint32 chan, int16 adcCounts)
 811:Generated_Source\PSoC4/ADC.c ****     {
 1259              		.loc 1 811 0
 1260              		.cfi_startproc
 1261              		@ args = 0, pretend = 0, frame = 24
 1262              		@ frame_needed = 1, uses_anonymous_args = 0
 1263 0000 B0B5     		push	{r4, r5, r7, lr}
 1264              		.cfi_def_cfa_offset 16
 1265              		.cfi_offset 4, -16
 1266              		.cfi_offset 5, -12
 1267              		.cfi_offset 7, -8
 1268              		.cfi_offset 14, -4
 1269 0002 86B0     		sub	sp, sp, #24
 1270              		.cfi_def_cfa_offset 40
 1271 0004 00AF     		add	r7, sp, #0
 1272              		.cfi_def_cfa_register 7
 1273 0006 F860     		str	r0, [r7, #12]
 1274 0008 0A00     		movs	r2, r1
 1275 000a 0A23     		movs	r3, #10
 1276 000c FB18     		adds	r3, r7, r3
 1277 000e 1A80     		strh	r2, [r3]
 812:Generated_Source\PSoC4/ADC.c ****         int64 uVolts;
 813:Generated_Source\PSoC4/ADC.c **** 
 814:Generated_Source\PSoC4/ADC.c ****         /* Halt CPU in debug mode if channel is out of valid range */
 815:Generated_Source\PSoC4/ADC.c ****         CYASSERT(chan < ADC_TOTAL_CHANNELS_NUM);
 1278              		.loc 1 815 0
 1279 0010 FB68     		ldr	r3, [r7, #12]
 1280 0012 012B     		cmp	r3, #1
 1281 0014 02D9     		bls	.L89
 1282              		.loc 1 815 0 is_stmt 0 discriminator 1
 1283 0016 0020     		movs	r0, #0
 1284 0018 FFF7FEFF 		bl	CyHalt
ARM GAS  C:\Users\User\AppData\Local\Temp\ccuDfRLx.s 			page 38


 1285              	.L89:
 816:Generated_Source\PSoC4/ADC.c **** 
 817:Generated_Source\PSoC4/ADC.c ****         /* Divide the adcCount when accumulate averaging mode selected */
 818:Generated_Source\PSoC4/ADC.c ****         #if(ADC_DEFAULT_AVG_MODE == ADC__ACCUMULATE)
 819:Generated_Source\PSoC4/ADC.c ****             if((ADC_channelsConfig[chan] & ADC_AVERAGING_EN) != 0u)
 820:Generated_Source\PSoC4/ADC.c ****             {
 821:Generated_Source\PSoC4/ADC.c ****                 adcCounts /= ADC_DEFAULT_AVG_SAMPLES_DIV;
 822:Generated_Source\PSoC4/ADC.c ****             }
 823:Generated_Source\PSoC4/ADC.c ****         #endif /* ADC_DEFAULT_AVG_MODE == ADC__ACCUMULATE */
 824:Generated_Source\PSoC4/ADC.c **** 
 825:Generated_Source\PSoC4/ADC.c ****         /* Subtract ADC offset */
 826:Generated_Source\PSoC4/ADC.c ****         adcCounts -= ADC_offset[chan];
 1286              		.loc 1 826 0 is_stmt 1
 1287 001c 194B     		ldr	r3, .L91
 1288 001e FA68     		ldr	r2, [r7, #12]
 1289 0020 5200     		lsls	r2, r2, #1
 1290 0022 D35A     		ldrh	r3, [r2, r3]
 1291 0024 19B2     		sxth	r1, r3
 1292 0026 0A23     		movs	r3, #10
 1293 0028 FB18     		adds	r3, r7, r3
 1294 002a 1A88     		ldrh	r2, [r3]
 1295 002c 8BB2     		uxth	r3, r1
 1296 002e D31A     		subs	r3, r2, r3
 1297 0030 9AB2     		uxth	r2, r3
 1298 0032 0A23     		movs	r3, #10
 1299 0034 FB18     		adds	r3, r7, r3
 1300 0036 1A80     		strh	r2, [r3]
 827:Generated_Source\PSoC4/ADC.c **** 
 828:Generated_Source\PSoC4/ADC.c ****         uVolts = ((int64)adcCounts * ADC_10UV_COUNTS) / ADC_countsPer10Volt[chan];
 1301              		.loc 1 828 0
 1302 0038 0A23     		movs	r3, #10
 1303 003a FB18     		adds	r3, r7, r3
 1304 003c 1B88     		ldrh	r3, [r3]
 1305 003e 1BB2     		sxth	r3, r3
 1306 0040 3B60     		str	r3, [r7]
 1307 0042 DB17     		asrs	r3, r3, #31
 1308 0044 7B60     		str	r3, [r7, #4]
 1309 0046 104A     		ldr	r2, .L91+4
 1310 0048 0023     		movs	r3, #0
 1311 004a 3868     		ldr	r0, [r7]
 1312 004c 7968     		ldr	r1, [r7, #4]
 1313 004e FFF7FEFF 		bl	__aeabi_lmul
 1314 0052 0200     		movs	r2, r0
 1315 0054 0B00     		movs	r3, r1
 1316 0056 1000     		movs	r0, r2
 1317 0058 1900     		movs	r1, r3
 1318 005a 0C4B     		ldr	r3, .L91+8
 1319 005c FA68     		ldr	r2, [r7, #12]
 1320 005e 9200     		lsls	r2, r2, #2
 1321 0060 D358     		ldr	r3, [r2, r3]
 1322 0062 1C00     		movs	r4, r3
 1323 0064 DB17     		asrs	r3, r3, #31
 1324 0066 1D00     		movs	r5, r3
 1325 0068 2200     		movs	r2, r4
 1326 006a 2B00     		movs	r3, r5
 1327 006c FFF7FEFF 		bl	__aeabi_ldivmod
 1328 0070 0300     		movs	r3, r0
ARM GAS  C:\Users\User\AppData\Local\Temp\ccuDfRLx.s 			page 39


 1329 0072 0C00     		movs	r4, r1
 1330 0074 3B61     		str	r3, [r7, #16]
 1331 0076 7C61     		str	r4, [r7, #20]
 829:Generated_Source\PSoC4/ADC.c **** 
 830:Generated_Source\PSoC4/ADC.c ****         return( (int32)uVolts );
 1332              		.loc 1 830 0
 1333 0078 3B69     		ldr	r3, [r7, #16]
 831:Generated_Source\PSoC4/ADC.c ****     }
 1334              		.loc 1 831 0
 1335 007a 1800     		movs	r0, r3
 1336 007c BD46     		mov	sp, r7
 1337 007e 06B0     		add	sp, sp, #24
 1338              		@ sp needed
 1339 0080 B0BD     		pop	{r4, r5, r7, pc}
 1340              	.L92:
 1341 0082 C046     		.align	2
 1342              	.L91:
 1343 0084 00000000 		.word	ADC_offset
 1344 0088 80969800 		.word	10000000
 1345 008c 00000000 		.word	ADC_countsPer10Volt
 1346              		.cfi_endproc
 1347              	.LFE19:
 1348              		.size	ADC_CountsTo_uVolts, .-ADC_CountsTo_uVolts
 1349              		.global	__aeabi_i2f
 1350              		.global	__aeabi_fmul
 1351              		.global	__aeabi_fdiv
 1352              		.section	.text.ADC_CountsTo_Volts,"ax",%progbits
 1353              		.align	2
 1354              		.global	ADC_CountsTo_Volts
 1355              		.code	16
 1356              		.thumb_func
 1357              		.type	ADC_CountsTo_Volts, %function
 1358              	ADC_CountsTo_Volts:
 1359              	.LFB20:
 832:Generated_Source\PSoC4/ADC.c **** 
 833:Generated_Source\PSoC4/ADC.c **** 
 834:Generated_Source\PSoC4/ADC.c ****     /*******************************************************************************
 835:Generated_Source\PSoC4/ADC.c ****     * Function Name: ADC_CountsTo_Volts
 836:Generated_Source\PSoC4/ADC.c ****     ********************************************************************************
 837:Generated_Source\PSoC4/ADC.c ****     *
 838:Generated_Source\PSoC4/ADC.c ****     * Summary:
 839:Generated_Source\PSoC4/ADC.c ****     *  Converts the ADC output to Volts as a floating point number.
 840:Generated_Source\PSoC4/ADC.c ****     *  This function is not available when left data format justification selected.
 841:Generated_Source\PSoC4/ADC.c ****     *
 842:Generated_Source\PSoC4/ADC.c ****     * Parameters:
 843:Generated_Source\PSoC4/ADC.c ****     *  chan: The ADC channel number.
 844:Generated_Source\PSoC4/ADC.c ****     *  Result from the ADC conversion
 845:Generated_Source\PSoC4/ADC.c ****     *
 846:Generated_Source\PSoC4/ADC.c ****     * Return:
 847:Generated_Source\PSoC4/ADC.c ****     *  Results in Volts
 848:Generated_Source\PSoC4/ADC.c ****     *
 849:Generated_Source\PSoC4/ADC.c ****     * Global variables:
 850:Generated_Source\PSoC4/ADC.c ****     *  ADC_countsPer10Volt:  used to convert ADC counts to Volts.
 851:Generated_Source\PSoC4/ADC.c ****     *  ADC_Offset:  Used as the offset while converting ADC counts
 852:Generated_Source\PSoC4/ADC.c ****     *   to mVolts.
 853:Generated_Source\PSoC4/ADC.c ****     *
 854:Generated_Source\PSoC4/ADC.c ****     *******************************************************************************/
ARM GAS  C:\Users\User\AppData\Local\Temp\ccuDfRLx.s 			page 40


 855:Generated_Source\PSoC4/ADC.c ****     float32 ADC_CountsTo_Volts(uint32 chan, int16 adcCounts)
 856:Generated_Source\PSoC4/ADC.c ****     {
 1360              		.loc 1 856 0
 1361              		.cfi_startproc
 1362              		@ args = 0, pretend = 0, frame = 16
 1363              		@ frame_needed = 1, uses_anonymous_args = 0
 1364 0000 90B5     		push	{r4, r7, lr}
 1365              		.cfi_def_cfa_offset 12
 1366              		.cfi_offset 4, -12
 1367              		.cfi_offset 7, -8
 1368              		.cfi_offset 14, -4
 1369 0002 85B0     		sub	sp, sp, #20
 1370              		.cfi_def_cfa_offset 32
 1371 0004 00AF     		add	r7, sp, #0
 1372              		.cfi_def_cfa_register 7
 1373 0006 7860     		str	r0, [r7, #4]
 1374 0008 0A00     		movs	r2, r1
 1375 000a BB1C     		adds	r3, r7, #2
 1376 000c 1A80     		strh	r2, [r3]
 857:Generated_Source\PSoC4/ADC.c ****         float32 volts;
 858:Generated_Source\PSoC4/ADC.c **** 
 859:Generated_Source\PSoC4/ADC.c ****         /* Halt CPU in debug mode if channel is out of valid range */
 860:Generated_Source\PSoC4/ADC.c ****         CYASSERT(chan < ADC_TOTAL_CHANNELS_NUM);
 1377              		.loc 1 860 0
 1378 000e 7B68     		ldr	r3, [r7, #4]
 1379 0010 012B     		cmp	r3, #1
 1380 0012 02D9     		bls	.L94
 1381              		.loc 1 860 0 is_stmt 0 discriminator 1
 1382 0014 0020     		movs	r0, #0
 1383 0016 FFF7FEFF 		bl	CyHalt
 1384              	.L94:
 861:Generated_Source\PSoC4/ADC.c **** 
 862:Generated_Source\PSoC4/ADC.c ****         /* Divide the adcCount when accumulate averaging mode selected */
 863:Generated_Source\PSoC4/ADC.c ****         #if(ADC_DEFAULT_AVG_MODE == ADC__ACCUMULATE)
 864:Generated_Source\PSoC4/ADC.c ****             if((ADC_channelsConfig[chan] & ADC_AVERAGING_EN) != 0u)
 865:Generated_Source\PSoC4/ADC.c ****             {
 866:Generated_Source\PSoC4/ADC.c ****                 adcCounts /= ADC_DEFAULT_AVG_SAMPLES_DIV;
 867:Generated_Source\PSoC4/ADC.c ****             }
 868:Generated_Source\PSoC4/ADC.c ****         #endif /* ADC_DEFAULT_AVG_MODE == ADC__ACCUMULATE */
 869:Generated_Source\PSoC4/ADC.c **** 
 870:Generated_Source\PSoC4/ADC.c ****         /* Subtract ADC offset */
 871:Generated_Source\PSoC4/ADC.c ****         adcCounts -= ADC_offset[chan];
 1385              		.loc 1 871 0 is_stmt 1
 1386 001a 164B     		ldr	r3, .L96
 1387 001c 7A68     		ldr	r2, [r7, #4]
 1388 001e 5200     		lsls	r2, r2, #1
 1389 0020 D35A     		ldrh	r3, [r2, r3]
 1390 0022 19B2     		sxth	r1, r3
 1391 0024 BB1C     		adds	r3, r7, #2
 1392 0026 1A88     		ldrh	r2, [r3]
 1393 0028 8BB2     		uxth	r3, r1
 1394 002a D31A     		subs	r3, r2, r3
 1395 002c 9AB2     		uxth	r2, r3
 1396 002e BB1C     		adds	r3, r7, #2
 1397 0030 1A80     		strh	r2, [r3]
 872:Generated_Source\PSoC4/ADC.c **** 
 873:Generated_Source\PSoC4/ADC.c ****         volts = ((float32)adcCounts * ADC_10V_COUNTS) / (float32)ADC_countsPer10Volt[chan];
ARM GAS  C:\Users\User\AppData\Local\Temp\ccuDfRLx.s 			page 41


 1398              		.loc 1 873 0
 1399 0032 BB1C     		adds	r3, r7, #2
 1400 0034 0022     		movs	r2, #0
 1401 0036 9B5E     		ldrsh	r3, [r3, r2]
 1402 0038 1800     		movs	r0, r3
 1403 003a FFF7FEFF 		bl	__aeabi_i2f
 1404 003e 031C     		adds	r3, r0, #0
 1405 0040 0D49     		ldr	r1, .L96+4
 1406 0042 181C     		adds	r0, r3, #0
 1407 0044 FFF7FEFF 		bl	__aeabi_fmul
 1408 0048 031C     		adds	r3, r0, #0
 1409 004a 1C1C     		adds	r4, r3, #0
 1410 004c 0B4B     		ldr	r3, .L96+8
 1411 004e 7A68     		ldr	r2, [r7, #4]
 1412 0050 9200     		lsls	r2, r2, #2
 1413 0052 D358     		ldr	r3, [r2, r3]
 1414 0054 1800     		movs	r0, r3
 1415 0056 FFF7FEFF 		bl	__aeabi_i2f
 1416 005a 031C     		adds	r3, r0, #0
 1417 005c 191C     		adds	r1, r3, #0
 1418 005e 201C     		adds	r0, r4, #0
 1419 0060 FFF7FEFF 		bl	__aeabi_fdiv
 1420 0064 031C     		adds	r3, r0, #0
 1421 0066 FB60     		str	r3, [r7, #12]
 874:Generated_Source\PSoC4/ADC.c **** 
 875:Generated_Source\PSoC4/ADC.c ****         return( volts );
 1422              		.loc 1 875 0
 1423 0068 FB68     		ldr	r3, [r7, #12]
 876:Generated_Source\PSoC4/ADC.c ****     }
 1424              		.loc 1 876 0
 1425 006a 181C     		adds	r0, r3, #0
 1426 006c BD46     		mov	sp, r7
 1427 006e 05B0     		add	sp, sp, #20
 1428              		@ sp needed
 1429 0070 90BD     		pop	{r4, r7, pc}
 1430              	.L97:
 1431 0072 C046     		.align	2
 1432              	.L96:
 1433 0074 00000000 		.word	ADC_offset
 1434 0078 00002041 		.word	1092616192
 1435 007c 00000000 		.word	ADC_countsPer10Volt
 1436              		.cfi_endproc
 1437              	.LFE20:
 1438              		.size	ADC_CountsTo_Volts, .-ADC_CountsTo_Volts
 1439              		.section	.rodata
 1440              		.align	2
 1441              		.type	ADC_InputsPlacement.4922, %object
 1442              		.size	ADC_InputsPlacement.4922, 2
 1443              	ADC_InputsPlacement.4922:
 1444 0008 00       		.byte	0
 1445 0009 70       		.byte	112
 1446              		.text
 1447              	.Letext0:
 1448              		.file 2 "Generated_Source\\PSoC4\\cytypes.h"