ARM GAS  C:\Users\User\AppData\Local\Temp\cclLcxBg.s 			page 1


   1              		.syntax unified
   2              		.cpu cortex-m0
   3              		.fpu softvfp
   4              		.eabi_attribute 20, 1
   5              		.eabi_attribute 21, 1
   6              		.eabi_attribute 23, 3
   7              		.eabi_attribute 24, 1
   8              		.eabi_attribute 25, 1
   9              		.eabi_attribute 26, 1
  10              		.eabi_attribute 30, 6
  11              		.eabi_attribute 34, 0
  12              		.eabi_attribute 18, 4
  13              		.thumb
  14              		.syntax unified
  15              		.file	"BLE_dis.c"
  16              		.text
  17              	.Ltext0:
  18              		.cfi_sections	.debug_frame
  19              		.global	cyBle_diss
  20              		.section	.rodata
  21              		.align	2
  22              		.type	cyBle_diss, %object
  23              		.size	cyBle_diss, 20
  24              	cyBle_diss:
  25 0000 1500     		.short	21
  26 0002 1700     		.short	23
  27 0004 1900     		.short	25
  28 0006 0000     		.short	0
  29 0008 1B00     		.short	27
  30 000a 0000     		.short	0
  31 000c 0000     		.short	0
  32 000e 0000     		.short	0
  33 0010 0000     		.short	0
  34 0012 0000     		.short	0
  35              		.section	.text.CyBle_DisInit,"ax",%progbits
  36              		.align	2
  37              		.global	CyBle_DisInit
  38              		.code	16
  39              		.thumb_func
  40              		.type	CyBle_DisInit, %function
  41              	CyBle_DisInit:
  42              	.LFB2:
  43              		.file 1 "Generated_Source\\PSoC4\\BLE_dis.c"
   1:Generated_Source\PSoC4/BLE_dis.c **** /***************************************************************************//**
   2:Generated_Source\PSoC4/BLE_dis.c **** * \file CYBLE_dis.c
   3:Generated_Source\PSoC4/BLE_dis.c **** * \version 3.30
   4:Generated_Source\PSoC4/BLE_dis.c **** * 
   5:Generated_Source\PSoC4/BLE_dis.c **** * \brief
   6:Generated_Source\PSoC4/BLE_dis.c **** *  Contains the source code for the Device Information Service.
   7:Generated_Source\PSoC4/BLE_dis.c **** * 
   8:Generated_Source\PSoC4/BLE_dis.c **** ********************************************************************************
   9:Generated_Source\PSoC4/BLE_dis.c **** * \copyright
  10:Generated_Source\PSoC4/BLE_dis.c **** * Copyright 2014-2016, Cypress Semiconductor Corporation.  All rights reserved.
  11:Generated_Source\PSoC4/BLE_dis.c **** * You may use this file only in accordance with the license, terms, conditions,
  12:Generated_Source\PSoC4/BLE_dis.c **** * disclaimers, and limitations in the end user license agreement accompanying
  13:Generated_Source\PSoC4/BLE_dis.c **** * the software package with which this file was provided.
  14:Generated_Source\PSoC4/BLE_dis.c **** *******************************************************************************/
ARM GAS  C:\Users\User\AppData\Local\Temp\cclLcxBg.s 			page 2


  15:Generated_Source\PSoC4/BLE_dis.c **** 
  16:Generated_Source\PSoC4/BLE_dis.c **** 
  17:Generated_Source\PSoC4/BLE_dis.c **** #include "BLE_eventHandler.h"
  18:Generated_Source\PSoC4/BLE_dis.c **** 
  19:Generated_Source\PSoC4/BLE_dis.c **** #ifdef CYBLE_DIS_SERVER
  20:Generated_Source\PSoC4/BLE_dis.c **** 
  21:Generated_Source\PSoC4/BLE_dis.c **** const CYBLE_DISS_T cyBle_diss =
  22:Generated_Source\PSoC4/BLE_dis.c **** {
  23:Generated_Source\PSoC4/BLE_dis.c ****     0x0015u,    /* Handle of the DIS service */
  24:Generated_Source\PSoC4/BLE_dis.c ****     {
  25:Generated_Source\PSoC4/BLE_dis.c ****         0x0017u, /* Handle of the Manufacturer Name String characteristic */ 
  26:Generated_Source\PSoC4/BLE_dis.c ****         0x0019u, /* Handle of the Model Number String characteristic */ 
  27:Generated_Source\PSoC4/BLE_dis.c ****         CYBLE_GATT_INVALID_ATTR_HANDLE_VALUE, /* Handle of the Serial Number String characteristic 
  28:Generated_Source\PSoC4/BLE_dis.c ****         0x001Bu, /* Handle of the Hardware Revision String characteristic */ 
  29:Generated_Source\PSoC4/BLE_dis.c ****         CYBLE_GATT_INVALID_ATTR_HANDLE_VALUE, /* Handle of the Firmware Revision String characteris
  30:Generated_Source\PSoC4/BLE_dis.c ****         CYBLE_GATT_INVALID_ATTR_HANDLE_VALUE, /* Handle of the Software Revision String characteris
  31:Generated_Source\PSoC4/BLE_dis.c ****         CYBLE_GATT_INVALID_ATTR_HANDLE_VALUE, /* Handle of the System ID characteristic */ 
  32:Generated_Source\PSoC4/BLE_dis.c ****         CYBLE_GATT_INVALID_ATTR_HANDLE_VALUE, /* Handle of the IEEE 11073-20601 Regulatory Certific
  33:Generated_Source\PSoC4/BLE_dis.c ****         CYBLE_GATT_INVALID_ATTR_HANDLE_VALUE, /* Handle of the PnP ID characteristic */ 
  34:Generated_Source\PSoC4/BLE_dis.c ****     },
  35:Generated_Source\PSoC4/BLE_dis.c **** };
  36:Generated_Source\PSoC4/BLE_dis.c **** 
  37:Generated_Source\PSoC4/BLE_dis.c **** #endif /* CYBLE_DIS_SERVER */
  38:Generated_Source\PSoC4/BLE_dis.c **** 
  39:Generated_Source\PSoC4/BLE_dis.c **** #ifdef CYBLE_DIS_CLIENT
  40:Generated_Source\PSoC4/BLE_dis.c **** 
  41:Generated_Source\PSoC4/BLE_dis.c **** CYBLE_DISC_T cyBle_disc;
  42:Generated_Source\PSoC4/BLE_dis.c **** static CYBLE_GATT_DB_ATTR_HANDLE_T cyBle_discReqHandle;
  43:Generated_Source\PSoC4/BLE_dis.c **** static CYBLE_CALLBACK_T CyBle_DisApplCallback = NULL;
  44:Generated_Source\PSoC4/BLE_dis.c **** 
  45:Generated_Source\PSoC4/BLE_dis.c **** #endif /* (CYBLE_DIS_CLIENT) */
  46:Generated_Source\PSoC4/BLE_dis.c **** 
  47:Generated_Source\PSoC4/BLE_dis.c **** 
  48:Generated_Source\PSoC4/BLE_dis.c **** /****************************************************************************** 
  49:Generated_Source\PSoC4/BLE_dis.c **** * Function Name: CyBle_DisInit
  50:Generated_Source\PSoC4/BLE_dis.c **** ***************************************************************************//**
  51:Generated_Source\PSoC4/BLE_dis.c **** * 
  52:Generated_Source\PSoC4/BLE_dis.c **** *  This function initializes the DIS service.
  53:Generated_Source\PSoC4/BLE_dis.c **** *  
  54:Generated_Source\PSoC4/BLE_dis.c **** ******************************************************************************/
  55:Generated_Source\PSoC4/BLE_dis.c **** void CyBle_DisInit(void)
  56:Generated_Source\PSoC4/BLE_dis.c **** {
  44              		.loc 1 56 0
  45              		.cfi_startproc
  46              		@ args = 0, pretend = 0, frame = 0
  47              		@ frame_needed = 1, uses_anonymous_args = 0
  48 0000 80B5     		push	{r7, lr}
  49              		.cfi_def_cfa_offset 8
  50              		.cfi_offset 7, -8
  51              		.cfi_offset 14, -4
  52 0002 00AF     		add	r7, sp, #0
  53              		.cfi_def_cfa_register 7
  57:Generated_Source\PSoC4/BLE_dis.c **** 
  58:Generated_Source\PSoC4/BLE_dis.c **** #ifdef CYBLE_DIS_CLIENT
  59:Generated_Source\PSoC4/BLE_dis.c **** 
  60:Generated_Source\PSoC4/BLE_dis.c ****     if(cyBle_serverInfo[CYBLE_SRVI_DIS].range.startHandle == CYBLE_GATT_INVALID_ATTR_HANDLE_VALUE)
  61:Generated_Source\PSoC4/BLE_dis.c ****     {
ARM GAS  C:\Users\User\AppData\Local\Temp\cclLcxBg.s 			page 3


  62:Generated_Source\PSoC4/BLE_dis.c ****         (void)memset(&cyBle_disc, 0, sizeof(cyBle_disc));
  63:Generated_Source\PSoC4/BLE_dis.c ****     }
  64:Generated_Source\PSoC4/BLE_dis.c ****     cyBle_discReqHandle = CYBLE_GATT_INVALID_ATTR_HANDLE_VALUE;
  65:Generated_Source\PSoC4/BLE_dis.c **** 
  66:Generated_Source\PSoC4/BLE_dis.c **** #endif /* CYBLE_DIS_CLIENT */
  67:Generated_Source\PSoC4/BLE_dis.c **** 
  68:Generated_Source\PSoC4/BLE_dis.c **** }
  54              		.loc 1 68 0
  55 0004 C046     		nop
  56 0006 BD46     		mov	sp, r7
  57              		@ sp needed
  58 0008 80BD     		pop	{r7, pc}
  59              		.cfi_endproc
  60              	.LFE2:
  61              		.size	CyBle_DisInit, .-CyBle_DisInit
  62 000a C046     		.section	.text.CyBle_DisRegisterAttrCallback,"ax",%progbits
  63              		.align	2
  64              		.global	CyBle_DisRegisterAttrCallback
  65              		.code	16
  66              		.thumb_func
  67              		.type	CyBle_DisRegisterAttrCallback, %function
  68              	CyBle_DisRegisterAttrCallback:
  69              	.LFB3:
  69:Generated_Source\PSoC4/BLE_dis.c **** 
  70:Generated_Source\PSoC4/BLE_dis.c **** 
  71:Generated_Source\PSoC4/BLE_dis.c **** /****************************************************************************** 
  72:Generated_Source\PSoC4/BLE_dis.c **** * Function Name: CyBle_DisRegisterAttrCallback
  73:Generated_Source\PSoC4/BLE_dis.c **** ***************************************************************************//**
  74:Generated_Source\PSoC4/BLE_dis.c **** * 
  75:Generated_Source\PSoC4/BLE_dis.c **** *  Registers a callback function for service specific attribute operations.
  76:Generated_Source\PSoC4/BLE_dis.c **** *  Callback doesn't have events in server role.
  77:Generated_Source\PSoC4/BLE_dis.c **** * 
  78:Generated_Source\PSoC4/BLE_dis.c **** *  \param callbackFunc: An application layer event callback function to receive 
  79:Generated_Source\PSoC4/BLE_dis.c **** *                    events from the BLE Component. The definition of 
  80:Generated_Source\PSoC4/BLE_dis.c **** *                    CYBLE_CALLBACK_T for Device Information Service is:\n
  81:Generated_Source\PSoC4/BLE_dis.c **** *                    typedef void (* CYBLE_CALLBACK_T) (uint32 eventCode, 
  82:Generated_Source\PSoC4/BLE_dis.c **** *                                                       void *eventParam)
  83:Generated_Source\PSoC4/BLE_dis.c **** *                    * eventCode indicates the event that triggered this 
  84:Generated_Source\PSoC4/BLE_dis.c **** *                      callback.
  85:Generated_Source\PSoC4/BLE_dis.c **** *                    * eventParam contains the parameters corresponding to the 
  86:Generated_Source\PSoC4/BLE_dis.c **** *                      current event.
  87:Generated_Source\PSoC4/BLE_dis.c **** * 
  88:Generated_Source\PSoC4/BLE_dis.c **** ******************************************************************************/
  89:Generated_Source\PSoC4/BLE_dis.c **** void CyBle_DisRegisterAttrCallback(CYBLE_CALLBACK_T callbackFunc)
  90:Generated_Source\PSoC4/BLE_dis.c **** {
  70              		.loc 1 90 0
  71              		.cfi_startproc
  72              		@ args = 0, pretend = 0, frame = 8
  73              		@ frame_needed = 1, uses_anonymous_args = 0
  74 0000 80B5     		push	{r7, lr}
  75              		.cfi_def_cfa_offset 8
  76              		.cfi_offset 7, -8
  77              		.cfi_offset 14, -4
  78 0002 82B0     		sub	sp, sp, #8
  79              		.cfi_def_cfa_offset 16
  80 0004 00AF     		add	r7, sp, #0
  81              		.cfi_def_cfa_register 7
ARM GAS  C:\Users\User\AppData\Local\Temp\cclLcxBg.s 			page 4


  82 0006 7860     		str	r0, [r7, #4]
  91:Generated_Source\PSoC4/BLE_dis.c ****     
  92:Generated_Source\PSoC4/BLE_dis.c **** #ifdef CYBLE_DIS_CLIENT
  93:Generated_Source\PSoC4/BLE_dis.c ****     CyBle_DisApplCallback = callbackFunc;
  94:Generated_Source\PSoC4/BLE_dis.c **** #else
  95:Generated_Source\PSoC4/BLE_dis.c ****     if(callbackFunc != NULL) /* Callback doesn't have events in server role */
  96:Generated_Source\PSoC4/BLE_dis.c ****     {
  97:Generated_Source\PSoC4/BLE_dis.c ****     }
  98:Generated_Source\PSoC4/BLE_dis.c **** #endif /* CYBLE_DIS_CLIENT */
  99:Generated_Source\PSoC4/BLE_dis.c ****     
 100:Generated_Source\PSoC4/BLE_dis.c **** }
  83              		.loc 1 100 0
  84 0008 C046     		nop
  85 000a BD46     		mov	sp, r7
  86 000c 02B0     		add	sp, sp, #8
  87              		@ sp needed
  88 000e 80BD     		pop	{r7, pc}
  89              		.cfi_endproc
  90              	.LFE3:
  91              		.size	CyBle_DisRegisterAttrCallback, .-CyBle_DisRegisterAttrCallback
  92              		.section	.text.CyBle_DissSetCharacteristicValue,"ax",%progbits
  93              		.align	2
  94              		.global	CyBle_DissSetCharacteristicValue
  95              		.code	16
  96              		.thumb_func
  97              		.type	CyBle_DissSetCharacteristicValue, %function
  98              	CyBle_DissSetCharacteristicValue:
  99              	.LFB4:
 101:Generated_Source\PSoC4/BLE_dis.c **** 
 102:Generated_Source\PSoC4/BLE_dis.c **** #ifdef CYBLE_DIS_SERVER
 103:Generated_Source\PSoC4/BLE_dis.c **** 
 104:Generated_Source\PSoC4/BLE_dis.c **** 
 105:Generated_Source\PSoC4/BLE_dis.c **** /******************************************************************************
 106:Generated_Source\PSoC4/BLE_dis.c **** * Function Name: CyBle_DissSetCharacteristicValue
 107:Generated_Source\PSoC4/BLE_dis.c **** ***************************************************************************//**
 108:Generated_Source\PSoC4/BLE_dis.c **** * 
 109:Generated_Source\PSoC4/BLE_dis.c **** *  Sets a characteristic value of the service, which is identified by charIndex,
 110:Generated_Source\PSoC4/BLE_dis.c **** *  to the local database.
 111:Generated_Source\PSoC4/BLE_dis.c **** * 
 112:Generated_Source\PSoC4/BLE_dis.c **** * 
 113:Generated_Source\PSoC4/BLE_dis.c **** *  \param charIndex: The index of a service characteristic.
 114:Generated_Source\PSoC4/BLE_dis.c **** *  \param attrSize: The size of the characteristic value attribute.
 115:Generated_Source\PSoC4/BLE_dis.c **** *  \param *attrValue: The pointer to the characteristic value data that should be
 116:Generated_Source\PSoC4/BLE_dis.c **** *                   stored to the GATT database.
 117:Generated_Source\PSoC4/BLE_dis.c **** * 
 118:Generated_Source\PSoC4/BLE_dis.c **** * \return
 119:Generated_Source\PSoC4/BLE_dis.c **** *  Return value is of type CYBLE_API_RESULT_T.
 120:Generated_Source\PSoC4/BLE_dis.c **** *  * CYBLE_ERROR_OK - The request handled successfully
 121:Generated_Source\PSoC4/BLE_dis.c **** *  * CYBLE_ERROR_INVALID_PARAMETER - Validation of the input parameter failed
 122:Generated_Source\PSoC4/BLE_dis.c **** *
 123:Generated_Source\PSoC4/BLE_dis.c **** ******************************************************************************/
 124:Generated_Source\PSoC4/BLE_dis.c **** CYBLE_API_RESULT_T CyBle_DissSetCharacteristicValue(CYBLE_DIS_CHAR_INDEX_T charIndex, uint8 attrSiz
 125:Generated_Source\PSoC4/BLE_dis.c **** {
 100              		.loc 1 125 0
 101              		.cfi_startproc
 102              		@ args = 0, pretend = 0, frame = 24
 103              		@ frame_needed = 1, uses_anonymous_args = 0
ARM GAS  C:\Users\User\AppData\Local\Temp\cclLcxBg.s 			page 5


 104 0000 80B5     		push	{r7, lr}
 105              		.cfi_def_cfa_offset 8
 106              		.cfi_offset 7, -8
 107              		.cfi_offset 14, -4
 108 0002 86B0     		sub	sp, sp, #24
 109              		.cfi_def_cfa_offset 32
 110 0004 00AF     		add	r7, sp, #0
 111              		.cfi_def_cfa_register 7
 112 0006 3A60     		str	r2, [r7]
 113 0008 FB1D     		adds	r3, r7, #7
 114 000a 021C     		adds	r2, r0, #0
 115 000c 1A70     		strb	r2, [r3]
 116 000e BB1D     		adds	r3, r7, #6
 117 0010 0A1C     		adds	r2, r1, #0
 118 0012 1A70     		strb	r2, [r3]
 126:Generated_Source\PSoC4/BLE_dis.c ****     CYBLE_API_RESULT_T apiResult = CYBLE_ERROR_OK;
 119              		.loc 1 126 0
 120 0014 1623     		movs	r3, #22
 121 0016 FB18     		adds	r3, r7, r3
 122 0018 0022     		movs	r2, #0
 123 001a 1A80     		strh	r2, [r3]
 127:Generated_Source\PSoC4/BLE_dis.c ****     CYBLE_GATT_HANDLE_VALUE_PAIR_T locHandleValuePair;
 128:Generated_Source\PSoC4/BLE_dis.c **** 
 129:Generated_Source\PSoC4/BLE_dis.c ****     if(charIndex >= CYBLE_DIS_CHAR_COUNT)
 124              		.loc 1 129 0
 125 001c FB1D     		adds	r3, r7, #7
 126 001e 1B78     		ldrb	r3, [r3]
 127 0020 082B     		cmp	r3, #8
 128 0022 04D9     		bls	.L4
 130:Generated_Source\PSoC4/BLE_dis.c ****     {
 131:Generated_Source\PSoC4/BLE_dis.c ****         apiResult = CYBLE_ERROR_INVALID_PARAMETER;
 129              		.loc 1 131 0
 130 0024 1623     		movs	r3, #22
 131 0026 FB18     		adds	r3, r7, r3
 132 0028 0122     		movs	r2, #1
 133 002a 1A80     		strh	r2, [r3]
 134 002c 20E0     		b	.L5
 135              	.L4:
 132:Generated_Source\PSoC4/BLE_dis.c ****     }
 133:Generated_Source\PSoC4/BLE_dis.c ****     else
 134:Generated_Source\PSoC4/BLE_dis.c ****     {
 135:Generated_Source\PSoC4/BLE_dis.c ****         /* Store data in database */
 136:Generated_Source\PSoC4/BLE_dis.c ****         locHandleValuePair.attrHandle = cyBle_diss.charHandle[charIndex];
 136              		.loc 1 136 0
 137 002e FB1D     		adds	r3, r7, #7
 138 0030 1B78     		ldrb	r3, [r3]
 139 0032 134A     		ldr	r2, .L7
 140 0034 5B00     		lsls	r3, r3, #1
 141 0036 D318     		adds	r3, r2, r3
 142 0038 0233     		adds	r3, r3, #2
 143 003a 1A88     		ldrh	r2, [r3]
 144 003c 0823     		movs	r3, #8
 145 003e FB18     		adds	r3, r7, r3
 146 0040 1A81     		strh	r2, [r3, #8]
 137:Generated_Source\PSoC4/BLE_dis.c ****         locHandleValuePair.value.len = attrSize;
 147              		.loc 1 137 0
 148 0042 BB1D     		adds	r3, r7, #6
ARM GAS  C:\Users\User\AppData\Local\Temp\cclLcxBg.s 			page 6


 149 0044 1B78     		ldrb	r3, [r3]
 150 0046 9AB2     		uxth	r2, r3
 151 0048 0823     		movs	r3, #8
 152 004a FB18     		adds	r3, r7, r3
 153 004c 9A80     		strh	r2, [r3, #4]
 138:Generated_Source\PSoC4/BLE_dis.c ****         locHandleValuePair.value.val = attrValue;
 154              		.loc 1 138 0
 155 004e 0823     		movs	r3, #8
 156 0050 FB18     		adds	r3, r7, r3
 157 0052 3A68     		ldr	r2, [r7]
 158 0054 1A60     		str	r2, [r3]
 139:Generated_Source\PSoC4/BLE_dis.c ****         if(CYBLE_GATT_ERR_NONE !=
 140:Generated_Source\PSoC4/BLE_dis.c ****             CyBle_GattsWriteAttributeValue(&locHandleValuePair, 0u, NULL, CYBLE_GATT_DB_LOCALLY_INI
 159              		.loc 1 140 0
 160 0056 0823     		movs	r3, #8
 161 0058 F818     		adds	r0, r7, r3
 162 005a 0023     		movs	r3, #0
 163 005c 0022     		movs	r2, #0
 164 005e 0021     		movs	r1, #0
 165 0060 FFF7FEFF 		bl	CyBle_GattsWriteAttributeValue
 166 0064 031E     		subs	r3, r0, #0
 139:Generated_Source\PSoC4/BLE_dis.c ****         if(CYBLE_GATT_ERR_NONE !=
 167              		.loc 1 139 0
 168 0066 03D0     		beq	.L5
 141:Generated_Source\PSoC4/BLE_dis.c ****         {
 142:Generated_Source\PSoC4/BLE_dis.c ****             apiResult = CYBLE_ERROR_INVALID_PARAMETER;
 169              		.loc 1 142 0
 170 0068 1623     		movs	r3, #22
 171 006a FB18     		adds	r3, r7, r3
 172 006c 0122     		movs	r2, #1
 173 006e 1A80     		strh	r2, [r3]
 174              	.L5:
 143:Generated_Source\PSoC4/BLE_dis.c ****         }
 144:Generated_Source\PSoC4/BLE_dis.c ****     }
 145:Generated_Source\PSoC4/BLE_dis.c ****     return (apiResult);
 175              		.loc 1 145 0
 176 0070 1623     		movs	r3, #22
 177 0072 FB18     		adds	r3, r7, r3
 178 0074 1B88     		ldrh	r3, [r3]
 146:Generated_Source\PSoC4/BLE_dis.c **** }
 179              		.loc 1 146 0
 180 0076 1800     		movs	r0, r3
 181 0078 BD46     		mov	sp, r7
 182 007a 06B0     		add	sp, sp, #24
 183              		@ sp needed
 184 007c 80BD     		pop	{r7, pc}
 185              	.L8:
 186 007e C046     		.align	2
 187              	.L7:
 188 0080 00000000 		.word	cyBle_diss
 189              		.cfi_endproc
 190              	.LFE4:
 191              		.size	CyBle_DissSetCharacteristicValue, .-CyBle_DissSetCharacteristicValue
 192              		.section	.text.CyBle_DissGetCharacteristicValue,"ax",%progbits
 193              		.align	2
 194              		.global	CyBle_DissGetCharacteristicValue
 195              		.code	16
ARM GAS  C:\Users\User\AppData\Local\Temp\cclLcxBg.s 			page 7


 196              		.thumb_func
 197              		.type	CyBle_DissGetCharacteristicValue, %function
 198              	CyBle_DissGetCharacteristicValue:
 199              	.LFB5:
 147:Generated_Source\PSoC4/BLE_dis.c **** 
 148:Generated_Source\PSoC4/BLE_dis.c **** 
 149:Generated_Source\PSoC4/BLE_dis.c **** /******************************************************************************
 150:Generated_Source\PSoC4/BLE_dis.c **** * Function Name: CyBle_DissGetCharacteristicValue
 151:Generated_Source\PSoC4/BLE_dis.c **** ***************************************************************************//**
 152:Generated_Source\PSoC4/BLE_dis.c **** * 
 153:Generated_Source\PSoC4/BLE_dis.c **** *  Gets a characteristic value of the service, which is identified by charIndex,
 154:Generated_Source\PSoC4/BLE_dis.c **** *  from the GATT database.
 155:Generated_Source\PSoC4/BLE_dis.c **** * 
 156:Generated_Source\PSoC4/BLE_dis.c **** *  \param charIndex: The index of a service characteristic.
 157:Generated_Source\PSoC4/BLE_dis.c **** *  \param attrSize: The size of the characteristic value attribute.
 158:Generated_Source\PSoC4/BLE_dis.c **** *  \param *attrValue: The pointer to the location where characteristic value data
 159:Generated_Source\PSoC4/BLE_dis.c **** *               should be stored.
 160:Generated_Source\PSoC4/BLE_dis.c **** * 
 161:Generated_Source\PSoC4/BLE_dis.c **** * \return
 162:Generated_Source\PSoC4/BLE_dis.c **** *  Return value is of type CYBLE_API_RESULT_T.
 163:Generated_Source\PSoC4/BLE_dis.c **** *  Return value is of type CYBLE_API_RESULT_T.
 164:Generated_Source\PSoC4/BLE_dis.c **** *  * CYBLE_ERROR_OK - The request handled successfully
 165:Generated_Source\PSoC4/BLE_dis.c **** *  * CYBLE_ERROR_INVALID_PARAMETER - Validation of the input parameter failed
 166:Generated_Source\PSoC4/BLE_dis.c **** *
 167:Generated_Source\PSoC4/BLE_dis.c **** ******************************************************************************/
 168:Generated_Source\PSoC4/BLE_dis.c **** CYBLE_API_RESULT_T CyBle_DissGetCharacteristicValue(CYBLE_DIS_CHAR_INDEX_T charIndex, uint8 attrSiz
 169:Generated_Source\PSoC4/BLE_dis.c **** {
 200              		.loc 1 169 0
 201              		.cfi_startproc
 202              		@ args = 0, pretend = 0, frame = 24
 203              		@ frame_needed = 1, uses_anonymous_args = 0
 204 0000 80B5     		push	{r7, lr}
 205              		.cfi_def_cfa_offset 8
 206              		.cfi_offset 7, -8
 207              		.cfi_offset 14, -4
 208 0002 86B0     		sub	sp, sp, #24
 209              		.cfi_def_cfa_offset 32
 210 0004 00AF     		add	r7, sp, #0
 211              		.cfi_def_cfa_register 7
 212 0006 3A60     		str	r2, [r7]
 213 0008 FB1D     		adds	r3, r7, #7
 214 000a 021C     		adds	r2, r0, #0
 215 000c 1A70     		strb	r2, [r3]
 216 000e BB1D     		adds	r3, r7, #6
 217 0010 0A1C     		adds	r2, r1, #0
 218 0012 1A70     		strb	r2, [r3]
 170:Generated_Source\PSoC4/BLE_dis.c ****     CYBLE_API_RESULT_T apiResult = CYBLE_ERROR_OK;
 219              		.loc 1 170 0
 220 0014 1623     		movs	r3, #22
 221 0016 FB18     		adds	r3, r7, r3
 222 0018 0022     		movs	r2, #0
 223 001a 1A80     		strh	r2, [r3]
 171:Generated_Source\PSoC4/BLE_dis.c ****     CYBLE_GATT_HANDLE_VALUE_PAIR_T locHandleValuePair;
 172:Generated_Source\PSoC4/BLE_dis.c **** 
 173:Generated_Source\PSoC4/BLE_dis.c ****     if(charIndex >= CYBLE_DIS_CHAR_COUNT)
 224              		.loc 1 173 0
 225 001c FB1D     		adds	r3, r7, #7
ARM GAS  C:\Users\User\AppData\Local\Temp\cclLcxBg.s 			page 8


 226 001e 1B78     		ldrb	r3, [r3]
 227 0020 082B     		cmp	r3, #8
 228 0022 04D9     		bls	.L10
 174:Generated_Source\PSoC4/BLE_dis.c ****     {
 175:Generated_Source\PSoC4/BLE_dis.c ****         apiResult = CYBLE_ERROR_INVALID_PARAMETER;
 229              		.loc 1 175 0
 230 0024 1623     		movs	r3, #22
 231 0026 FB18     		adds	r3, r7, r3
 232 0028 0122     		movs	r2, #1
 233 002a 1A80     		strh	r2, [r3]
 234 002c 20E0     		b	.L11
 235              	.L10:
 176:Generated_Source\PSoC4/BLE_dis.c ****     }
 177:Generated_Source\PSoC4/BLE_dis.c ****     else
 178:Generated_Source\PSoC4/BLE_dis.c ****     {
 179:Generated_Source\PSoC4/BLE_dis.c ****         /* Read characteristic value from database */
 180:Generated_Source\PSoC4/BLE_dis.c ****         locHandleValuePair.attrHandle = cyBle_diss.charHandle[charIndex];
 236              		.loc 1 180 0
 237 002e FB1D     		adds	r3, r7, #7
 238 0030 1B78     		ldrb	r3, [r3]
 239 0032 134A     		ldr	r2, .L13
 240 0034 5B00     		lsls	r3, r3, #1
 241 0036 D318     		adds	r3, r2, r3
 242 0038 0233     		adds	r3, r3, #2
 243 003a 1A88     		ldrh	r2, [r3]
 244 003c 0823     		movs	r3, #8
 245 003e FB18     		adds	r3, r7, r3
 246 0040 1A81     		strh	r2, [r3, #8]
 181:Generated_Source\PSoC4/BLE_dis.c ****         locHandleValuePair.value.len = attrSize;
 247              		.loc 1 181 0
 248 0042 BB1D     		adds	r3, r7, #6
 249 0044 1B78     		ldrb	r3, [r3]
 250 0046 9AB2     		uxth	r2, r3
 251 0048 0823     		movs	r3, #8
 252 004a FB18     		adds	r3, r7, r3
 253 004c 9A80     		strh	r2, [r3, #4]
 182:Generated_Source\PSoC4/BLE_dis.c ****         locHandleValuePair.value.val = attrValue;
 254              		.loc 1 182 0
 255 004e 0823     		movs	r3, #8
 256 0050 FB18     		adds	r3, r7, r3
 257 0052 3A68     		ldr	r2, [r7]
 258 0054 1A60     		str	r2, [r3]
 183:Generated_Source\PSoC4/BLE_dis.c ****         if(CYBLE_GATT_ERR_NONE !=
 184:Generated_Source\PSoC4/BLE_dis.c ****             CyBle_GattsReadAttributeValue(&locHandleValuePair, NULL, CYBLE_GATT_DB_LOCALLY_INITIATE
 259              		.loc 1 184 0
 260 0056 0823     		movs	r3, #8
 261 0058 FB18     		adds	r3, r7, r3
 262 005a 0022     		movs	r2, #0
 263 005c 0021     		movs	r1, #0
 264 005e 1800     		movs	r0, r3
 265 0060 FFF7FEFF 		bl	CyBle_GattsReadAttributeValue
 266 0064 031E     		subs	r3, r0, #0
 183:Generated_Source\PSoC4/BLE_dis.c ****         if(CYBLE_GATT_ERR_NONE !=
 267              		.loc 1 183 0
 268 0066 03D0     		beq	.L11
 185:Generated_Source\PSoC4/BLE_dis.c ****         {
 186:Generated_Source\PSoC4/BLE_dis.c ****             apiResult = CYBLE_ERROR_INVALID_PARAMETER;
ARM GAS  C:\Users\User\AppData\Local\Temp\cclLcxBg.s 			page 9


 269              		.loc 1 186 0
 270 0068 1623     		movs	r3, #22
 271 006a FB18     		adds	r3, r7, r3
 272 006c 0122     		movs	r2, #1
 273 006e 1A80     		strh	r2, [r3]
 274              	.L11:
 187:Generated_Source\PSoC4/BLE_dis.c ****         }
 188:Generated_Source\PSoC4/BLE_dis.c ****     }
 189:Generated_Source\PSoC4/BLE_dis.c ****     return (apiResult);
 275              		.loc 1 189 0
 276 0070 1623     		movs	r3, #22
 277 0072 FB18     		adds	r3, r7, r3
 278 0074 1B88     		ldrh	r3, [r3]
 190:Generated_Source\PSoC4/BLE_dis.c **** }
 279              		.loc 1 190 0
 280 0076 1800     		movs	r0, r3
 281 0078 BD46     		mov	sp, r7
 282 007a 06B0     		add	sp, sp, #24
 283              		@ sp needed
 284 007c 80BD     		pop	{r7, pc}
 285              	.L14:
 286 007e C046     		.align	2
 287              	.L13:
 288 0080 00000000 		.word	cyBle_diss
 289              		.cfi_endproc
 290              	.LFE5:
 291              		.size	CyBle_DissGetCharacteristicValue, .-CyBle_DissGetCharacteristicValue
 292              		.text
 293              	.Letext0:
 294              		.file 2 "Generated_Source\\PSoC4\\cytypes.h"
 295              		.file 3 "Generated_Source\\PSoC4\\BLE_Stack.h"
 296              		.file 4 "Generated_Source\\PSoC4\\BLE_StackGatt.h"
 297              		.file 5 "Generated_Source\\PSoC4\\BLE.h"
 298              		.file 6 "Generated_Source\\PSoC4\\BLE_dis.h"
 299              		.file 7 "Generated_Source\\PSoC4\\BLE_hts.h"