ARM GAS  C:\Users\User\AppData\Local\Temp\cc23O6Z7.s 			page 1


   1              		.syntax unified
   2              		.cpu cortex-m0
   3              		.fpu softvfp
   4              		.eabi_attribute 20, 1
   5              		.eabi_attribute 21, 1
   6              		.eabi_attribute 23, 3
   7              		.eabi_attribute 24, 1
   8              		.eabi_attribute 25, 1
   9              		.eabi_attribute 26, 1
  10              		.eabi_attribute 30, 6
  11              		.eabi_attribute 34, 0
  12              		.eabi_attribute 18, 4
  13              		.thumb
  14              		.syntax unified
  15              		.file	"DieTemp.c"
  16              		.text
  17              	.Ltext0:
  18              		.cfi_sections	.debug_frame
  19              		.global	__aeabi_idiv
  20              		.section	.text.DieTemp_CountsTo_Celsius,"ax",%progbits
  21              		.align	2
  22              		.global	DieTemp_CountsTo_Celsius
  23              		.code	16
  24              		.thumb_func
  25              		.type	DieTemp_CountsTo_Celsius, %function
  26              	DieTemp_CountsTo_Celsius:
  27              	.LFB2:
  28              		.file 1 "Generated_Source\\PSoC4\\DieTemp.c"
   1:Generated_Source\PSoC4/DieTemp.c **** /*******************************************************************************
   2:Generated_Source\PSoC4/DieTemp.c **** * File Name: DieTemp.c
   3:Generated_Source\PSoC4/DieTemp.c **** * Version 1.0
   4:Generated_Source\PSoC4/DieTemp.c **** *
   5:Generated_Source\PSoC4/DieTemp.c **** * Description:
   6:Generated_Source\PSoC4/DieTemp.c **** *  This file provides the source code of APIs for the DieTemp_P4 component.
   7:Generated_Source\PSoC4/DieTemp.c **** *
   8:Generated_Source\PSoC4/DieTemp.c **** *******************************************************************************
   9:Generated_Source\PSoC4/DieTemp.c **** * Copyright 2013, Cypress Semiconductor Corporation.  All rights reserved.
  10:Generated_Source\PSoC4/DieTemp.c **** * You may use this file only in accordance with the license, terms, conditions,
  11:Generated_Source\PSoC4/DieTemp.c **** * disclaimers, and limitations in the end user license agreement accompanying
  12:Generated_Source\PSoC4/DieTemp.c **** * the software package with which this file was provided.
  13:Generated_Source\PSoC4/DieTemp.c **** *******************************************************************************/
  14:Generated_Source\PSoC4/DieTemp.c **** 
  15:Generated_Source\PSoC4/DieTemp.c **** #include "DieTemp.h"
  16:Generated_Source\PSoC4/DieTemp.c **** 
  17:Generated_Source\PSoC4/DieTemp.c **** 
  18:Generated_Source\PSoC4/DieTemp.c **** /*******************************************************************************
  19:Generated_Source\PSoC4/DieTemp.c **** * Function Name: DieTemp_CountsTo_Celsius
  20:Generated_Source\PSoC4/DieTemp.c **** ********************************************************************************
  21:Generated_Source\PSoC4/DieTemp.c **** *
  22:Generated_Source\PSoC4/DieTemp.c **** * Summary:
  23:Generated_Source\PSoC4/DieTemp.c **** *  Converts the ADC output to degrees Celsius.
  24:Generated_Source\PSoC4/DieTemp.c **** *
  25:Generated_Source\PSoC4/DieTemp.c **** * Parameters:
  26:Generated_Source\PSoC4/DieTemp.c **** *  int32 adcCounts:
  27:Generated_Source\PSoC4/DieTemp.c **** *   Result from the ADC Conversion
  28:Generated_Source\PSoC4/DieTemp.c **** *
  29:Generated_Source\PSoC4/DieTemp.c **** * Return:
ARM GAS  C:\Users\User\AppData\Local\Temp\cc23O6Z7.s 			page 2


  30:Generated_Source\PSoC4/DieTemp.c **** *  Temperature in degrees Celsius
  31:Generated_Source\PSoC4/DieTemp.c **** *
  32:Generated_Source\PSoC4/DieTemp.c **** * Global variables:
  33:Generated_Source\PSoC4/DieTemp.c **** *  None
  34:Generated_Source\PSoC4/DieTemp.c **** *
  35:Generated_Source\PSoC4/DieTemp.c **** *******************************************************************************/
  36:Generated_Source\PSoC4/DieTemp.c **** int32 DieTemp_CountsTo_Celsius(int32 adcCounts)
  37:Generated_Source\PSoC4/DieTemp.c **** {
  29              		.loc 1 37 0
  30              		.cfi_startproc
  31              		@ args = 0, pretend = 0, frame = 32
  32              		@ frame_needed = 1, uses_anonymous_args = 0
  33 0000 80B5     		push	{r7, lr}
  34              		.cfi_def_cfa_offset 8
  35              		.cfi_offset 7, -8
  36              		.cfi_offset 14, -4
  37 0002 88B0     		sub	sp, sp, #32
  38              		.cfi_def_cfa_offset 40
  39 0004 00AF     		add	r7, sp, #0
  40              		.cfi_def_cfa_register 7
  41 0006 7860     		str	r0, [r7, #4]
  38:Generated_Source\PSoC4/DieTemp.c ****     int32 tempCelsius;
  39:Generated_Source\PSoC4/DieTemp.c ****     int32 tInitial;
  40:Generated_Source\PSoC4/DieTemp.c ****     int32 tAdjust;
  41:Generated_Source\PSoC4/DieTemp.c ****     int32 offsetReg;
  42:Generated_Source\PSoC4/DieTemp.c ****     int32 multReg;
  43:Generated_Source\PSoC4/DieTemp.c **** 
  44:Generated_Source\PSoC4/DieTemp.c ****     offsetReg = (int16)DieTemp_SAR_TEMP_OFFSET_REG;
  42              		.loc 1 44 0
  43 0008 234B     		ldr	r3, .L8
  44 000a 1B88     		ldrh	r3, [r3]
  45 000c 9BB2     		uxth	r3, r3
  46 000e 1BB2     		sxth	r3, r3
  47 0010 BB61     		str	r3, [r7, #24]
  45:Generated_Source\PSoC4/DieTemp.c ****     multReg   = (int16)DieTemp_SAR_TEMP_MULTIPLIER_REG;
  48              		.loc 1 45 0
  49 0012 224B     		ldr	r3, .L8+4
  50 0014 1B88     		ldrh	r3, [r3]
  51 0016 9BB2     		uxth	r3, r3
  52 0018 1BB2     		sxth	r3, r3
  53 001a 7B61     		str	r3, [r7, #20]
  46:Generated_Source\PSoC4/DieTemp.c ****     /* Calculate tInitial in Q16.16 */
  47:Generated_Source\PSoC4/DieTemp.c ****     tInitial = (adcCounts * multReg) + (offsetReg * DieTemp_SAR_TEMP_OFFSET_MULT);
  54              		.loc 1 47 0
  55 001c 7B68     		ldr	r3, [r7, #4]
  56 001e 7A69     		ldr	r2, [r7, #20]
  57 0020 5A43     		muls	r2, r3
  58 0022 BB69     		ldr	r3, [r7, #24]
  59 0024 9B02     		lsls	r3, r3, #10
  60 0026 D318     		adds	r3, r2, r3
  61 0028 3B61     		str	r3, [r7, #16]
  48:Generated_Source\PSoC4/DieTemp.c **** 
  49:Generated_Source\PSoC4/DieTemp.c ****     if(tInitial >= DieTemp_DUAL_SLOPE_CORRECTION)
  62              		.loc 1 49 0
  63 002a 3B69     		ldr	r3, [r7, #16]
  64 002c 1C4A     		ldr	r2, .L8+8
  65 002e 9342     		cmp	r3, r2
ARM GAS  C:\Users\User\AppData\Local\Temp\cc23O6Z7.s 			page 3


  66 0030 0EDD     		ble	.L2
  50:Generated_Source\PSoC4/DieTemp.c ****     {
  51:Generated_Source\PSoC4/DieTemp.c ****         /* Shift (100 - tInitial) by 4 bits to prevent scale-adjustment from overflowing. */
  52:Generated_Source\PSoC4/DieTemp.c ****         /* Then divide by the integer bits of (100 - cutoff) to end up with a Q16.16 tAdjust */
  53:Generated_Source\PSoC4/DieTemp.c ****         tAdjust = (DieTemp_SCALE_ADJUSTMENT * (((int32)DieTemp_HIGH_TEMPERATURE - tInitial)
  67              		.loc 1 53 0
  68 0032 3B69     		ldr	r3, [r7, #16]
  69 0034 C822     		movs	r2, #200
  70 0036 D203     		lsls	r2, r2, #15
  71 0038 D31A     		subs	r3, r2, r3
  54:Generated_Source\PSoC4/DieTemp.c ****             / (int32)DieTemp_SCALE_ADJUSTMENT_DIVIDER)) /
  72              		.loc 1 54 0
  73 003a 00D5     		bpl	.L3
  74 003c 0F33     		adds	r3, r3, #15
  75              	.L3:
  76 003e 1B11     		asrs	r3, r3, #4
  53:Generated_Source\PSoC4/DieTemp.c ****             / (int32)DieTemp_SCALE_ADJUSTMENT_DIVIDER)) /
  77              		.loc 1 53 0
  78 0040 DB00     		lsls	r3, r3, #3
  79 0042 5521     		movs	r1, #85
  80 0044 1800     		movs	r0, r3
  81 0046 FFF7FEFF 		bl	__aeabi_idiv
  82 004a 0300     		movs	r3, r0
  83 004c FB61     		str	r3, [r7, #28]
  84 004e 0FE0     		b	.L4
  85              	.L2:
  55:Generated_Source\PSoC4/DieTemp.c ****             (((int32)DieTemp_HIGH_TEMPERATURE - (int32)DieTemp_DUAL_SLOPE_CORRECTION) /
  56:Generated_Source\PSoC4/DieTemp.c ****             DieTemp_SAR_TEMP_DIVIDER);
  57:Generated_Source\PSoC4/DieTemp.c ****     }
  58:Generated_Source\PSoC4/DieTemp.c ****     else
  59:Generated_Source\PSoC4/DieTemp.c ****     {
  60:Generated_Source\PSoC4/DieTemp.c ****         /* Shift (40 + tInitial) by 4 bits to prevent scale-adjustment from overflowing. */
  61:Generated_Source\PSoC4/DieTemp.c ****         /* Then divide by the integer bits of (40 + cutoff) to end up with a Q16.16 tAdjust */
  62:Generated_Source\PSoC4/DieTemp.c ****         tAdjust = ((int32)DieTemp_SCALE_ADJUSTMENT * (((int32)DieTemp_LOW_TEMPERATURE + tInitial)
  86              		.loc 1 62 0
  87 0050 3B69     		ldr	r3, [r7, #16]
  88 0052 A022     		movs	r2, #160
  89 0054 9203     		lsls	r2, r2, #14
  90 0056 9446     		mov	ip, r2
  91 0058 6344     		add	r3, r3, ip
  63:Generated_Source\PSoC4/DieTemp.c ****            / (int32)DieTemp_SCALE_ADJUSTMENT_DIVIDER)) /
  92              		.loc 1 63 0
  93 005a 002B     		cmp	r3, #0
  94 005c 00DA     		bge	.L5
  95 005e 0F33     		adds	r3, r3, #15
  96              	.L5:
  97 0060 1B11     		asrs	r3, r3, #4
  62:Generated_Source\PSoC4/DieTemp.c ****            / (int32)DieTemp_SCALE_ADJUSTMENT_DIVIDER)) /
  98              		.loc 1 62 0
  99 0062 DB00     		lsls	r3, r3, #3
 100 0064 3721     		movs	r1, #55
 101 0066 1800     		movs	r0, r3
 102 0068 FFF7FEFF 		bl	__aeabi_idiv
 103 006c 0300     		movs	r3, r0
 104 006e FB61     		str	r3, [r7, #28]
 105              	.L4:
  64:Generated_Source\PSoC4/DieTemp.c ****             (((int32)DieTemp_LOW_TEMPERATURE + (int32)DieTemp_DUAL_SLOPE_CORRECTION) /
ARM GAS  C:\Users\User\AppData\Local\Temp\cc23O6Z7.s 			page 4


  65:Generated_Source\PSoC4/DieTemp.c ****             (int32)DieTemp_SAR_TEMP_DIVIDER);
  66:Generated_Source\PSoC4/DieTemp.c ****     }
  67:Generated_Source\PSoC4/DieTemp.c **** 
  68:Generated_Source\PSoC4/DieTemp.c ****     /* Add tInitial + tAdjust + 0.5 to round to nearest int. Shift off frac bits, and return. */
  69:Generated_Source\PSoC4/DieTemp.c ****     tempCelsius = tInitial + tAdjust + DieTemp_HALF_OF_ONE;
 106              		.loc 1 69 0
 107 0070 3A69     		ldr	r2, [r7, #16]
 108 0072 FB69     		ldr	r3, [r7, #28]
 109 0074 D318     		adds	r3, r2, r3
 110 0076 8022     		movs	r2, #128
 111 0078 1202     		lsls	r2, r2, #8
 112 007a 9446     		mov	ip, r2
 113 007c 6344     		add	r3, r3, ip
 114 007e FB60     		str	r3, [r7, #12]
  70:Generated_Source\PSoC4/DieTemp.c **** 
  71:Generated_Source\PSoC4/DieTemp.c ****     return (tempCelsius / DieTemp_SAR_TEMP_OFFSET_DIVIDER);
 115              		.loc 1 71 0
 116 0080 FB68     		ldr	r3, [r7, #12]
 117 0082 002B     		cmp	r3, #0
 118 0084 02DA     		bge	.L6
 119 0086 074A     		ldr	r2, .L8+12
 120 0088 9446     		mov	ip, r2
 121 008a 6344     		add	r3, r3, ip
 122              	.L6:
 123 008c 1B14     		asrs	r3, r3, #16
  72:Generated_Source\PSoC4/DieTemp.c **** }
 124              		.loc 1 72 0
 125 008e 1800     		movs	r0, r3
 126 0090 BD46     		mov	sp, r7
 127 0092 08B0     		add	sp, sp, #32
 128              		@ sp needed
 129 0094 80BD     		pop	{r7, pc}
 130              	.L9:
 131 0096 C046     		.align	2
 132              	.L8:
 133 0098 66F2FF0F 		.word	268431974
 134 009c 64F2FF0F 		.word	268431972
 135 00a0 FFFF0E00 		.word	983039
 136 00a4 FFFF0000 		.word	65535
 137              		.cfi_endproc
 138              	.LFE2:
 139              		.size	DieTemp_CountsTo_Celsius, .-DieTemp_CountsTo_Celsius
 140              		.text
 141              	.Letext0:
 142              		.file 2 "Generated_Source\\PSoC4\\cytypes.h"