ARM GAS  C:\Users\User\AppData\Local\Temp\ccmjp3TL.s 			page 1


   1              		.syntax unified
   2              		.cpu cortex-m0
   3              		.fpu softvfp
   4              		.eabi_attribute 20, 1
   5              		.eabi_attribute 21, 1
   6              		.eabi_attribute 23, 3
   7              		.eabi_attribute 24, 1
   8              		.eabi_attribute 25, 1
   9              		.eabi_attribute 26, 1
  10              		.eabi_attribute 30, 6
  11              		.eabi_attribute 34, 0
  12              		.eabi_attribute 18, 4
  13              		.thumb
  14              		.syntax unified
  15              		.file	"hts.c"
  16              		.text
  17              	.Ltext0:
  18              		.cfi_sections	.debug_frame
  19              		.global	temperatureMeasure
  20              		.bss
  21              		.align	1
  22              		.type	temperatureMeasure, %object
  23              		.size	temperatureMeasure, 2
  24              	temperatureMeasure:
  25 0000 0000     		.space	2
  26              		.global	temperatureTimer
  27              		.data
  28              		.align	2
  29              		.type	temperatureTimer, %object
  30              		.size	temperatureTimer, 4
  31              	temperatureTimer:
  32 0000 01000000 		.word	1
  33              		.global	initialMeasurementInterval
  34              		.align	1
  35              		.type	initialMeasurementInterval, %object
  36              		.size	initialMeasurementInterval, 2
  37              	initialMeasurementInterval:
  38 0004 0A00     		.short	10
  39              		.global	measure
  40              		.type	measure, %object
  41              		.size	measure, 1
  42              	measure:
  43 0006 01       		.byte	1
  44              		.global	temp_data
  45              		.bss
  46 0002 0000     		.align	2
  47              		.type	temp_data, %object
  48              		.size	temp_data, 5
  49              	temp_data:
  50 0004 00000000 		.space	5
  50      00
  51              		.section	.rodata
  52              		.align	2
  53              	.LC0:
  54 0000 48545320 		.ascii	"HTS event: %lx, \000"
  54      6576656E 
  54      743A2025 
ARM GAS  C:\Users\User\AppData\Local\Temp\ccmjp3TL.s 			page 2


  54      6C782C20 
  54      00
  55 0011 000000   		.align	2
  56              	.LC3:
  57 0014 4359424C 		.ascii	"CYBLE_EVT_HTSS_INDICATION_ENABLED: char: %x\015\012"
  57      455F4556 
  57      545F4854 
  57      53535F49 
  57      4E444943 
  58 0041 00       		.ascii	"\000"
  59 0042 0000     		.align	2
  60              	.LC8:
  61 0044 4359424C 		.ascii	"CYBLE_EVT_HTSS_INDICATION_DISABLED: char: %x\015\012"
  61      455F4556 
  61      545F4854 
  61      53535F49 
  61      4E444943 
  62 0072 00       		.ascii	"\000"
  63 0073 00       		.align	2
  64              	.LC10:
  65 0074 4359424C 		.ascii	"CYBLE_EVT_HTSS_INDICATION_CONFIRMED\015\000"
  65      455F4556 
  65      545F4854 
  65      53535F49 
  65      4E444943 
  66 0099 000000   		.align	2
  67              	.LC12:
  68 009c 4359424C 		.ascii	"CYBLE_EVT_HTSS_CHAR_WRITE: %x \000"
  68      455F4556 
  68      545F4854 
  68      53535F43 
  68      4841525F 
  69 00bb 00       		.align	2
  70              	.LC17:
  71 00bc 4E6F7420 		.ascii	"Not supported event\015\000"
  71      73757070 
  71      6F727465 
  71      64206576 
  71      656E740D 
  72              		.section	.text.HtsCallBack,"ax",%progbits
  73              		.align	2
  74              		.global	HtsCallBack
  75              		.code	16
  76              		.thumb_func
  77              		.type	HtsCallBack, %function
  78              	HtsCallBack:
  79              	.LFB36:
  80              		.file 1 "hts.c"
   1:hts.c         **** /*******************************************************************************
   2:hts.c         **** * File Name: hts.c
   3:hts.c         **** *
   4:hts.c         **** * Version: 1.0
   5:hts.c         **** *
   6:hts.c         **** * Description:
   7:hts.c         **** *  This file contains HTS callback handler function.
   8:hts.c         **** *
   9:hts.c         **** * Hardware Dependency:
ARM GAS  C:\Users\User\AppData\Local\Temp\ccmjp3TL.s 			page 3


  10:hts.c         **** *  CY8CKIT-042 BLE
  11:hts.c         **** * 
  12:hts.c         **** ********************************************************************************
  13:hts.c         **** * Copyright 2016, Cypress Semiconductor Corporation.  All rights reserved.
  14:hts.c         **** * You may use this file only in accordance with the license, terms, conditions,
  15:hts.c         **** * disclaimers, and limitations in the end user license agreement accompanying
  16:hts.c         **** * the software package with which this file was provided.
  17:hts.c         **** *******************************************************************************/
  18:hts.c         **** 
  19:hts.c         **** #include "common.h"
  20:hts.c         **** #include "hts.h"
  21:hts.c         **** 
  22:hts.c         **** uint16 temperatureMeasure = 0u;
  23:hts.c         **** uint32 temperatureTimer = 1u;
  24:hts.c         **** 
  25:hts.c         **** uint16 initialMeasurementInterval = 10;
  26:hts.c         **** uint8 measure = ENABLED; 
  27:hts.c         **** 
  28:hts.c         **** /* Byte order: 
  29:hts.c         **** *   Flags
  30:hts.c         **** *   Temperature in float format (MSB 8 bits - exponent, LSB 24 bits - mantissa) 
  31:hts.c         **** */
  32:hts.c         **** uint8 temp_data[HTS_TEMP_DATA_MIN_SIZE] = {0u, 0u, 0u, 0u, 0u};
  33:hts.c         **** 
  34:hts.c         **** 
  35:hts.c         **** /*******************************************************************************
  36:hts.c         **** * Function Name: HtsCallBack()
  37:hts.c         **** ********************************************************************************
  38:hts.c         **** *
  39:hts.c         **** * Summary:
  40:hts.c         **** *   This is an event callback function to receive service specific events from 
  41:hts.c         **** *   Health Thermometer Service.
  42:hts.c         **** *
  43:hts.c         **** * Parameters:
  44:hts.c         **** *  event - the event code
  45:hts.c         **** *  *eventParam - the event parameters
  46:hts.c         **** *
  47:hts.c         **** * Return:
  48:hts.c         **** *  None.
  49:hts.c         **** *
  50:hts.c         **** *******************************************************************************/
  51:hts.c         **** void HtsCallBack(uint32 event, void *eventParam)
  52:hts.c         **** {
  81              		.loc 1 52 0
  82              		.cfi_startproc
  83              		@ args = 0, pretend = 0, frame = 16
  84              		@ frame_needed = 1, uses_anonymous_args = 0
  85 0000 90B5     		push	{r4, r7, lr}
  86              		.cfi_def_cfa_offset 12
  87              		.cfi_offset 4, -12
  88              		.cfi_offset 7, -8
  89              		.cfi_offset 14, -4
  90 0002 85B0     		sub	sp, sp, #20
  91              		.cfi_def_cfa_offset 32
  92 0004 00AF     		add	r7, sp, #0
  93              		.cfi_def_cfa_register 7
  94 0006 7860     		str	r0, [r7, #4]
ARM GAS  C:\Users\User\AppData\Local\Temp\ccmjp3TL.s 			page 4


  95 0008 3960     		str	r1, [r7]
  53:hts.c         ****     uint8 locCharIndex;
  54:hts.c         ****     locCharIndex = ((CYBLE_HTS_CHAR_VALUE_T *)eventParam)->charIndex;
  96              		.loc 1 54 0
  97 000a 0F23     		movs	r3, #15
  98 000c FB18     		adds	r3, r7, r3
  99 000e 3A68     		ldr	r2, [r7]
 100 0010 9278     		ldrb	r2, [r2, #2]
 101 0012 1A70     		strb	r2, [r3]
  55:hts.c         ****     DBG_PRINTF("HTS event: %lx, ", event);
 102              		.loc 1 55 0
 103 0014 7A68     		ldr	r2, [r7, #4]
 104 0016 3D4B     		ldr	r3, .L24
 105 0018 1100     		movs	r1, r2
 106 001a 1800     		movs	r0, r3
 107 001c FFF7FEFF 		bl	printf
  56:hts.c         **** 
  57:hts.c         ****     switch(event)
 108              		.loc 1 57 0
 109 0020 7B68     		ldr	r3, [r7, #4]
 110 0022 B13B     		subs	r3, r3, #177
 111 0024 FF3B     		subs	r3, r3, #255
 112 0026 0B2B     		cmp	r3, #11
 113 0028 60D8     		bhi	.L2
 114 002a 9A00     		lsls	r2, r3, #2
 115 002c 384B     		ldr	r3, .L24+4
 116 002e D318     		adds	r3, r2, r3
 117 0030 1B68     		ldr	r3, [r3]
 118 0032 9F46     		mov	pc, r3
 119              		.section	.rodata
 120 00d1 000000   		.align	2
 121              	.L4:
 122 00d4 F6000000 		.word	.L20
 123 00d8 F6000000 		.word	.L20
 124 00dc 34000000 		.word	.L6
 125 00e0 62000000 		.word	.L7
 126 00e4 84000000 		.word	.L8
 127 00e8 8E000000 		.word	.L9
 128 00ec F6000000 		.word	.L20
 129 00f0 F6000000 		.word	.L20
 130 00f4 F6000000 		.word	.L20
 131 00f8 F6000000 		.word	.L20
 132 00fc F6000000 		.word	.L20
 133 0100 F6000000 		.word	.L20
 134              		.section	.text.HtsCallBack
 135              	.L6:
  58:hts.c         ****     {
  59:hts.c         ****         case CYBLE_EVT_HTSS_NOTIFICATION_ENABLED:
  60:hts.c         ****             break;
  61:hts.c         ****         case CYBLE_EVT_HTSS_NOTIFICATION_DISABLED:
  62:hts.c         ****             break;
  63:hts.c         ****         case CYBLE_EVT_HTSS_INDICATION_ENABLED:
  64:hts.c         ****             DBG_PRINTF("CYBLE_EVT_HTSS_INDICATION_ENABLED: char: %x\r\n", locCharIndex);
 136              		.loc 1 64 0
 137 0034 0F23     		movs	r3, #15
 138 0036 FB18     		adds	r3, r7, r3
 139 0038 1A78     		ldrb	r2, [r3]
ARM GAS  C:\Users\User\AppData\Local\Temp\ccmjp3TL.s 			page 5


 140 003a 364B     		ldr	r3, .L24+8
 141 003c 1100     		movs	r1, r2
 142 003e 1800     		movs	r0, r3
 143 0040 FFF7FEFF 		bl	printf
  65:hts.c         ****             if(locCharIndex == CYBLE_HTS_TEMP_MEASURE)
 144              		.loc 1 65 0
 145 0044 0F23     		movs	r3, #15
 146 0046 FB18     		adds	r3, r7, r3
 147 0048 1B78     		ldrb	r3, [r3]
 148 004a 002B     		cmp	r3, #0
 149 004c 55D1     		bne	.L21
  66:hts.c         ****             {
  67:hts.c         ****                 temperatureMeasure = ENABLED;
 150              		.loc 1 67 0
 151 004e 324B     		ldr	r3, .L24+12
 152 0050 0122     		movs	r2, #1
 153 0052 1A80     		strh	r2, [r3]
  68:hts.c         ****                 measure = ENABLED;
 154              		.loc 1 68 0
 155 0054 314B     		ldr	r3, .L24+16
 156 0056 0122     		movs	r2, #1
 157 0058 1A70     		strb	r2, [r3]
  69:hts.c         ****                 temp_data[0] = 0u;
 158              		.loc 1 69 0
 159 005a 314B     		ldr	r3, .L24+20
 160 005c 0022     		movs	r2, #0
 161 005e 1A70     		strb	r2, [r3]
  70:hts.c         ****             }
  71:hts.c         ****             break;
 162              		.loc 1 71 0
 163 0060 4BE0     		b	.L21
 164              	.L7:
  72:hts.c         ****         case CYBLE_EVT_HTSS_INDICATION_DISABLED:
  73:hts.c         ****             DBG_PRINTF("CYBLE_EVT_HTSS_INDICATION_DISABLED: char: %x\r\n", locCharIndex);
 165              		.loc 1 73 0
 166 0062 0F23     		movs	r3, #15
 167 0064 FB18     		adds	r3, r7, r3
 168 0066 1A78     		ldrb	r2, [r3]
 169 0068 2E4B     		ldr	r3, .L24+24
 170 006a 1100     		movs	r1, r2
 171 006c 1800     		movs	r0, r3
 172 006e FFF7FEFF 		bl	printf
  74:hts.c         ****             if(locCharIndex == CYBLE_HTS_TEMP_MEASURE)
 173              		.loc 1 74 0
 174 0072 0F23     		movs	r3, #15
 175 0074 FB18     		adds	r3, r7, r3
 176 0076 1B78     		ldrb	r3, [r3]
 177 0078 002B     		cmp	r3, #0
 178 007a 40D1     		bne	.L22
  75:hts.c         ****             {
  76:hts.c         ****                 temperatureMeasure = DISABLED;
 179              		.loc 1 76 0
 180 007c 264B     		ldr	r3, .L24+12
 181 007e 0022     		movs	r2, #0
 182 0080 1A80     		strh	r2, [r3]
  77:hts.c         ****             }
  78:hts.c         ****             break;
ARM GAS  C:\Users\User\AppData\Local\Temp\ccmjp3TL.s 			page 6


 183              		.loc 1 78 0
 184 0082 3CE0     		b	.L22
 185              	.L8:
  79:hts.c         ****         case CYBLE_EVT_HTSS_INDICATION_CONFIRMED:
  80:hts.c         ****             DBG_PRINTF("CYBLE_EVT_HTSS_INDICATION_CONFIRMED\r\n");
 186              		.loc 1 80 0
 187 0084 284B     		ldr	r3, .L24+28
 188 0086 1800     		movs	r0, r3
 189 0088 FFF7FEFF 		bl	puts
  81:hts.c         ****             break;
 190              		.loc 1 81 0
 191 008c 3AE0     		b	.L16
 192              	.L9:
  82:hts.c         ****         case CYBLE_EVT_HTSS_CHAR_WRITE:
  83:hts.c         ****             DBG_PRINTF("CYBLE_EVT_HTSS_CHAR_WRITE: %x ", locCharIndex);
 193              		.loc 1 83 0
 194 008e 0F23     		movs	r3, #15
 195 0090 FB18     		adds	r3, r7, r3
 196 0092 1A78     		ldrb	r2, [r3]
 197 0094 254B     		ldr	r3, .L24+32
 198 0096 1100     		movs	r1, r2
 199 0098 1800     		movs	r0, r3
 200 009a FFF7FEFF 		bl	printf
  84:hts.c         ****             ShowValue(((CYBLE_HTS_CHAR_VALUE_T *)eventParam)->value);
 201              		.loc 1 84 0
 202 009e 3B68     		ldr	r3, [r7]
 203 00a0 5B68     		ldr	r3, [r3, #4]
 204 00a2 1800     		movs	r0, r3
 205 00a4 FFF7FEFF 		bl	ShowValue
  85:hts.c         ****             if(locCharIndex == CYBLE_HTS_MEASURE_INTERVAL)
 206              		.loc 1 85 0
 207 00a8 0F23     		movs	r3, #15
 208 00aa FB18     		adds	r3, r7, r3
 209 00ac 1B78     		ldrb	r3, [r3]
 210 00ae 032B     		cmp	r3, #3
 211 00b0 27D1     		bne	.L23
 212              	.LBB2:
  86:hts.c         ****             {
  87:hts.c         ****                 uint16 interval;
  88:hts.c         ****                 interval = CyBle_Get16ByPtr(((CYBLE_HTS_CHAR_VALUE_T *)eventParam)->value->val);
 213              		.loc 1 88 0
 214 00b2 3B68     		ldr	r3, [r7]
 215 00b4 5B68     		ldr	r3, [r3, #4]
 216 00b6 1B68     		ldr	r3, [r3]
 217 00b8 0C22     		movs	r2, #12
 218 00ba BC18     		adds	r4, r7, r2
 219 00bc 1800     		movs	r0, r3
 220 00be FFF7FEFF 		bl	CyBle_Get16ByPtr
 221 00c2 0300     		movs	r3, r0
 222 00c4 2380     		strh	r3, [r4]
  89:hts.c         ****                 
  90:hts.c         ****                 /* Store new interval value */
  91:hts.c         ****                 initialMeasurementInterval = interval;
 223              		.loc 1 91 0
 224 00c6 1A4B     		ldr	r3, .L24+36
 225 00c8 0C22     		movs	r2, #12
 226 00ca BA18     		adds	r2, r7, r2
ARM GAS  C:\Users\User\AppData\Local\Temp\ccmjp3TL.s 			page 7


 227 00cc 1288     		ldrh	r2, [r2]
 228 00ce 1A80     		strh	r2, [r3]
  92:hts.c         ****                 if(interval != 0u)
 229              		.loc 1 92 0
 230 00d0 0C23     		movs	r3, #12
 231 00d2 FB18     		adds	r3, r7, r3
 232 00d4 1B88     		ldrh	r3, [r3]
 233 00d6 002B     		cmp	r3, #0
 234 00d8 13D0     		beq	.L23
  93:hts.c         ****                 {
  94:hts.c         ****                     /* Reset the measurement interval and start the measurement process. */
  95:hts.c         ****                     temperatureTimer = 1u;
 235              		.loc 1 95 0
 236 00da 164B     		ldr	r3, .L24+40
 237 00dc 0122     		movs	r2, #1
 238 00de 1A60     		str	r2, [r3]
  96:hts.c         ****                     mainTimer++;
 239              		.loc 1 96 0
 240 00e0 154B     		ldr	r3, .L24+44
 241 00e2 1B68     		ldr	r3, [r3]
 242 00e4 5A1C     		adds	r2, r3, #1
 243 00e6 144B     		ldr	r3, .L24+44
 244 00e8 1A60     		str	r2, [r3]
 245              	.LBE2:
  97:hts.c         ****                 }
  98:hts.c         ****             }
  99:hts.c         ****             break;
 246              		.loc 1 99 0
 247 00ea 0AE0     		b	.L23
 248              	.L2:
 100:hts.c         ****         case CYBLE_EVT_HTSC_NOTIFICATION:
 101:hts.c         ****             break;
 102:hts.c         ****         case CYBLE_EVT_HTSC_INDICATION:
 103:hts.c         ****             break;
 104:hts.c         ****         case CYBLE_EVT_HTSC_READ_CHAR_RESPONSE:
 105:hts.c         ****             break;
 106:hts.c         ****         case CYBLE_EVT_HTSC_WRITE_CHAR_RESPONSE:
 107:hts.c         ****             break;
 108:hts.c         ****         case CYBLE_EVT_HTSC_READ_DESCR_RESPONSE:
 109:hts.c         ****             break;
 110:hts.c         ****         case CYBLE_EVT_HTSC_WRITE_DESCR_RESPONSE:
 111:hts.c         ****             break;
 112:hts.c         **** 		default:
 113:hts.c         ****             DBG_PRINTF("Not supported event\r\n");
 249              		.loc 1 113 0
 250 00ec 134B     		ldr	r3, .L24+48
 251 00ee 1800     		movs	r0, r3
 252 00f0 FFF7FEFF 		bl	puts
 114:hts.c         **** 			break;
 253              		.loc 1 114 0
 254 00f4 06E0     		b	.L16
 255              	.L20:
 111:hts.c         **** 		default:
 256              		.loc 1 111 0
 257 00f6 C046     		nop
 258 00f8 04E0     		b	.L16
 259              	.L21:
ARM GAS  C:\Users\User\AppData\Local\Temp\ccmjp3TL.s 			page 8


  71:hts.c         ****         case CYBLE_EVT_HTSS_INDICATION_DISABLED:
 260              		.loc 1 71 0
 261 00fa C046     		nop
 262 00fc 02E0     		b	.L16
 263              	.L22:
  78:hts.c         ****         case CYBLE_EVT_HTSS_INDICATION_CONFIRMED:
 264              		.loc 1 78 0
 265 00fe C046     		nop
 266 0100 00E0     		b	.L16
 267              	.L23:
  99:hts.c         ****         case CYBLE_EVT_HTSC_NOTIFICATION:
 268              		.loc 1 99 0
 269 0102 C046     		nop
 270              	.L16:
 115:hts.c         ****     }
 116:hts.c         **** }
 271              		.loc 1 116 0
 272 0104 C046     		nop
 273 0106 BD46     		mov	sp, r7
 274 0108 05B0     		add	sp, sp, #20
 275              		@ sp needed
 276 010a 90BD     		pop	{r4, r7, pc}
 277              	.L25:
 278              		.align	2
 279              	.L24:
 280 010c 00000000 		.word	.LC0
 281 0110 D4000000 		.word	.L4
 282 0114 14000000 		.word	.LC3
 283 0118 00000000 		.word	temperatureMeasure
 284 011c 00000000 		.word	measure
 285 0120 00000000 		.word	temp_data
 286 0124 44000000 		.word	.LC8
 287 0128 74000000 		.word	.LC10
 288 012c 9C000000 		.word	.LC12
 289 0130 00000000 		.word	initialMeasurementInterval
 290 0134 00000000 		.word	temperatureTimer
 291 0138 00000000 		.word	mainTimer
 292 013c BC000000 		.word	.LC17
 293              		.cfi_endproc
 294              	.LFE36:
 295              		.size	HtsCallBack, .-HtsCallBack
 296              		.global	__aeabi_idiv
 297              		.section	.rodata
 298              		.align	2
 299              	.LC26:
 300 0104 4379426C 		.ascii	"CyBle_HtssSendIndication API Error: %x \015\012\000"
 300      655F4874 
 300      73735365 
 300      6E64496E 
 300      64696361 
 301 012e 0000     		.align	2
 302              	.LC29:
 303 0130 4D656173 		.ascii	"MeasureTemperature: %d %c  \000"
 303      75726554 
 303      656D7065 
 303      72617475 
 303      72653A20 
ARM GAS  C:\Users\User\AppData\Local\Temp\ccmjp3TL.s 			page 9


 304              		.section	.text.MeasureTemperature,"ax",%progbits
 305              		.align	2
 306              		.global	MeasureTemperature
 307              		.code	16
 308              		.thumb_func
 309              		.type	MeasureTemperature, %function
 310              	MeasureTemperature:
 311              	.LFB37:
 117:hts.c         **** 
 118:hts.c         **** 
 119:hts.c         **** /*******************************************************************************
 120:hts.c         **** * Function Name: MeasureTemperature()
 121:hts.c         **** ********************************************************************************
 122:hts.c         **** *
 123:hts.c         **** * Summary:
 124:hts.c         **** *   This function measures the die temperature and sends it to the client.
 125:hts.c         **** *
 126:hts.c         **** *******************************************************************************/
 127:hts.c         **** void MeasureTemperature(void)
 128:hts.c         **** {
 312              		.loc 1 128 0
 313              		.cfi_startproc
 314              		@ args = 0, pretend = 0, frame = 16
 315              		@ frame_needed = 1, uses_anonymous_args = 0
 316 0000 90B5     		push	{r4, r7, lr}
 317              		.cfi_def_cfa_offset 12
 318              		.cfi_offset 4, -12
 319              		.cfi_offset 7, -8
 320              		.cfi_offset 14, -4
 321 0002 85B0     		sub	sp, sp, #20
 322              		.cfi_def_cfa_offset 32
 323 0004 00AF     		add	r7, sp, #0
 324              		.cfi_def_cfa_register 7
 129:hts.c         **** 	int32 ADCCountsCorrected;
 130:hts.c         ****     int32 temperatureValue;
 131:hts.c         ****     static int32 temperatureCelsius;
 132:hts.c         ****     CYBLE_API_RESULT_T apiResult;
 133:hts.c         ****     
 134:hts.c         ****     /* Do not measure temperature when 0 interval is set */
 135:hts.c         ****     if((initialMeasurementInterval != 0u) && (--temperatureTimer == 0u)) 
 325              		.loc 1 135 0
 326 0006 4E4B     		ldr	r3, .L37
 327 0008 1B88     		ldrh	r3, [r3]
 328 000a 002B     		cmp	r3, #0
 329 000c 00D1     		bne	.LCB211
 330 000e 92E0     		b	.L36	@long jump
 331              	.LCB211:
 332              		.loc 1 135 0 is_stmt 0 discriminator 1
 333 0010 4C4B     		ldr	r3, .L37+4
 334 0012 1B68     		ldr	r3, [r3]
 335 0014 5A1E     		subs	r2, r3, #1
 336 0016 4B4B     		ldr	r3, .L37+4
 337 0018 1A60     		str	r2, [r3]
 338 001a 4A4B     		ldr	r3, .L37+4
 339 001c 1B68     		ldr	r3, [r3]
 340 001e 002B     		cmp	r3, #0
 341 0020 00D0     		beq	.LCB220
ARM GAS  C:\Users\User\AppData\Local\Temp\ccmjp3TL.s 			page 10


 342 0022 88E0     		b	.L36	@long jump
 343              	.LCB220:
 136:hts.c         ****     {
 137:hts.c         ****         temperatureTimer = initialMeasurementInterval;
 344              		.loc 1 137 0 is_stmt 1
 345 0024 464B     		ldr	r3, .L37
 346 0026 1B88     		ldrh	r3, [r3]
 347 0028 1A00     		movs	r2, r3
 348 002a 464B     		ldr	r3, .L37+4
 349 002c 1A60     		str	r2, [r3]
 138:hts.c         ****         
 139:hts.c         ****         /* Measure Die temperature only first time, later simulate */
 140:hts.c         ****         if(measure != 0u)
 350              		.loc 1 140 0
 351 002e 464B     		ldr	r3, .L37+8
 352 0030 1B78     		ldrb	r3, [r3]
 353 0032 002B     		cmp	r3, #0
 354 0034 18D0     		beq	.L28
 141:hts.c         ****         {
 142:hts.c         ****             measure = 0u;
 355              		.loc 1 142 0
 356 0036 444B     		ldr	r3, .L37+8
 357 0038 0022     		movs	r2, #0
 358 003a 1A70     		strb	r2, [r3]
 143:hts.c         ****             /* Enables injection channel and performs a measurement. */
 144:hts.c         ****             ADC_EnableInjection();
 359              		.loc 1 144 0
 360 003c FFF7FEFF 		bl	ADC_EnableInjection
 145:hts.c         ****         	ADC_StartConvert();
 361              		.loc 1 145 0
 362 0040 FFF7FEFF 		bl	ADC_StartConvert
 146:hts.c         ****         	ADC_IsEndConversion(ADC_WAIT_FOR_RESULT_INJ);
 363              		.loc 1 146 0
 364 0044 0820     		movs	r0, #8
 365 0046 FFF7FEFF 		bl	ADC_IsEndConversion
 147:hts.c         ****             
 148:hts.c         ****             /* Read conversion result and adjust data from ADC with respect to Vref value. */
 149:hts.c         ****         	ADCCountsCorrected = ADC_DEFAULT_VREF_MV_VALUE * ADC_GetResult16(ADC_TEMPERATURE_CHANNEL) 
 366              		.loc 1 149 0
 367 004a 0120     		movs	r0, #1
 368 004c FFF7FEFF 		bl	ADC_GetResult16
 369 0050 0300     		movs	r3, r0
 370 0052 9B02     		lsls	r3, r3, #10
 371 0054 9B0A     		lsrs	r3, r3, #10
 372 0056 BB60     		str	r3, [r7, #8]
 150:hts.c         **** 
 151:hts.c         ****             /* Convert the ADC output to degrees Celsius. */
 152:hts.c         ****             temperatureCelsius = DieTemp_CountsTo_Celsius(ADCCountsCorrected);
 373              		.loc 1 152 0
 374 0058 BB68     		ldr	r3, [r7, #8]
 375 005a 1800     		movs	r0, r3
 376 005c FFF7FEFF 		bl	DieTemp_CountsTo_Celsius
 377 0060 0200     		movs	r2, r0
 378 0062 3A4B     		ldr	r3, .L37+12
 379 0064 1A60     		str	r2, [r3]
 380 0066 0BE0     		b	.L29
 381              	.L28:
ARM GAS  C:\Users\User\AppData\Local\Temp\ccmjp3TL.s 			page 11


 153:hts.c         **** 
 154:hts.c         ****         }
 155:hts.c         ****         else /* Temperature Simulation */
 156:hts.c         ****         {
 157:hts.c         ****             temperatureCelsius += SIM_TEMPERATURE_INCREMENT;
 382              		.loc 1 157 0
 383 0068 384B     		ldr	r3, .L37+12
 384 006a 1B68     		ldr	r3, [r3]
 385 006c 5A1C     		adds	r2, r3, #1
 386 006e 374B     		ldr	r3, .L37+12
 387 0070 1A60     		str	r2, [r3]
 158:hts.c         ****             if(temperatureCelsius > SIM_TEMPERATURE_MAX)
 388              		.loc 1 158 0
 389 0072 364B     		ldr	r3, .L37+12
 390 0074 1B68     		ldr	r3, [r3]
 391 0076 282B     		cmp	r3, #40
 392 0078 02DD     		ble	.L29
 159:hts.c         ****             {
 160:hts.c         ****                 temperatureCelsius = SIM_TEMPERATURE_MIN; 
 393              		.loc 1 160 0
 394 007a 344B     		ldr	r3, .L37+12
 395 007c 0F22     		movs	r2, #15
 396 007e 1A60     		str	r2, [r3]
 397              	.L29:
 161:hts.c         ****             }
 162:hts.c         ****         }
 163:hts.c         ****         
 164:hts.c         ****         /* Convert Celsius to Fahrenheit if required */
 165:hts.c         ****         if((temp_data[0] & CYBLE_HTS_MEAS_FLAG_TEMP_UNITS_BIT) != 0u)
 398              		.loc 1 165 0
 399 0080 334B     		ldr	r3, .L37+16
 400 0082 1B78     		ldrb	r3, [r3]
 401 0084 1A00     		movs	r2, r3
 402 0086 0123     		movs	r3, #1
 403 0088 1340     		ands	r3, r2
 404 008a 0CD0     		beq	.L30
 166:hts.c         ****         {
 167:hts.c         ****             temperatureValue = 32 + ((temperatureCelsius * 9) / 5);
 405              		.loc 1 167 0
 406 008c 2F4B     		ldr	r3, .L37+12
 407 008e 1A68     		ldr	r2, [r3]
 408 0090 1300     		movs	r3, r2
 409 0092 DB00     		lsls	r3, r3, #3
 410 0094 9B18     		adds	r3, r3, r2
 411 0096 0521     		movs	r1, #5
 412 0098 1800     		movs	r0, r3
 413 009a FFF7FEFF 		bl	__aeabi_idiv
 414 009e 0300     		movs	r3, r0
 415 00a0 2033     		adds	r3, r3, #32
 416 00a2 FB60     		str	r3, [r7, #12]
 417 00a4 02E0     		b	.L31
 418              	.L30:
 168:hts.c         ****         }
 169:hts.c         ****         else
 170:hts.c         ****         {
 171:hts.c         ****             temperatureValue = temperatureCelsius;
 419              		.loc 1 171 0
ARM GAS  C:\Users\User\AppData\Local\Temp\ccmjp3TL.s 			page 12


 420 00a6 294B     		ldr	r3, .L37+12
 421 00a8 1B68     		ldr	r3, [r3]
 422 00aa FB60     		str	r3, [r7, #12]
 423              	.L31:
 172:hts.c         ****         }
 173:hts.c         ****         
 174:hts.c         ****         /* Convert int32 to the IEEE-11073 FLOAT-Type.
 175:hts.c         ****         *  It is defined as a 32-bit value with a 24-bit mantissa and an 8-bit exponent.
 176:hts.c         ****         *  For the integer temperature, 24-bit value has been used with mantissa equal to 0 */
 177:hts.c         ****         temperatureValue &= 0x00FFFFFF;
 424              		.loc 1 177 0
 425 00ac FB68     		ldr	r3, [r7, #12]
 426 00ae 1B02     		lsls	r3, r3, #8
 427 00b0 1B0A     		lsrs	r3, r3, #8
 428 00b2 FB60     		str	r3, [r7, #12]
 178:hts.c         **** 
 179:hts.c         ****         /* Copy temperature to array */
 180:hts.c         ****         Set32ByPtr(temp_data + 1u, (uint32)temperatureValue);
 429              		.loc 1 180 0
 430 00b4 274B     		ldr	r3, .L37+20
 431 00b6 FA68     		ldr	r2, [r7, #12]
 432 00b8 1100     		movs	r1, r2
 433 00ba 1800     		movs	r0, r3
 434 00bc FFF7FEFF 		bl	Set32ByPtr
 181:hts.c         ****         
 182:hts.c         ****         /* Send temperature to client */
 183:hts.c         ****         apiResult = CyBle_HtssSendIndication(cyBle_connHandle, CYBLE_HTS_TEMP_MEASURE, 
 435              		.loc 1 183 0
 436 00c0 BC1D     		adds	r4, r7, #6
 437 00c2 2349     		ldr	r1, .L37+16
 438 00c4 244B     		ldr	r3, .L37+24
 439 00c6 1A78     		ldrb	r2, [r3]
 440 00c8 5B78     		ldrb	r3, [r3, #1]
 441 00ca 1B02     		lsls	r3, r3, #8
 442 00cc 1343     		orrs	r3, r2
 443 00ce 0020     		movs	r0, #0
 444 00d0 1B04     		lsls	r3, r3, #16
 445 00d2 1B0C     		lsrs	r3, r3, #16
 446 00d4 020C     		lsrs	r2, r0, #16
 447 00d6 1204     		lsls	r2, r2, #16
 448 00d8 1343     		orrs	r3, r2
 449 00da 1800     		movs	r0, r3
 450 00dc 0B00     		movs	r3, r1
 451 00de 0522     		movs	r2, #5
 452 00e0 0021     		movs	r1, #0
 453 00e2 FFF7FEFF 		bl	CyBle_HtssSendIndication
 454 00e6 0300     		movs	r3, r0
 455 00e8 2380     		strh	r3, [r4]
 184:hts.c         ****                         sizeof(temp_data), temp_data);
 185:hts.c         ****         if(apiResult != CYBLE_ERROR_OK)
 456              		.loc 1 185 0
 457 00ea BB1D     		adds	r3, r7, #6
 458 00ec 1B88     		ldrh	r3, [r3]
 459 00ee 002B     		cmp	r3, #0
 460 00f0 0AD0     		beq	.L32
 186:hts.c         ****         {
 187:hts.c         ****             DBG_PRINTF("CyBle_HtssSendIndication API Error: %x \r\n", apiResult);
ARM GAS  C:\Users\User\AppData\Local\Temp\ccmjp3TL.s 			page 13


 461              		.loc 1 187 0
 462 00f2 BB1D     		adds	r3, r7, #6
 463 00f4 1A88     		ldrh	r2, [r3]
 464 00f6 194B     		ldr	r3, .L37+28
 465 00f8 1100     		movs	r1, r2
 466 00fa 1800     		movs	r0, r3
 467 00fc FFF7FEFF 		bl	printf
 188:hts.c         ****             temperatureMeasure = DISABLED;
 468              		.loc 1 188 0
 469 0100 174B     		ldr	r3, .L37+32
 470 0102 0022     		movs	r2, #0
 471 0104 1A80     		strh	r2, [r3]
 472 0106 0FE0     		b	.L33
 473              	.L32:
 189:hts.c         ****         }
 190:hts.c         ****         else
 191:hts.c         ****         {
 192:hts.c         ****             DBG_PRINTF("MeasureTemperature: %d %c  ", (int16)temperatureValue,
 474              		.loc 1 192 0
 475 0108 FB68     		ldr	r3, [r7, #12]
 476 010a 1BB2     		sxth	r3, r3
 477 010c 1900     		movs	r1, r3
 478 010e 104B     		ldr	r3, .L37+16
 479 0110 1B78     		ldrb	r3, [r3]
 480 0112 1A00     		movs	r2, r3
 481 0114 0123     		movs	r3, #1
 482 0116 1340     		ands	r3, r2
 483 0118 01D0     		beq	.L34
 484              		.loc 1 192 0 is_stmt 0 discriminator 1
 485 011a 4623     		movs	r3, #70
 486 011c 00E0     		b	.L35
 487              	.L34:
 488              		.loc 1 192 0 discriminator 2
 489 011e 4323     		movs	r3, #67
 490              	.L35:
 491              		.loc 1 192 0 discriminator 4
 492 0120 1048     		ldr	r0, .L37+36
 493 0122 1A00     		movs	r2, r3
 494 0124 FFF7FEFF 		bl	printf
 495              	.L33:
 193:hts.c         ****             (((temp_data[0] & CYBLE_HTS_MEAS_FLAG_TEMP_UNITS_BIT) != 0u) ? 'F' : 'C'));
 194:hts.c         ****         }
 195:hts.c         ****         
 196:hts.c         ****         /* Toggle the temperature unit flag on each temperature update */
 197:hts.c         ****         temp_data[0] ^= CYBLE_HTS_MEAS_FLAG_TEMP_UNITS_BIT;
 496              		.loc 1 197 0 is_stmt 1
 497 0128 094B     		ldr	r3, .L37+16
 498 012a 1B78     		ldrb	r3, [r3]
 499 012c 0122     		movs	r2, #1
 500 012e 5340     		eors	r3, r2
 501 0130 DAB2     		uxtb	r2, r3
 502 0132 074B     		ldr	r3, .L37+16
 503 0134 1A70     		strb	r2, [r3]
 504              	.L36:
 198:hts.c         ****     }
 199:hts.c         **** }
 505              		.loc 1 199 0
ARM GAS  C:\Users\User\AppData\Local\Temp\ccmjp3TL.s 			page 14


 506 0136 C046     		nop
 507 0138 BD46     		mov	sp, r7
 508 013a 05B0     		add	sp, sp, #20
 509              		@ sp needed
 510 013c 90BD     		pop	{r4, r7, pc}
 511              	.L38:
 512 013e C046     		.align	2
 513              	.L37:
 514 0140 00000000 		.word	initialMeasurementInterval
 515 0144 00000000 		.word	temperatureTimer
 516 0148 00000000 		.word	measure
 517 014c 0C000000 		.word	temperatureCelsius.8574
 518 0150 00000000 		.word	temp_data
 519 0154 01000000 		.word	temp_data+1
 520 0158 00000000 		.word	cyBle_connHandle
 521 015c 04010000 		.word	.LC26
 522 0160 00000000 		.word	temperatureMeasure
 523 0164 30010000 		.word	.LC29
 524              		.cfi_endproc
 525              	.LFE37:
 526              		.size	MeasureTemperature, .-MeasureTemperature
 527              		.bss
 528 0009 000000   		.align	2
 529              	temperatureCelsius.8574:
 530 000c 00000000 		.space	4
 531              		.text
 532              	.Letext0:
 533              		.file 2 "Generated_Source\\PSoC4/cytypes.h"
 534              		.file 3 "Generated_Source\\PSoC4/BLE_Stack.h"
 535              		.file 4 "Generated_Source\\PSoC4/BLE_StackGatt.h"
 536              		.file 5 "Generated_Source\\PSoC4/BLE_dis.h"
 537              		.file 6 "Generated_Source\\PSoC4/BLE_hts.h"
 538              		.file 7 "Generated_Source\\PSoC4/BLE_eventHandler.h"
 539              		.file 8 "common.h"