ARM GAS  C:\Users\User\AppData\Local\Temp\ccAv7W32.s 			page 1


   1              		.syntax unified
   2              		.cpu cortex-m0
   3              		.fpu softvfp
   4              		.eabi_attribute 20, 1
   5              		.eabi_attribute 21, 1
   6              		.eabi_attribute 23, 3
   7              		.eabi_attribute 24, 1
   8              		.eabi_attribute 25, 1
   9              		.eabi_attribute 26, 1
  10              		.eabi_attribute 30, 6
  11              		.eabi_attribute 34, 0
  12              		.eabi_attribute 18, 4
  13              		.thumb
  14              		.syntax unified
  15              		.file	"main.c"
  16              		.text
  17              	.Ltext0:
  18              		.cfi_sections	.debug_frame
  19              		.comm	OneWire_Sensor,32,4
  20              		.comm	OneWire_DataReady,1,1
  21              		.bss
  22              	flag_Timer:
  23 0000 00       		.space	1
  24              		.section	.text.isr_Timer,"ax",%progbits
  25              		.align	2
  26              		.global	isr_Timer
  27              		.code	16
  28              		.thumb_func
  29              		.type	isr_Timer, %function
  30              	isr_Timer:
  31              	.LFB35:
  32              		.file 1 "main.c"
   1:main.c        **** /* ===========================================================================================
   2:main.c        ****  * Digital Thermometer demo project
   3:main.c        ****  *
   4:main.c        ****  * uses
   5:main.c        ****  * DS18x4: MAXIM DS18B20 Digital Thermometer component (v 0.0)
   6:main.c        ****  * Read temperature simultaneously from up to 8 DS18B20 sensors
   7:main.c        ****  * 
   8:main.c        ****  *   
   9:main.c        ****  *
  10:main.c        ****  * ===========================================================================================
  11:main.c        ****  * PROVIDED AS-IS, NO WARRANTY OF ANY KIND, INCLUDING, BUT NOT LIMITED TO, THE
  12:main.c        ****  * IMPLIED WARRANTIES OF MERCHANTABILITY AND FITNESS FOR A PARTICULAR PURPOSE.
  13:main.c        ****  * FREE TO SHARE, USE AND MODIFY UNDER TERMS: CREATIVE COMMONS - SHARE ALIKE
  14:main.c        ****  * ===========================================================================================
  15:main.c        **** */
  16:main.c        **** 
  17:main.c        **** #include <project.h>
  18:main.c        **** //#include <stdio.h> //sprintf
  19:main.c        **** 
  20:main.c        **** /*
  21:main.c        **** #if defined (__GNUC__)
  22:main.c        ****     // Add an explicit reference to the floating point printf library
  23:main.c        ****     // to allow the usage of floating point conversion specifiers.
  24:main.c        ****     // This is not linked in by default with the newlib-nano library.
  25:main.c        ****     asm (".global _printf_float");
ARM GAS  C:\Users\User\AppData\Local\Temp\ccAv7W32.s 			page 2


  26:main.c        **** #endif
  27:main.c        **** */
  28:main.c        **** 
  29:main.c        **** static volatile CYBIT flag_Timer = 0 ; //semaphore   
  30:main.c        **** CY_ISR(isr_Timer) // ISR Timer to report temperature at regular interval
  31:main.c        **** {
  33              		.loc 1 31 0
  34              		.cfi_startproc
  35              		@ args = 0, pretend = 0, frame = 0
  36              		@ frame_needed = 1, uses_anonymous_args = 0
  37 0000 80B5     		push	{r7, lr}
  38              		.cfi_def_cfa_offset 8
  39              		.cfi_offset 7, -8
  40              		.cfi_offset 14, -4
  41 0002 00AF     		add	r7, sp, #0
  42              		.cfi_def_cfa_register 7
  32:main.c        ****     flag_Timer = 1;
  43              		.loc 1 32 0
  44 0004 024B     		ldr	r3, .L2
  45 0006 0122     		movs	r2, #1
  46 0008 1A70     		strb	r2, [r3]
  33:main.c        **** }
  47              		.loc 1 33 0
  48 000a C046     		nop
  49 000c BD46     		mov	sp, r7
  50              		@ sp needed
  51 000e 80BD     		pop	{r7, pc}
  52              	.L3:
  53              		.align	2
  54              	.L2:
  55 0010 00000000 		.word	flag_Timer
  56              		.cfi_endproc
  57              	.LFE35:
  58              		.size	isr_Timer, .-isr_Timer
  59              		.section	.rodata
  60              		.align	2
  61              	.LC1:
  62 0000 54656D70 		.ascii	"Temperature sensor Maxim DS18B20:\015\012\000"
  62      65726174 
  62      75726520 
  62      73656E73 
  62      6F72204D 
  63              		.section	.text.Initialize,"ax",%progbits
  64              		.align	2
  65              		.global	Initialize
  66              		.code	16
  67              		.thumb_func
  68              		.type	Initialize, %function
  69              	Initialize:
  70              	.LFB36:
  34:main.c        **** 
  35:main.c        **** //===========================================
  36:main.c        **** // Function prototypes
  37:main.c        **** //===========================================
  38:main.c        **** 
  39:main.c        **** void ReportTemperature (void); // convert temperature code to deg C and send to UART
  40:main.c        **** 
ARM GAS  C:\Users\User\AppData\Local\Temp\ccAv7W32.s 			page 3


  41:main.c        **** 
  42:main.c        **** void Initialize(void)
  43:main.c        **** {
  71              		.loc 1 43 0
  72              		.cfi_startproc
  73              		@ args = 0, pretend = 0, frame = 0
  74              		@ frame_needed = 1, uses_anonymous_args = 0
  75 0000 80B5     		push	{r7, lr}
  76              		.cfi_def_cfa_offset 8
  77              		.cfi_offset 7, -8
  78              		.cfi_offset 14, -4
  79 0002 00AF     		add	r7, sp, #0
  80              		.cfi_def_cfa_register 7
  44:main.c        ****     CyGlobalIntEnable;  // Uncomment this line to enable global interrupts.
  81              		.loc 1 44 0
  82              		.syntax divided
  83              	@ 44 "main.c" 1
  84 0004 62B6     		CPSIE   i
  85              	@ 0 "" 2
  45:main.c        ****         
  46:main.c        ****     UART_DEB_Start();
  86              		.loc 1 46 0
  87              		.thumb
  88              		.syntax unified
  89 0006 FFF7FEFF 		bl	UART_DEB_Start
  47:main.c        ****     CyDelay(100);// waiting for clear start after power on
  90              		.loc 1 47 0
  91 000a 6420     		movs	r0, #100
  92 000c FFF7FEFF 		bl	CyDelay
  48:main.c        ****     UART_DEB_UartPutCRLF(' ');
  93              		.loc 1 48 0
  94 0010 2020     		movs	r0, #32
  95 0012 FFF7FEFF 		bl	UART_DEB_UartPutCRLF
  49:main.c        ****     UART_DEB_UartPutString("Temperature sensor Maxim DS18B20:\r\n");
  96              		.loc 1 49 0
  97 0016 064B     		ldr	r3, .L5
  98 0018 1800     		movs	r0, r3
  99 001a FFF7FEFF 		bl	UART_DEB_UartPutString
  50:main.c        ****     
  51:main.c        ****     OneWire_Start();
 100              		.loc 1 51 0
 101 001e FFF7FEFF 		bl	OneWire_Start
  52:main.c        ****     
  53:main.c        ****     isr_Timer_StartEx(isr_Timer);
 102              		.loc 1 53 0
 103 0022 044B     		ldr	r3, .L5+4
 104 0024 1800     		movs	r0, r3
 105 0026 FFF7FEFF 		bl	isr_Timer_StartEx
  54:main.c        **** }
 106              		.loc 1 54 0
 107 002a C046     		nop
 108 002c BD46     		mov	sp, r7
 109              		@ sp needed
 110 002e 80BD     		pop	{r7, pc}
 111              	.L6:
 112              		.align	2
 113              	.L5:
ARM GAS  C:\Users\User\AppData\Local\Temp\ccAv7W32.s 			page 4


 114 0030 00000000 		.word	.LC1
 115 0034 00000000 		.word	isr_Timer
 116              		.cfi_endproc
 117              	.LFE36:
 118              		.size	Initialize, .-Initialize
 119              		.section	.text.main,"ax",%progbits
 120              		.align	2
 121              		.global	main
 122              		.code	16
 123              		.thumb_func
 124              		.type	main, %function
 125              	main:
 126              	.LFB37:
  55:main.c        **** 
  56:main.c        **** 
  57:main.c        **** void main()
  58:main.c        **** {
 127              		.loc 1 58 0
 128              		.cfi_startproc
 129              		@ args = 0, pretend = 0, frame = 0
 130              		@ frame_needed = 1, uses_anonymous_args = 0
 131 0000 80B5     		push	{r7, lr}
 132              		.cfi_def_cfa_offset 8
 133              		.cfi_offset 7, -8
 134              		.cfi_offset 14, -4
 135 0002 00AF     		add	r7, sp, #0
 136              		.cfi_def_cfa_register 7
  59:main.c        **** 
  60:main.c        ****     Initialize();
 137              		.loc 1 60 0
 138 0004 FFF7FEFF 		bl	Initialize
  61:main.c        ****     
  62:main.c        ****     flag_Timer = 1; // force first measument instantly
 139              		.loc 1 62 0
 140 0008 0B4B     		ldr	r3, .L11
 141 000a 0122     		movs	r2, #1
 142 000c 1A70     		strb	r2, [r3]
 143              	.L10:
  63:main.c        ****     
  64:main.c        ****     for(;;) 
  65:main.c        ****     { 
  66:main.c        ****         
  67:main.c        ****         if(flag_Timer) //read DS18B20 on timer, intervals >1sec
 144              		.loc 1 67 0
 145 000e 0A4B     		ldr	r3, .L11
 146 0010 1B78     		ldrb	r3, [r3]
 147 0012 DBB2     		uxtb	r3, r3
 148 0014 002B     		cmp	r3, #0
 149 0016 04D0     		beq	.L8
  68:main.c        ****     	{   
  69:main.c        ****             flag_Timer = 0;
 150              		.loc 1 69 0
 151 0018 074B     		ldr	r3, .L11
 152 001a 0022     		movs	r2, #0
 153 001c 1A70     		strb	r2, [r3]
  70:main.c        ****             OneWire_SendTemperatureRequest(); //                                        
 154              		.loc 1 70 0
ARM GAS  C:\Users\User\AppData\Local\Temp\ccAv7W32.s 			page 5


 155 001e FFF7FEFF 		bl	OneWire_SendTemperatureRequest
 156              	.L8:
  71:main.c        ****         }
  72:main.c        ****         
  73:main.c        ****         if (OneWire_DataReady) // DS18 completed temperature measurement - begin read dataa
 157              		.loc 1 73 0
 158 0022 064B     		ldr	r3, .L11+4
 159 0024 1B78     		ldrb	r3, [r3]
 160 0026 DBB2     		uxtb	r3, r3
 161 0028 002B     		cmp	r3, #0
 162 002a F0D0     		beq	.L10
  74:main.c        ****     	{   
  75:main.c        ****             OneWire_ReadTemperature(); // 
 163              		.loc 1 75 0
 164 002c FFF7FEFF 		bl	OneWire_ReadTemperature
  76:main.c        ****             ReportTemperature();
 165              		.loc 1 76 0
 166 0030 FFF7FEFF 		bl	ReportTemperature
  77:main.c        ****         }    
  78:main.c        ****         
  79:main.c        ****     }   
 167              		.loc 1 79 0
 168 0034 EBE7     		b	.L10
 169              	.L12:
 170 0036 C046     		.align	2
 171              	.L11:
 172 0038 00000000 		.word	flag_Timer
 173 003c 00000000 		.word	OneWire_DataReady
 174              		.cfi_endproc
 175              	.LFE37:
 176              		.size	main, .-main
 177              		.section	.rodata
 178              		.align	2
 179              	.LC7:
 180 0024 0900     		.ascii	"\011\000"
 181              		.section	.text.ReportTemperature,"ax",%progbits
 182              		.align	2
 183              		.global	ReportTemperature
 184              		.code	16
 185              		.thumb_func
 186              		.type	ReportTemperature, %function
 187              	ReportTemperature:
 188              	.LFB38:
  80:main.c        **** 
  81:main.c        **** } //main
  82:main.c        **** 
  83:main.c        **** 
  84:main.c        **** 
  85:main.c        **** 
  86:main.c        **** //==============================================================================
  87:main.c        **** // Convert temperature code to degC and 
  88:main.c        **** // Send result to Terminal using UART
  89:main.c        **** //==============================================================================
  90:main.c        **** 
  91:main.c        **** void ReportTemperature(void) 
  92:main.c        **** {
 189              		.loc 1 92 0
ARM GAS  C:\Users\User\AppData\Local\Temp\ccAv7W32.s 			page 6


 190              		.cfi_startproc
 191              		@ args = 0, pretend = 0, frame = 88
 192              		@ frame_needed = 1, uses_anonymous_args = 0
 193 0000 80B5     		push	{r7, lr}
 194              		.cfi_def_cfa_offset 8
 195              		.cfi_offset 7, -8
 196              		.cfi_offset 14, -4
 197 0002 96B0     		sub	sp, sp, #88
 198              		.cfi_def_cfa_offset 96
 199 0004 00AF     		add	r7, sp, #0
 200              		.cfi_def_cfa_register 7
  93:main.c        ****     char strMsg[80]={};         // output UART buffer
 201              		.loc 1 93 0
 202 0006 0823     		movs	r3, #8
 203 0008 FB18     		adds	r3, r7, r3
 204 000a 1800     		movs	r0, r3
 205 000c 5023     		movs	r3, #80
 206 000e 1A00     		movs	r2, r3
 207 0010 0021     		movs	r1, #0
 208 0012 FFF7FEFF 		bl	memset
  94:main.c        ****     char buf[8];                // temp buffer
  95:main.c        ****     static uint32 counter = 0;  // sample counter
  96:main.c        ****     
  97:main.c        ****     counter++; 
 209              		.loc 1 97 0
 210 0016 264B     		ldr	r3, .L14
 211 0018 1B68     		ldr	r3, [r3]
 212 001a 5A1C     		adds	r2, r3, #1
 213 001c 244B     		ldr	r3, .L14
 214 001e 1A60     		str	r2, [r3]
  98:main.c        ****    
  99:main.c        **** 
 100:main.c        ****              
 101:main.c        ****     strcat(strMsg, itoa10(counter, buf)); strcat(strMsg, "\t");
 215              		.loc 1 101 0
 216 0020 234B     		ldr	r3, .L14
 217 0022 1B68     		ldr	r3, [r3]
 218 0024 1A00     		movs	r2, r3
 219 0026 3B00     		movs	r3, r7
 220 0028 1900     		movs	r1, r3
 221 002a 1000     		movs	r0, r2
 222 002c FFF7FEFF 		bl	itoa10
 223 0030 0200     		movs	r2, r0
 224 0032 0823     		movs	r3, #8
 225 0034 FB18     		adds	r3, r7, r3
 226 0036 1100     		movs	r1, r2
 227 0038 1800     		movs	r0, r3
 228 003a FFF7FEFF 		bl	strcat
 229 003e 0823     		movs	r3, #8
 230 0040 FB18     		adds	r3, r7, r3
 231 0042 1800     		movs	r0, r3
 232 0044 FFF7FEFF 		bl	strlen
 233 0048 0300     		movs	r3, r0
 234 004a 1A00     		movs	r2, r3
 235 004c 0823     		movs	r3, #8
 236 004e FB18     		adds	r3, r7, r3
 237 0050 9A18     		adds	r2, r3, r2
ARM GAS  C:\Users\User\AppData\Local\Temp\ccAv7W32.s 			page 7


 238 0052 184B     		ldr	r3, .L14+4
 239 0054 1000     		movs	r0, r2
 240 0056 1900     		movs	r1, r3
 241 0058 0223     		movs	r3, #2
 242 005a 1A00     		movs	r2, r3
 243 005c FFF7FEFF 		bl	memcpy
 102:main.c        ****     strcat(strMsg, OneWire_GetTemperatureAsString(0)); strcat(strMsg, "\t");
 244              		.loc 1 102 0
 245 0060 0020     		movs	r0, #0
 246 0062 FFF7FEFF 		bl	OneWire_GetTemperatureAsString
 247 0066 0200     		movs	r2, r0
 248 0068 0823     		movs	r3, #8
 249 006a FB18     		adds	r3, r7, r3
 250 006c 1100     		movs	r1, r2
 251 006e 1800     		movs	r0, r3
 252 0070 FFF7FEFF 		bl	strcat
 253 0074 0823     		movs	r3, #8
 254 0076 FB18     		adds	r3, r7, r3
 255 0078 1800     		movs	r0, r3
 256 007a FFF7FEFF 		bl	strlen
 257 007e 0300     		movs	r3, r0
 258 0080 1A00     		movs	r2, r3
 259 0082 0823     		movs	r3, #8
 260 0084 FB18     		adds	r3, r7, r3
 261 0086 9A18     		adds	r2, r3, r2
 262 0088 0A4B     		ldr	r3, .L14+4
 263 008a 1000     		movs	r0, r2
 264 008c 1900     		movs	r1, r3
 265 008e 0223     		movs	r3, #2
 266 0090 1A00     		movs	r2, r3
 267 0092 FFF7FEFF 		bl	memcpy
 103:main.c        **** 
 104:main.c        ****        
 105:main.c        ****     UART_DEB_UartPutString(strMsg);  
 268              		.loc 1 105 0
 269 0096 0823     		movs	r3, #8
 270 0098 FB18     		adds	r3, r7, r3
 271 009a 1800     		movs	r0, r3
 272 009c FFF7FEFF 		bl	UART_DEB_UartPutString
 106:main.c        ****     UART_DEB_UartPutCRLF(' ');
 273              		.loc 1 106 0
 274 00a0 2020     		movs	r0, #32
 275 00a2 FFF7FEFF 		bl	UART_DEB_UartPutCRLF
 107:main.c        **** }
 276              		.loc 1 107 0
 277 00a6 C046     		nop
 278 00a8 BD46     		mov	sp, r7
 279 00aa 16B0     		add	sp, sp, #88
 280              		@ sp needed
 281 00ac 80BD     		pop	{r7, pc}
 282              	.L15:
 283 00ae C046     		.align	2
 284              	.L14:
 285 00b0 04000000 		.word	counter.5723
 286 00b4 24000000 		.word	.LC7
 287              		.cfi_endproc
 288              	.LFE38:
ARM GAS  C:\Users\User\AppData\Local\Temp\ccAv7W32.s 			page 8


 289              		.size	ReportTemperature, .-ReportTemperature
 290              		.bss
 291 0001 000000   		.align	2
 292              	counter.5723:
 293 0004 00000000 		.space	4
 294              		.text
 295              	.Letext0:
 296              		.file 2 "Generated_Source\\PSoC4/cytypes.h"
 297              		.file 3 "Generated_Source\\PSoC4/OneWire.h"