ARM GAS  C:\Users\User\AppData\Local\Temp\ccISBb9u.s 			page 1


   1              		.syntax unified
   2              		.cpu cortex-m0
   3              		.fpu softvfp
   4              		.eabi_attribute 20, 1
   5              		.eabi_attribute 21, 1
   6              		.eabi_attribute 23, 3
   7              		.eabi_attribute 24, 1
   8              		.eabi_attribute 25, 1
   9              		.eabi_attribute 26, 1
  10              		.eabi_attribute 30, 6
  11              		.eabi_attribute 34, 0
  12              		.eabi_attribute 18, 4
  13              		.thumb
  14              		.syntax unified
  15              		.file	"OneWire.c"
  16              		.text
  17              	.Ltext0:
  18              		.cfi_sections	.debug_frame
  19              		.comm	OneWire_Sensor,32,4
  20              		.comm	OneWire_DataReady,1,1
  21              		.comm	BusPresence,1,1
  22              		.section	.text.OneWire_IRQDataReady,"ax",%progbits
  23              		.align	2
  24              		.global	OneWire_IRQDataReady
  25              		.code	16
  26              		.thumb_func
  27              		.type	OneWire_IRQDataReady, %function
  28              	OneWire_IRQDataReady:
  29              	.LFB35:
  30              		.file 1 "Generated_Source\\PSoC4\\OneWire.c"
   1:Generated_Source\PSoC4/OneWire.c **** /* ============================================================================
   2:Generated_Source\PSoC4/OneWire.c ****  * DS18x8: MAXIM DS18B20 Digital Thermometer component (v 0.0)
   3:Generated_Source\PSoC4/OneWire.c ****  * Read temperature simultaaneously from up to 8 DS18B20 sensors 
   4:Generated_Source\PSoC4/OneWire.c ****  *
   5:Generated_Source\PSoC4/OneWire.c ****  * based on original OneWire code by Evg. Pavlov <pavloven>
   6:Generated_Source\PSoC4/OneWire.c ****  * http://mylab.wmsite.ru/moi-razrab/cypress-psoc/temperature-logger/
   7:Generated_Source\PSoC4/OneWire.c ****  * http://mylab.wmsite.ru/moi-razrab/cypress-psoc/psoc-user-module-library/
   8:Generated_Source\PSoC4/OneWire.c ****  * ============================================================================
   9:Generated_Source\PSoC4/OneWire.c ****  * PROVIDED AS-IS, NO WARRANTY OF ANY KIND, INCLUDING, BUT NOT LIMITED TO, THE
  10:Generated_Source\PSoC4/OneWire.c ****  * IMPLIED WARRANTIES OF MERCHANTABILITY AND FITNESS FOR A PARTICULAR PURPOSE.
  11:Generated_Source\PSoC4/OneWire.c ****  * FREE TO SHARE, USE AND MODIFY UNDER TERMS: CREATIVE COMMONS - SHARE ALIKE
  12:Generated_Source\PSoC4/OneWire.c ****  * ============================================================================
  13:Generated_Source\PSoC4/OneWire.c **** */
  14:Generated_Source\PSoC4/OneWire.c **** 
  15:Generated_Source\PSoC4/OneWire.c **** 
  16:Generated_Source\PSoC4/OneWire.c **** #include <OneWire.h>
  17:Generated_Source\PSoC4/OneWire.c **** #include <project.h>
  18:Generated_Source\PSoC4/OneWire.c **** 
  19:Generated_Source\PSoC4/OneWire.c **** 
  20:Generated_Source\PSoC4/OneWire.c **** #define GetBit(Value, BitNo) ((Value >> BitNo) & (uint8)0x01)   //macro to read a bit,  returns 0 o
  21:Generated_Source\PSoC4/OneWire.c **** 
  22:Generated_Source\PSoC4/OneWire.c **** uint8 BusPresence; // 8-bit bus state: 1-sensor present, 0-sensor read failure
  23:Generated_Source\PSoC4/OneWire.c ****   
  24:Generated_Source\PSoC4/OneWire.c **** 
  25:Generated_Source\PSoC4/OneWire.c **** //==============================================================================
  26:Generated_Source\PSoC4/OneWire.c **** //                  ISR Timer data ready to read
  27:Generated_Source\PSoC4/OneWire.c **** //==============================================================================
ARM GAS  C:\Users\User\AppData\Local\Temp\ccISBb9u.s 			page 2


  28:Generated_Source\PSoC4/OneWire.c **** 
  29:Generated_Source\PSoC4/OneWire.c **** //CY_ISR_PROTO(OneWire_IRQDataReady); //ISR proto
  30:Generated_Source\PSoC4/OneWire.c **** CY_ISR(OneWire_IRQDataReady) // ISR Timer data ready to read
  31:Generated_Source\PSoC4/OneWire.c **** {
  31              		.loc 1 31 0
  32              		.cfi_startproc
  33              		@ args = 0, pretend = 0, frame = 0
  34              		@ frame_needed = 1, uses_anonymous_args = 0
  35 0000 80B5     		push	{r7, lr}
  36              		.cfi_def_cfa_offset 8
  37              		.cfi_offset 7, -8
  38              		.cfi_offset 14, -4
  39 0002 00AF     		add	r7, sp, #0
  40              		.cfi_def_cfa_register 7
  32:Generated_Source\PSoC4/OneWire.c ****     OneWire_DataReady = 1;
  41              		.loc 1 32 0
  42 0004 024B     		ldr	r3, .L2
  43 0006 0122     		movs	r2, #1
  44 0008 1A70     		strb	r2, [r3]
  33:Generated_Source\PSoC4/OneWire.c **** }
  45              		.loc 1 33 0
  46 000a C046     		nop
  47 000c BD46     		mov	sp, r7
  48              		@ sp needed
  49 000e 80BD     		pop	{r7, pc}
  50              	.L3:
  51              		.align	2
  52              	.L2:
  53 0010 00000000 		.word	OneWire_DataReady
  54              		.cfi_endproc
  55              	.LFE35:
  56              		.size	OneWire_IRQDataReady, .-OneWire_IRQDataReady
  57              		.section	.text.R_BitBus,"ax",%progbits
  58              		.align	2
  59              		.global	R_BitBus
  60              		.code	16
  61              		.thumb_func
  62              		.type	R_BitBus, %function
  63              	R_BitBus:
  64              	.LFB36:
  34:Generated_Source\PSoC4/OneWire.c **** 
  35:Generated_Source\PSoC4/OneWire.c **** 
  36:Generated_Source\PSoC4/OneWire.c **** //==============================================================================
  37:Generated_Source\PSoC4/OneWire.c **** //                              Read Bit
  38:Generated_Source\PSoC4/OneWire.c **** //==============================================================================
  39:Generated_Source\PSoC4/OneWire.c **** 
  40:Generated_Source\PSoC4/OneWire.c **** uint8 R_BitBus(void) //  Read a single bit off the 1-WIRE bus
  41:Generated_Source\PSoC4/OneWire.c **** {  
  65              		.loc 1 41 0
  66              		.cfi_startproc
  67              		@ args = 0, pretend = 0, frame = 8
  68              		@ frame_needed = 1, uses_anonymous_args = 0
  69 0000 90B5     		push	{r4, r7, lr}
  70              		.cfi_def_cfa_offset 12
  71              		.cfi_offset 4, -12
  72              		.cfi_offset 7, -8
  73              		.cfi_offset 14, -4
ARM GAS  C:\Users\User\AppData\Local\Temp\ccISBb9u.s 			page 3


  74 0002 83B0     		sub	sp, sp, #12
  75              		.cfi_def_cfa_offset 24
  76 0004 00AF     		add	r7, sp, #0
  77              		.cfi_def_cfa_register 7
  42:Generated_Source\PSoC4/OneWire.c ****     CyDelayUs(Tinact);  // Inactive before next signal. =20us
  78              		.loc 1 42 0
  79 0006 1420     		movs	r0, #20
  80 0008 FFF7FEFF 		bl	CyDelayUs
  43:Generated_Source\PSoC4/OneWire.c ****     
  44:Generated_Source\PSoC4/OneWire.c ****     OneWire_ControlReg_SEL_Write(SET_ALL_OUT);
  81              		.loc 1 44 0
  82 000c FF20     		movs	r0, #255
  83 000e FFF7FEFF 		bl	OneWire_ControlReg_SEL_Write
  45:Generated_Source\PSoC4/OneWire.c ****     OneWire_ControlReg_DRV_Write(LOW);  //Drive LOW selected pin
  84              		.loc 1 45 0
  85 0012 0020     		movs	r0, #0
  86 0014 FFF7FEFF 		bl	OneWire_ControlReg_DRV_Write
  46:Generated_Source\PSoC4/OneWire.c **** 
  47:Generated_Source\PSoC4/OneWire.c ****     CyDelayUs(TMtr1);   // read 1us, write 1-15us
  87              		.loc 1 47 0
  88 0018 0A20     		movs	r0, #10
  89 001a FFF7FEFF 		bl	CyDelayUs
  48:Generated_Source\PSoC4/OneWire.c ****     OneWire_ControlReg_DRV_Write(HIGH);  //Drive HIGH selected pin
  90              		.loc 1 48 0
  91 001e 0120     		movs	r0, #1
  92 0020 FFF7FEFF 		bl	OneWire_ControlReg_DRV_Write
  49:Generated_Source\PSoC4/OneWire.c ****     
  50:Generated_Source\PSoC4/OneWire.c **** 	CyDelayUs(5);       // check in 5 usec
  93              		.loc 1 50 0
  94 0024 0520     		movs	r0, #5
  95 0026 FFF7FEFF 		bl	CyDelayUs
  51:Generated_Source\PSoC4/OneWire.c ****     
  52:Generated_Source\PSoC4/OneWire.c ****     //prepare read
  53:Generated_Source\PSoC4/OneWire.c ****     OneWire_ControlReg_SEL_Write(SET_ALL_INP);   // all outputs disable
  96              		.loc 1 53 0
  97 002a 0020     		movs	r0, #0
  98 002c FFF7FEFF 		bl	OneWire_ControlReg_SEL_Write
  54:Generated_Source\PSoC4/OneWire.c ****     OneWire_ControlReg_DRV_Write(LOW); // Drive LOW 
  99              		.loc 1 54 0
 100 0030 0020     		movs	r0, #0
 101 0032 FFF7FEFF 		bl	OneWire_ControlReg_DRV_Write
  55:Generated_Source\PSoC4/OneWire.c ****     
  56:Generated_Source\PSoC4/OneWire.c ****     uint8 result = OneWire_StatusReg_BUS_Read();
 102              		.loc 1 56 0
 103 0036 FC1D     		adds	r4, r7, #7
 104 0038 FFF7FEFF 		bl	OneWire_StatusReg_BUS_Read
 105 003c 0300     		movs	r3, r0
 106 003e 2370     		strb	r3, [r4]
  57:Generated_Source\PSoC4/OneWire.c ****     return (result);
 107              		.loc 1 57 0
 108 0040 FB1D     		adds	r3, r7, #7
 109 0042 1B78     		ldrb	r3, [r3]
  58:Generated_Source\PSoC4/OneWire.c **** }
 110              		.loc 1 58 0
 111 0044 1800     		movs	r0, r3
 112 0046 BD46     		mov	sp, r7
 113 0048 03B0     		add	sp, sp, #12
ARM GAS  C:\Users\User\AppData\Local\Temp\ccISBb9u.s 			page 4


 114              		@ sp needed
 115 004a 90BD     		pop	{r4, r7, pc}
 116              		.cfi_endproc
 117              	.LFE36:
 118              		.size	R_BitBus, .-R_BitBus
 119              		.section	.text.W_Bit,"ax",%progbits
 120              		.align	2
 121              		.global	W_Bit
 122              		.code	16
 123              		.thumb_func
 124              		.type	W_Bit, %function
 125              	W_Bit:
 126              	.LFB37:
  59:Generated_Source\PSoC4/OneWire.c **** 
  60:Generated_Source\PSoC4/OneWire.c **** //==============================================================================
  61:Generated_Source\PSoC4/OneWire.c **** //                              Write Bit
  62:Generated_Source\PSoC4/OneWire.c **** //==============================================================================
  63:Generated_Source\PSoC4/OneWire.c **** 
  64:Generated_Source\PSoC4/OneWire.c **** void W_Bit(uint8 payload) // Write a single bit to the 1-WIRE bus. 
  65:Generated_Source\PSoC4/OneWire.c **** {
 127              		.loc 1 65 0
 128              		.cfi_startproc
 129              		@ args = 0, pretend = 0, frame = 8
 130              		@ frame_needed = 1, uses_anonymous_args = 0
 131 0000 80B5     		push	{r7, lr}
 132              		.cfi_def_cfa_offset 8
 133              		.cfi_offset 7, -8
 134              		.cfi_offset 14, -4
 135 0002 82B0     		sub	sp, sp, #8
 136              		.cfi_def_cfa_offset 16
 137 0004 00AF     		add	r7, sp, #0
 138              		.cfi_def_cfa_register 7
 139 0006 0200     		movs	r2, r0
 140 0008 FB1D     		adds	r3, r7, #7
 141 000a 1A70     		strb	r2, [r3]
  66:Generated_Source\PSoC4/OneWire.c **** 	CyDelayUs(Tinact);  //Inactive before next signal.
 142              		.loc 1 66 0
 143 000c 1420     		movs	r0, #20
 144 000e FFF7FEFF 		bl	CyDelayUs
  67:Generated_Source\PSoC4/OneWire.c ****     OneWire_ControlReg_DRV_Write(LOW); // Drive LOW enabled outputs
 145              		.loc 1 67 0
 146 0012 0020     		movs	r0, #0
 147 0014 FFF7FEFF 		bl	OneWire_ControlReg_DRV_Write
  68:Generated_Source\PSoC4/OneWire.c **** 
  69:Generated_Source\PSoC4/OneWire.c ****     if(payload==0)	CyDelayUs(TMtr0); //If its a 0 to write, TMtr0 = 50us
 148              		.loc 1 69 0
 149 0018 FB1D     		adds	r3, r7, #7
 150 001a 1B78     		ldrb	r3, [r3]
 151 001c 002B     		cmp	r3, #0
 152 001e 03D1     		bne	.L7
 153              		.loc 1 69 0 is_stmt 0 discriminator 1
 154 0020 3220     		movs	r0, #50
 155 0022 FFF7FEFF 		bl	CyDelayUs
 156 0026 02E0     		b	.L8
 157              	.L7:
  70:Generated_Source\PSoC4/OneWire.c **** 	else     		CyDelayUs(TMtr1); //If its a 1 to write, TMtr1 = 10us
 158              		.loc 1 70 0 is_stmt 1
ARM GAS  C:\Users\User\AppData\Local\Temp\ccISBb9u.s 			page 5


 159 0028 0A20     		movs	r0, #10
 160 002a FFF7FEFF 		bl	CyDelayUs
 161              	.L8:
  71:Generated_Source\PSoC4/OneWire.c ****         
  72:Generated_Source\PSoC4/OneWire.c ****     OneWire_ControlReg_DRV_Write(HIGH); // Drive HIGH enabled outputs
 162              		.loc 1 72 0
 163 002e 0120     		movs	r0, #1
 164 0030 FFF7FEFF 		bl	OneWire_ControlReg_DRV_Write
  73:Generated_Source\PSoC4/OneWire.c **** }
 165              		.loc 1 73 0
 166 0034 C046     		nop
 167 0036 BD46     		mov	sp, r7
 168 0038 02B0     		add	sp, sp, #8
 169              		@ sp needed
 170 003a 80BD     		pop	{r7, pc}
 171              		.cfi_endproc
 172              	.LFE37:
 173              		.size	W_Bit, .-W_Bit
 174              		.section	.text.Write8,"ax",%progbits
 175              		.align	2
 176              		.global	Write8
 177              		.code	16
 178              		.thumb_func
 179              		.type	Write8, %function
 180              	Write8:
 181              	.LFB38:
  74:Generated_Source\PSoC4/OneWire.c ****  
  75:Generated_Source\PSoC4/OneWire.c **** //==============================================================================
  76:Generated_Source\PSoC4/OneWire.c **** //                              Write a byte
  77:Generated_Source\PSoC4/OneWire.c **** //==============================================================================
  78:Generated_Source\PSoC4/OneWire.c **** 
  79:Generated_Source\PSoC4/OneWire.c **** void Write8(uint8 payload) //Write a byte to the slave.
  80:Generated_Source\PSoC4/OneWire.c **** {
 182              		.loc 1 80 0
 183              		.cfi_startproc
 184              		@ args = 0, pretend = 0, frame = 16
 185              		@ frame_needed = 1, uses_anonymous_args = 0
 186 0000 80B5     		push	{r7, lr}
 187              		.cfi_def_cfa_offset 8
 188              		.cfi_offset 7, -8
 189              		.cfi_offset 14, -4
 190 0002 84B0     		sub	sp, sp, #16
 191              		.cfi_def_cfa_offset 24
 192 0004 00AF     		add	r7, sp, #0
 193              		.cfi_def_cfa_register 7
 194 0006 0200     		movs	r2, r0
 195 0008 FB1D     		adds	r3, r7, #7
 196 000a 1A70     		strb	r2, [r3]
  81:Generated_Source\PSoC4/OneWire.c **** 	uint8 BitPayload,  shiftcount;
  82:Generated_Source\PSoC4/OneWire.c ****     
  83:Generated_Source\PSoC4/OneWire.c ****     OneWire_ControlReg_SEL_Write(SET_ALL_OUT); // enable all outputs [11]
 197              		.loc 1 83 0
 198 000c FF20     		movs	r0, #255
 199 000e FFF7FEFF 		bl	OneWire_ControlReg_SEL_Write
  84:Generated_Source\PSoC4/OneWire.c ****     
  85:Generated_Source\PSoC4/OneWire.c **** 	for (shiftcount=0; shiftcount<=7;shiftcount++) 
 200              		.loc 1 85 0
ARM GAS  C:\Users\User\AppData\Local\Temp\ccISBb9u.s 			page 6


 201 0012 0F23     		movs	r3, #15
 202 0014 FB18     		adds	r3, r7, r3
 203 0016 0022     		movs	r2, #0
 204 0018 1A70     		strb	r2, [r3]
 205 001a 19E0     		b	.L10
 206              	.L11:
  86:Generated_Source\PSoC4/OneWire.c ****     {
  87:Generated_Source\PSoC4/OneWire.c ****         BitPayload = (payload >> shiftcount) & 0x01; //starting with LSB
 207              		.loc 1 87 0 discriminator 3
 208 001c FB1D     		adds	r3, r7, #7
 209 001e 1A78     		ldrb	r2, [r3]
 210 0020 0F23     		movs	r3, #15
 211 0022 FB18     		adds	r3, r7, r3
 212 0024 1B78     		ldrb	r3, [r3]
 213 0026 1A41     		asrs	r2, r2, r3
 214 0028 1300     		movs	r3, r2
 215 002a DAB2     		uxtb	r2, r3
 216 002c 0E23     		movs	r3, #14
 217 002e FB18     		adds	r3, r7, r3
 218 0030 0121     		movs	r1, #1
 219 0032 0A40     		ands	r2, r1
 220 0034 1A70     		strb	r2, [r3]
  88:Generated_Source\PSoC4/OneWire.c ****         W_Bit(BitPayload);
 221              		.loc 1 88 0 discriminator 3
 222 0036 0E23     		movs	r3, #14
 223 0038 FB18     		adds	r3, r7, r3
 224 003a 1B78     		ldrb	r3, [r3]
 225 003c 1800     		movs	r0, r3
 226 003e FFF7FEFF 		bl	W_Bit
  85:Generated_Source\PSoC4/OneWire.c ****     {
 227              		.loc 1 85 0 discriminator 3
 228 0042 0F23     		movs	r3, #15
 229 0044 FB18     		adds	r3, r7, r3
 230 0046 1A78     		ldrb	r2, [r3]
 231 0048 0F23     		movs	r3, #15
 232 004a FB18     		adds	r3, r7, r3
 233 004c 0132     		adds	r2, r2, #1
 234 004e 1A70     		strb	r2, [r3]
 235              	.L10:
  85:Generated_Source\PSoC4/OneWire.c ****     {
 236              		.loc 1 85 0 is_stmt 0 discriminator 1
 237 0050 0F23     		movs	r3, #15
 238 0052 FB18     		adds	r3, r7, r3
 239 0054 1B78     		ldrb	r3, [r3]
 240 0056 072B     		cmp	r3, #7
 241 0058 E0D9     		bls	.L11
  89:Generated_Source\PSoC4/OneWire.c ****     }
  90:Generated_Source\PSoC4/OneWire.c **** }  
 242              		.loc 1 90 0 is_stmt 1
 243 005a C046     		nop
 244 005c BD46     		mov	sp, r7
 245 005e 04B0     		add	sp, sp, #16
 246              		@ sp needed
 247 0060 80BD     		pop	{r7, pc}
 248              		.cfi_endproc
 249              	.LFE38:
 250              		.size	Write8, .-Write8
ARM GAS  C:\Users\User\AppData\Local\Temp\ccISBb9u.s 			page 7


 251 0062 C046     		.section	.text.BusReset,"ax",%progbits
 252              		.align	2
 253              		.global	BusReset
 254              		.code	16
 255              		.thumb_func
 256              		.type	BusReset, %function
 257              	BusReset:
 258              	.LFB39:
  91:Generated_Source\PSoC4/OneWire.c **** 
  92:Generated_Source\PSoC4/OneWire.c **** 
  93:Generated_Source\PSoC4/OneWire.c **** //==============================================================================
  94:Generated_Source\PSoC4/OneWire.c **** //                              Bus Reset
  95:Generated_Source\PSoC4/OneWire.c **** //==============================================================================
  96:Generated_Source\PSoC4/OneWire.c ****    
  97:Generated_Source\PSoC4/OneWire.c **** uint8 BusReset() //Pulldown the required "Bus Reset". 
  98:Generated_Source\PSoC4/OneWire.c **** {
 259              		.loc 1 98 0
 260              		.cfi_startproc
 261              		@ args = 0, pretend = 0, frame = 8
 262              		@ frame_needed = 1, uses_anonymous_args = 0
 263 0000 90B5     		push	{r4, r7, lr}
 264              		.cfi_def_cfa_offset 12
 265              		.cfi_offset 4, -12
 266              		.cfi_offset 7, -8
 267              		.cfi_offset 14, -4
 268 0002 83B0     		sub	sp, sp, #12
 269              		.cfi_def_cfa_offset 24
 270 0004 00AF     		add	r7, sp, #0
 271              		.cfi_def_cfa_register 7
  99:Generated_Source\PSoC4/OneWire.c ****     static struct OneWire_TSensor Sensor_off = {T_OFF, 0};
 100:Generated_Source\PSoC4/OneWire.c ****     uint8 i;
 101:Generated_Source\PSoC4/OneWire.c ****     
 102:Generated_Source\PSoC4/OneWire.c ****     // reset all sensor Temerature and presence
 103:Generated_Source\PSoC4/OneWire.c ****     for (i=0; i<8; i++) {OneWire_Sensor[i] = Sensor_off;}
 272              		.loc 1 103 0
 273 0006 FB1D     		adds	r3, r7, #7
 274 0008 0022     		movs	r2, #0
 275 000a 1A70     		strb	r2, [r3]
 276 000c 0EE0     		b	.L13
 277              	.L14:
 278              		.loc 1 103 0 is_stmt 0 discriminator 3
 279 000e FB1D     		adds	r3, r7, #7
 280 0010 1B78     		ldrb	r3, [r3]
 281 0012 1F4A     		ldr	r2, .L16
 282 0014 9B00     		lsls	r3, r3, #2
 283 0016 1F49     		ldr	r1, .L16+4
 284 0018 D318     		adds	r3, r2, r3
 285 001a 0422     		movs	r2, #4
 286 001c 1800     		movs	r0, r3
 287 001e FFF7FEFF 		bl	memcpy
 288 0022 FB1D     		adds	r3, r7, #7
 289 0024 1A78     		ldrb	r2, [r3]
 290 0026 FB1D     		adds	r3, r7, #7
 291 0028 0132     		adds	r2, r2, #1
 292 002a 1A70     		strb	r2, [r3]
 293              	.L13:
 294              		.loc 1 103 0 discriminator 1
ARM GAS  C:\Users\User\AppData\Local\Temp\ccISBb9u.s 			page 8


 295 002c FB1D     		adds	r3, r7, #7
 296 002e 1B78     		ldrb	r3, [r3]
 297 0030 072B     		cmp	r3, #7
 298 0032 ECD9     		bls	.L14
 104:Generated_Source\PSoC4/OneWire.c ****     
 105:Generated_Source\PSoC4/OneWire.c ****     
 106:Generated_Source\PSoC4/OneWire.c ****     uint8 BusPin=0;    //bus state
 299              		.loc 1 106 0 is_stmt 1
 300 0034 BB1D     		adds	r3, r7, #6
 301 0036 0022     		movs	r2, #0
 302 0038 1A70     		strb	r2, [r3]
 107:Generated_Source\PSoC4/OneWire.c **** 
 108:Generated_Source\PSoC4/OneWire.c ****     OneWire_ControlReg_DRV_Write(LOW);         // Drive LOW enabled outputs
 303              		.loc 1 108 0
 304 003a 0020     		movs	r0, #0
 305 003c FFF7FEFF 		bl	OneWire_ControlReg_DRV_Write
 109:Generated_Source\PSoC4/OneWire.c ****     OneWire_ControlReg_SEL_Write(SET_ALL_OUT); // enable all outputs [11111111]
 306              		.loc 1 109 0
 307 0040 FF20     		movs	r0, #255
 308 0042 FFF7FEFF 		bl	OneWire_ControlReg_SEL_Write
 110:Generated_Source\PSoC4/OneWire.c ****     
 111:Generated_Source\PSoC4/OneWire.c ****  
 112:Generated_Source\PSoC4/OneWire.c **** 	CyDelayUs(RST_MAX); // send RESET pulse, 480usec min
 309              		.loc 1 112 0
 310 0046 F023     		movs	r3, #240
 311 0048 5B00     		lsls	r3, r3, #1
 312 004a 1800     		movs	r0, r3
 313 004c FFF7FEFF 		bl	CyDelayUs
 113:Generated_Source\PSoC4/OneWire.c ****     OneWire_ControlReg_DRV_Write(HIGH); // Drive HIGH enabled outputs
 314              		.loc 1 113 0
 315 0050 0120     		movs	r0, #1
 316 0052 FFF7FEFF 		bl	OneWire_ControlReg_DRV_Write
 114:Generated_Source\PSoC4/OneWire.c ****     
 115:Generated_Source\PSoC4/OneWire.c ****     CyDelayUs(5);       // check bus shorted
 317              		.loc 1 115 0
 318 0056 0520     		movs	r0, #5
 319 0058 FFF7FEFF 		bl	CyDelayUs
 116:Generated_Source\PSoC4/OneWire.c ****     
 117:Generated_Source\PSoC4/OneWire.c ****     //prepare to read
 118:Generated_Source\PSoC4/OneWire.c ****     OneWire_ControlReg_SEL_Write(SET_ALL_INP); // set all as inputs [0000000]
 320              		.loc 1 118 0
 321 005c 0020     		movs	r0, #0
 322 005e FFF7FEFF 		bl	OneWire_ControlReg_SEL_Write
 119:Generated_Source\PSoC4/OneWire.c ****     OneWire_ControlReg_DRV_Write(LOW);         // Drive LOW enabled outputs
 323              		.loc 1 119 0
 324 0062 0020     		movs	r0, #0
 325 0064 FFF7FEFF 		bl	OneWire_ControlReg_DRV_Write
 120:Generated_Source\PSoC4/OneWire.c ****        
 121:Generated_Source\PSoC4/OneWire.c ****     CyDelayUs(55);      // check PRESENCE in 15-60usec  (60-240 ìêÑåê)
 326              		.loc 1 121 0
 327 0068 3720     		movs	r0, #55
 328 006a FFF7FEFF 		bl	CyDelayUs
 122:Generated_Source\PSoC4/OneWire.c ****     
 123:Generated_Source\PSoC4/OneWire.c ****     BusPin = OneWire_StatusReg_BUS_Read();   // Read state: bit=0 if present 1 if unplugged
 329              		.loc 1 123 0
 330 006e BC1D     		adds	r4, r7, #6
 331 0070 FFF7FEFF 		bl	OneWire_StatusReg_BUS_Read
ARM GAS  C:\Users\User\AppData\Local\Temp\ccISBb9u.s 			page 9


 332 0074 0300     		movs	r3, r0
 333 0076 2370     		strb	r3, [r4]
 124:Generated_Source\PSoC4/OneWire.c ****     
 125:Generated_Source\PSoC4/OneWire.c ****     CyDelayUs(200);     // wait for DS18 to transmit PRESENCE  (60-240 usec) 
 334              		.loc 1 125 0
 335 0078 C820     		movs	r0, #200
 336 007a FFF7FEFF 		bl	CyDelayUs
 126:Generated_Source\PSoC4/OneWire.c ****     
 127:Generated_Source\PSoC4/OneWire.c ****     return((~BusPin) & 255u);     // Return bus state: 1-present, 0-absent  (originally 0-present, 
 337              		.loc 1 127 0
 338 007e BB1D     		adds	r3, r7, #6
 339 0080 1B78     		ldrb	r3, [r3]
 340 0082 DB43     		mvns	r3, r3
 341 0084 DBB2     		uxtb	r3, r3
 128:Generated_Source\PSoC4/OneWire.c **** }
 342              		.loc 1 128 0
 343 0086 1800     		movs	r0, r3
 344 0088 BD46     		mov	sp, r7
 345 008a 03B0     		add	sp, sp, #12
 346              		@ sp needed
 347 008c 90BD     		pop	{r4, r7, pc}
 348              	.L17:
 349 008e C046     		.align	2
 350              	.L16:
 351 0090 00000000 		.word	OneWire_Sensor
 352 0094 00000000 		.word	Sensor_off.5727
 353              		.cfi_endproc
 354              	.LFE39:
 355              		.size	BusReset, .-BusReset
 356              		.section	.text.OneWire_SendTemperatureRequest,"ax",%progbits
 357              		.align	2
 358              		.global	OneWire_SendTemperatureRequest
 359              		.code	16
 360              		.thumb_func
 361              		.type	OneWire_SendTemperatureRequest, %function
 362              	OneWire_SendTemperatureRequest:
 363              	.LFB40:
 129:Generated_Source\PSoC4/OneWire.c **** 
 130:Generated_Source\PSoC4/OneWire.c **** 
 131:Generated_Source\PSoC4/OneWire.c **** //==============================================================================
 132:Generated_Source\PSoC4/OneWire.c **** //                         start temperature conversion
 133:Generated_Source\PSoC4/OneWire.c **** //==============================================================================
 134:Generated_Source\PSoC4/OneWire.c **** 
 135:Generated_Source\PSoC4/OneWire.c **** uint8 OneWire_SendTemperatureRequest() // start temperature conversion 
 136:Generated_Source\PSoC4/OneWire.c **** {   
 364              		.loc 1 136 0
 365              		.cfi_startproc
 366              		@ args = 0, pretend = 0, frame = 0
 367              		@ frame_needed = 1, uses_anonymous_args = 0
 368 0000 80B5     		push	{r7, lr}
 369              		.cfi_def_cfa_offset 8
 370              		.cfi_offset 7, -8
 371              		.cfi_offset 14, -4
 372 0002 00AF     		add	r7, sp, #0
 373              		.cfi_def_cfa_register 7
 137:Generated_Source\PSoC4/OneWire.c ****     BusPresence = BusReset(); // Reset ( > 480 usec ) 
 374              		.loc 1 137 0
ARM GAS  C:\Users\User\AppData\Local\Temp\ccISBb9u.s 			page 10


 375 0004 FFF7FEFF 		bl	BusReset
 376 0008 0300     		movs	r3, r0
 377 000a 1A00     		movs	r2, r3
 378 000c 0C4B     		ldr	r3, .L21
 379 000e 1A70     		strb	r2, [r3]
 138:Generated_Source\PSoC4/OneWire.c ****     
 139:Generated_Source\PSoC4/OneWire.c ****     if (BusPresence == 0) {
 380              		.loc 1 139 0
 381 0010 0B4B     		ldr	r3, .L21
 382 0012 1B78     		ldrb	r3, [r3]
 383 0014 002B     		cmp	r3, #0
 384 0016 04D1     		bne	.L19
 140:Generated_Source\PSoC4/OneWire.c ****         OneWire_DataReady = 1; //proceed directly to reporting
 385              		.loc 1 140 0
 386 0018 0A4B     		ldr	r3, .L21+4
 387 001a 0122     		movs	r2, #1
 388 001c 1A70     		strb	r2, [r3]
 141:Generated_Source\PSoC4/OneWire.c ****         return (0);                     // no sensors found
 389              		.loc 1 141 0
 390 001e 0023     		movs	r3, #0
 391 0020 0AE0     		b	.L20
 392              	.L19:
 142:Generated_Source\PSoC4/OneWire.c ****     }
 143:Generated_Source\PSoC4/OneWire.c ****     
 144:Generated_Source\PSoC4/OneWire.c ****     //OneWire_ControlReg_SEL_Write(ALL); // enable all outputs [11111111]
 145:Generated_Source\PSoC4/OneWire.c ****     Write8(0xCC);       // send command Skip_ROM  (0xCCI)  
 393              		.loc 1 145 0
 394 0022 CC20     		movs	r0, #204
 395 0024 FFF7FEFF 		bl	Write8
 146:Generated_Source\PSoC4/OneWire.c ****     Write8(0x44);       // send command for temperature conversion  (0x44I)
 396              		.loc 1 146 0
 397 0028 4420     		movs	r0, #68
 398 002a FFF7FEFF 		bl	Write8
 147:Generated_Source\PSoC4/OneWire.c **** 
 148:Generated_Source\PSoC4/OneWire.c ****     OneWire_Trigger_Write(1);   // trigger Async delayed reading
 399              		.loc 1 148 0
 400 002e 0120     		movs	r0, #1
 401 0030 FFF7FEFF 		bl	OneWire_Trigger_Write
 149:Generated_Source\PSoC4/OneWire.c ****     
 150:Generated_Source\PSoC4/OneWire.c ****     return (BusPresence);
 402              		.loc 1 150 0
 403 0034 024B     		ldr	r3, .L21
 404 0036 1B78     		ldrb	r3, [r3]
 405              	.L20:
 151:Generated_Source\PSoC4/OneWire.c **** }
 406              		.loc 1 151 0
 407 0038 1800     		movs	r0, r3
 408 003a BD46     		mov	sp, r7
 409              		@ sp needed
 410 003c 80BD     		pop	{r7, pc}
 411              	.L22:
 412 003e C046     		.align	2
 413              	.L21:
 414 0040 00000000 		.word	BusPresence
 415 0044 00000000 		.word	OneWire_DataReady
 416              		.cfi_endproc
 417              	.LFE40:
ARM GAS  C:\Users\User\AppData\Local\Temp\ccISBb9u.s 			page 11


 418              		.size	OneWire_SendTemperatureRequest, .-OneWire_SendTemperatureRequest
 419              		.section	.text.OneWire_ReadTemperature,"ax",%progbits
 420              		.align	2
 421              		.global	OneWire_ReadTemperature
 422              		.code	16
 423              		.thumb_func
 424              		.type	OneWire_ReadTemperature, %function
 425              	OneWire_ReadTemperature:
 426              	.LFB41:
 152:Generated_Source\PSoC4/OneWire.c **** 
 153:Generated_Source\PSoC4/OneWire.c **** 
 154:Generated_Source\PSoC4/OneWire.c **** //==============================================================================
 155:Generated_Source\PSoC4/OneWire.c **** // Read sensor Temperature
 156:Generated_Source\PSoC4/OneWire.c **** // data is ready - read sensor's Temperature LSB & MSB 
 157:Generated_Source\PSoC4/OneWire.c **** //==============================================================================
 158:Generated_Source\PSoC4/OneWire.c **** 
 159:Generated_Source\PSoC4/OneWire.c **** uint8 OneWire_ReadTemperature() 
 160:Generated_Source\PSoC4/OneWire.c **** {
 427              		.loc 1 160 0
 428              		.cfi_startproc
 429              		@ args = 0, pretend = 0, frame = 40
 430              		@ frame_needed = 1, uses_anonymous_args = 0
 431 0000 90B5     		push	{r4, r7, lr}
 432              		.cfi_def_cfa_offset 12
 433              		.cfi_offset 4, -12
 434              		.cfi_offset 7, -8
 435              		.cfi_offset 14, -4
 436 0002 8BB0     		sub	sp, sp, #44
 437              		.cfi_def_cfa_offset 56
 438 0004 00AF     		add	r7, sp, #0
 439              		.cfi_def_cfa_register 7
 161:Generated_Source\PSoC4/OneWire.c ****     uint8 Bus;              // read state of bus  
 162:Generated_Source\PSoC4/OneWire.c ****     uint8 mask;             // sensor presence mask
 163:Generated_Source\PSoC4/OneWire.c ****     uint8 i, shiftcount;
 164:Generated_Source\PSoC4/OneWire.c ****     struct OneWire_TSensor s[8]={{0,0},{0,0},{0,0},{0,0},{0,0},{0,0},{0,0},{0,0}}; //array of senso
 440              		.loc 1 164 0
 441 0006 3B1D     		adds	r3, r7, #4
 442 0008 1800     		movs	r0, r3
 443 000a 2023     		movs	r3, #32
 444 000c 1A00     		movs	r2, r3
 445 000e 0021     		movs	r1, #0
 446 0010 FFF7FEFF 		bl	memset
 165:Generated_Source\PSoC4/OneWire.c ****     
 166:Generated_Source\PSoC4/OneWire.c ****     if (!OneWire_DataReady) return  (0);   // sensor not ready for temperature reading
 447              		.loc 1 166 0
 448 0014 784B     		ldr	r3, .L41
 449 0016 1B78     		ldrb	r3, [r3]
 450 0018 DBB2     		uxtb	r3, r3
 451 001a 002B     		cmp	r3, #0
 452 001c 01D1     		bne	.L24
 453              		.loc 1 166 0 is_stmt 0 discriminator 1
 454 001e 0023     		movs	r3, #0
 455 0020 E6E0     		b	.L40
 456              	.L24:
 167:Generated_Source\PSoC4/OneWire.c ****     OneWire_DataReady = 0;                 // reset flag
 457              		.loc 1 167 0 is_stmt 1
 458 0022 754B     		ldr	r3, .L41
ARM GAS  C:\Users\User\AppData\Local\Temp\ccISBb9u.s 			page 12


 459 0024 0022     		movs	r2, #0
 460 0026 1A70     		strb	r2, [r3]
 168:Generated_Source\PSoC4/OneWire.c ****     
 169:Generated_Source\PSoC4/OneWire.c ****   
 170:Generated_Source\PSoC4/OneWire.c ****     if (BusPresence == 0) return (0); // no sensors found on temperature request, exit 
 461              		.loc 1 170 0
 462 0028 744B     		ldr	r3, .L41+4
 463 002a 1B78     		ldrb	r3, [r3]
 464 002c 002B     		cmp	r3, #0
 465 002e 01D1     		bne	.L26
 466              		.loc 1 170 0 is_stmt 0 discriminator 1
 467 0030 0023     		movs	r3, #0
 468 0032 DDE0     		b	.L40
 469              	.L26:
 171:Generated_Source\PSoC4/OneWire.c ****     
 172:Generated_Source\PSoC4/OneWire.c ****     
 173:Generated_Source\PSoC4/OneWire.c ****     BusPresence = BusReset();  // Reset  ( > 480 usec )
 470              		.loc 1 173 0 is_stmt 1
 471 0034 FFF7FEFF 		bl	BusReset
 472 0038 0300     		movs	r3, r0
 473 003a 1A00     		movs	r2, r3
 474 003c 6F4B     		ldr	r3, .L41+4
 475 003e 1A70     		strb	r2, [r3]
 174:Generated_Source\PSoC4/OneWire.c ****     if (BusPresence == 0) return (0); // no sensors found 
 476              		.loc 1 174 0
 477 0040 6E4B     		ldr	r3, .L41+4
 478 0042 1B78     		ldrb	r3, [r3]
 479 0044 002B     		cmp	r3, #0
 480 0046 01D1     		bne	.L27
 481              		.loc 1 174 0 is_stmt 0 discriminator 1
 482 0048 0023     		movs	r3, #0
 483 004a D1E0     		b	.L40
 484              	.L27:
 175:Generated_Source\PSoC4/OneWire.c ****     
 176:Generated_Source\PSoC4/OneWire.c ****     
 177:Generated_Source\PSoC4/OneWire.c ****     mask = BusPresence;
 485              		.loc 1 177 0 is_stmt 1
 486 004c 2523     		movs	r3, #37
 487 004e FB18     		adds	r3, r7, r3
 488 0050 6A4A     		ldr	r2, .L41+4
 489 0052 1278     		ldrb	r2, [r2]
 490 0054 1A70     		strb	r2, [r3]
 178:Generated_Source\PSoC4/OneWire.c ****         
 179:Generated_Source\PSoC4/OneWire.c ****     for (i=0; i<OneWire_NumSensors; i++) {s[i].present = GetBit(mask, i);} //
 491              		.loc 1 179 0
 492 0056 2723     		movs	r3, #39
 493 0058 FB18     		adds	r3, r7, r3
 494 005a 0022     		movs	r2, #0
 495 005c 1A70     		strb	r2, [r3]
 496 005e 1BE0     		b	.L28
 497              	.L29:
 498              		.loc 1 179 0 is_stmt 0 discriminator 3
 499 0060 2723     		movs	r3, #39
 500 0062 FB18     		adds	r3, r7, r3
 501 0064 1B78     		ldrb	r3, [r3]
 502 0066 2522     		movs	r2, #37
 503 0068 BA18     		adds	r2, r7, r2
ARM GAS  C:\Users\User\AppData\Local\Temp\ccISBb9u.s 			page 13


 504 006a 1178     		ldrb	r1, [r2]
 505 006c 2722     		movs	r2, #39
 506 006e BA18     		adds	r2, r7, r2
 507 0070 1278     		ldrb	r2, [r2]
 508 0072 1141     		asrs	r1, r1, r2
 509 0074 0A00     		movs	r2, r1
 510 0076 D2B2     		uxtb	r2, r2
 511 0078 0121     		movs	r1, #1
 512 007a 0A40     		ands	r2, r1
 513 007c D1B2     		uxtb	r1, r2
 514 007e 3A1D     		adds	r2, r7, #4
 515 0080 9B00     		lsls	r3, r3, #2
 516 0082 D318     		adds	r3, r2, r3
 517 0084 0233     		adds	r3, r3, #2
 518 0086 0A1C     		adds	r2, r1, #0
 519 0088 1A70     		strb	r2, [r3]
 520 008a 2723     		movs	r3, #39
 521 008c FB18     		adds	r3, r7, r3
 522 008e 1A78     		ldrb	r2, [r3]
 523 0090 2723     		movs	r3, #39
 524 0092 FB18     		adds	r3, r7, r3
 525 0094 0132     		adds	r2, r2, #1
 526 0096 1A70     		strb	r2, [r3]
 527              	.L28:
 528              		.loc 1 179 0 discriminator 1
 529 0098 2723     		movs	r3, #39
 530 009a FB18     		adds	r3, r7, r3
 531 009c 1B78     		ldrb	r3, [r3]
 532 009e 002B     		cmp	r3, #0
 533 00a0 DED0     		beq	.L29
 180:Generated_Source\PSoC4/OneWire.c ****     
 181:Generated_Source\PSoC4/OneWire.c ****     
 182:Generated_Source\PSoC4/OneWire.c ****     //OneWire_ControlReg_SEL_Write(SET_ALL_OUT); // enable all for outputs [1111] - can use as sele
 183:Generated_Source\PSoC4/OneWire.c ****     Write8(0xCC);   // send command Skip_ROM  (0xCC)    
 534              		.loc 1 183 0 is_stmt 1
 535 00a2 CC20     		movs	r0, #204
 536 00a4 FFF7FEFF 		bl	Write8
 184:Generated_Source\PSoC4/OneWire.c ****     Write8(0xBE);   // send command to read buffer memory (0xBE)
 537              		.loc 1 184 0
 538 00a8 BE20     		movs	r0, #190
 539 00aa FFF7FEFF 		bl	Write8
 185:Generated_Source\PSoC4/OneWire.c ****     
 186:Generated_Source\PSoC4/OneWire.c ****     // read first two bytes of the memory DS18B20
 187:Generated_Source\PSoC4/OneWire.c ****     for (shiftcount=0; shiftcount<=11; shiftcount++) // read bytes 0 to 11
 540              		.loc 1 187 0
 541 00ae 2623     		movs	r3, #38
 542 00b0 FB18     		adds	r3, r7, r3
 543 00b2 0022     		movs	r2, #0
 544 00b4 1A70     		strb	r2, [r3]
 545 00b6 47E0     		b	.L30
 546              	.L34:
 188:Generated_Source\PSoC4/OneWire.c ****     {
 189:Generated_Source\PSoC4/OneWire.c ****         Bus = R_BitBus(); //read all sensors in parallel
 547              		.loc 1 189 0
 548 00b8 2423     		movs	r3, #36
 549 00ba FC18     		adds	r4, r7, r3
 550 00bc FFF7FEFF 		bl	R_BitBus
ARM GAS  C:\Users\User\AppData\Local\Temp\ccISBb9u.s 			page 14


 551 00c0 0300     		movs	r3, r0
 552 00c2 2370     		strb	r3, [r4]
 190:Generated_Source\PSoC4/OneWire.c ****         
 191:Generated_Source\PSoC4/OneWire.c ****         for (i=0; i<OneWire_NumSensors; i++) //
 553              		.loc 1 191 0
 554 00c4 2723     		movs	r3, #39
 555 00c6 FB18     		adds	r3, r7, r3
 556 00c8 0022     		movs	r2, #0
 557 00ca 1A70     		strb	r2, [r3]
 558 00cc 30E0     		b	.L31
 559              	.L33:
 192:Generated_Source\PSoC4/OneWire.c ****         {
 193:Generated_Source\PSoC4/OneWire.c ****             if (s[i].present) //ignore channels without sensor
 560              		.loc 1 193 0
 561 00ce 2723     		movs	r3, #39
 562 00d0 FB18     		adds	r3, r7, r3
 563 00d2 1B78     		ldrb	r3, [r3]
 564 00d4 3A1D     		adds	r2, r7, #4
 565 00d6 9B00     		lsls	r3, r3, #2
 566 00d8 D318     		adds	r3, r2, r3
 567 00da 0233     		adds	r3, r3, #2
 568 00dc 1B78     		ldrb	r3, [r3]
 569 00de 002B     		cmp	r3, #0
 570 00e0 1FD0     		beq	.L32
 194:Generated_Source\PSoC4/OneWire.c ****                 s[i].Temperature |= GetBit(Bus, i) << shiftcount; // staff Temperature begining wit
 571              		.loc 1 194 0
 572 00e2 2723     		movs	r3, #39
 573 00e4 FB18     		adds	r3, r7, r3
 574 00e6 1A78     		ldrb	r2, [r3]
 575 00e8 2723     		movs	r3, #39
 576 00ea FB18     		adds	r3, r7, r3
 577 00ec 1978     		ldrb	r1, [r3]
 578 00ee 3B1D     		adds	r3, r7, #4
 579 00f0 8900     		lsls	r1, r1, #2
 580 00f2 CB5A     		ldrh	r3, [r1, r3]
 581 00f4 19B2     		sxth	r1, r3
 582 00f6 2423     		movs	r3, #36
 583 00f8 FB18     		adds	r3, r7, r3
 584 00fa 1878     		ldrb	r0, [r3]
 585 00fc 2723     		movs	r3, #39
 586 00fe FB18     		adds	r3, r7, r3
 587 0100 1B78     		ldrb	r3, [r3]
 588 0102 1841     		asrs	r0, r0, r3
 589 0104 0300     		movs	r3, r0
 590 0106 0120     		movs	r0, #1
 591 0108 1840     		ands	r0, r3
 592 010a 2623     		movs	r3, #38
 593 010c FB18     		adds	r3, r7, r3
 594 010e 1B78     		ldrb	r3, [r3]
 595 0110 9840     		lsls	r0, r0, r3
 596 0112 0300     		movs	r3, r0
 597 0114 1BB2     		sxth	r3, r3
 598 0116 0B43     		orrs	r3, r1
 599 0118 1BB2     		sxth	r3, r3
 600 011a 99B2     		uxth	r1, r3
 601 011c 3B1D     		adds	r3, r7, #4
 602 011e 9200     		lsls	r2, r2, #2
ARM GAS  C:\Users\User\AppData\Local\Temp\ccISBb9u.s 			page 15


 603 0120 D152     		strh	r1, [r2, r3]
 604              	.L32:
 191:Generated_Source\PSoC4/OneWire.c ****         {
 605              		.loc 1 191 0 discriminator 2
 606 0122 2723     		movs	r3, #39
 607 0124 FB18     		adds	r3, r7, r3
 608 0126 1A78     		ldrb	r2, [r3]
 609 0128 2723     		movs	r3, #39
 610 012a FB18     		adds	r3, r7, r3
 611 012c 0132     		adds	r2, r2, #1
 612 012e 1A70     		strb	r2, [r3]
 613              	.L31:
 191:Generated_Source\PSoC4/OneWire.c ****         {
 614              		.loc 1 191 0 is_stmt 0 discriminator 1
 615 0130 2723     		movs	r3, #39
 616 0132 FB18     		adds	r3, r7, r3
 617 0134 1B78     		ldrb	r3, [r3]
 618 0136 002B     		cmp	r3, #0
 619 0138 C9D0     		beq	.L33
 187:Generated_Source\PSoC4/OneWire.c ****     {
 620              		.loc 1 187 0 is_stmt 1 discriminator 2
 621 013a 2623     		movs	r3, #38
 622 013c FB18     		adds	r3, r7, r3
 623 013e 1A78     		ldrb	r2, [r3]
 624 0140 2623     		movs	r3, #38
 625 0142 FB18     		adds	r3, r7, r3
 626 0144 0132     		adds	r2, r2, #1
 627 0146 1A70     		strb	r2, [r3]
 628              	.L30:
 187:Generated_Source\PSoC4/OneWire.c ****     {
 629              		.loc 1 187 0 is_stmt 0 discriminator 1
 630 0148 2623     		movs	r3, #38
 631 014a FB18     		adds	r3, r7, r3
 632 014c 1B78     		ldrb	r3, [r3]
 633 014e 0B2B     		cmp	r3, #11
 634 0150 B2D9     		bls	.L34
 195:Generated_Source\PSoC4/OneWire.c ****         }
 196:Generated_Source\PSoC4/OneWire.c ****     }
 197:Generated_Source\PSoC4/OneWire.c ****     
 198:Generated_Source\PSoC4/OneWire.c ****     for (i=0; i<8; i++) //8-is maximum number of sensors in current implementation
 635              		.loc 1 198 0 is_stmt 1
 636 0152 2723     		movs	r3, #39
 637 0154 FB18     		adds	r3, r7, r3
 638 0156 0022     		movs	r2, #0
 639 0158 1A70     		strb	r2, [r3]
 640 015a 41E0     		b	.L35
 641              	.L39:
 199:Generated_Source\PSoC4/OneWire.c ****     {
 200:Generated_Source\PSoC4/OneWire.c ****         if (s[i].present)   
 642              		.loc 1 200 0
 643 015c 2723     		movs	r3, #39
 644 015e FB18     		adds	r3, r7, r3
 645 0160 1B78     		ldrb	r3, [r3]
 646 0162 3A1D     		adds	r2, r7, #4
 647 0164 9B00     		lsls	r3, r3, #2
 648 0166 D318     		adds	r3, r2, r3
 649 0168 0233     		adds	r3, r3, #2
ARM GAS  C:\Users\User\AppData\Local\Temp\ccISBb9u.s 			page 16


 650 016a 1B78     		ldrb	r3, [r3]
 651 016c 002B     		cmp	r3, #0
 652 016e 19D0     		beq	.L36
 201:Generated_Source\PSoC4/OneWire.c ****             {if (s[i].Temperature >= 2048) s[i].Temperature -= 4096;} // roll over for negative tem
 653              		.loc 1 201 0
 654 0170 2723     		movs	r3, #39
 655 0172 FB18     		adds	r3, r7, r3
 656 0174 1A78     		ldrb	r2, [r3]
 657 0176 3B1D     		adds	r3, r7, #4
 658 0178 9200     		lsls	r2, r2, #2
 659 017a D35A     		ldrh	r3, [r2, r3]
 660 017c 204A     		ldr	r2, .L41+8
 661 017e 9342     		cmp	r3, r2
 662 0180 17D9     		bls	.L38
 663              		.loc 1 201 0 is_stmt 0 discriminator 1
 664 0182 2723     		movs	r3, #39
 665 0184 FB18     		adds	r3, r7, r3
 666 0186 1A78     		ldrb	r2, [r3]
 667 0188 2723     		movs	r3, #39
 668 018a FB18     		adds	r3, r7, r3
 669 018c 1978     		ldrb	r1, [r3]
 670 018e 3B1D     		adds	r3, r7, #4
 671 0190 8900     		lsls	r1, r1, #2
 672 0192 CB5A     		ldrh	r3, [r1, r3]
 673 0194 1B49     		ldr	r1, .L41+12
 674 0196 8C46     		mov	ip, r1
 675 0198 6344     		add	r3, r3, ip
 676 019a 99B2     		uxth	r1, r3
 677 019c 3B1D     		adds	r3, r7, #4
 678 019e 9200     		lsls	r2, r2, #2
 679 01a0 D152     		strh	r1, [r2, r3]
 680 01a2 06E0     		b	.L38
 681              	.L36:
 202:Generated_Source\PSoC4/OneWire.c ****         else
 203:Generated_Source\PSoC4/OneWire.c ****             {s[i].Temperature = T_OFF;} // set some "defunct" value if sensor absent 
 682              		.loc 1 203 0 is_stmt 1
 683 01a4 2723     		movs	r3, #39
 684 01a6 FB18     		adds	r3, r7, r3
 685 01a8 1A78     		ldrb	r2, [r3]
 686 01aa 3B1D     		adds	r3, r7, #4
 687 01ac 9200     		lsls	r2, r2, #2
 688 01ae 1549     		ldr	r1, .L41+12
 689 01b0 D152     		strh	r1, [r2, r3]
 690              	.L38:
 204:Generated_Source\PSoC4/OneWire.c ****         
 205:Generated_Source\PSoC4/OneWire.c ****         OneWire_Sensor[i] = s[i]; //record Temperature and presence
 691              		.loc 1 205 0 discriminator 2
 692 01b2 2723     		movs	r3, #39
 693 01b4 FB18     		adds	r3, r7, r3
 694 01b6 1A78     		ldrb	r2, [r3]
 695 01b8 2723     		movs	r3, #39
 696 01ba FB18     		adds	r3, r7, r3
 697 01bc 1B78     		ldrb	r3, [r3]
 698 01be 1248     		ldr	r0, .L41+16
 699 01c0 9100     		lsls	r1, r2, #2
 700 01c2 3A1D     		adds	r2, r7, #4
 701 01c4 9B00     		lsls	r3, r3, #2
ARM GAS  C:\Users\User\AppData\Local\Temp\ccISBb9u.s 			page 17


 702 01c6 4018     		adds	r0, r0, r1
 703 01c8 D318     		adds	r3, r2, r3
 704 01ca 0422     		movs	r2, #4
 705 01cc 1900     		movs	r1, r3
 706 01ce FFF7FEFF 		bl	memcpy
 198:Generated_Source\PSoC4/OneWire.c ****     {
 707              		.loc 1 198 0 discriminator 2
 708 01d2 2723     		movs	r3, #39
 709 01d4 FB18     		adds	r3, r7, r3
 710 01d6 1A78     		ldrb	r2, [r3]
 711 01d8 2723     		movs	r3, #39
 712 01da FB18     		adds	r3, r7, r3
 713 01dc 0132     		adds	r2, r2, #1
 714 01de 1A70     		strb	r2, [r3]
 715              	.L35:
 198:Generated_Source\PSoC4/OneWire.c ****     {
 716              		.loc 1 198 0 is_stmt 0 discriminator 1
 717 01e0 2723     		movs	r3, #39
 718 01e2 FB18     		adds	r3, r7, r3
 719 01e4 1B78     		ldrb	r3, [r3]
 720 01e6 072B     		cmp	r3, #7
 721 01e8 B8D9     		bls	.L39
 206:Generated_Source\PSoC4/OneWire.c ****     }
 207:Generated_Source\PSoC4/OneWire.c ****     
 208:Generated_Source\PSoC4/OneWire.c ****     return(mask); //return BusPresence
 722              		.loc 1 208 0 is_stmt 1
 723 01ea 2523     		movs	r3, #37
 724 01ec FB18     		adds	r3, r7, r3
 725 01ee 1B78     		ldrb	r3, [r3]
 726              	.L40:
 209:Generated_Source\PSoC4/OneWire.c **** }
 727              		.loc 1 209 0 discriminator 1
 728 01f0 1800     		movs	r0, r3
 729 01f2 BD46     		mov	sp, r7
 730 01f4 0BB0     		add	sp, sp, #44
 731              		@ sp needed
 732 01f6 90BD     		pop	{r4, r7, pc}
 733              	.L42:
 734              		.align	2
 735              	.L41:
 736 01f8 00000000 		.word	OneWire_DataReady
 737 01fc 00000000 		.word	BusPresence
 738 0200 FF070000 		.word	2047
 739 0204 00F0FFFF 		.word	-4096
 740 0208 00000000 		.word	OneWire_Sensor
 741              		.cfi_endproc
 742              	.LFE41:
 743              		.size	OneWire_ReadTemperature, .-OneWire_ReadTemperature
 744              		.global	__aeabi_i2f
 745              		.global	__aeabi_fmul
 746              		.section	.text.OneWire_GetTemperatureAsFloat,"ax",%progbits
 747              		.align	2
 748              		.global	OneWire_GetTemperatureAsFloat
 749              		.code	16
 750              		.thumb_func
 751              		.type	OneWire_GetTemperatureAsFloat, %function
 752              	OneWire_GetTemperatureAsFloat:
ARM GAS  C:\Users\User\AppData\Local\Temp\ccISBb9u.s 			page 18


 753              	.LFB42:
 210:Generated_Source\PSoC4/OneWire.c **** 
 211:Generated_Source\PSoC4/OneWire.c **** 
 212:Generated_Source\PSoC4/OneWire.c **** //==============================================================================
 213:Generated_Source\PSoC4/OneWire.c **** // Convert DS18B20 encoded temperature to float value (degC)
 214:Generated_Source\PSoC4/OneWire.c **** //==============================================================================
 215:Generated_Source\PSoC4/OneWire.c **** 
 216:Generated_Source\PSoC4/OneWire.c **** float OneWire_GetTemperatureAsFloat (uint8 index) // 
 217:Generated_Source\PSoC4/OneWire.c **** {    
 754              		.loc 1 217 0
 755              		.cfi_startproc
 756              		@ args = 0, pretend = 0, frame = 16
 757              		@ frame_needed = 1, uses_anonymous_args = 0
 758 0000 80B5     		push	{r7, lr}
 759              		.cfi_def_cfa_offset 8
 760              		.cfi_offset 7, -8
 761              		.cfi_offset 14, -4
 762 0002 84B0     		sub	sp, sp, #16
 763              		.cfi_def_cfa_offset 24
 764 0004 00AF     		add	r7, sp, #0
 765              		.cfi_def_cfa_register 7
 766 0006 0200     		movs	r2, r0
 767 0008 FB1D     		adds	r3, r7, #7
 768 000a 1A70     		strb	r2, [r3]
 218:Generated_Source\PSoC4/OneWire.c ****     int16 Val = OneWire_Sensor[index].Temperature;
 769              		.loc 1 218 0
 770 000c FB1D     		adds	r3, r7, #7
 771 000e 1A78     		ldrb	r2, [r3]
 772 0010 0B4B     		ldr	r3, .L45
 773 0012 9200     		lsls	r2, r2, #2
 774 0014 D25A     		ldrh	r2, [r2, r3]
 775 0016 0E23     		movs	r3, #14
 776 0018 FB18     		adds	r3, r7, r3
 777 001a 1A80     		strh	r2, [r3]
 219:Generated_Source\PSoC4/OneWire.c ****     return ( (float) Val * 0.0625f);
 778              		.loc 1 219 0
 779 001c 0E23     		movs	r3, #14
 780 001e FB18     		adds	r3, r7, r3
 781 0020 0022     		movs	r2, #0
 782 0022 9B5E     		ldrsh	r3, [r3, r2]
 783 0024 1800     		movs	r0, r3
 784 0026 FFF7FEFF 		bl	__aeabi_i2f
 785 002a 031C     		adds	r3, r0, #0
 786 002c F621     		movs	r1, #246
 787 002e 8905     		lsls	r1, r1, #22
 788 0030 181C     		adds	r0, r3, #0
 789 0032 FFF7FEFF 		bl	__aeabi_fmul
 790 0036 031C     		adds	r3, r0, #0
 220:Generated_Source\PSoC4/OneWire.c **** }
 791              		.loc 1 220 0
 792 0038 181C     		adds	r0, r3, #0
 793 003a BD46     		mov	sp, r7
 794 003c 04B0     		add	sp, sp, #16
 795              		@ sp needed
 796 003e 80BD     		pop	{r7, pc}
 797              	.L46:
 798              		.align	2
ARM GAS  C:\Users\User\AppData\Local\Temp\ccISBb9u.s 			page 19


 799              	.L45:
 800 0040 00000000 		.word	OneWire_Sensor
 801              		.cfi_endproc
 802              	.LFE42:
 803              		.size	OneWire_GetTemperatureAsFloat, .-OneWire_GetTemperatureAsFloat
 804              		.section	.text.OneWire_GetTemperatureAsInt100,"ax",%progbits
 805              		.align	2
 806              		.global	OneWire_GetTemperatureAsInt100
 807              		.code	16
 808              		.thumb_func
 809              		.type	OneWire_GetTemperatureAsInt100, %function
 810              	OneWire_GetTemperatureAsInt100:
 811              	.LFB43:
 221:Generated_Source\PSoC4/OneWire.c **** 
 222:Generated_Source\PSoC4/OneWire.c **** 
 223:Generated_Source\PSoC4/OneWire.c **** //==============================================================================
 224:Generated_Source\PSoC4/OneWire.c **** // Convert DS18B20 temperature (degC) as *100 value rounded to integer
 225:Generated_Source\PSoC4/OneWire.c **** // e.g. -38.0625 -> "-3806" 
 226:Generated_Source\PSoC4/OneWire.c **** //==============================================================================
 227:Generated_Source\PSoC4/OneWire.c **** 
 228:Generated_Source\PSoC4/OneWire.c **** int16 OneWire_GetTemperatureAsInt100 (uint8 index) 
 229:Generated_Source\PSoC4/OneWire.c **** {
 812              		.loc 1 229 0
 813              		.cfi_startproc
 814              		@ args = 0, pretend = 0, frame = 16
 815              		@ frame_needed = 1, uses_anonymous_args = 0
 816 0000 80B5     		push	{r7, lr}
 817              		.cfi_def_cfa_offset 8
 818              		.cfi_offset 7, -8
 819              		.cfi_offset 14, -4
 820 0002 84B0     		sub	sp, sp, #16
 821              		.cfi_def_cfa_offset 24
 822 0004 00AF     		add	r7, sp, #0
 823              		.cfi_def_cfa_register 7
 824 0006 0200     		movs	r2, r0
 825 0008 FB1D     		adds	r3, r7, #7
 826 000a 1A70     		strb	r2, [r3]
 230:Generated_Source\PSoC4/OneWire.c ****     int16 Val = OneWire_Sensor[index].Temperature;
 827              		.loc 1 230 0
 828 000c FB1D     		adds	r3, r7, #7
 829 000e 1A78     		ldrb	r2, [r3]
 830 0010 094B     		ldr	r3, .L49
 831 0012 9200     		lsls	r2, r2, #2
 832 0014 D25A     		ldrh	r2, [r2, r3]
 833 0016 0E23     		movs	r3, #14
 834 0018 FB18     		adds	r3, r7, r3
 835 001a 1A80     		strh	r2, [r3]
 231:Generated_Source\PSoC4/OneWire.c ****     return ((Val * 100u + 8u) >> 4); //rounding
 836              		.loc 1 231 0
 837 001c 0E23     		movs	r3, #14
 838 001e FB18     		adds	r3, r7, r3
 839 0020 0022     		movs	r2, #0
 840 0022 9B5E     		ldrsh	r3, [r3, r2]
 841 0024 6422     		movs	r2, #100
 842 0026 5343     		muls	r3, r2
 843 0028 0833     		adds	r3, r3, #8
 844 002a 1B09     		lsrs	r3, r3, #4
ARM GAS  C:\Users\User\AppData\Local\Temp\ccISBb9u.s 			page 20


 845 002c 1BB2     		sxth	r3, r3
 232:Generated_Source\PSoC4/OneWire.c **** }
 846              		.loc 1 232 0
 847 002e 1800     		movs	r0, r3
 848 0030 BD46     		mov	sp, r7
 849 0032 04B0     		add	sp, sp, #16
 850              		@ sp needed
 851 0034 80BD     		pop	{r7, pc}
 852              	.L50:
 853 0036 C046     		.align	2
 854              	.L49:
 855 0038 00000000 		.word	OneWire_Sensor
 856              		.cfi_endproc
 857              	.LFE43:
 858              		.size	OneWire_GetTemperatureAsInt100, .-OneWire_GetTemperatureAsInt100
 859              		.global	__aeabi_idiv
 860              		.section	.rodata
 861              		.align	2
 862              	.LC10:
 863 0000 39383736 		.ascii	"9876543210123456789\000"
 863      35343332 
 863      31303132 
 863      33343536 
 863      37383900 
 864              		.section	.text.itoa10,"ax",%progbits
 865              		.align	2
 866              		.global	itoa10
 867              		.code	16
 868              		.thumb_func
 869              		.type	itoa10, %function
 870              	itoa10:
 871              	.LFB44:
 233:Generated_Source\PSoC4/OneWire.c **** 
 234:Generated_Source\PSoC4/OneWire.c **** 
 235:Generated_Source\PSoC4/OneWire.c **** //==============================================================================
 236:Generated_Source\PSoC4/OneWire.c **** // C++ version 0.4 char* style "itoa":
 237:Generated_Source\PSoC4/OneWire.c **** // Written by Lukas Chmela
 238:Generated_Source\PSoC4/OneWire.c **** // Released under GPLv3.
 239:Generated_Source\PSoC4/OneWire.c **** // http://www.jb.man.ac.uk/~slowe/cpp/itoa.html
 240:Generated_Source\PSoC4/OneWire.c **** // here: modified for radix 10 only 
 241:Generated_Source\PSoC4/OneWire.c **** //==============================================================================
 242:Generated_Source\PSoC4/OneWire.c **** 
 243:Generated_Source\PSoC4/OneWire.c **** char* itoa10(int value, char* result)
 244:Generated_Source\PSoC4/OneWire.c **** {
 872              		.loc 1 244 0
 873              		.cfi_startproc
 874              		@ args = 0, pretend = 0, frame = 32
 875              		@ frame_needed = 1, uses_anonymous_args = 0
 876 0000 80B5     		push	{r7, lr}
 877              		.cfi_def_cfa_offset 8
 878              		.cfi_offset 7, -8
 879              		.cfi_offset 14, -4
 880 0002 88B0     		sub	sp, sp, #32
 881              		.cfi_def_cfa_offset 40
 882 0004 00AF     		add	r7, sp, #0
 883              		.cfi_def_cfa_register 7
 884 0006 7860     		str	r0, [r7, #4]
ARM GAS  C:\Users\User\AppData\Local\Temp\ccISBb9u.s 			page 21


 885 0008 3960     		str	r1, [r7]
 245:Generated_Source\PSoC4/OneWire.c ****     const uint8 base = 10u;
 886              		.loc 1 245 0
 887 000a 1723     		movs	r3, #23
 888 000c FB18     		adds	r3, r7, r3
 889 000e 0A22     		movs	r2, #10
 890 0010 1A70     		strb	r2, [r3]
 246:Generated_Source\PSoC4/OneWire.c **** 	char* ptr = result, *ptr1 = result, tmp_char;
 891              		.loc 1 246 0
 892 0012 3B68     		ldr	r3, [r7]
 893 0014 FB61     		str	r3, [r7, #28]
 894 0016 3B68     		ldr	r3, [r7]
 895 0018 BB61     		str	r3, [r7, #24]
 896              	.L52:
 247:Generated_Source\PSoC4/OneWire.c **** 	int tmp_value;
 248:Generated_Source\PSoC4/OneWire.c **** 	
 249:Generated_Source\PSoC4/OneWire.c **** 	do {
 250:Generated_Source\PSoC4/OneWire.c **** 		tmp_value = value;
 897              		.loc 1 250 0 discriminator 1
 898 001a 7B68     		ldr	r3, [r7, #4]
 899 001c 3B61     		str	r3, [r7, #16]
 251:Generated_Source\PSoC4/OneWire.c **** 		value /= base;
 900              		.loc 1 251 0 discriminator 1
 901 001e 1723     		movs	r3, #23
 902 0020 FB18     		adds	r3, r7, r3
 903 0022 1B78     		ldrb	r3, [r3]
 904 0024 1900     		movs	r1, r3
 905 0026 7868     		ldr	r0, [r7, #4]
 906 0028 FFF7FEFF 		bl	__aeabi_idiv
 907 002c 0300     		movs	r3, r0
 908 002e 7B60     		str	r3, [r7, #4]
 252:Generated_Source\PSoC4/OneWire.c **** 		*ptr++ = "9876543210123456789" [9 + tmp_value - value * base];
 909              		.loc 1 252 0 discriminator 1
 910 0030 FB69     		ldr	r3, [r7, #28]
 911 0032 5A1C     		adds	r2, r3, #1
 912 0034 FA61     		str	r2, [r7, #28]
 913 0036 3A69     		ldr	r2, [r7, #16]
 914 0038 0932     		adds	r2, r2, #9
 915 003a 1100     		movs	r1, r2
 916 003c 1722     		movs	r2, #23
 917 003e BA18     		adds	r2, r7, r2
 918 0040 1278     		ldrb	r2, [r2]
 919 0042 7868     		ldr	r0, [r7, #4]
 920 0044 4243     		muls	r2, r0
 921 0046 8A1A     		subs	r2, r1, r2
 922 0048 1749     		ldr	r1, .L57
 923 004a 8A5C     		ldrb	r2, [r1, r2]
 924 004c 1A70     		strb	r2, [r3]
 253:Generated_Source\PSoC4/OneWire.c **** 	} while ( value );
 925              		.loc 1 253 0 discriminator 1
 926 004e 7B68     		ldr	r3, [r7, #4]
 927 0050 002B     		cmp	r3, #0
 928 0052 E2D1     		bne	.L52
 254:Generated_Source\PSoC4/OneWire.c **** 	
 255:Generated_Source\PSoC4/OneWire.c **** 	// Apply negative sign
 256:Generated_Source\PSoC4/OneWire.c **** 	if (tmp_value < 0) *ptr++ = '-';
 929              		.loc 1 256 0
ARM GAS  C:\Users\User\AppData\Local\Temp\ccISBb9u.s 			page 22


 930 0054 3B69     		ldr	r3, [r7, #16]
 931 0056 002B     		cmp	r3, #0
 932 0058 04DA     		bge	.L53
 933              		.loc 1 256 0 is_stmt 0 discriminator 1
 934 005a FB69     		ldr	r3, [r7, #28]
 935 005c 5A1C     		adds	r2, r3, #1
 936 005e FA61     		str	r2, [r7, #28]
 937 0060 2D22     		movs	r2, #45
 938 0062 1A70     		strb	r2, [r3]
 939              	.L53:
 257:Generated_Source\PSoC4/OneWire.c **** 	*ptr-- = '\0';
 940              		.loc 1 257 0 is_stmt 1
 941 0064 FB69     		ldr	r3, [r7, #28]
 942 0066 5A1E     		subs	r2, r3, #1
 943 0068 FA61     		str	r2, [r7, #28]
 944 006a 0022     		movs	r2, #0
 945 006c 1A70     		strb	r2, [r3]
 258:Generated_Source\PSoC4/OneWire.c **** 	while(ptr1 < ptr) {
 946              		.loc 1 258 0
 947 006e 11E0     		b	.L54
 948              	.L55:
 259:Generated_Source\PSoC4/OneWire.c **** 		tmp_char = *ptr;
 949              		.loc 1 259 0
 950 0070 0F23     		movs	r3, #15
 951 0072 FB18     		adds	r3, r7, r3
 952 0074 FA69     		ldr	r2, [r7, #28]
 953 0076 1278     		ldrb	r2, [r2]
 954 0078 1A70     		strb	r2, [r3]
 260:Generated_Source\PSoC4/OneWire.c **** 		*ptr--= *ptr1;
 955              		.loc 1 260 0
 956 007a FB69     		ldr	r3, [r7, #28]
 957 007c 5A1E     		subs	r2, r3, #1
 958 007e FA61     		str	r2, [r7, #28]
 959 0080 BA69     		ldr	r2, [r7, #24]
 960 0082 1278     		ldrb	r2, [r2]
 961 0084 1A70     		strb	r2, [r3]
 261:Generated_Source\PSoC4/OneWire.c **** 		*ptr1++ = tmp_char;
 962              		.loc 1 261 0
 963 0086 BB69     		ldr	r3, [r7, #24]
 964 0088 5A1C     		adds	r2, r3, #1
 965 008a BA61     		str	r2, [r7, #24]
 966 008c 0F22     		movs	r2, #15
 967 008e BA18     		adds	r2, r7, r2
 968 0090 1278     		ldrb	r2, [r2]
 969 0092 1A70     		strb	r2, [r3]
 970              	.L54:
 258:Generated_Source\PSoC4/OneWire.c **** 		tmp_char = *ptr;
 971              		.loc 1 258 0
 972 0094 BA69     		ldr	r2, [r7, #24]
 973 0096 FB69     		ldr	r3, [r7, #28]
 974 0098 9A42     		cmp	r2, r3
 975 009a E9D3     		bcc	.L55
 262:Generated_Source\PSoC4/OneWire.c **** 	}
 263:Generated_Source\PSoC4/OneWire.c **** 	return result;
 976              		.loc 1 263 0
 977 009c 3B68     		ldr	r3, [r7]
 264:Generated_Source\PSoC4/OneWire.c **** }
ARM GAS  C:\Users\User\AppData\Local\Temp\ccISBb9u.s 			page 23


 978              		.loc 1 264 0
 979 009e 1800     		movs	r0, r3
 980 00a0 BD46     		mov	sp, r7
 981 00a2 08B0     		add	sp, sp, #32
 982              		@ sp needed
 983 00a4 80BD     		pop	{r7, pc}
 984              	.L58:
 985 00a6 C046     		.align	2
 986              	.L57:
 987 00a8 00000000 		.word	.LC10
 988              		.cfi_endproc
 989              	.LFE44:
 990              		.size	itoa10, .-itoa10
 991              		.section	.rodata
 992              		.align	2
 993              	.LC13:
 994 0014 2D00     		.ascii	"-\000"
 995              		.section	.text.OneWire_GetTemperatureAsString,"ax",%progbits
 996              		.align	2
 997              		.global	OneWire_GetTemperatureAsString
 998              		.code	16
 999              		.thumb_func
 1000              		.type	OneWire_GetTemperatureAsString, %function
 1001              	OneWire_GetTemperatureAsString:
 1002              	.LFB45:
 265:Generated_Source\PSoC4/OneWire.c **** 
 266:Generated_Source\PSoC4/OneWire.c **** 
 267:Generated_Source\PSoC4/OneWire.c **** 
 268:Generated_Source\PSoC4/OneWire.c **** //==============================================================================
 269:Generated_Source\PSoC4/OneWire.c **** // Convert DS18B20 temperature (degC) as string
 270:Generated_Source\PSoC4/OneWire.c **** // e.g. -38.0625 <-> "-38.0625"
 271:Generated_Source\PSoC4/OneWire.c **** //==============================================================================
 272:Generated_Source\PSoC4/OneWire.c **** 
 273:Generated_Source\PSoC4/OneWire.c **** char* OneWire_GetTemperatureAsString (uint8 index) 
 274:Generated_Source\PSoC4/OneWire.c **** {
 1003              		.loc 1 274 0
 1004              		.cfi_startproc
 1005              		@ args = 0, pretend = 0, frame = 48
 1006              		@ frame_needed = 1, uses_anonymous_args = 0
 1007 0000 80B5     		push	{r7, lr}
 1008              		.cfi_def_cfa_offset 8
 1009              		.cfi_offset 7, -8
 1010              		.cfi_offset 14, -4
 1011 0002 8CB0     		sub	sp, sp, #48
 1012              		.cfi_def_cfa_offset 56
 1013 0004 00AF     		add	r7, sp, #0
 1014              		.cfi_def_cfa_register 7
 1015 0006 0200     		movs	r2, r0
 1016 0008 FB1D     		adds	r3, r7, #7
 1017 000a 1A70     		strb	r2, [r3]
 275:Generated_Source\PSoC4/OneWire.c ****     char TempStr[13]={};    // buffer string for current temperature //warning
 1018              		.loc 1 275 0
 1019 000c 1423     		movs	r3, #20
 1020 000e FB18     		adds	r3, r7, r3
 1021 0010 1800     		movs	r0, r3
 1022 0012 0D23     		movs	r3, #13
 1023 0014 1A00     		movs	r2, r3
ARM GAS  C:\Users\User\AppData\Local\Temp\ccISBb9u.s 			page 24


 1024 0016 0021     		movs	r1, #0
 1025 0018 FFF7FEFF 		bl	memset
 276:Generated_Source\PSoC4/OneWire.c ****     char* result = TempStr; //
 1026              		.loc 1 276 0
 1027 001c 1423     		movs	r3, #20
 1028 001e FB18     		adds	r3, r7, r3
 1029 0020 BB62     		str	r3, [r7, #40]
 277:Generated_Source\PSoC4/OneWire.c ****     char buf[8];            // buffer
 278:Generated_Source\PSoC4/OneWire.c ****     CYBIT sign;             // Temp sign
 279:Generated_Source\PSoC4/OneWire.c ****     int grad;               // integer portion w/o sign
 280:Generated_Source\PSoC4/OneWire.c ****     uint8 frac;             // fractional portion
 281:Generated_Source\PSoC4/OneWire.c ****     
 282:Generated_Source\PSoC4/OneWire.c ****     static const char *str[] = {".00", ".06", ".13", ".19", ".25", ".31", ".38", ".44", ".50", ".56
 283:Generated_Source\PSoC4/OneWire.c ****      
 284:Generated_Source\PSoC4/OneWire.c ****     // exit and return pre-defined string if no sensor present
 285:Generated_Source\PSoC4/OneWire.c ****     if (!OneWire_Sensor[index].present) return (Str_OFF);
 1030              		.loc 1 285 0
 1031 0022 FB1D     		adds	r3, r7, #7
 1032 0024 1B78     		ldrb	r3, [r3]
 1033 0026 344A     		ldr	r2, .L67
 1034 0028 9B00     		lsls	r3, r3, #2
 1035 002a D318     		adds	r3, r2, r3
 1036 002c 0233     		adds	r3, r3, #2
 1037 002e 1B78     		ldrb	r3, [r3]
 1038 0030 002B     		cmp	r3, #0
 1039 0032 01D1     		bne	.L60
 1040              		.loc 1 285 0 is_stmt 0 discriminator 1
 1041 0034 314B     		ldr	r3, .L67+4
 1042 0036 5AE0     		b	.L66
 1043              	.L60:
 286:Generated_Source\PSoC4/OneWire.c **** 
 287:Generated_Source\PSoC4/OneWire.c ****         
 288:Generated_Source\PSoC4/OneWire.c ****     int16 Val = OneWire_Sensor[index].Temperature;
 1044              		.loc 1 288 0 is_stmt 1
 1045 0038 FB1D     		adds	r3, r7, #7
 1046 003a 1A78     		ldrb	r2, [r3]
 1047 003c 2E4B     		ldr	r3, .L67
 1048 003e 9200     		lsls	r2, r2, #2
 1049 0040 D25A     		ldrh	r2, [r2, r3]
 1050 0042 2623     		movs	r3, #38
 1051 0044 FB18     		adds	r3, r7, r3
 1052 0046 1A80     		strh	r2, [r3]
 289:Generated_Source\PSoC4/OneWire.c ****     sign = (Val < 0);                       // remember sign prior to shift     
 1053              		.loc 1 289 0
 1054 0048 2623     		movs	r3, #38
 1055 004a FB18     		adds	r3, r7, r3
 1056 004c 1B88     		ldrh	r3, [r3]
 1057 004e DB0B     		lsrs	r3, r3, #15
 1058 0050 DAB2     		uxtb	r2, r3
 1059 0052 2523     		movs	r3, #37
 1060 0054 FB18     		adds	r3, r7, r3
 1061 0056 1A70     		strb	r2, [r3]
 290:Generated_Source\PSoC4/OneWire.c ****     if (sign) grad = -Val; else grad = Val; //grad = abs(Temp); no need for stdlib.h
 1062              		.loc 1 290 0
 1063 0058 2523     		movs	r3, #37
 1064 005a FB18     		adds	r3, r7, r3
 1065 005c 1B78     		ldrb	r3, [r3]
ARM GAS  C:\Users\User\AppData\Local\Temp\ccISBb9u.s 			page 25


 1066 005e 002B     		cmp	r3, #0
 1067 0060 06D0     		beq	.L62
 1068              		.loc 1 290 0 is_stmt 0 discriminator 1
 1069 0062 2623     		movs	r3, #38
 1070 0064 FB18     		adds	r3, r7, r3
 1071 0066 0022     		movs	r2, #0
 1072 0068 9B5E     		ldrsh	r3, [r3, r2]
 1073 006a 5B42     		rsbs	r3, r3, #0
 1074 006c FB62     		str	r3, [r7, #44]
 1075 006e 04E0     		b	.L63
 1076              	.L62:
 1077              		.loc 1 290 0 discriminator 2
 1078 0070 2623     		movs	r3, #38
 1079 0072 FB18     		adds	r3, r7, r3
 1080 0074 0022     		movs	r2, #0
 1081 0076 9B5E     		ldrsh	r3, [r3, r2]
 1082 0078 FB62     		str	r3, [r7, #44]
 1083              	.L63:
 291:Generated_Source\PSoC4/OneWire.c ****     frac = grad & 15;                       //index for fractional part
 1084              		.loc 1 291 0 is_stmt 1
 1085 007a FB6A     		ldr	r3, [r7, #44]
 1086 007c DAB2     		uxtb	r2, r3
 1087 007e 2423     		movs	r3, #36
 1088 0080 FB18     		adds	r3, r7, r3
 1089 0082 0F21     		movs	r1, #15
 1090 0084 0A40     		ands	r2, r1
 1091 0086 1A70     		strb	r2, [r3]
 292:Generated_Source\PSoC4/OneWire.c ****     grad = grad >> 4;                       //get integer portion
 1092              		.loc 1 292 0
 1093 0088 FB6A     		ldr	r3, [r7, #44]
 1094 008a 1B11     		asrs	r3, r3, #4
 1095 008c FB62     		str	r3, [r7, #44]
 293:Generated_Source\PSoC4/OneWire.c ****     
 294:Generated_Source\PSoC4/OneWire.c ****     if (sign) strcat(TempStr, itoa10(-grad, buf)); 
 1096              		.loc 1 294 0
 1097 008e 2523     		movs	r3, #37
 1098 0090 FB18     		adds	r3, r7, r3
 1099 0092 1B78     		ldrb	r3, [r3]
 1100 0094 002B     		cmp	r3, #0
 1101 0096 0FD0     		beq	.L64
 1102              		.loc 1 294 0 is_stmt 0 discriminator 1
 1103 0098 FB6A     		ldr	r3, [r7, #44]
 1104 009a 5B42     		rsbs	r3, r3, #0
 1105 009c 0C22     		movs	r2, #12
 1106 009e BA18     		adds	r2, r7, r2
 1107 00a0 1100     		movs	r1, r2
 1108 00a2 1800     		movs	r0, r3
 1109 00a4 FFF7FEFF 		bl	itoa10
 1110 00a8 0200     		movs	r2, r0
 1111 00aa 1423     		movs	r3, #20
 1112 00ac FB18     		adds	r3, r7, r3
 1113 00ae 1100     		movs	r1, r2
 1114 00b0 1800     		movs	r0, r3
 1115 00b2 FFF7FEFF 		bl	strcat
 1116 00b6 0DE0     		b	.L65
 1117              	.L64:
 295:Generated_Source\PSoC4/OneWire.c ****     else      strcat(TempStr, itoa10( grad, buf));
ARM GAS  C:\Users\User\AppData\Local\Temp\ccISBb9u.s 			page 26


 1118              		.loc 1 295 0 is_stmt 1
 1119 00b8 0C23     		movs	r3, #12
 1120 00ba FA18     		adds	r2, r7, r3
 1121 00bc FB6A     		ldr	r3, [r7, #44]
 1122 00be 1100     		movs	r1, r2
 1123 00c0 1800     		movs	r0, r3
 1124 00c2 FFF7FEFF 		bl	itoa10
 1125 00c6 0200     		movs	r2, r0
 1126 00c8 1423     		movs	r3, #20
 1127 00ca FB18     		adds	r3, r7, r3
 1128 00cc 1100     		movs	r1, r2
 1129 00ce 1800     		movs	r0, r3
 1130 00d0 FFF7FEFF 		bl	strcat
 1131              	.L65:
 296:Generated_Source\PSoC4/OneWire.c ****     
 297:Generated_Source\PSoC4/OneWire.c ****     strcat(TempStr, str[frac]); //add fractional part
 1132              		.loc 1 297 0
 1133 00d4 2423     		movs	r3, #36
 1134 00d6 FB18     		adds	r3, r7, r3
 1135 00d8 1A78     		ldrb	r2, [r3]
 1136 00da 094B     		ldr	r3, .L67+8
 1137 00dc 9200     		lsls	r2, r2, #2
 1138 00de D258     		ldr	r2, [r2, r3]
 1139 00e0 1423     		movs	r3, #20
 1140 00e2 FB18     		adds	r3, r7, r3
 1141 00e4 1100     		movs	r1, r2
 1142 00e6 1800     		movs	r0, r3
 1143 00e8 FFF7FEFF 		bl	strcat
 298:Generated_Source\PSoC4/OneWire.c ****     
 299:Generated_Source\PSoC4/OneWire.c ****     return (result);
 1144              		.loc 1 299 0
 1145 00ec BB6A     		ldr	r3, [r7, #40]
 1146              	.L66:
 300:Generated_Source\PSoC4/OneWire.c **** }
 1147              		.loc 1 300 0 discriminator 1
 1148 00ee 1800     		movs	r0, r3
 1149 00f0 BD46     		mov	sp, r7
 1150 00f2 0CB0     		add	sp, sp, #48
 1151              		@ sp needed
 1152 00f4 80BD     		pop	{r7, pc}
 1153              	.L68:
 1154 00f6 C046     		.align	2
 1155              	.L67:
 1156 00f8 00000000 		.word	OneWire_Sensor
 1157 00fc 14000000 		.word	.LC13
 1158 0100 04000000 		.word	str.5785
 1159              		.cfi_endproc
 1160              	.LFE45:
 1161              		.size	OneWire_GetTemperatureAsString, .-OneWire_GetTemperatureAsString
 1162              		.section	.text.OneWire_Start,"ax",%progbits
 1163              		.align	2
 1164              		.global	OneWire_Start
 1165              		.code	16
 1166              		.thumb_func
 1167              		.type	OneWire_Start, %function
 1168              	OneWire_Start:
 1169              	.LFB46:
ARM GAS  C:\Users\User\AppData\Local\Temp\ccISBb9u.s 			page 27


 301:Generated_Source\PSoC4/OneWire.c **** 
 302:Generated_Source\PSoC4/OneWire.c **** //==============================================================================
 303:Generated_Source\PSoC4/OneWire.c **** // Initialize and Start component
 304:Generated_Source\PSoC4/OneWire.c **** //==============================================================================
 305:Generated_Source\PSoC4/OneWire.c **** 
 306:Generated_Source\PSoC4/OneWire.c **** void OneWire_Start() 
 307:Generated_Source\PSoC4/OneWire.c **** {
 1170              		.loc 1 307 0
 1171              		.cfi_startproc
 1172              		@ args = 0, pretend = 0, frame = 0
 1173              		@ frame_needed = 1, uses_anonymous_args = 0
 1174 0000 80B5     		push	{r7, lr}
 1175              		.cfi_def_cfa_offset 8
 1176              		.cfi_offset 7, -8
 1177              		.cfi_offset 14, -4
 1178 0002 00AF     		add	r7, sp, #0
 1179              		.cfi_def_cfa_register 7
 308:Generated_Source\PSoC4/OneWire.c ****     OneWire_isr_DataReady_StartEx(OneWire_IRQDataReady); //set interrupt
 1180              		.loc 1 308 0
 1181 0004 074B     		ldr	r3, .L70
 1182 0006 1800     		movs	r0, r3
 1183 0008 FFF7FEFF 		bl	OneWire_isr_DataReady_StartEx
 309:Generated_Source\PSoC4/OneWire.c ****     
 310:Generated_Source\PSoC4/OneWire.c ****     //configure and start 1-shot timer for 750ms data conversion delay
 311:Generated_Source\PSoC4/OneWire.c ****     OneWire_TimerDelay_WriteCounter(T_conv);   // set time for conversion 750ms
 1184              		.loc 1 311 0
 1185 000c 064B     		ldr	r3, .L70+4
 1186 000e 1800     		movs	r0, r3
 1187 0010 FFF7FEFF 		bl	OneWire_TimerDelay_WriteCounter
 312:Generated_Source\PSoC4/OneWire.c ****     OneWire_TimerDelay_Start();                // Initialize TimerDelay
 1188              		.loc 1 312 0
 1189 0014 FFF7FEFF 		bl	OneWire_TimerDelay_Start
 313:Generated_Source\PSoC4/OneWire.c ****     
 314:Generated_Source\PSoC4/OneWire.c ****     OneWire_DataReady = 0;                     // semaphor flag
 1190              		.loc 1 314 0
 1191 0018 044B     		ldr	r3, .L70+8
 1192 001a 0022     		movs	r2, #0
 1193 001c 1A70     		strb	r2, [r3]
 315:Generated_Source\PSoC4/OneWire.c **** }
 1194              		.loc 1 315 0
 1195 001e C046     		nop
 1196 0020 BD46     		mov	sp, r7
 1197              		@ sp needed
 1198 0022 80BD     		pop	{r7, pc}
 1199              	.L71:
 1200              		.align	2
 1201              	.L70:
 1202 0024 00000000 		.word	OneWire_IRQDataReady
 1203 0028 EE020000 		.word	750
 1204 002c 00000000 		.word	OneWire_DataReady
 1205              		.cfi_endproc
 1206              	.LFE46:
 1207              		.size	OneWire_Start, .-OneWire_Start
 1208              		.section	.text.OneWire_Stop,"ax",%progbits
 1209              		.align	2
 1210              		.global	OneWire_Stop
 1211              		.code	16
ARM GAS  C:\Users\User\AppData\Local\Temp\ccISBb9u.s 			page 28


 1212              		.thumb_func
 1213              		.type	OneWire_Stop, %function
 1214              	OneWire_Stop:
 1215              	.LFB47:
 316:Generated_Source\PSoC4/OneWire.c **** 
 317:Generated_Source\PSoC4/OneWire.c **** //==============================================================================
 318:Generated_Source\PSoC4/OneWire.c **** // Disable component
 319:Generated_Source\PSoC4/OneWire.c **** //==============================================================================
 320:Generated_Source\PSoC4/OneWire.c **** 
 321:Generated_Source\PSoC4/OneWire.c **** void OneWire_Stop() 
 322:Generated_Source\PSoC4/OneWire.c **** {
 1216              		.loc 1 322 0
 1217              		.cfi_startproc
 1218              		@ args = 0, pretend = 0, frame = 0
 1219              		@ frame_needed = 1, uses_anonymous_args = 0
 1220 0000 80B5     		push	{r7, lr}
 1221              		.cfi_def_cfa_offset 8
 1222              		.cfi_offset 7, -8
 1223              		.cfi_offset 14, -4
 1224 0002 00AF     		add	r7, sp, #0
 1225              		.cfi_def_cfa_register 7
 323:Generated_Source\PSoC4/OneWire.c ****     OneWire_TimerDelay_Stop(); // disable timer
 1226              		.loc 1 323 0
 1227 0004 FFF7FEFF 		bl	OneWire_TimerDelay_Stop
 324:Generated_Source\PSoC4/OneWire.c **** }
 1228              		.loc 1 324 0
 1229 0008 C046     		nop
 1230 000a BD46     		mov	sp, r7
 1231              		@ sp needed
 1232 000c 80BD     		pop	{r7, pc}
 1233              		.cfi_endproc
 1234              	.LFE47:
 1235              		.size	OneWire_Stop, .-OneWire_Stop
 1236 000e C046     		.section	.text.OneWire_BusState,"ax",%progbits
 1237              		.align	2
 1238              		.global	OneWire_BusState
 1239              		.code	16
 1240              		.thumb_func
 1241              		.type	OneWire_BusState, %function
 1242              	OneWire_BusState:
 1243              	.LFB48:
 325:Generated_Source\PSoC4/OneWire.c **** 
 326:Generated_Source\PSoC4/OneWire.c **** //==============================================================================
 327:Generated_Source\PSoC4/OneWire.c **** // Return 8-bit bus state: 1-sensor present, 0-sensor read failure
 328:Generated_Source\PSoC4/OneWire.c **** //==============================================================================
 329:Generated_Source\PSoC4/OneWire.c **** 
 330:Generated_Source\PSoC4/OneWire.c **** uint8 OneWire_BusState()
 331:Generated_Source\PSoC4/OneWire.c **** {
 1244              		.loc 1 331 0
 1245              		.cfi_startproc
 1246              		@ args = 0, pretend = 0, frame = 0
 1247              		@ frame_needed = 1, uses_anonymous_args = 0
 1248 0000 80B5     		push	{r7, lr}
 1249              		.cfi_def_cfa_offset 8
 1250              		.cfi_offset 7, -8
 1251              		.cfi_offset 14, -4
 1252 0002 00AF     		add	r7, sp, #0
ARM GAS  C:\Users\User\AppData\Local\Temp\ccISBb9u.s 			page 29


 1253              		.cfi_def_cfa_register 7
 332:Generated_Source\PSoC4/OneWire.c ****     return( BusPresence );   
 1254              		.loc 1 332 0
 1255 0004 024B     		ldr	r3, .L75
 1256 0006 1B78     		ldrb	r3, [r3]
 333:Generated_Source\PSoC4/OneWire.c **** }
 1257              		.loc 1 333 0
 1258 0008 1800     		movs	r0, r3
 1259 000a BD46     		mov	sp, r7
 1260              		@ sp needed
 1261 000c 80BD     		pop	{r7, pc}
 1262              	.L76:
 1263 000e C046     		.align	2
 1264              	.L75:
 1265 0010 00000000 		.word	BusPresence
 1266              		.cfi_endproc
 1267              	.LFE48:
 1268              		.size	OneWire_BusState, .-OneWire_BusState
 1269              		.section	.text.OneWire_CheckPresence,"ax",%progbits
 1270              		.align	2
 1271              		.global	OneWire_CheckPresence
 1272              		.code	16
 1273              		.thumb_func
 1274              		.type	OneWire_CheckPresence, %function
 1275              	OneWire_CheckPresence:
 1276              	.LFB49:
 334:Generated_Source\PSoC4/OneWire.c **** 
 335:Generated_Source\PSoC4/OneWire.c **** //==============================================================================
 336:Generated_Source\PSoC4/OneWire.c **** // Function to check sensors presence
 337:Generated_Source\PSoC4/OneWire.c **** // Return 8-bit bus state: 1-sensor present, 0-sensor read failure
 338:Generated_Source\PSoC4/OneWire.c **** //==============================================================================
 339:Generated_Source\PSoC4/OneWire.c **** 
 340:Generated_Source\PSoC4/OneWire.c **** uint8 OneWire_CheckPresence()
 341:Generated_Source\PSoC4/OneWire.c **** {  
 1277              		.loc 1 341 0
 1278              		.cfi_startproc
 1279              		@ args = 0, pretend = 0, frame = 0
 1280              		@ frame_needed = 1, uses_anonymous_args = 0
 1281 0000 80B5     		push	{r7, lr}
 1282              		.cfi_def_cfa_offset 8
 1283              		.cfi_offset 7, -8
 1284              		.cfi_offset 14, -4
 1285 0002 00AF     		add	r7, sp, #0
 1286              		.cfi_def_cfa_register 7
 342:Generated_Source\PSoC4/OneWire.c ****     BusPresence = BusReset(); // Reset ( > 480 usec ) 
 1287              		.loc 1 342 0
 1288 0004 FFF7FEFF 		bl	BusReset
 1289 0008 0300     		movs	r3, r0
 1290 000a 1A00     		movs	r2, r3
 1291 000c 034B     		ldr	r3, .L79
 1292 000e 1A70     		strb	r2, [r3]
 343:Generated_Source\PSoC4/OneWire.c ****     return( BusPresence );   
 1293              		.loc 1 343 0
 1294 0010 024B     		ldr	r3, .L79
 1295 0012 1B78     		ldrb	r3, [r3]
 344:Generated_Source\PSoC4/OneWire.c **** }
 1296              		.loc 1 344 0
ARM GAS  C:\Users\User\AppData\Local\Temp\ccISBb9u.s 			page 30


 1297 0014 1800     		movs	r0, r3
 1298 0016 BD46     		mov	sp, r7
 1299              		@ sp needed
 1300 0018 80BD     		pop	{r7, pc}
 1301              	.L80:
 1302 001a C046     		.align	2
 1303              	.L79:
 1304 001c 00000000 		.word	BusPresence
 1305              		.cfi_endproc
 1306              	.LFE49:
 1307              		.size	OneWire_CheckPresence, .-OneWire_CheckPresence
 1308              		.data
 1309              		.align	2
 1310              		.type	Sensor_off.5727, %object
 1311              		.size	Sensor_off.5727, 4
 1312              	Sensor_off.5727:
 1313 0000 00F0     		.short	-4096
 1314 0002 00       		.byte	0
 1315 0003 00       		.space	1
 1316              		.section	.rodata
 1317 0016 0000     		.align	2
 1318              	.LC20:
 1319 0018 2E303000 		.ascii	".00\000"
 1320              		.align	2
 1321              	.LC21:
 1322 001c 2E303600 		.ascii	".06\000"
 1323              		.align	2
 1324              	.LC22:
 1325 0020 2E313300 		.ascii	".13\000"
 1326              		.align	2
 1327              	.LC23:
 1328 0024 2E313900 		.ascii	".19\000"
 1329              		.align	2
 1330              	.LC24:
 1331 0028 2E323500 		.ascii	".25\000"
 1332              		.align	2
 1333              	.LC25:
 1334 002c 2E333100 		.ascii	".31\000"
 1335              		.align	2
 1336              	.LC26:
 1337 0030 2E333800 		.ascii	".38\000"
 1338              		.align	2
 1339              	.LC27:
 1340 0034 2E343400 		.ascii	".44\000"
 1341              		.align	2
 1342              	.LC28:
 1343 0038 2E353000 		.ascii	".50\000"
 1344              		.align	2
 1345              	.LC29:
 1346 003c 2E353600 		.ascii	".56\000"
 1347              		.align	2
 1348              	.LC30:
 1349 0040 2E363300 		.ascii	".63\000"
 1350              		.align	2
 1351              	.LC31:
 1352 0044 2E363900 		.ascii	".69\000"
 1353              		.align	2
ARM GAS  C:\Users\User\AppData\Local\Temp\ccISBb9u.s 			page 31


 1354              	.LC32:
 1355 0048 2E373500 		.ascii	".75\000"
 1356              		.align	2
 1357              	.LC33:
 1358 004c 2E383100 		.ascii	".81\000"
 1359              		.align	2
 1360              	.LC34:
 1361 0050 2E383800 		.ascii	".88\000"
 1362              		.align	2
 1363              	.LC35:
 1364 0054 2E393400 		.ascii	".94\000"
 1365              		.data
 1366              		.align	2
 1367              		.type	str.5785, %object
 1368              		.size	str.5785, 64
 1369              	str.5785:
 1370 0004 18000000 		.word	.LC20
 1371 0008 1C000000 		.word	.LC21
 1372 000c 20000000 		.word	.LC22
 1373 0010 24000000 		.word	.LC23
 1374 0014 28000000 		.word	.LC24
 1375 0018 2C000000 		.word	.LC25
 1376 001c 30000000 		.word	.LC26
 1377 0020 34000000 		.word	.LC27
 1378 0024 38000000 		.word	.LC28
 1379 0028 3C000000 		.word	.LC29
 1380 002c 40000000 		.word	.LC30
 1381 0030 44000000 		.word	.LC31
 1382 0034 48000000 		.word	.LC32
 1383 0038 4C000000 		.word	.LC33
 1384 003c 50000000 		.word	.LC34
 1385 0040 54000000 		.word	.LC35
 1386              		.text
 1387              	.Letext0:
 1388              		.file 2 "Generated_Source\\PSoC4/cytypes.h"
 1389              		.file 3 "Generated_Source\\PSoC4/OneWire.h"