ARM GAS  C:\Users\User\AppData\Local\Temp\ccNggLvC.s 			page 1


   1              		.syntax unified
   2              		.cpu cortex-m0
   3              		.fpu softvfp
   4              		.eabi_attribute 20, 1
   5              		.eabi_attribute 21, 1
   6              		.eabi_attribute 23, 3
   7              		.eabi_attribute 24, 1
   8              		.eabi_attribute 25, 1
   9              		.eabi_attribute 26, 1
  10              		.eabi_attribute 30, 6
  11              		.eabi_attribute 34, 0
  12              		.eabi_attribute 18, 4
  13              		.thumb
  14              		.syntax unified
  15              		.file	"BLE_HTSS.c"
  16              		.text
  17              	.Ltext0:
  18              		.cfi_sections	.debug_frame
  19              		.comm	OneWire_Sensor,32,4
  20              		.comm	OneWire_DataReady,1,1
  21              		.global	htssInterval
  22              		.data
  23              		.align	2
  24              		.type	htssInterval, %object
  25              		.size	htssInterval, 4
  26              	htssInterval:
  27 0000 01000000 		.word	1
  28              		.bss
  29              	htssIndication:
  30 0000 00       		.space	1
  31              		.comm	connectionHandle,2,4
  32              		.section	.text.GenericHandler,"ax",%progbits
  33              		.align	2
  34              		.global	GenericHandler
  35              		.code	16
  36              		.thumb_func
  37              		.type	GenericHandler, %function
  38              	GenericHandler:
  39              	.LFB35:
  40              		.file 1 "BLE_HTSS.c"
   1:BLE_HTSS.c    **** /****************************************************************************
   2:BLE_HTSS.c    **** * File Name: BLE_HTSS.c
   3:BLE_HTSS.c    **** *
   4:BLE_HTSS.c    **** * Version: 1.0
   5:BLE_HTSS.c    **** *
   6:BLE_HTSS.c    **** * Description:
   7:BLE_HTSS.c    **** * This file implements functions related to BLE.
   8:BLE_HTSS.c    **** *
   9:BLE_HTSS.c    **** * Note:
  10:BLE_HTSS.c    **** * 
  11:BLE_HTSS.c    **** * Owner:
  12:BLE_HTSS.c    **** * PMAD
  13:BLE_HTSS.c    **** *
  14:BLE_HTSS.c    **** */
  15:BLE_HTSS.c    **** /*****************************************************************************
  16:BLE_HTSS.c    **** * Included headers
  17:BLE_HTSS.c    **** *****************************************************************************/
ARM GAS  C:\Users\User\AppData\Local\Temp\ccNggLvC.s 			page 2


  18:BLE_HTSS.c    **** #include "stdbool.h"
  19:BLE_HTSS.c    **** #include "BLE_HTSS.h"
  20:BLE_HTSS.c    **** #include "CommonFunctions.h"
  21:BLE_HTSS.c    **** #include "WatchdogTimer.h"
  22:BLE_HTSS.c    **** 
  23:BLE_HTSS.c    **** /*****************************************************************************
  24:BLE_HTSS.c    **** * Macros and constants
  25:BLE_HTSS.c    **** *****************************************************************************/
  26:BLE_HTSS.c    **** #define             REFRESH_INTERVAL                    (1000u)
  27:BLE_HTSS.c    **** #define             HTSS_TEMPERATURE_MEASURE_SIZE       (6u)
  28:BLE_HTSS.c    **** 
  29:BLE_HTSS.c    **** /* htssInterval holds the Health Thermometer Service measurement interval */
  30:BLE_HTSS.c    **** uint32 htssInterval = DEFAULT_MEASUREMENT_INTERVAL;
  31:BLE_HTSS.c    **** 
  32:BLE_HTSS.c    **** /* Indicates the status of Indication */
  33:BLE_HTSS.c    **** static bool htssIndication = false;
  34:BLE_HTSS.c    **** 
  35:BLE_HTSS.c    **** /* Connection handle used for transmitting information over BLE */
  36:BLE_HTSS.c    **** CYBLE_CONN_HANDLE_T  connectionHandle;	
  37:BLE_HTSS.c    **** 
  38:BLE_HTSS.c    **** /*****************************************************************************
  39:BLE_HTSS.c    **** * Function Name: GenericEventHandler()
  40:BLE_HTSS.c    **** ******************************************************************************
  41:BLE_HTSS.c    **** * Summary:
  42:BLE_HTSS.c    **** * Handles the generic events generated by stack and take necessary actions 
  43:BLE_HTSS.c    **** * when event is received.
  44:BLE_HTSS.c    **** *
  45:BLE_HTSS.c    **** * Parameters:
  46:BLE_HTSS.c    **** *  eventCode - the event code
  47:BLE_HTSS.c    **** *  *event_params - the event parameters
  48:BLE_HTSS.c    **** *
  49:BLE_HTSS.c    **** * Return:
  50:BLE_HTSS.c    **** *  None.
  51:BLE_HTSS.c    **** *
  52:BLE_HTSS.c    **** * Side Effects:
  53:BLE_HTSS.c    **** * None
  54:BLE_HTSS.c    **** *
  55:BLE_HTSS.c    **** * Note:
  56:BLE_HTSS.c    **** *
  57:BLE_HTSS.c    **** *****************************************************************************/
  58:BLE_HTSS.c    **** void GenericHandler(uint32 event, void *eventParam)
  59:BLE_HTSS.c    **** {
  41              		.loc 1 59 0
  42              		.cfi_startproc
  43              		@ args = 0, pretend = 0, frame = 8
  44              		@ frame_needed = 1, uses_anonymous_args = 0
  45 0000 80B5     		push	{r7, lr}
  46              		.cfi_def_cfa_offset 8
  47              		.cfi_offset 7, -8
  48              		.cfi_offset 14, -4
  49 0002 82B0     		sub	sp, sp, #8
  50              		.cfi_def_cfa_offset 16
  51 0004 00AF     		add	r7, sp, #0
  52              		.cfi_def_cfa_register 7
  53 0006 7860     		str	r0, [r7, #4]
  54 0008 3960     		str	r1, [r7]
  60:BLE_HTSS.c    ****   switch(event)
ARM GAS  C:\Users\User\AppData\Local\Temp\ccNggLvC.s 			page 3


  55              		.loc 1 60 0
  56 000a 7B68     		ldr	r3, [r7, #4]
  57 000c 022B     		cmp	r3, #2
  58 000e 0ED0     		beq	.L3
  59 0010 02D8     		bhi	.L4
  60 0012 012B     		cmp	r3, #1
  61 0014 05D0     		beq	.L5
  61:BLE_HTSS.c    ****   {
  62:BLE_HTSS.c    ****     /* This event is received when component is Started */
  63:BLE_HTSS.c    ****     case CYBLE_EVT_STACK_ON: 					
  64:BLE_HTSS.c    ****       /* Stop watchdog to reduce power consumption during advertising */
  65:BLE_HTSS.c    ****       WatchdogTimer_Stop();
  66:BLE_HTSS.c    ****       /* Start Advertisement and enter Discoverable mode*/
  67:BLE_HTSS.c    ****       CyBle_GappStartAdvertisement(CYBLE_ADVERTISING_FAST);			
  68:BLE_HTSS.c    ****     break;
  69:BLE_HTSS.c    ****           
  70:BLE_HTSS.c    ****     /* This event is received when device is disconnected or advetising times out*/
  71:BLE_HTSS.c    ****     case CYBLE_EVT_GAP_DEVICE_DISCONNECTED:		
  72:BLE_HTSS.c    ****     case CYBLE_EVT_TIMEOUT:                     
  73:BLE_HTSS.c    ****       /* Sets the ENABLE_HIBERNATE flag to put system in Hibernate mode */
  74:BLE_HTSS.c    ****       SystemFlag |= ENABLE_HIBERNATE;
  75:BLE_HTSS.c    ****     break;
  76:BLE_HTSS.c    ****     
  77:BLE_HTSS.c    ****     /* This event is received when connection is established */
  78:BLE_HTSS.c    ****     case CYBLE_EVT_GATT_CONNECT_IND:
  79:BLE_HTSS.c    ****         /* Start watchdog timer with 1s refresh interval */
  80:BLE_HTSS.c    ****         /* Note: For this application, wakeup should be 1s because htssInterval
  81:BLE_HTSS.c    ****         *  resolution is configured as 1s */
  82:BLE_HTSS.c    ****         WatchdogTimer_Start(REFRESH_INTERVAL);
  83:BLE_HTSS.c    ****         /* Retrieve BLE connection handle */
  84:BLE_HTSS.c    ****         connectionHandle = *(CYBLE_CONN_HANDLE_T *) eventParam;
  85:BLE_HTSS.c    ****     break;
  86:BLE_HTSS.c    ****         
  87:BLE_HTSS.c    ****     default:
  88:BLE_HTSS.c    ****       /* Error handling */
  89:BLE_HTSS.c    ****     break;
  62              		.loc 1 89 0
  63 0016 1FE0     		b	.L7
  64              	.L4:
  60:BLE_HTSS.c    ****   switch(event)
  65              		.loc 1 60 0
  66 0018 282B     		cmp	r3, #40
  67 001a 08D0     		beq	.L3
  68 001c 412B     		cmp	r3, #65
  69 001e 0DD0     		beq	.L6
  70              		.loc 1 89 0
  71 0020 1AE0     		b	.L7
  72              	.L5:
  65:BLE_HTSS.c    ****       /* Start Advertisement and enter Discoverable mode*/
  73              		.loc 1 65 0
  74 0022 FFF7FEFF 		bl	WatchdogTimer_Stop
  67:BLE_HTSS.c    ****     break;
  75              		.loc 1 67 0
  76 0026 0020     		movs	r0, #0
  77 0028 FFF7FEFF 		bl	CyBle_GappStartAdvertisement
  68:BLE_HTSS.c    ****           
  78              		.loc 1 68 0
ARM GAS  C:\Users\User\AppData\Local\Temp\ccNggLvC.s 			page 4


  79 002c 14E0     		b	.L7
  80              	.L3:
  74:BLE_HTSS.c    ****     break;
  81              		.loc 1 74 0
  82 002e 0C4B     		ldr	r3, .L8
  83 0030 1B68     		ldr	r3, [r3]
  84 0032 0822     		movs	r2, #8
  85 0034 1A43     		orrs	r2, r3
  86 0036 0A4B     		ldr	r3, .L8
  87 0038 1A60     		str	r2, [r3]
  75:BLE_HTSS.c    ****     
  88              		.loc 1 75 0
  89 003a 0DE0     		b	.L7
  90              	.L6:
  82:BLE_HTSS.c    ****         /* Retrieve BLE connection handle */
  91              		.loc 1 82 0
  92 003c FA23     		movs	r3, #250
  93 003e 9B00     		lsls	r3, r3, #2
  94 0040 1800     		movs	r0, r3
  95 0042 FFF7FEFF 		bl	WatchdogTimer_Start
  84:BLE_HTSS.c    ****     break;
  96              		.loc 1 84 0
  97 0046 074A     		ldr	r2, .L8+4
  98 0048 3B68     		ldr	r3, [r7]
  99 004a 1000     		movs	r0, r2
 100 004c 1900     		movs	r1, r3
 101 004e 0223     		movs	r3, #2
 102 0050 1A00     		movs	r2, r3
 103 0052 FFF7FEFF 		bl	memcpy
  85:BLE_HTSS.c    ****         
 104              		.loc 1 85 0
 105 0056 C046     		nop
 106              	.L7:
  90:BLE_HTSS.c    ****   } 
  91:BLE_HTSS.c    **** }
 107              		.loc 1 91 0
 108 0058 C046     		nop
 109 005a BD46     		mov	sp, r7
 110 005c 02B0     		add	sp, sp, #8
 111              		@ sp needed
 112 005e 80BD     		pop	{r7, pc}
 113              	.L9:
 114              		.align	2
 115              	.L8:
 116 0060 00000000 		.word	SystemFlag
 117 0064 00000000 		.word	connectionHandle
 118              		.cfi_endproc
 119              	.LFE35:
 120              		.size	GenericHandler, .-GenericHandler
 121              		.section	.text.HtssEventHandler,"ax",%progbits
 122              		.align	2
 123              		.global	HtssEventHandler
 124              		.code	16
 125              		.thumb_func
 126              		.type	HtssEventHandler, %function
 127              	HtssEventHandler:
 128              	.LFB36:
ARM GAS  C:\Users\User\AppData\Local\Temp\ccNggLvC.s 			page 5


  92:BLE_HTSS.c    **** 
  93:BLE_HTSS.c    **** /*****************************************************************************
  94:BLE_HTSS.c    **** * Function Name: HtssEventHandler()
  95:BLE_HTSS.c    **** ******************************************************************************
  96:BLE_HTSS.c    **** * Summary:
  97:BLE_HTSS.c    **** * Handles the event generated for the health thermometer service.
  98:BLE_HTSS.c    **** *
  99:BLE_HTSS.c    **** * Parameters:
 100:BLE_HTSS.c    **** *  eventCode - the event code
 101:BLE_HTSS.c    **** *  *event_params - the event parameters
 102:BLE_HTSS.c    **** *
 103:BLE_HTSS.c    **** * Return:
 104:BLE_HTSS.c    **** *  None.
 105:BLE_HTSS.c    **** *
 106:BLE_HTSS.c    **** * Side Effects:
 107:BLE_HTSS.c    **** * None
 108:BLE_HTSS.c    **** *
 109:BLE_HTSS.c    **** * Note:
 110:BLE_HTSS.c    **** *
 111:BLE_HTSS.c    **** *****************************************************************************/
 112:BLE_HTSS.c    **** void HtssEventHandler(uint32 event, void* eventParam)
 113:BLE_HTSS.c    **** {
 129              		.loc 1 113 0
 130              		.cfi_startproc
 131              		@ args = 0, pretend = 0, frame = 16
 132              		@ frame_needed = 1, uses_anonymous_args = 0
 133 0000 80B5     		push	{r7, lr}
 134              		.cfi_def_cfa_offset 8
 135              		.cfi_offset 7, -8
 136              		.cfi_offset 14, -4
 137 0002 84B0     		sub	sp, sp, #16
 138              		.cfi_def_cfa_offset 24
 139 0004 00AF     		add	r7, sp, #0
 140              		.cfi_def_cfa_register 7
 141 0006 7860     		str	r0, [r7, #4]
 142 0008 3960     		str	r1, [r7]
 114:BLE_HTSS.c    ****   CYBLE_HTS_CHAR_VALUE_T *interval;
 115:BLE_HTSS.c    ****   switch(event)
 143              		.loc 1 115 0
 144 000a 7B68     		ldr	r3, [r7, #4]
 145 000c DA22     		movs	r2, #218
 146 000e 5200     		lsls	r2, r2, #1
 147 0010 9342     		cmp	r3, r2
 148 0012 0CD0     		beq	.L12
 149 0014 DB22     		movs	r2, #219
 150 0016 5200     		lsls	r2, r2, #1
 151 0018 9342     		cmp	r3, r2
 152 001a 0CD0     		beq	.L13
 153 001c B422     		movs	r2, #180
 154 001e FF32     		adds	r2, r2, #255
 155 0020 9342     		cmp	r3, r2
 156 0022 00D0     		beq	.L14
 116:BLE_HTSS.c    ****   {
 117:BLE_HTSS.c    ****     /* This event is received when indication are enabled by the central */
 118:BLE_HTSS.c    ****     case CYBLE_EVT_HTSS_INDICATION_ENABLED:
 119:BLE_HTSS.c    ****       /* Set the htssIndication flag */
 120:BLE_HTSS.c    ****       htssIndication = true;
ARM GAS  C:\Users\User\AppData\Local\Temp\ccNggLvC.s 			page 6


 121:BLE_HTSS.c    ****     break;
 122:BLE_HTSS.c    **** 
 123:BLE_HTSS.c    ****     /* This event is received when indication are enabled by the central */
 124:BLE_HTSS.c    ****     case CYBLE_EVT_HTSS_INDICATION_DISABLED:
 125:BLE_HTSS.c    ****       /* Reset the htssIndiciation flag */
 126:BLE_HTSS.c    ****       htssIndication = false;
 127:BLE_HTSS.c    ****     break;
 128:BLE_HTSS.c    **** 
 129:BLE_HTSS.c    ****     /* This event is received when measurement interval is updated by
 130:BLE_HTSS.c    ****     *  the central */
 131:BLE_HTSS.c    ****     case CYBLE_EVT_HTSS_CHAR_WRITE:
 132:BLE_HTSS.c    ****       /* Retrive interval value */
 133:BLE_HTSS.c    ****       interval = ((CYBLE_HTS_CHAR_VALUE_T *)eventParam);
 134:BLE_HTSS.c    ****       htssInterval = interval->value->val[1];
 135:BLE_HTSS.c    ****       /* Update htssInterval with the updated value */
 136:BLE_HTSS.c    ****       htssInterval = (htssInterval << 8) | interval->value->val[0];
 137:BLE_HTSS.c    ****     break;
 138:BLE_HTSS.c    **** 
 139:BLE_HTSS.c    ****     default:
 140:BLE_HTSS.c    ****       /* Error handling */
 141:BLE_HTSS.c    ****     break;
 157              		.loc 1 141 0
 158 0024 1CE0     		b	.L15
 159              	.L14:
 120:BLE_HTSS.c    ****     break;
 160              		.loc 1 120 0
 161 0026 104B     		ldr	r3, .L16
 162 0028 0122     		movs	r2, #1
 163 002a 1A70     		strb	r2, [r3]
 121:BLE_HTSS.c    **** 
 164              		.loc 1 121 0
 165 002c 18E0     		b	.L15
 166              	.L12:
 126:BLE_HTSS.c    ****     break;
 167              		.loc 1 126 0
 168 002e 0E4B     		ldr	r3, .L16
 169 0030 0022     		movs	r2, #0
 170 0032 1A70     		strb	r2, [r3]
 127:BLE_HTSS.c    **** 
 171              		.loc 1 127 0
 172 0034 14E0     		b	.L15
 173              	.L13:
 133:BLE_HTSS.c    ****       htssInterval = interval->value->val[1];
 174              		.loc 1 133 0
 175 0036 3B68     		ldr	r3, [r7]
 176 0038 FB60     		str	r3, [r7, #12]
 134:BLE_HTSS.c    ****       /* Update htssInterval with the updated value */
 177              		.loc 1 134 0
 178 003a FB68     		ldr	r3, [r7, #12]
 179 003c 5B68     		ldr	r3, [r3, #4]
 180 003e 1B68     		ldr	r3, [r3]
 181 0040 0133     		adds	r3, r3, #1
 182 0042 1B78     		ldrb	r3, [r3]
 183 0044 1A00     		movs	r2, r3
 184 0046 094B     		ldr	r3, .L16+4
 185 0048 1A60     		str	r2, [r3]
 136:BLE_HTSS.c    ****     break;
ARM GAS  C:\Users\User\AppData\Local\Temp\ccNggLvC.s 			page 7


 186              		.loc 1 136 0
 187 004a 084B     		ldr	r3, .L16+4
 188 004c 1B68     		ldr	r3, [r3]
 189 004e 1A02     		lsls	r2, r3, #8
 190 0050 FB68     		ldr	r3, [r7, #12]
 191 0052 5B68     		ldr	r3, [r3, #4]
 192 0054 1B68     		ldr	r3, [r3]
 193 0056 1B78     		ldrb	r3, [r3]
 194 0058 1A43     		orrs	r2, r3
 195 005a 044B     		ldr	r3, .L16+4
 196 005c 1A60     		str	r2, [r3]
 137:BLE_HTSS.c    **** 
 197              		.loc 1 137 0
 198 005e C046     		nop
 199              	.L15:
 142:BLE_HTSS.c    ****   }
 143:BLE_HTSS.c    **** }
 200              		.loc 1 143 0
 201 0060 C046     		nop
 202 0062 BD46     		mov	sp, r7
 203 0064 04B0     		add	sp, sp, #16
 204              		@ sp needed
 205 0066 80BD     		pop	{r7, pc}
 206              	.L17:
 207              		.align	2
 208              	.L16:
 209 0068 00000000 		.word	htssIndication
 210 006c 00000000 		.word	htssInterval
 211              		.cfi_endproc
 212              	.LFE36:
 213              		.size	HtssEventHandler, .-HtssEventHandler
 214              		.section	.text.EnableBLE,"ax",%progbits
 215              		.align	2
 216              		.global	EnableBLE
 217              		.code	16
 218              		.thumb_func
 219              		.type	EnableBLE, %function
 220              	EnableBLE:
 221              	.LFB37:
 144:BLE_HTSS.c    **** 
 145:BLE_HTSS.c    **** /*****************************************************************************
 146:BLE_HTSS.c    **** * Function Name: EnableBLE()
 147:BLE_HTSS.c    **** ******************************************************************************
 148:BLE_HTSS.c    **** * Summary:
 149:BLE_HTSS.c    **** * Starts the BLE component and register the call back functions for 
 150:BLE_HTSS.c    **** * common events, heart rate service specific events and watchdog interrupt.
 151:BLE_HTSS.c    **** *
 152:BLE_HTSS.c    **** * Parameters:
 153:BLE_HTSS.c    **** *  None.
 154:BLE_HTSS.c    **** *
 155:BLE_HTSS.c    **** * Return:
 156:BLE_HTSS.c    **** *  None.
 157:BLE_HTSS.c    **** *
 158:BLE_HTSS.c    **** * Side Effects:
 159:BLE_HTSS.c    **** * None
 160:BLE_HTSS.c    **** *
 161:BLE_HTSS.c    **** * Note:
ARM GAS  C:\Users\User\AppData\Local\Temp\ccNggLvC.s 			page 8


 162:BLE_HTSS.c    **** *
 163:BLE_HTSS.c    **** *****************************************************************************/
 164:BLE_HTSS.c    **** void EnableBLE (void)
 165:BLE_HTSS.c    **** {
 222              		.loc 1 165 0
 223              		.cfi_startproc
 224              		@ args = 0, pretend = 0, frame = 0
 225              		@ frame_needed = 1, uses_anonymous_args = 0
 226 0000 80B5     		push	{r7, lr}
 227              		.cfi_def_cfa_offset 8
 228              		.cfi_offset 7, -8
 229              		.cfi_offset 14, -4
 230 0002 00AF     		add	r7, sp, #0
 231              		.cfi_def_cfa_register 7
 166:BLE_HTSS.c    ****     /* Enable BLE block and register the callback function for common events */
 167:BLE_HTSS.c    ****     CyBle_Start(GenericHandler);
 232              		.loc 1 167 0
 233 0004 054B     		ldr	r3, .L19
 234 0006 1800     		movs	r0, r3
 235 0008 FFF7FEFF 		bl	CyBle_Start
 168:BLE_HTSS.c    **** 
 169:BLE_HTSS.c    ****     /* Regsiters the callback function for heart rate service specific events */
 170:BLE_HTSS.c    ****     CyBle_HtsRegisterAttrCallback(HtssEventHandler);
 236              		.loc 1 170 0
 237 000c 044B     		ldr	r3, .L19+4
 238 000e 1800     		movs	r0, r3
 239 0010 FFF7FEFF 		bl	CyBle_HtsRegisterAttrCallback
 171:BLE_HTSS.c    **** }
 240              		.loc 1 171 0
 241 0014 C046     		nop
 242 0016 BD46     		mov	sp, r7
 243              		@ sp needed
 244 0018 80BD     		pop	{r7, pc}
 245              	.L20:
 246 001a C046     		.align	2
 247              	.L19:
 248 001c 00000000 		.word	GenericHandler
 249 0020 00000000 		.word	HtssEventHandler
 250              		.cfi_endproc
 251              	.LFE37:
 252              		.size	EnableBLE, .-EnableBLE
 253              		.section	.text.ProcessBLE,"ax",%progbits
 254              		.align	2
 255              		.global	ProcessBLE
 256              		.code	16
 257              		.thumb_func
 258              		.type	ProcessBLE, %function
 259              	ProcessBLE:
 260              	.LFB38:
 172:BLE_HTSS.c    **** 
 173:BLE_HTSS.c    **** /*****************************************************************************
 174:BLE_HTSS.c    **** * Function Name: ProcessBLE()
 175:BLE_HTSS.c    **** ******************************************************************************
 176:BLE_HTSS.c    **** * Summary:
 177:BLE_HTSS.c    **** * If health thermometer indiications are enabled and device is connected then this
 178:BLE_HTSS.c    **** * functions transmits the temeprature information at htssInterval.
 179:BLE_HTSS.c    **** *
ARM GAS  C:\Users\User\AppData\Local\Temp\ccNggLvC.s 			page 9


 180:BLE_HTSS.c    **** * Parameters:
 181:BLE_HTSS.c    **** *  uint32 - Measured temperature value.
 182:BLE_HTSS.c    **** *
 183:BLE_HTSS.c    **** * Return:
 184:BLE_HTSS.c    **** *  None.
 185:BLE_HTSS.c    **** *
 186:BLE_HTSS.c    **** * Side Effects:
 187:BLE_HTSS.c    **** * None
 188:BLE_HTSS.c    **** *
 189:BLE_HTSS.c    **** * Note:
 190:BLE_HTSS.c    **** *
 191:BLE_HTSS.c    **** *****************************************************************************/
 192:BLE_HTSS.c    **** void ProcessBLE (uint32 temperature)
 193:BLE_HTSS.c    **** {
 261              		.loc 1 193 0
 262              		.cfi_startproc
 263              		@ args = 0, pretend = 0, frame = 16
 264              		@ frame_needed = 1, uses_anonymous_args = 0
 265 0000 80B5     		push	{r7, lr}
 266              		.cfi_def_cfa_offset 8
 267              		.cfi_offset 7, -8
 268              		.cfi_offset 14, -4
 269 0002 84B0     		sub	sp, sp, #16
 270              		.cfi_def_cfa_offset 24
 271 0004 00AF     		add	r7, sp, #0
 272              		.cfi_def_cfa_register 7
 273 0006 7860     		str	r0, [r7, #4]
 194:BLE_HTSS.c    ****     /* Temporary array to hold Health Thermometer characteristic information */
 195:BLE_HTSS.c    ****     uint8 valueArray[HTSS_TEMPERATURE_MEASURE_SIZE];
 196:BLE_HTSS.c    ****     
 197:BLE_HTSS.c    ****     /* Check if indications are enabled and measurement interval has elapsed */
 198:BLE_HTSS.c    ****     if((true == htssIndication) && (SystemFlag & MEASUREMENT_INTERVAL))
 274              		.loc 1 198 0
 275 0008 234B     		ldr	r3, .L24
 276 000a 1B78     		ldrb	r3, [r3]
 277 000c 002B     		cmp	r3, #0
 278 000e 3FD0     		beq	.L23
 279              		.loc 1 198 0 is_stmt 0 discriminator 1
 280 0010 224B     		ldr	r3, .L24+4
 281 0012 1B68     		ldr	r3, [r3]
 282 0014 0222     		movs	r2, #2
 283 0016 1340     		ands	r3, r2
 284 0018 3AD0     		beq	.L23
 199:BLE_HTSS.c    ****     {
 200:BLE_HTSS.c    ****         /* Clear measurement interval flag */
 201:BLE_HTSS.c    ****         SystemFlag &= ~MEASUREMENT_INTERVAL;
 285              		.loc 1 201 0 is_stmt 1
 286 001a 204B     		ldr	r3, .L24+4
 287 001c 1B68     		ldr	r3, [r3]
 288 001e 0222     		movs	r2, #2
 289 0020 9343     		bics	r3, r2
 290 0022 1A00     		movs	r2, r3
 291 0024 1D4B     		ldr	r3, .L24+4
 292 0026 1A60     		str	r2, [r3]
 202:BLE_HTSS.c    ****         
 203:BLE_HTSS.c    ****         /* Read Health Thermometer Characteristic from GATT DB */
 204:BLE_HTSS.c    ****         if(CYBLE_ERROR_OK == CyBle_HtssGetCharacteristicValue(CYBLE_HTS_TEMP_MEASURE, HTSS_TEMPERAT
ARM GAS  C:\Users\User\AppData\Local\Temp\ccNggLvC.s 			page 10


 293              		.loc 1 204 0
 294 0028 0823     		movs	r3, #8
 295 002a FB18     		adds	r3, r7, r3
 296 002c 1A00     		movs	r2, r3
 297 002e 0621     		movs	r1, #6
 298 0030 0020     		movs	r0, #0
 299 0032 FFF7FEFF 		bl	CyBle_HtssGetCharacteristicValue
 300 0036 031E     		subs	r3, r0, #0
 301 0038 2AD1     		bne	.L23
 205:BLE_HTSS.c    ****         {
 206:BLE_HTSS.c    ****             /* Update temperature in the characteristic */
 207:BLE_HTSS.c    ****             valueArray[1] = LO8(LO16(temperature));
 302              		.loc 1 207 0
 303 003a 7B68     		ldr	r3, [r7, #4]
 304 003c DAB2     		uxtb	r2, r3
 305 003e 0823     		movs	r3, #8
 306 0040 FB18     		adds	r3, r7, r3
 307 0042 5A70     		strb	r2, [r3, #1]
 208:BLE_HTSS.c    ****             valueArray[2] = HI8(LO16(temperature));
 308              		.loc 1 208 0
 309 0044 7B68     		ldr	r3, [r7, #4]
 310 0046 1B12     		asrs	r3, r3, #8
 311 0048 DAB2     		uxtb	r2, r3
 312 004a 0823     		movs	r3, #8
 313 004c FB18     		adds	r3, r7, r3
 314 004e 9A70     		strb	r2, [r3, #2]
 209:BLE_HTSS.c    ****             valueArray[3] = LO8(HI16(temperature));
 315              		.loc 1 209 0
 316 0050 7B68     		ldr	r3, [r7, #4]
 317 0052 1B0C     		lsrs	r3, r3, #16
 318 0054 DAB2     		uxtb	r2, r3
 319 0056 0823     		movs	r3, #8
 320 0058 FB18     		adds	r3, r7, r3
 321 005a DA70     		strb	r2, [r3, #3]
 210:BLE_HTSS.c    ****             valueArray[4] = HI8(HI16(temperature));
 322              		.loc 1 210 0
 323 005c 7B68     		ldr	r3, [r7, #4]
 324 005e 1B0C     		lsrs	r3, r3, #16
 325 0060 1B12     		asrs	r3, r3, #8
 326 0062 DAB2     		uxtb	r2, r3
 327 0064 0823     		movs	r3, #8
 328 0066 FB18     		adds	r3, r7, r3
 329 0068 1A71     		strb	r2, [r3, #4]
 211:BLE_HTSS.c    ****             /* Send indication to the central */
 212:BLE_HTSS.c    ****             CyBle_HtssSendIndication(connectionHandle, CYBLE_HTS_TEMP_MEASURE, HTSS_TEMPERATURE_MEA
 330              		.loc 1 212 0
 331 006a 0823     		movs	r3, #8
 332 006c F918     		adds	r1, r7, r3
 333 006e 0C4B     		ldr	r3, .L24+8
 334 0070 1A78     		ldrb	r2, [r3]
 335 0072 5B78     		ldrb	r3, [r3, #1]
 336 0074 1B02     		lsls	r3, r3, #8
 337 0076 1343     		orrs	r3, r2
 338 0078 0020     		movs	r0, #0
 339 007a 1B04     		lsls	r3, r3, #16
 340 007c 1B0C     		lsrs	r3, r3, #16
 341 007e 020C     		lsrs	r2, r0, #16
ARM GAS  C:\Users\User\AppData\Local\Temp\ccNggLvC.s 			page 11


 342 0080 1204     		lsls	r2, r2, #16
 343 0082 1343     		orrs	r3, r2
 344 0084 1800     		movs	r0, r3
 345 0086 0B00     		movs	r3, r1
 346 0088 0622     		movs	r2, #6
 347 008a 0021     		movs	r1, #0
 348 008c FFF7FEFF 		bl	CyBle_HtssSendIndication
 349              	.L23:
 213:BLE_HTSS.c    ****         }
 214:BLE_HTSS.c    ****     }
 215:BLE_HTSS.c    **** }
 350              		.loc 1 215 0
 351 0090 C046     		nop
 352 0092 BD46     		mov	sp, r7
 353 0094 04B0     		add	sp, sp, #16
 354              		@ sp needed
 355 0096 80BD     		pop	{r7, pc}
 356              	.L25:
 357              		.align	2
 358              	.L24:
 359 0098 00000000 		.word	htssIndication
 360 009c 00000000 		.word	SystemFlag
 361 00a0 00000000 		.word	connectionHandle
 362              		.cfi_endproc
 363              	.LFE38:
 364              		.size	ProcessBLE, .-ProcessBLE
 365              		.text
 366              	.Letext0:
 367              		.file 2 "Generated_Source\\PSoC4/cytypes.h"
 368              		.file 3 "Generated_Source\\PSoC4/OneWire.h"
 369              		.file 4 "Generated_Source\\PSoC4/BLE_Stack.h"
 370              		.file 5 "Generated_Source\\PSoC4/BLE_StackGatt.h"
 371              		.file 6 "Generated_Source\\PSoC4/BLE_hts.h"
 372              		.file 7 "Generated_Source\\PSoC4/BLE_eventHandler.h"
 373              		.file 8 "CommonFunctions.h"