ARM GAS  C:\Users\User\AppData\Local\Temp\ccmH1EJa.s 			page 1


   1              		.syntax unified
   2              		.cpu cortex-m0
   3              		.fpu softvfp
   4              		.eabi_attribute 20, 1
   5              		.eabi_attribute 21, 1
   6              		.eabi_attribute 23, 3
   7              		.eabi_attribute 24, 1
   8              		.eabi_attribute 25, 1
   9              		.eabi_attribute 26, 1
  10              		.eabi_attribute 30, 6
  11              		.eabi_attribute 34, 0
  12              		.eabi_attribute 18, 4
  13              		.thumb
  14              		.syntax unified
  15              		.file	"BLE_hts.c"
  16              		.text
  17              	.Ltext0:
  18              		.cfi_sections	.debug_frame
  19              		.bss
  20              		.align	2
  21              	CyBle_HtsApplCallback:
  22 0000 00000000 		.space	4
  23              		.global	cyBle_htss
  24              		.section	.rodata
  25              		.align	2
  26              		.type	cyBle_htss, %object
  27              		.size	cyBle_htss, 26
  28              	cyBle_htss:
  29 0000 1400     		.short	20
  30 0002 1600     		.short	22
  31 0004 1700     		.short	23
  32 0006 0000     		.short	0
  33 0008 1900     		.short	25
  34 000a 0000     		.short	0
  35 000c 0000     		.short	0
  36 000e 1B00     		.short	27
  37 0010 1C00     		.short	28
  38 0012 0000     		.short	0
  39 0014 1E00     		.short	30
  40 0016 1F00     		.short	31
  41 0018 2000     		.short	32
  42              		.bss
  43              		.align	1
  44              	cyBle_htssReqHandle:
  45 0004 0000     		.space	2
  46              		.comm	cyBle_htsc,40,4
  47              		.align	1
  48              	cyBle_htscReqHandle:
  49 0006 0000     		.space	2
  50              		.section	.text.CyBle_HtsInit,"ax",%progbits
  51              		.align	2
  52              		.global	CyBle_HtsInit
  53              		.code	16
  54              		.thumb_func
  55              		.type	CyBle_HtsInit, %function
  56              	CyBle_HtsInit:
  57              	.LFB2:
ARM GAS  C:\Users\User\AppData\Local\Temp\ccmH1EJa.s 			page 2


  58              		.file 1 "Generated_Source\\PSoC4\\BLE_hts.c"
   1:Generated_Source\PSoC4/BLE_hts.c **** /***************************************************************************//**
   2:Generated_Source\PSoC4/BLE_hts.c **** * \file CYBLE_hts.c
   3:Generated_Source\PSoC4/BLE_hts.c **** * \version 3.66
   4:Generated_Source\PSoC4/BLE_hts.c **** * 
   5:Generated_Source\PSoC4/BLE_hts.c **** * \brief
   6:Generated_Source\PSoC4/BLE_hts.c **** *  Contains the source code for Health Thermometer Service.
   7:Generated_Source\PSoC4/BLE_hts.c **** * 
   8:Generated_Source\PSoC4/BLE_hts.c **** ********************************************************************************
   9:Generated_Source\PSoC4/BLE_hts.c **** * \copyright
  10:Generated_Source\PSoC4/BLE_hts.c **** * Copyright 2014-2020, Cypress Semiconductor Corporation.  All rights reserved.
  11:Generated_Source\PSoC4/BLE_hts.c **** * You may use this file only in accordance with the license, terms, conditions,
  12:Generated_Source\PSoC4/BLE_hts.c **** * disclaimers, and limitations in the end user license agreement accompanying
  13:Generated_Source\PSoC4/BLE_hts.c **** * the software package with which this file was provided.
  14:Generated_Source\PSoC4/BLE_hts.c **** *******************************************************************************/
  15:Generated_Source\PSoC4/BLE_hts.c **** 
  16:Generated_Source\PSoC4/BLE_hts.c **** 
  17:Generated_Source\PSoC4/BLE_hts.c **** #include "BLE_eventHandler.h"
  18:Generated_Source\PSoC4/BLE_hts.c **** 
  19:Generated_Source\PSoC4/BLE_hts.c **** static CYBLE_CALLBACK_T CyBle_HtsApplCallback = NULL;
  20:Generated_Source\PSoC4/BLE_hts.c **** 
  21:Generated_Source\PSoC4/BLE_hts.c **** #ifdef CYBLE_HTS_SERVER
  22:Generated_Source\PSoC4/BLE_hts.c **** 
  23:Generated_Source\PSoC4/BLE_hts.c **** const CYBLE_HTSS_T cyBle_htss =
  24:Generated_Source\PSoC4/BLE_hts.c **** {
  25:Generated_Source\PSoC4/BLE_hts.c ****     0x0014u,    /* Handle of the HTS service */
  26:Generated_Source\PSoC4/BLE_hts.c ****     {
  27:Generated_Source\PSoC4/BLE_hts.c ****         
  28:Generated_Source\PSoC4/BLE_hts.c ****         /* Temperature Measurement characteristic */
  29:Generated_Source\PSoC4/BLE_hts.c ****         {
  30:Generated_Source\PSoC4/BLE_hts.c ****             0x0016u, /* Handle of the Temperature Measurement characteristic */ 
  31:Generated_Source\PSoC4/BLE_hts.c ****             
  32:Generated_Source\PSoC4/BLE_hts.c ****             /* Array of Descriptors handles */
  33:Generated_Source\PSoC4/BLE_hts.c ****             {
  34:Generated_Source\PSoC4/BLE_hts.c ****                 0x0017u, /* Handle of the Client Characteristic Configuration descriptor */ 
  35:Generated_Source\PSoC4/BLE_hts.c ****                 CYBLE_GATT_INVALID_ATTR_HANDLE_VALUE, 
  36:Generated_Source\PSoC4/BLE_hts.c ****             }, 
  37:Generated_Source\PSoC4/BLE_hts.c ****         }, 
  38:Generated_Source\PSoC4/BLE_hts.c ****         
  39:Generated_Source\PSoC4/BLE_hts.c ****         /* Temperature Type characteristic */
  40:Generated_Source\PSoC4/BLE_hts.c ****         {
  41:Generated_Source\PSoC4/BLE_hts.c ****             0x0019u, /* Handle of the Temperature Type characteristic */ 
  42:Generated_Source\PSoC4/BLE_hts.c ****             
  43:Generated_Source\PSoC4/BLE_hts.c ****             /* Array of Descriptors handles */
  44:Generated_Source\PSoC4/BLE_hts.c ****             {
  45:Generated_Source\PSoC4/BLE_hts.c ****                 CYBLE_GATT_INVALID_ATTR_HANDLE_VALUE, 
  46:Generated_Source\PSoC4/BLE_hts.c ****                 CYBLE_GATT_INVALID_ATTR_HANDLE_VALUE, 
  47:Generated_Source\PSoC4/BLE_hts.c ****             }, 
  48:Generated_Source\PSoC4/BLE_hts.c ****         }, 
  49:Generated_Source\PSoC4/BLE_hts.c ****         
  50:Generated_Source\PSoC4/BLE_hts.c ****         /* Intermediate Temperature characteristic */
  51:Generated_Source\PSoC4/BLE_hts.c ****         {
  52:Generated_Source\PSoC4/BLE_hts.c ****             0x001Bu, /* Handle of the Intermediate Temperature characteristic */ 
  53:Generated_Source\PSoC4/BLE_hts.c ****             
  54:Generated_Source\PSoC4/BLE_hts.c ****             /* Array of Descriptors handles */
  55:Generated_Source\PSoC4/BLE_hts.c ****             {
  56:Generated_Source\PSoC4/BLE_hts.c ****                 0x001Cu, /* Handle of the Client Characteristic Configuration descriptor */ 
ARM GAS  C:\Users\User\AppData\Local\Temp\ccmH1EJa.s 			page 3


  57:Generated_Source\PSoC4/BLE_hts.c ****                 CYBLE_GATT_INVALID_ATTR_HANDLE_VALUE, 
  58:Generated_Source\PSoC4/BLE_hts.c ****             }, 
  59:Generated_Source\PSoC4/BLE_hts.c ****         }, 
  60:Generated_Source\PSoC4/BLE_hts.c ****         
  61:Generated_Source\PSoC4/BLE_hts.c ****         /* Measurement Interval characteristic */
  62:Generated_Source\PSoC4/BLE_hts.c ****         {
  63:Generated_Source\PSoC4/BLE_hts.c ****             0x001Eu, /* Handle of the Measurement Interval characteristic */ 
  64:Generated_Source\PSoC4/BLE_hts.c ****             
  65:Generated_Source\PSoC4/BLE_hts.c ****             /* Array of Descriptors handles */
  66:Generated_Source\PSoC4/BLE_hts.c ****             {
  67:Generated_Source\PSoC4/BLE_hts.c ****                 0x001Fu, /* Handle of the Client Characteristic Configuration descriptor */ 
  68:Generated_Source\PSoC4/BLE_hts.c ****                 0x0020u, /* Handle of the Valid Range descriptor */ 
  69:Generated_Source\PSoC4/BLE_hts.c ****             }, 
  70:Generated_Source\PSoC4/BLE_hts.c ****         }, 
  71:Generated_Source\PSoC4/BLE_hts.c ****     },
  72:Generated_Source\PSoC4/BLE_hts.c **** };
  73:Generated_Source\PSoC4/BLE_hts.c **** static CYBLE_GATT_DB_ATTR_HANDLE_T cyBle_htssReqHandle;
  74:Generated_Source\PSoC4/BLE_hts.c ****     
  75:Generated_Source\PSoC4/BLE_hts.c **** #endif /* CYBLE_HTS_SERVER */
  76:Generated_Source\PSoC4/BLE_hts.c **** 
  77:Generated_Source\PSoC4/BLE_hts.c **** #ifdef CYBLE_HTS_CLIENT
  78:Generated_Source\PSoC4/BLE_hts.c **** 
  79:Generated_Source\PSoC4/BLE_hts.c **** CYBLE_HTSC_T cyBle_htsc;
  80:Generated_Source\PSoC4/BLE_hts.c **** static CYBLE_GATT_DB_ATTR_HANDLE_T cyBle_htscReqHandle;
  81:Generated_Source\PSoC4/BLE_hts.c **** 
  82:Generated_Source\PSoC4/BLE_hts.c **** #endif /* (CYBLE_HTS_CLIENT) */
  83:Generated_Source\PSoC4/BLE_hts.c **** 
  84:Generated_Source\PSoC4/BLE_hts.c **** 
  85:Generated_Source\PSoC4/BLE_hts.c **** /****************************************************************************** 
  86:Generated_Source\PSoC4/BLE_hts.c **** * Function Name: CyBle_HtsInit
  87:Generated_Source\PSoC4/BLE_hts.c **** ***************************************************************************//**
  88:Generated_Source\PSoC4/BLE_hts.c **** * 
  89:Generated_Source\PSoC4/BLE_hts.c **** *  This function initializes HTS Service.
  90:Generated_Source\PSoC4/BLE_hts.c **** * 
  91:Generated_Source\PSoC4/BLE_hts.c **** ******************************************************************************/
  92:Generated_Source\PSoC4/BLE_hts.c **** void CyBle_HtsInit(void)
  93:Generated_Source\PSoC4/BLE_hts.c **** {
  59              		.loc 1 93 0
  60              		.cfi_startproc
  61              		@ args = 0, pretend = 0, frame = 0
  62              		@ frame_needed = 1, uses_anonymous_args = 0
  63 0000 80B5     		push	{r7, lr}
  64              		.cfi_def_cfa_offset 8
  65              		.cfi_offset 7, -8
  66              		.cfi_offset 14, -4
  67 0002 00AF     		add	r7, sp, #0
  68              		.cfi_def_cfa_register 7
  94:Generated_Source\PSoC4/BLE_hts.c **** 
  95:Generated_Source\PSoC4/BLE_hts.c **** #ifdef CYBLE_HTS_SERVER
  96:Generated_Source\PSoC4/BLE_hts.c **** 
  97:Generated_Source\PSoC4/BLE_hts.c ****     cyBle_htssReqHandle = CYBLE_GATT_INVALID_ATTR_HANDLE_VALUE;
  69              		.loc 1 97 0
  70 0004 094B     		ldr	r3, .L3
  71 0006 0022     		movs	r2, #0
  72 0008 1A80     		strh	r2, [r3]
  98:Generated_Source\PSoC4/BLE_hts.c ****     
  99:Generated_Source\PSoC4/BLE_hts.c **** #endif /* CYBLE_HTS_SERVER */
ARM GAS  C:\Users\User\AppData\Local\Temp\ccmH1EJa.s 			page 4


 100:Generated_Source\PSoC4/BLE_hts.c **** 
 101:Generated_Source\PSoC4/BLE_hts.c **** #ifdef CYBLE_HTS_CLIENT
 102:Generated_Source\PSoC4/BLE_hts.c **** 
 103:Generated_Source\PSoC4/BLE_hts.c ****     if(cyBle_serverInfo[CYBLE_SRVI_HTS].range.startHandle == CYBLE_GATT_INVALID_ATTR_HANDLE_VALUE)
  73              		.loc 1 103 0
  74 000a 094B     		ldr	r3, .L3+4
  75 000c 5B8A     		ldrh	r3, [r3, #18]
  76 000e 002B     		cmp	r3, #0
  77 0010 05D1     		bne	.L2
 104:Generated_Source\PSoC4/BLE_hts.c ****     {
 105:Generated_Source\PSoC4/BLE_hts.c ****         (void)memset(&cyBle_htsc, 0, sizeof(cyBle_htsc));
  78              		.loc 1 105 0
  79 0012 084B     		ldr	r3, .L3+8
  80 0014 2822     		movs	r2, #40
  81 0016 0021     		movs	r1, #0
  82 0018 1800     		movs	r0, r3
  83 001a FFF7FEFF 		bl	memset
  84              	.L2:
 106:Generated_Source\PSoC4/BLE_hts.c ****     }
 107:Generated_Source\PSoC4/BLE_hts.c ****     cyBle_htscReqHandle = CYBLE_GATT_INVALID_ATTR_HANDLE_VALUE;
  85              		.loc 1 107 0
  86 001e 064B     		ldr	r3, .L3+12
  87 0020 0022     		movs	r2, #0
  88 0022 1A80     		strh	r2, [r3]
 108:Generated_Source\PSoC4/BLE_hts.c **** 
 109:Generated_Source\PSoC4/BLE_hts.c **** #endif /* CYBLE_HTS_CLIENT */
 110:Generated_Source\PSoC4/BLE_hts.c **** }
  89              		.loc 1 110 0
  90 0024 C046     		nop
  91 0026 BD46     		mov	sp, r7
  92              		@ sp needed
  93 0028 80BD     		pop	{r7, pc}
  94              	.L4:
  95 002a C046     		.align	2
  96              	.L3:
  97 002c 04000000 		.word	cyBle_htssReqHandle
  98 0030 00000000 		.word	cyBle_serverInfo
  99 0034 00000000 		.word	cyBle_htsc
 100 0038 06000000 		.word	cyBle_htscReqHandle
 101              		.cfi_endproc
 102              	.LFE2:
 103              		.size	CyBle_HtsInit, .-CyBle_HtsInit
 104              		.section	.text.CyBle_HtsRegisterAttrCallback,"ax",%progbits
 105              		.align	2
 106              		.global	CyBle_HtsRegisterAttrCallback
 107              		.code	16
 108              		.thumb_func
 109              		.type	CyBle_HtsRegisterAttrCallback, %function
 110              	CyBle_HtsRegisterAttrCallback:
 111              	.LFB3:
 111:Generated_Source\PSoC4/BLE_hts.c **** 
 112:Generated_Source\PSoC4/BLE_hts.c **** 
 113:Generated_Source\PSoC4/BLE_hts.c **** /******************************************************************************
 114:Generated_Source\PSoC4/BLE_hts.c **** * Function Name: CyBle_HtsRegisterAttrCallback
 115:Generated_Source\PSoC4/BLE_hts.c **** ***************************************************************************//**
 116:Generated_Source\PSoC4/BLE_hts.c **** * 
 117:Generated_Source\PSoC4/BLE_hts.c **** *  Registers a callback function for service specific attribute operations.
ARM GAS  C:\Users\User\AppData\Local\Temp\ccmH1EJa.s 			page 5


 118:Generated_Source\PSoC4/BLE_hts.c **** *  Service specific write requests from peer device will not be handled with
 119:Generated_Source\PSoC4/BLE_hts.c **** *  unregistered callback function.
 120:Generated_Source\PSoC4/BLE_hts.c **** * 
 121:Generated_Source\PSoC4/BLE_hts.c **** *  \param callbackFunc: An application layer event callback function to receive 
 122:Generated_Source\PSoC4/BLE_hts.c **** *                     events from the BLE Component. The definition of 
 123:Generated_Source\PSoC4/BLE_hts.c **** *                     CYBLE_CALLBACK_T for HTS Service is:\n
 124:Generated_Source\PSoC4/BLE_hts.c **** *                     typedef void (* CYBLE_CALLBACK_T) (uint32 eventCode, 
 125:Generated_Source\PSoC4/BLE_hts.c **** *                                                        void *eventParam)
 126:Generated_Source\PSoC4/BLE_hts.c **** *                     * eventCode indicates the event that triggered this 
 127:Generated_Source\PSoC4/BLE_hts.c **** *                       callback (e.g. CYBLE_EVT_HTSS_NOTIFICATION_ENABLED).
 128:Generated_Source\PSoC4/BLE_hts.c **** *                     * eventParam contains the parameters corresponding to the 
 129:Generated_Source\PSoC4/BLE_hts.c **** *                       current event. (e.g. pointer to CYBLE_HTS_CHAR_VALUE_T
 130:Generated_Source\PSoC4/BLE_hts.c **** *                       structure that contains details of the characteristic 
 131:Generated_Source\PSoC4/BLE_hts.c **** *                       for which notification enabled event was triggered).
 132:Generated_Source\PSoC4/BLE_hts.c **** * 
 133:Generated_Source\PSoC4/BLE_hts.c **** ******************************************************************************/
 134:Generated_Source\PSoC4/BLE_hts.c **** void CyBle_HtsRegisterAttrCallback(CYBLE_CALLBACK_T callbackFunc)
 135:Generated_Source\PSoC4/BLE_hts.c **** {
 112              		.loc 1 135 0
 113              		.cfi_startproc
 114              		@ args = 0, pretend = 0, frame = 8
 115              		@ frame_needed = 1, uses_anonymous_args = 0
 116 0000 80B5     		push	{r7, lr}
 117              		.cfi_def_cfa_offset 8
 118              		.cfi_offset 7, -8
 119              		.cfi_offset 14, -4
 120 0002 82B0     		sub	sp, sp, #8
 121              		.cfi_def_cfa_offset 16
 122 0004 00AF     		add	r7, sp, #0
 123              		.cfi_def_cfa_register 7
 124 0006 7860     		str	r0, [r7, #4]
 136:Generated_Source\PSoC4/BLE_hts.c ****     CyBle_HtsApplCallback = callbackFunc;
 125              		.loc 1 136 0
 126 0008 034B     		ldr	r3, .L6
 127 000a 7A68     		ldr	r2, [r7, #4]
 128 000c 1A60     		str	r2, [r3]
 137:Generated_Source\PSoC4/BLE_hts.c **** }
 129              		.loc 1 137 0
 130 000e C046     		nop
 131 0010 BD46     		mov	sp, r7
 132 0012 02B0     		add	sp, sp, #8
 133              		@ sp needed
 134 0014 80BD     		pop	{r7, pc}
 135              	.L7:
 136 0016 C046     		.align	2
 137              	.L6:
 138 0018 00000000 		.word	CyBle_HtsApplCallback
 139              		.cfi_endproc
 140              	.LFE3:
 141              		.size	CyBle_HtsRegisterAttrCallback, .-CyBle_HtsRegisterAttrCallback
 142              		.section	.text.CyBle_HtssSetCharacteristicValue,"ax",%progbits
 143              		.align	2
 144              		.global	CyBle_HtssSetCharacteristicValue
 145              		.code	16
 146              		.thumb_func
 147              		.type	CyBle_HtssSetCharacteristicValue, %function
 148              	CyBle_HtssSetCharacteristicValue:
ARM GAS  C:\Users\User\AppData\Local\Temp\ccmH1EJa.s 			page 6


 149              	.LFB4:
 138:Generated_Source\PSoC4/BLE_hts.c **** 
 139:Generated_Source\PSoC4/BLE_hts.c **** #ifdef CYBLE_HTS_SERVER
 140:Generated_Source\PSoC4/BLE_hts.c **** 
 141:Generated_Source\PSoC4/BLE_hts.c **** 
 142:Generated_Source\PSoC4/BLE_hts.c **** /******************************************************************************
 143:Generated_Source\PSoC4/BLE_hts.c **** * Function Name: CyBle_HtssSetCharacteristicValue
 144:Generated_Source\PSoC4/BLE_hts.c **** ***************************************************************************//**
 145:Generated_Source\PSoC4/BLE_hts.c **** * 
 146:Generated_Source\PSoC4/BLE_hts.c **** *  Sets the characteristic value of the service in the local database.
 147:Generated_Source\PSoC4/BLE_hts.c **** * 
 148:Generated_Source\PSoC4/BLE_hts.c **** *  \param charIndex: The index of the service characteristic.
 149:Generated_Source\PSoC4/BLE_hts.c **** *  \param attrSize:  The size (in Bytes) of the characteristic value attribute.
 150:Generated_Source\PSoC4/BLE_hts.c **** *  \param attrValue: The pointer to the characteristic value data that should be
 151:Generated_Source\PSoC4/BLE_hts.c **** *                    stored in the GATT database.
 152:Generated_Source\PSoC4/BLE_hts.c **** * 
 153:Generated_Source\PSoC4/BLE_hts.c **** * \return
 154:Generated_Source\PSoC4/BLE_hts.c **** *  Return value is of type CYBLE_API_RESULT_T.
 155:Generated_Source\PSoC4/BLE_hts.c **** *  * CYBLE_ERROR_OK - The request handled successfully.
 156:Generated_Source\PSoC4/BLE_hts.c **** *  * CYBLE_ERROR_INVALID_PARAMETER - Validation of the input parameter failed.
 157:Generated_Source\PSoC4/BLE_hts.c **** *
 158:Generated_Source\PSoC4/BLE_hts.c **** ******************************************************************************/
 159:Generated_Source\PSoC4/BLE_hts.c **** CYBLE_API_RESULT_T CyBle_HtssSetCharacteristicValue(CYBLE_HTS_CHAR_INDEX_T charIndex,
 160:Generated_Source\PSoC4/BLE_hts.c ****     uint8 attrSize, uint8 *attrValue)
 161:Generated_Source\PSoC4/BLE_hts.c **** {
 150              		.loc 1 161 0
 151              		.cfi_startproc
 152              		@ args = 0, pretend = 0, frame = 24
 153              		@ frame_needed = 1, uses_anonymous_args = 0
 154 0000 80B5     		push	{r7, lr}
 155              		.cfi_def_cfa_offset 8
 156              		.cfi_offset 7, -8
 157              		.cfi_offset 14, -4
 158 0002 86B0     		sub	sp, sp, #24
 159              		.cfi_def_cfa_offset 32
 160 0004 00AF     		add	r7, sp, #0
 161              		.cfi_def_cfa_register 7
 162 0006 3A60     		str	r2, [r7]
 163 0008 FB1D     		adds	r3, r7, #7
 164 000a 021C     		adds	r2, r0, #0
 165 000c 1A70     		strb	r2, [r3]
 166 000e BB1D     		adds	r3, r7, #6
 167 0010 0A1C     		adds	r2, r1, #0
 168 0012 1A70     		strb	r2, [r3]
 162:Generated_Source\PSoC4/BLE_hts.c ****     CYBLE_API_RESULT_T apiResult = CYBLE_ERROR_OK;
 169              		.loc 1 162 0
 170 0014 1623     		movs	r3, #22
 171 0016 FB18     		adds	r3, r7, r3
 172 0018 0022     		movs	r2, #0
 173 001a 1A80     		strh	r2, [r3]
 163:Generated_Source\PSoC4/BLE_hts.c ****     CYBLE_GATT_HANDLE_VALUE_PAIR_T locHandleValuePair;
 164:Generated_Source\PSoC4/BLE_hts.c **** 
 165:Generated_Source\PSoC4/BLE_hts.c ****     if(charIndex >= CYBLE_HTS_CHAR_COUNT)
 174              		.loc 1 165 0
 175 001c FB1D     		adds	r3, r7, #7
 176 001e 1B78     		ldrb	r3, [r3]
 177 0020 032B     		cmp	r3, #3
ARM GAS  C:\Users\User\AppData\Local\Temp\ccmH1EJa.s 			page 7


 178 0022 04D9     		bls	.L9
 166:Generated_Source\PSoC4/BLE_hts.c ****     {
 167:Generated_Source\PSoC4/BLE_hts.c ****         apiResult = CYBLE_ERROR_INVALID_PARAMETER;
 179              		.loc 1 167 0
 180 0024 1623     		movs	r3, #22
 181 0026 FB18     		adds	r3, r7, r3
 182 0028 0122     		movs	r2, #1
 183 002a 1A80     		strh	r2, [r3]
 184 002c 23E0     		b	.L10
 185              	.L9:
 168:Generated_Source\PSoC4/BLE_hts.c ****     }
 169:Generated_Source\PSoC4/BLE_hts.c ****     else
 170:Generated_Source\PSoC4/BLE_hts.c ****     {
 171:Generated_Source\PSoC4/BLE_hts.c ****         /* Store data in database */
 172:Generated_Source\PSoC4/BLE_hts.c ****         locHandleValuePair.attrHandle = cyBle_htss.charInfo[charIndex].charHandle;
 186              		.loc 1 172 0
 187 002e FB1D     		adds	r3, r7, #7
 188 0030 1A78     		ldrb	r2, [r3]
 189 0032 1449     		ldr	r1, .L12
 190 0034 1300     		movs	r3, r2
 191 0036 5B00     		lsls	r3, r3, #1
 192 0038 9B18     		adds	r3, r3, r2
 193 003a 5B00     		lsls	r3, r3, #1
 194 003c CB18     		adds	r3, r1, r3
 195 003e 0233     		adds	r3, r3, #2
 196 0040 1A88     		ldrh	r2, [r3]
 197 0042 0823     		movs	r3, #8
 198 0044 FB18     		adds	r3, r7, r3
 199 0046 1A81     		strh	r2, [r3, #8]
 173:Generated_Source\PSoC4/BLE_hts.c ****         locHandleValuePair.value.len = attrSize;
 200              		.loc 1 173 0
 201 0048 BB1D     		adds	r3, r7, #6
 202 004a 1B78     		ldrb	r3, [r3]
 203 004c 9AB2     		uxth	r2, r3
 204 004e 0823     		movs	r3, #8
 205 0050 FB18     		adds	r3, r7, r3
 206 0052 9A80     		strh	r2, [r3, #4]
 174:Generated_Source\PSoC4/BLE_hts.c ****         locHandleValuePair.value.val = attrValue;
 207              		.loc 1 174 0
 208 0054 0823     		movs	r3, #8
 209 0056 FB18     		adds	r3, r7, r3
 210 0058 3A68     		ldr	r2, [r7]
 211 005a 1A60     		str	r2, [r3]
 175:Generated_Source\PSoC4/BLE_hts.c ****         if(CYBLE_GATT_ERR_NONE !=
 176:Generated_Source\PSoC4/BLE_hts.c ****             CyBle_GattsWriteAttributeValue(&locHandleValuePair, 0u, NULL, CYBLE_GATT_DB_LOCALLY_INI
 212              		.loc 1 176 0
 213 005c 0823     		movs	r3, #8
 214 005e F818     		adds	r0, r7, r3
 215 0060 0023     		movs	r3, #0
 216 0062 0022     		movs	r2, #0
 217 0064 0021     		movs	r1, #0
 218 0066 FFF7FEFF 		bl	CyBle_GattsWriteAttributeValue
 219 006a 031E     		subs	r3, r0, #0
 175:Generated_Source\PSoC4/BLE_hts.c ****         if(CYBLE_GATT_ERR_NONE !=
 220              		.loc 1 175 0
 221 006c 03D0     		beq	.L10
 177:Generated_Source\PSoC4/BLE_hts.c ****         {
ARM GAS  C:\Users\User\AppData\Local\Temp\ccmH1EJa.s 			page 8


 178:Generated_Source\PSoC4/BLE_hts.c ****             apiResult = CYBLE_ERROR_INVALID_PARAMETER;
 222              		.loc 1 178 0
 223 006e 1623     		movs	r3, #22
 224 0070 FB18     		adds	r3, r7, r3
 225 0072 0122     		movs	r2, #1
 226 0074 1A80     		strh	r2, [r3]
 227              	.L10:
 179:Generated_Source\PSoC4/BLE_hts.c ****         }
 180:Generated_Source\PSoC4/BLE_hts.c ****     }
 181:Generated_Source\PSoC4/BLE_hts.c ****     return (apiResult);
 228              		.loc 1 181 0
 229 0076 1623     		movs	r3, #22
 230 0078 FB18     		adds	r3, r7, r3
 231 007a 1B88     		ldrh	r3, [r3]
 182:Generated_Source\PSoC4/BLE_hts.c **** }
 232              		.loc 1 182 0
 233 007c 1800     		movs	r0, r3
 234 007e BD46     		mov	sp, r7
 235 0080 06B0     		add	sp, sp, #24
 236              		@ sp needed
 237 0082 80BD     		pop	{r7, pc}
 238              	.L13:
 239              		.align	2
 240              	.L12:
 241 0084 00000000 		.word	cyBle_htss
 242              		.cfi_endproc
 243              	.LFE4:
 244              		.size	CyBle_HtssSetCharacteristicValue, .-CyBle_HtssSetCharacteristicValue
 245              		.section	.text.CyBle_HtssGetCharacteristicValue,"ax",%progbits
 246              		.align	2
 247              		.global	CyBle_HtssGetCharacteristicValue
 248              		.code	16
 249              		.thumb_func
 250              		.type	CyBle_HtssGetCharacteristicValue, %function
 251              	CyBle_HtssGetCharacteristicValue:
 252              	.LFB5:
 183:Generated_Source\PSoC4/BLE_hts.c **** 
 184:Generated_Source\PSoC4/BLE_hts.c **** 
 185:Generated_Source\PSoC4/BLE_hts.c **** /******************************************************************************
 186:Generated_Source\PSoC4/BLE_hts.c **** * Function Name: CyBle_HtssGetCharacteristicValue
 187:Generated_Source\PSoC4/BLE_hts.c **** ***************************************************************************//**
 188:Generated_Source\PSoC4/BLE_hts.c **** * 
 189:Generated_Source\PSoC4/BLE_hts.c **** *  Gets the characteristic value of the service, which is a value identified by
 190:Generated_Source\PSoC4/BLE_hts.c **** *  charIndex.
 191:Generated_Source\PSoC4/BLE_hts.c **** * 
 192:Generated_Source\PSoC4/BLE_hts.c **** *  \param charIndex: The index of the service characteristic.
 193:Generated_Source\PSoC4/BLE_hts.c **** *  \param attrSize:  The size of the characteristic value attribute.
 194:Generated_Source\PSoC4/BLE_hts.c **** *  \param attrValue: The pointer to the location where characteristic value data
 195:Generated_Source\PSoC4/BLE_hts.c **** *                    should be stored.
 196:Generated_Source\PSoC4/BLE_hts.c **** * 
 197:Generated_Source\PSoC4/BLE_hts.c **** * \return
 198:Generated_Source\PSoC4/BLE_hts.c **** *  Return value is of type CYBLE_API_RESULT_T.
 199:Generated_Source\PSoC4/BLE_hts.c **** *  * CYBLE_ERROR_OK - The request handled successfully.
 200:Generated_Source\PSoC4/BLE_hts.c **** *  * CYBLE_ERROR_INVALID_PARAMETER - Validation of the input parameter failed.
 201:Generated_Source\PSoC4/BLE_hts.c **** *
 202:Generated_Source\PSoC4/BLE_hts.c **** ******************************************************************************/
 203:Generated_Source\PSoC4/BLE_hts.c **** CYBLE_API_RESULT_T CyBle_HtssGetCharacteristicValue(CYBLE_HTS_CHAR_INDEX_T charIndex,
ARM GAS  C:\Users\User\AppData\Local\Temp\ccmH1EJa.s 			page 9


 204:Generated_Source\PSoC4/BLE_hts.c ****     uint8 attrSize, uint8 *attrValue)
 205:Generated_Source\PSoC4/BLE_hts.c **** {
 253              		.loc 1 205 0
 254              		.cfi_startproc
 255              		@ args = 0, pretend = 0, frame = 24
 256              		@ frame_needed = 1, uses_anonymous_args = 0
 257 0000 80B5     		push	{r7, lr}
 258              		.cfi_def_cfa_offset 8
 259              		.cfi_offset 7, -8
 260              		.cfi_offset 14, -4
 261 0002 86B0     		sub	sp, sp, #24
 262              		.cfi_def_cfa_offset 32
 263 0004 00AF     		add	r7, sp, #0
 264              		.cfi_def_cfa_register 7
 265 0006 3A60     		str	r2, [r7]
 266 0008 FB1D     		adds	r3, r7, #7
 267 000a 021C     		adds	r2, r0, #0
 268 000c 1A70     		strb	r2, [r3]
 269 000e BB1D     		adds	r3, r7, #6
 270 0010 0A1C     		adds	r2, r1, #0
 271 0012 1A70     		strb	r2, [r3]
 206:Generated_Source\PSoC4/BLE_hts.c ****     CYBLE_API_RESULT_T apiResult = CYBLE_ERROR_OK;
 272              		.loc 1 206 0
 273 0014 1623     		movs	r3, #22
 274 0016 FB18     		adds	r3, r7, r3
 275 0018 0022     		movs	r2, #0
 276 001a 1A80     		strh	r2, [r3]
 207:Generated_Source\PSoC4/BLE_hts.c ****     CYBLE_GATT_HANDLE_VALUE_PAIR_T locHandleValuePair;
 208:Generated_Source\PSoC4/BLE_hts.c **** 
 209:Generated_Source\PSoC4/BLE_hts.c ****     if(charIndex >= CYBLE_HTS_CHAR_COUNT)
 277              		.loc 1 209 0
 278 001c FB1D     		adds	r3, r7, #7
 279 001e 1B78     		ldrb	r3, [r3]
 280 0020 032B     		cmp	r3, #3
 281 0022 04D9     		bls	.L15
 210:Generated_Source\PSoC4/BLE_hts.c ****     {
 211:Generated_Source\PSoC4/BLE_hts.c ****         apiResult = CYBLE_ERROR_INVALID_PARAMETER;
 282              		.loc 1 211 0
 283 0024 1623     		movs	r3, #22
 284 0026 FB18     		adds	r3, r7, r3
 285 0028 0122     		movs	r2, #1
 286 002a 1A80     		strh	r2, [r3]
 287 002c 23E0     		b	.L16
 288              	.L15:
 212:Generated_Source\PSoC4/BLE_hts.c ****     }
 213:Generated_Source\PSoC4/BLE_hts.c ****     else
 214:Generated_Source\PSoC4/BLE_hts.c ****     {
 215:Generated_Source\PSoC4/BLE_hts.c ****         /* Read characteristic value from database */
 216:Generated_Source\PSoC4/BLE_hts.c ****         locHandleValuePair.attrHandle = cyBle_htss.charInfo[charIndex].charHandle;
 289              		.loc 1 216 0
 290 002e FB1D     		adds	r3, r7, #7
 291 0030 1A78     		ldrb	r2, [r3]
 292 0032 1449     		ldr	r1, .L18
 293 0034 1300     		movs	r3, r2
 294 0036 5B00     		lsls	r3, r3, #1
 295 0038 9B18     		adds	r3, r3, r2
 296 003a 5B00     		lsls	r3, r3, #1
ARM GAS  C:\Users\User\AppData\Local\Temp\ccmH1EJa.s 			page 10


 297 003c CB18     		adds	r3, r1, r3
 298 003e 0233     		adds	r3, r3, #2
 299 0040 1A88     		ldrh	r2, [r3]
 300 0042 0823     		movs	r3, #8
 301 0044 FB18     		adds	r3, r7, r3
 302 0046 1A81     		strh	r2, [r3, #8]
 217:Generated_Source\PSoC4/BLE_hts.c ****         locHandleValuePair.value.len = attrSize;
 303              		.loc 1 217 0
 304 0048 BB1D     		adds	r3, r7, #6
 305 004a 1B78     		ldrb	r3, [r3]
 306 004c 9AB2     		uxth	r2, r3
 307 004e 0823     		movs	r3, #8
 308 0050 FB18     		adds	r3, r7, r3
 309 0052 9A80     		strh	r2, [r3, #4]
 218:Generated_Source\PSoC4/BLE_hts.c ****         locHandleValuePair.value.val = attrValue;
 310              		.loc 1 218 0
 311 0054 0823     		movs	r3, #8
 312 0056 FB18     		adds	r3, r7, r3
 313 0058 3A68     		ldr	r2, [r7]
 314 005a 1A60     		str	r2, [r3]
 219:Generated_Source\PSoC4/BLE_hts.c ****         if(CYBLE_GATT_ERR_NONE !=
 220:Generated_Source\PSoC4/BLE_hts.c ****             CyBle_GattsReadAttributeValue(&locHandleValuePair, NULL, CYBLE_GATT_DB_LOCALLY_INITIATE
 315              		.loc 1 220 0
 316 005c 0823     		movs	r3, #8
 317 005e FB18     		adds	r3, r7, r3
 318 0060 0022     		movs	r2, #0
 319 0062 0021     		movs	r1, #0
 320 0064 1800     		movs	r0, r3
 321 0066 FFF7FEFF 		bl	CyBle_GattsReadAttributeValue
 322 006a 031E     		subs	r3, r0, #0
 219:Generated_Source\PSoC4/BLE_hts.c ****         if(CYBLE_GATT_ERR_NONE !=
 323              		.loc 1 219 0
 324 006c 03D0     		beq	.L16
 221:Generated_Source\PSoC4/BLE_hts.c ****         {
 222:Generated_Source\PSoC4/BLE_hts.c ****             apiResult = CYBLE_ERROR_INVALID_PARAMETER;
 325              		.loc 1 222 0
 326 006e 1623     		movs	r3, #22
 327 0070 FB18     		adds	r3, r7, r3
 328 0072 0122     		movs	r2, #1
 329 0074 1A80     		strh	r2, [r3]
 330              	.L16:
 223:Generated_Source\PSoC4/BLE_hts.c ****         }
 224:Generated_Source\PSoC4/BLE_hts.c ****     }
 225:Generated_Source\PSoC4/BLE_hts.c ****     return (apiResult);
 331              		.loc 1 225 0
 332 0076 1623     		movs	r3, #22
 333 0078 FB18     		adds	r3, r7, r3
 334 007a 1B88     		ldrh	r3, [r3]
 226:Generated_Source\PSoC4/BLE_hts.c **** }
 335              		.loc 1 226 0
 336 007c 1800     		movs	r0, r3
 337 007e BD46     		mov	sp, r7
 338 0080 06B0     		add	sp, sp, #24
 339              		@ sp needed
 340 0082 80BD     		pop	{r7, pc}
 341              	.L19:
 342              		.align	2
ARM GAS  C:\Users\User\AppData\Local\Temp\ccmH1EJa.s 			page 11


 343              	.L18:
 344 0084 00000000 		.word	cyBle_htss
 345              		.cfi_endproc
 346              	.LFE5:
 347              		.size	CyBle_HtssGetCharacteristicValue, .-CyBle_HtssGetCharacteristicValue
 348              		.section	.text.CyBle_HtssSetCharacteristicDescriptor,"ax",%progbits
 349              		.align	2
 350              		.global	CyBle_HtssSetCharacteristicDescriptor
 351              		.code	16
 352              		.thumb_func
 353              		.type	CyBle_HtssSetCharacteristicDescriptor, %function
 354              	CyBle_HtssSetCharacteristicDescriptor:
 355              	.LFB6:
 227:Generated_Source\PSoC4/BLE_hts.c **** 
 228:Generated_Source\PSoC4/BLE_hts.c **** 
 229:Generated_Source\PSoC4/BLE_hts.c **** /******************************************************************************
 230:Generated_Source\PSoC4/BLE_hts.c **** * Function Name: CyBle_HtssSetCharacteristicDescriptor
 231:Generated_Source\PSoC4/BLE_hts.c **** ***************************************************************************//**
 232:Generated_Source\PSoC4/BLE_hts.c **** * 
 233:Generated_Source\PSoC4/BLE_hts.c **** *  Sets the characteristic descriptor of the specified characteristic.
 234:Generated_Source\PSoC4/BLE_hts.c **** * 
 235:Generated_Source\PSoC4/BLE_hts.c **** *  \param charIndex:  The index of the service characteristic.
 236:Generated_Source\PSoC4/BLE_hts.c **** *  \param descrIndex: The index of the service characteristic descriptor.
 237:Generated_Source\PSoC4/BLE_hts.c **** *  \param attrSize:   The size of the characteristic descriptor attribute.
 238:Generated_Source\PSoC4/BLE_hts.c **** *  \param attrValue:  The pointer to the descriptor value data that should be 
 239:Generated_Source\PSoC4/BLE_hts.c **** *                     stored in the GATT database. 
 240:Generated_Source\PSoC4/BLE_hts.c **** * 
 241:Generated_Source\PSoC4/BLE_hts.c **** * \return
 242:Generated_Source\PSoC4/BLE_hts.c **** *  Return value is of type CYBLE_API_RESULT_T.
 243:Generated_Source\PSoC4/BLE_hts.c **** *  * CYBLE_ERROR_OK - The request handled successfully.
 244:Generated_Source\PSoC4/BLE_hts.c **** *  * CYBLE_ERROR_INVALID_PARAMETER - Validation of the input parameter failed.
 245:Generated_Source\PSoC4/BLE_hts.c **** *
 246:Generated_Source\PSoC4/BLE_hts.c **** ******************************************************************************/
 247:Generated_Source\PSoC4/BLE_hts.c **** CYBLE_API_RESULT_T CyBle_HtssSetCharacteristicDescriptor(CYBLE_HTS_CHAR_INDEX_T charIndex,
 248:Generated_Source\PSoC4/BLE_hts.c ****     CYBLE_HTS_DESCR_INDEX_T descrIndex, uint8 attrSize, uint8 *attrValue)
 249:Generated_Source\PSoC4/BLE_hts.c **** {
 356              		.loc 1 249 0
 357              		.cfi_startproc
 358              		@ args = 0, pretend = 0, frame = 24
 359              		@ frame_needed = 1, uses_anonymous_args = 0
 360 0000 90B5     		push	{r4, r7, lr}
 361              		.cfi_def_cfa_offset 12
 362              		.cfi_offset 4, -12
 363              		.cfi_offset 7, -8
 364              		.cfi_offset 14, -4
 365 0002 87B0     		sub	sp, sp, #28
 366              		.cfi_def_cfa_offset 40
 367 0004 00AF     		add	r7, sp, #0
 368              		.cfi_def_cfa_register 7
 369 0006 0400     		movs	r4, r0
 370 0008 0800     		movs	r0, r1
 371 000a 1100     		movs	r1, r2
 372 000c 3B60     		str	r3, [r7]
 373 000e FB1D     		adds	r3, r7, #7
 374 0010 221C     		adds	r2, r4, #0
 375 0012 1A70     		strb	r2, [r3]
 376 0014 BB1D     		adds	r3, r7, #6
ARM GAS  C:\Users\User\AppData\Local\Temp\ccmH1EJa.s 			page 12


 377 0016 021C     		adds	r2, r0, #0
 378 0018 1A70     		strb	r2, [r3]
 379 001a 7B1D     		adds	r3, r7, #5
 380 001c 0A1C     		adds	r2, r1, #0
 381 001e 1A70     		strb	r2, [r3]
 250:Generated_Source\PSoC4/BLE_hts.c ****     CYBLE_API_RESULT_T apiResult = CYBLE_ERROR_OK;
 382              		.loc 1 250 0
 383 0020 1623     		movs	r3, #22
 384 0022 FB18     		adds	r3, r7, r3
 385 0024 0022     		movs	r2, #0
 386 0026 1A80     		strh	r2, [r3]
 251:Generated_Source\PSoC4/BLE_hts.c ****     CYBLE_GATT_HANDLE_VALUE_PAIR_T locHandleValuePair;
 252:Generated_Source\PSoC4/BLE_hts.c **** 
 253:Generated_Source\PSoC4/BLE_hts.c ****     if((charIndex >= CYBLE_HTS_CHAR_COUNT) || (descrIndex >= CYBLE_HTS_DESCR_COUNT))
 387              		.loc 1 253 0
 388 0028 FB1D     		adds	r3, r7, #7
 389 002a 1B78     		ldrb	r3, [r3]
 390 002c 032B     		cmp	r3, #3
 391 002e 03D8     		bhi	.L21
 392              		.loc 1 253 0 is_stmt 0 discriminator 1
 393 0030 BB1D     		adds	r3, r7, #6
 394 0032 1B78     		ldrb	r3, [r3]
 395 0034 012B     		cmp	r3, #1
 396 0036 04D9     		bls	.L22
 397              	.L21:
 254:Generated_Source\PSoC4/BLE_hts.c ****     {
 255:Generated_Source\PSoC4/BLE_hts.c ****         apiResult = CYBLE_ERROR_INVALID_PARAMETER;
 398              		.loc 1 255 0 is_stmt 1
 399 0038 1623     		movs	r3, #22
 400 003a FB18     		adds	r3, r7, r3
 401 003c 0122     		movs	r2, #1
 402 003e 1A80     		strh	r2, [r3]
 403 0040 30E0     		b	.L23
 404              	.L22:
 256:Generated_Source\PSoC4/BLE_hts.c ****     }
 257:Generated_Source\PSoC4/BLE_hts.c ****     else
 258:Generated_Source\PSoC4/BLE_hts.c ****     {
 259:Generated_Source\PSoC4/BLE_hts.c ****         locHandleValuePair.attrHandle = cyBle_htss.charInfo[charIndex].descrHandle[descrIndex];
 405              		.loc 1 259 0
 406 0042 FB1D     		adds	r3, r7, #7
 407 0044 1A78     		ldrb	r2, [r3]
 408 0046 BB1D     		adds	r3, r7, #6
 409 0048 1878     		ldrb	r0, [r3]
 410 004a 1A49     		ldr	r1, .L27
 411 004c 1300     		movs	r3, r2
 412 004e 5B00     		lsls	r3, r3, #1
 413 0050 9B18     		adds	r3, r3, r2
 414 0052 1B18     		adds	r3, r3, r0
 415 0054 5B00     		lsls	r3, r3, #1
 416 0056 CB18     		adds	r3, r1, r3
 417 0058 0433     		adds	r3, r3, #4
 418 005a 1A88     		ldrh	r2, [r3]
 419 005c 0823     		movs	r3, #8
 420 005e FB18     		adds	r3, r7, r3
 421 0060 1A81     		strh	r2, [r3, #8]
 260:Generated_Source\PSoC4/BLE_hts.c ****         if(locHandleValuePair.attrHandle != CYBLE_GATT_INVALID_ATTR_HANDLE_VALUE)
 422              		.loc 1 260 0
ARM GAS  C:\Users\User\AppData\Local\Temp\ccmH1EJa.s 			page 13


 423 0062 0823     		movs	r3, #8
 424 0064 FB18     		adds	r3, r7, r3
 425 0066 1B89     		ldrh	r3, [r3, #8]
 426 0068 002B     		cmp	r3, #0
 427 006a 17D0     		beq	.L24
 261:Generated_Source\PSoC4/BLE_hts.c ****         {
 262:Generated_Source\PSoC4/BLE_hts.c ****             locHandleValuePair.value.len = attrSize;
 428              		.loc 1 262 0
 429 006c 7B1D     		adds	r3, r7, #5
 430 006e 1B78     		ldrb	r3, [r3]
 431 0070 9AB2     		uxth	r2, r3
 432 0072 0823     		movs	r3, #8
 433 0074 FB18     		adds	r3, r7, r3
 434 0076 9A80     		strh	r2, [r3, #4]
 263:Generated_Source\PSoC4/BLE_hts.c ****             locHandleValuePair.value.val = attrValue;
 435              		.loc 1 263 0
 436 0078 0823     		movs	r3, #8
 437 007a FB18     		adds	r3, r7, r3
 438 007c 3A68     		ldr	r2, [r7]
 439 007e 1A60     		str	r2, [r3]
 264:Generated_Source\PSoC4/BLE_hts.c ****             if(CYBLE_GATT_ERR_NONE !=
 265:Generated_Source\PSoC4/BLE_hts.c ****                 CyBle_GattsWriteAttributeValue(&locHandleValuePair, 0u, NULL, CYBLE_GATT_DB_LOCALLY
 440              		.loc 1 265 0
 441 0080 0823     		movs	r3, #8
 442 0082 F818     		adds	r0, r7, r3
 443 0084 0023     		movs	r3, #0
 444 0086 0022     		movs	r2, #0
 445 0088 0021     		movs	r1, #0
 446 008a FFF7FEFF 		bl	CyBle_GattsWriteAttributeValue
 447 008e 031E     		subs	r3, r0, #0
 264:Generated_Source\PSoC4/BLE_hts.c ****             if(CYBLE_GATT_ERR_NONE !=
 448              		.loc 1 264 0
 449 0090 08D0     		beq	.L23
 266:Generated_Source\PSoC4/BLE_hts.c ****             {
 267:Generated_Source\PSoC4/BLE_hts.c ****                 apiResult = CYBLE_ERROR_INVALID_PARAMETER;
 450              		.loc 1 267 0
 451 0092 1623     		movs	r3, #22
 452 0094 FB18     		adds	r3, r7, r3
 453 0096 0122     		movs	r2, #1
 454 0098 1A80     		strh	r2, [r3]
 455 009a 03E0     		b	.L23
 456              	.L24:
 268:Generated_Source\PSoC4/BLE_hts.c ****             }
 269:Generated_Source\PSoC4/BLE_hts.c ****         }
 270:Generated_Source\PSoC4/BLE_hts.c ****         else
 271:Generated_Source\PSoC4/BLE_hts.c ****         {
 272:Generated_Source\PSoC4/BLE_hts.c ****             apiResult = CYBLE_ERROR_INVALID_PARAMETER;
 457              		.loc 1 272 0
 458 009c 1623     		movs	r3, #22
 459 009e FB18     		adds	r3, r7, r3
 460 00a0 0122     		movs	r2, #1
 461 00a2 1A80     		strh	r2, [r3]
 462              	.L23:
 273:Generated_Source\PSoC4/BLE_hts.c ****         }
 274:Generated_Source\PSoC4/BLE_hts.c ****     }
 275:Generated_Source\PSoC4/BLE_hts.c ****     return (apiResult);
 463              		.loc 1 275 0
ARM GAS  C:\Users\User\AppData\Local\Temp\ccmH1EJa.s 			page 14


 464 00a4 1623     		movs	r3, #22
 465 00a6 FB18     		adds	r3, r7, r3
 466 00a8 1B88     		ldrh	r3, [r3]
 276:Generated_Source\PSoC4/BLE_hts.c **** }
 467              		.loc 1 276 0
 468 00aa 1800     		movs	r0, r3
 469 00ac BD46     		mov	sp, r7
 470 00ae 07B0     		add	sp, sp, #28
 471              		@ sp needed
 472 00b0 90BD     		pop	{r4, r7, pc}
 473              	.L28:
 474 00b2 C046     		.align	2
 475              	.L27:
 476 00b4 00000000 		.word	cyBle_htss
 477              		.cfi_endproc
 478              	.LFE6:
 479              		.size	CyBle_HtssSetCharacteristicDescriptor, .-CyBle_HtssSetCharacteristicDescriptor
 480              		.section	.text.CyBle_HtssGetCharacteristicDescriptor,"ax",%progbits
 481              		.align	2
 482              		.global	CyBle_HtssGetCharacteristicDescriptor
 483              		.code	16
 484              		.thumb_func
 485              		.type	CyBle_HtssGetCharacteristicDescriptor, %function
 486              	CyBle_HtssGetCharacteristicDescriptor:
 487              	.LFB7:
 277:Generated_Source\PSoC4/BLE_hts.c **** 
 278:Generated_Source\PSoC4/BLE_hts.c **** 
 279:Generated_Source\PSoC4/BLE_hts.c **** /******************************************************************************
 280:Generated_Source\PSoC4/BLE_hts.c **** * Function Name: CyBle_HtssGetCharacteristicDescriptor
 281:Generated_Source\PSoC4/BLE_hts.c **** ***************************************************************************//**
 282:Generated_Source\PSoC4/BLE_hts.c **** * 
 283:Generated_Source\PSoC4/BLE_hts.c **** *  Gets the characteristic descriptor of the specified characteristic.
 284:Generated_Source\PSoC4/BLE_hts.c **** * 
 285:Generated_Source\PSoC4/BLE_hts.c **** *  \param charIndex:  The index of the service characteristic.
 286:Generated_Source\PSoC4/BLE_hts.c **** *  \param descrIndex: The index of the service characteristic descriptor.
 287:Generated_Source\PSoC4/BLE_hts.c **** *  \param attrSize:   The size of the characteristic descriptor attribute.
 288:Generated_Source\PSoC4/BLE_hts.c **** *  \param attrValue:  The pointer to the location where characteristic descriptor
 289:Generated_Source\PSoC4/BLE_hts.c **** *                     value data should be stored.
 290:Generated_Source\PSoC4/BLE_hts.c **** * 
 291:Generated_Source\PSoC4/BLE_hts.c **** * \return
 292:Generated_Source\PSoC4/BLE_hts.c **** *  Return value is of type CYBLE_API_RESULT_T.
 293:Generated_Source\PSoC4/BLE_hts.c **** *  * CYBLE_ERROR_OK - The request handled successfully.
 294:Generated_Source\PSoC4/BLE_hts.c **** *  * CYBLE_ERROR_INVALID_PARAMETER - Validation of the input parameter failed.
 295:Generated_Source\PSoC4/BLE_hts.c **** *
 296:Generated_Source\PSoC4/BLE_hts.c **** ******************************************************************************/
 297:Generated_Source\PSoC4/BLE_hts.c **** CYBLE_API_RESULT_T CyBle_HtssGetCharacteristicDescriptor(CYBLE_HTS_CHAR_INDEX_T charIndex,
 298:Generated_Source\PSoC4/BLE_hts.c ****     CYBLE_HTS_DESCR_INDEX_T descrIndex, uint8 attrSize, uint8 *attrValue)
 299:Generated_Source\PSoC4/BLE_hts.c **** {
 488              		.loc 1 299 0
 489              		.cfi_startproc
 490              		@ args = 0, pretend = 0, frame = 24
 491              		@ frame_needed = 1, uses_anonymous_args = 0
 492 0000 90B5     		push	{r4, r7, lr}
 493              		.cfi_def_cfa_offset 12
 494              		.cfi_offset 4, -12
 495              		.cfi_offset 7, -8
 496              		.cfi_offset 14, -4
ARM GAS  C:\Users\User\AppData\Local\Temp\ccmH1EJa.s 			page 15


 497 0002 87B0     		sub	sp, sp, #28
 498              		.cfi_def_cfa_offset 40
 499 0004 00AF     		add	r7, sp, #0
 500              		.cfi_def_cfa_register 7
 501 0006 0400     		movs	r4, r0
 502 0008 0800     		movs	r0, r1
 503 000a 1100     		movs	r1, r2
 504 000c 3B60     		str	r3, [r7]
 505 000e FB1D     		adds	r3, r7, #7
 506 0010 221C     		adds	r2, r4, #0
 507 0012 1A70     		strb	r2, [r3]
 508 0014 BB1D     		adds	r3, r7, #6
 509 0016 021C     		adds	r2, r0, #0
 510 0018 1A70     		strb	r2, [r3]
 511 001a 7B1D     		adds	r3, r7, #5
 512 001c 0A1C     		adds	r2, r1, #0
 513 001e 1A70     		strb	r2, [r3]
 300:Generated_Source\PSoC4/BLE_hts.c ****     CYBLE_API_RESULT_T apiResult = CYBLE_ERROR_OK;
 514              		.loc 1 300 0
 515 0020 1623     		movs	r3, #22
 516 0022 FB18     		adds	r3, r7, r3
 517 0024 0022     		movs	r2, #0
 518 0026 1A80     		strh	r2, [r3]
 301:Generated_Source\PSoC4/BLE_hts.c ****     CYBLE_GATT_HANDLE_VALUE_PAIR_T locHandleValuePair;
 302:Generated_Source\PSoC4/BLE_hts.c **** 
 303:Generated_Source\PSoC4/BLE_hts.c ****     if((charIndex >= CYBLE_HTS_CHAR_COUNT) || (descrIndex >= CYBLE_HTS_DESCR_COUNT))
 519              		.loc 1 303 0
 520 0028 FB1D     		adds	r3, r7, #7
 521 002a 1B78     		ldrb	r3, [r3]
 522 002c 032B     		cmp	r3, #3
 523 002e 03D8     		bhi	.L30
 524              		.loc 1 303 0 is_stmt 0 discriminator 1
 525 0030 BB1D     		adds	r3, r7, #6
 526 0032 1B78     		ldrb	r3, [r3]
 527 0034 012B     		cmp	r3, #1
 528 0036 04D9     		bls	.L31
 529              	.L30:
 304:Generated_Source\PSoC4/BLE_hts.c ****     {
 305:Generated_Source\PSoC4/BLE_hts.c ****         apiResult = CYBLE_ERROR_INVALID_PARAMETER;
 530              		.loc 1 305 0 is_stmt 1
 531 0038 1623     		movs	r3, #22
 532 003a FB18     		adds	r3, r7, r3
 533 003c 0122     		movs	r2, #1
 534 003e 1A80     		strh	r2, [r3]
 535 0040 30E0     		b	.L32
 536              	.L31:
 306:Generated_Source\PSoC4/BLE_hts.c ****     }
 307:Generated_Source\PSoC4/BLE_hts.c ****     else
 308:Generated_Source\PSoC4/BLE_hts.c ****     {
 309:Generated_Source\PSoC4/BLE_hts.c ****         locHandleValuePair.attrHandle = cyBle_htss.charInfo[charIndex].descrHandle[descrIndex];
 537              		.loc 1 309 0
 538 0042 FB1D     		adds	r3, r7, #7
 539 0044 1A78     		ldrb	r2, [r3]
 540 0046 BB1D     		adds	r3, r7, #6
 541 0048 1878     		ldrb	r0, [r3]
 542 004a 1A49     		ldr	r1, .L36
 543 004c 1300     		movs	r3, r2
ARM GAS  C:\Users\User\AppData\Local\Temp\ccmH1EJa.s 			page 16


 544 004e 5B00     		lsls	r3, r3, #1
 545 0050 9B18     		adds	r3, r3, r2
 546 0052 1B18     		adds	r3, r3, r0
 547 0054 5B00     		lsls	r3, r3, #1
 548 0056 CB18     		adds	r3, r1, r3
 549 0058 0433     		adds	r3, r3, #4
 550 005a 1A88     		ldrh	r2, [r3]
 551 005c 0823     		movs	r3, #8
 552 005e FB18     		adds	r3, r7, r3
 553 0060 1A81     		strh	r2, [r3, #8]
 310:Generated_Source\PSoC4/BLE_hts.c ****         if(locHandleValuePair.attrHandle != CYBLE_GATT_INVALID_ATTR_HANDLE_VALUE)
 554              		.loc 1 310 0
 555 0062 0823     		movs	r3, #8
 556 0064 FB18     		adds	r3, r7, r3
 557 0066 1B89     		ldrh	r3, [r3, #8]
 558 0068 002B     		cmp	r3, #0
 559 006a 17D0     		beq	.L33
 311:Generated_Source\PSoC4/BLE_hts.c ****         {
 312:Generated_Source\PSoC4/BLE_hts.c ****             locHandleValuePair.value.len = attrSize;
 560              		.loc 1 312 0
 561 006c 7B1D     		adds	r3, r7, #5
 562 006e 1B78     		ldrb	r3, [r3]
 563 0070 9AB2     		uxth	r2, r3
 564 0072 0823     		movs	r3, #8
 565 0074 FB18     		adds	r3, r7, r3
 566 0076 9A80     		strh	r2, [r3, #4]
 313:Generated_Source\PSoC4/BLE_hts.c ****             locHandleValuePair.value.val = attrValue;
 567              		.loc 1 313 0
 568 0078 0823     		movs	r3, #8
 569 007a FB18     		adds	r3, r7, r3
 570 007c 3A68     		ldr	r2, [r7]
 571 007e 1A60     		str	r2, [r3]
 314:Generated_Source\PSoC4/BLE_hts.c ****             if(CYBLE_GATT_ERR_NONE !=
 315:Generated_Source\PSoC4/BLE_hts.c ****                 CyBle_GattsReadAttributeValue(&locHandleValuePair, NULL, CYBLE_GATT_DB_LOCALLY_INIT
 572              		.loc 1 315 0
 573 0080 0823     		movs	r3, #8
 574 0082 FB18     		adds	r3, r7, r3
 575 0084 0022     		movs	r2, #0
 576 0086 0021     		movs	r1, #0
 577 0088 1800     		movs	r0, r3
 578 008a FFF7FEFF 		bl	CyBle_GattsReadAttributeValue
 579 008e 031E     		subs	r3, r0, #0
 314:Generated_Source\PSoC4/BLE_hts.c ****             if(CYBLE_GATT_ERR_NONE !=
 580              		.loc 1 314 0
 581 0090 08D0     		beq	.L32
 316:Generated_Source\PSoC4/BLE_hts.c ****             {
 317:Generated_Source\PSoC4/BLE_hts.c ****                 apiResult = CYBLE_ERROR_INVALID_PARAMETER;
 582              		.loc 1 317 0
 583 0092 1623     		movs	r3, #22
 584 0094 FB18     		adds	r3, r7, r3
 585 0096 0122     		movs	r2, #1
 586 0098 1A80     		strh	r2, [r3]
 587 009a 03E0     		b	.L32
 588              	.L33:
 318:Generated_Source\PSoC4/BLE_hts.c ****             }
 319:Generated_Source\PSoC4/BLE_hts.c ****         }
 320:Generated_Source\PSoC4/BLE_hts.c ****         else
ARM GAS  C:\Users\User\AppData\Local\Temp\ccmH1EJa.s 			page 17


 321:Generated_Source\PSoC4/BLE_hts.c ****         {
 322:Generated_Source\PSoC4/BLE_hts.c ****             apiResult = CYBLE_ERROR_INVALID_PARAMETER;
 589              		.loc 1 322 0
 590 009c 1623     		movs	r3, #22
 591 009e FB18     		adds	r3, r7, r3
 592 00a0 0122     		movs	r2, #1
 593 00a2 1A80     		strh	r2, [r3]
 594              	.L32:
 323:Generated_Source\PSoC4/BLE_hts.c ****         }
 324:Generated_Source\PSoC4/BLE_hts.c ****     }
 325:Generated_Source\PSoC4/BLE_hts.c ****     return (apiResult);
 595              		.loc 1 325 0
 596 00a4 1623     		movs	r3, #22
 597 00a6 FB18     		adds	r3, r7, r3
 598 00a8 1B88     		ldrh	r3, [r3]
 326:Generated_Source\PSoC4/BLE_hts.c **** }
 599              		.loc 1 326 0
 600 00aa 1800     		movs	r0, r3
 601 00ac BD46     		mov	sp, r7
 602 00ae 07B0     		add	sp, sp, #28
 603              		@ sp needed
 604 00b0 90BD     		pop	{r4, r7, pc}
 605              	.L37:
 606 00b2 C046     		.align	2
 607              	.L36:
 608 00b4 00000000 		.word	cyBle_htss
 609              		.cfi_endproc
 610              	.LFE7:
 611              		.size	CyBle_HtssGetCharacteristicDescriptor, .-CyBle_HtssGetCharacteristicDescriptor
 612              		.section	.text.CyBle_HtssWriteEventHandler,"ax",%progbits
 613              		.align	2
 614              		.global	CyBle_HtssWriteEventHandler
 615              		.code	16
 616              		.thumb_func
 617              		.type	CyBle_HtssWriteEventHandler, %function
 618              	CyBle_HtssWriteEventHandler:
 619              	.LFB8:
 327:Generated_Source\PSoC4/BLE_hts.c **** 
 328:Generated_Source\PSoC4/BLE_hts.c **** 
 329:Generated_Source\PSoC4/BLE_hts.c **** /******************************************************************************
 330:Generated_Source\PSoC4/BLE_hts.c **** * Function Name: CyBle_HtssWriteEventHandler
 331:Generated_Source\PSoC4/BLE_hts.c **** ***************************************************************************//**
 332:Generated_Source\PSoC4/BLE_hts.c **** * 
 333:Generated_Source\PSoC4/BLE_hts.c **** *  Handles Write Request Event for HTS service.
 334:Generated_Source\PSoC4/BLE_hts.c **** * 
 335:Generated_Source\PSoC4/BLE_hts.c **** *  \param void *eventParam: The pointer to the data structure specified by the
 336:Generated_Source\PSoC4/BLE_hts.c **** *                           event.
 337:Generated_Source\PSoC4/BLE_hts.c **** * 
 338:Generated_Source\PSoC4/BLE_hts.c **** ******************************************************************************/
 339:Generated_Source\PSoC4/BLE_hts.c **** CYBLE_GATT_ERR_CODE_T CyBle_HtssWriteEventHandler(CYBLE_GATTS_WRITE_REQ_PARAM_T *eventParam)
 340:Generated_Source\PSoC4/BLE_hts.c **** {
 620              		.loc 1 340 0
 621              		.cfi_startproc
 622              		@ args = 0, pretend = 0, frame = 32
 623              		@ frame_needed = 1, uses_anonymous_args = 0
 624 0000 90B5     		push	{r4, r7, lr}
 625              		.cfi_def_cfa_offset 12
ARM GAS  C:\Users\User\AppData\Local\Temp\ccmH1EJa.s 			page 18


 626              		.cfi_offset 4, -12
 627              		.cfi_offset 7, -8
 628              		.cfi_offset 14, -4
 629 0002 89B0     		sub	sp, sp, #36
 630              		.cfi_def_cfa_offset 48
 631 0004 00AF     		add	r7, sp, #0
 632              		.cfi_def_cfa_register 7
 633 0006 7860     		str	r0, [r7, #4]
 341:Generated_Source\PSoC4/BLE_hts.c ****     CYBLE_HTS_CHAR_INDEX_T locCharIndex;
 342:Generated_Source\PSoC4/BLE_hts.c ****     CYBLE_HTS_CHAR_VALUE_T locCharValue;
 343:Generated_Source\PSoC4/BLE_hts.c ****     CYBLE_GATT_ERR_CODE_T gattErr = CYBLE_GATT_ERR_NONE;
 634              		.loc 1 343 0
 635 0008 1E23     		movs	r3, #30
 636 000a FB18     		adds	r3, r7, r3
 637 000c 0022     		movs	r2, #0
 638 000e 1A70     		strb	r2, [r3]
 344:Generated_Source\PSoC4/BLE_hts.c ****     uint8 locReqHandle = 0u;
 639              		.loc 1 344 0
 640 0010 1D23     		movs	r3, #29
 641 0012 FB18     		adds	r3, r7, r3
 642 0014 0022     		movs	r2, #0
 643 0016 1A70     		strb	r2, [r3]
 345:Generated_Source\PSoC4/BLE_hts.c **** 
 346:Generated_Source\PSoC4/BLE_hts.c ****     if(NULL != CyBle_HtsApplCallback)
 644              		.loc 1 346 0
 645 0018 B34B     		ldr	r3, .L55
 646 001a 1B68     		ldr	r3, [r3]
 647 001c 002B     		cmp	r3, #0
 648 001e 00D1     		bne	.LCB532
 649 0020 5BE1     		b	.L39	@long jump
 650              	.LCB532:
 347:Generated_Source\PSoC4/BLE_hts.c ****     {
 348:Generated_Source\PSoC4/BLE_hts.c ****         for(locCharIndex = CYBLE_HTS_TEMP_MEASURE; (locCharIndex < CYBLE_HTS_CHAR_COUNT) && (locReq
 651              		.loc 1 348 0
 652 0022 1F23     		movs	r3, #31
 653 0024 FB18     		adds	r3, r7, r3
 654 0026 0022     		movs	r2, #0
 655 0028 1A70     		strb	r2, [r3]
 656 002a 4BE1     		b	.L40
 657              	.L53:
 349:Generated_Source\PSoC4/BLE_hts.c ****             locCharIndex++)
 350:Generated_Source\PSoC4/BLE_hts.c ****         {
 351:Generated_Source\PSoC4/BLE_hts.c ****             
 352:Generated_Source\PSoC4/BLE_hts.c ****             if((eventParam->handleValPair.attrHandle == cyBle_htss.charInfo[locCharIndex].descrHand
 658              		.loc 1 352 0
 659 002c 7B68     		ldr	r3, [r7, #4]
 660 002e 9989     		ldrh	r1, [r3, #12]
 661 0030 1F23     		movs	r3, #31
 662 0032 FB18     		adds	r3, r7, r3
 663 0034 1A78     		ldrb	r2, [r3]
 664 0036 AD48     		ldr	r0, .L55+4
 665 0038 1300     		movs	r3, r2
 666 003a 5B00     		lsls	r3, r3, #1
 667 003c 9B18     		adds	r3, r3, r2
 668 003e 5B00     		lsls	r3, r3, #1
 669 0040 C318     		adds	r3, r0, r3
 670 0042 0433     		adds	r3, r3, #4
ARM GAS  C:\Users\User\AppData\Local\Temp\ccmH1EJa.s 			page 19


 671 0044 1B88     		ldrh	r3, [r3]
 672 0046 9942     		cmp	r1, r3
 673 0048 0FD0     		beq	.L41
 353:Generated_Source\PSoC4/BLE_hts.c ****                (eventParam->handleValPair.attrHandle == cyBle_htss.charInfo[locCharIndex].charHandl
 674              		.loc 1 353 0 discriminator 1
 675 004a 7B68     		ldr	r3, [r7, #4]
 676 004c 9989     		ldrh	r1, [r3, #12]
 677 004e 1F23     		movs	r3, #31
 678 0050 FB18     		adds	r3, r7, r3
 679 0052 1A78     		ldrb	r2, [r3]
 680 0054 A548     		ldr	r0, .L55+4
 681 0056 1300     		movs	r3, r2
 682 0058 5B00     		lsls	r3, r3, #1
 683 005a 9B18     		adds	r3, r3, r2
 684 005c 5B00     		lsls	r3, r3, #1
 685 005e C318     		adds	r3, r0, r3
 686 0060 0233     		adds	r3, r3, #2
 687 0062 1B88     		ldrh	r3, [r3]
 352:Generated_Source\PSoC4/BLE_hts.c ****                (eventParam->handleValPair.attrHandle == cyBle_htss.charInfo[locCharIndex].charHandl
 688              		.loc 1 352 0 discriminator 1
 689 0064 9942     		cmp	r1, r3
 690 0066 00D0     		beq	.LCB570
 691 0068 25E1     		b	.L42	@long jump
 692              	.LCB570:
 693              	.L41:
 354:Generated_Source\PSoC4/BLE_hts.c ****             {
 355:Generated_Source\PSoC4/BLE_hts.c ****                 locCharValue.connHandle = eventParam->connHandle;
 694              		.loc 1 355 0
 695 006a 0C23     		movs	r3, #12
 696 006c FB18     		adds	r3, r7, r3
 697 006e 7A68     		ldr	r2, [r7, #4]
 698 0070 1288     		ldrh	r2, [r2]
 699 0072 1A80     		strh	r2, [r3]
 356:Generated_Source\PSoC4/BLE_hts.c ****                 locCharValue.charIndex = locCharIndex;
 700              		.loc 1 356 0
 701 0074 0C23     		movs	r3, #12
 702 0076 FB18     		adds	r3, r7, r3
 703 0078 1F22     		movs	r2, #31
 704 007a BA18     		adds	r2, r7, r2
 705 007c 1278     		ldrb	r2, [r2]
 706 007e 9A70     		strb	r2, [r3, #2]
 357:Generated_Source\PSoC4/BLE_hts.c ****                 locCharValue.value = &eventParam->handleValPair.value;
 707              		.loc 1 357 0
 708 0080 7B68     		ldr	r3, [r7, #4]
 709 0082 1A1D     		adds	r2, r3, #4
 710 0084 0C23     		movs	r3, #12
 711 0086 FB18     		adds	r3, r7, r3
 712 0088 5A60     		str	r2, [r3, #4]
 358:Generated_Source\PSoC4/BLE_hts.c ****                 /* Characteristic value write request */
 359:Generated_Source\PSoC4/BLE_hts.c ****                 if(eventParam->handleValPair.attrHandle == cyBle_htss.charInfo[locCharIndex].charHa
 713              		.loc 1 359 0
 714 008a 7B68     		ldr	r3, [r7, #4]
 715 008c 9989     		ldrh	r1, [r3, #12]
 716 008e 1F23     		movs	r3, #31
 717 0090 FB18     		adds	r3, r7, r3
 718 0092 1A78     		ldrb	r2, [r3]
 719 0094 9548     		ldr	r0, .L55+4
ARM GAS  C:\Users\User\AppData\Local\Temp\ccmH1EJa.s 			page 20


 720 0096 1300     		movs	r3, r2
 721 0098 5B00     		lsls	r3, r3, #1
 722 009a 9B18     		adds	r3, r3, r2
 723 009c 5B00     		lsls	r3, r3, #1
 724 009e C318     		adds	r3, r0, r3
 725 00a0 0233     		adds	r3, r3, #2
 726 00a2 1B88     		ldrh	r3, [r3]
 727 00a4 9942     		cmp	r1, r3
 728 00a6 00D0     		beq	.LCB602
 729 00a8 73E0     		b	.L43	@long jump
 730              	.LCB602:
 360:Generated_Source\PSoC4/BLE_hts.c ****                 {
 361:Generated_Source\PSoC4/BLE_hts.c ****                     /* Validate Measure Interval value */
 362:Generated_Source\PSoC4/BLE_hts.c ****                     if(locCharIndex == CYBLE_HTS_MEASURE_INTERVAL)
 731              		.loc 1 362 0
 732 00aa 1F23     		movs	r3, #31
 733 00ac FB18     		adds	r3, r7, r3
 734 00ae 1B78     		ldrb	r3, [r3]
 735 00b0 032B     		cmp	r3, #3
 736 00b2 4ED1     		bne	.L44
 737              	.LBB2:
 363:Generated_Source\PSoC4/BLE_hts.c ****                     {
 364:Generated_Source\PSoC4/BLE_hts.c ****                         uint8 locAttrValue[CYBLE_HTS_VRD_LEN];
 365:Generated_Source\PSoC4/BLE_hts.c ****                         uint16 requestValue;
 366:Generated_Source\PSoC4/BLE_hts.c ****                         
 367:Generated_Source\PSoC4/BLE_hts.c ****                         requestValue = CyBle_Get16ByPtr(eventParam->handleValPair.value.val);
 738              		.loc 1 367 0
 739 00b4 7B68     		ldr	r3, [r7, #4]
 740 00b6 5B68     		ldr	r3, [r3, #4]
 741 00b8 1A22     		movs	r2, #26
 742 00ba BC18     		adds	r4, r7, r2
 743 00bc 1800     		movs	r0, r3
 744 00be FFF7FEFF 		bl	CyBle_Get16ByPtr
 745 00c2 0300     		movs	r3, r0
 746 00c4 2380     		strh	r3, [r4]
 368:Generated_Source\PSoC4/BLE_hts.c ****                         
 369:Generated_Source\PSoC4/BLE_hts.c ****                         if(requestValue != 0u) /* 0 is valid interval value for no periodic measure
 747              		.loc 1 369 0
 748 00c6 1A23     		movs	r3, #26
 749 00c8 FB18     		adds	r3, r7, r3
 750 00ca 1B88     		ldrh	r3, [r3]
 751 00cc 002B     		cmp	r3, #0
 752 00ce 40D0     		beq	.L44
 370:Generated_Source\PSoC4/BLE_hts.c ****                         {
 371:Generated_Source\PSoC4/BLE_hts.c ****                             /* Check Valid range for Measure Interval characteristic value */
 372:Generated_Source\PSoC4/BLE_hts.c ****                             if(CyBle_HtssGetCharacteristicDescriptor(locCharIndex, CYBLE_HTS_VRD, 
 753              		.loc 1 372 0
 754 00d0 0823     		movs	r3, #8
 755 00d2 FA18     		adds	r2, r7, r3
 756 00d4 1F23     		movs	r3, #31
 757 00d6 FB18     		adds	r3, r7, r3
 758 00d8 1878     		ldrb	r0, [r3]
 759 00da 1300     		movs	r3, r2
 760 00dc 0422     		movs	r2, #4
 761 00de 0121     		movs	r1, #1
 762 00e0 FFF7FEFF 		bl	CyBle_HtssGetCharacteristicDescriptor
 763 00e4 031E     		subs	r3, r0, #0
ARM GAS  C:\Users\User\AppData\Local\Temp\ccmH1EJa.s 			page 21


 764 00e6 34D1     		bne	.L44
 765              	.LBB3:
 373:Generated_Source\PSoC4/BLE_hts.c ****                                                     CYBLE_HTS_VRD_LEN, locAttrValue) == CYBLE_ERROR
 374:Generated_Source\PSoC4/BLE_hts.c ****                             {
 375:Generated_Source\PSoC4/BLE_hts.c ****                                 uint16 lowerValue;
 376:Generated_Source\PSoC4/BLE_hts.c ****                                 uint16 upperValue;
 377:Generated_Source\PSoC4/BLE_hts.c ****                                 
 378:Generated_Source\PSoC4/BLE_hts.c ****                                 lowerValue = CyBle_Get16ByPtr(locAttrValue);
 766              		.loc 1 378 0
 767 00e8 1823     		movs	r3, #24
 768 00ea FC18     		adds	r4, r7, r3
 769 00ec 0823     		movs	r3, #8
 770 00ee FB18     		adds	r3, r7, r3
 771 00f0 1800     		movs	r0, r3
 772 00f2 FFF7FEFF 		bl	CyBle_Get16ByPtr
 773 00f6 0300     		movs	r3, r0
 774 00f8 2380     		strh	r3, [r4]
 379:Generated_Source\PSoC4/BLE_hts.c ****                                 upperValue = CyBle_Get16ByPtr(locAttrValue + sizeof(lowerValue));
 775              		.loc 1 379 0
 776 00fa 0823     		movs	r3, #8
 777 00fc FB18     		adds	r3, r7, r3
 778 00fe 0233     		adds	r3, r3, #2
 779 0100 1622     		movs	r2, #22
 780 0102 BC18     		adds	r4, r7, r2
 781 0104 1800     		movs	r0, r3
 782 0106 FFF7FEFF 		bl	CyBle_Get16ByPtr
 783 010a 0300     		movs	r3, r0
 784 010c 2380     		strh	r3, [r4]
 380:Generated_Source\PSoC4/BLE_hts.c ****                                 requestValue = CyBle_Get16ByPtr(eventParam->handleValPair.value.val
 785              		.loc 1 380 0
 786 010e 7B68     		ldr	r3, [r7, #4]
 787 0110 5B68     		ldr	r3, [r3, #4]
 788 0112 1A22     		movs	r2, #26
 789 0114 BC18     		adds	r4, r7, r2
 790 0116 1800     		movs	r0, r3
 791 0118 FFF7FEFF 		bl	CyBle_Get16ByPtr
 792 011c 0300     		movs	r3, r0
 793 011e 2380     		strh	r3, [r4]
 381:Generated_Source\PSoC4/BLE_hts.c ****                                 if((requestValue != 0u) && ((requestValue < lowerValue) || (request
 794              		.loc 1 381 0
 795 0120 1A23     		movs	r3, #26
 796 0122 FB18     		adds	r3, r7, r3
 797 0124 1B88     		ldrh	r3, [r3]
 798 0126 002B     		cmp	r3, #0
 799 0128 13D0     		beq	.L44
 800              		.loc 1 381 0 is_stmt 0 discriminator 1
 801 012a 1A23     		movs	r3, #26
 802 012c FA18     		adds	r2, r7, r3
 803 012e 1823     		movs	r3, #24
 804 0130 FB18     		adds	r3, r7, r3
 805 0132 1288     		ldrh	r2, [r2]
 806 0134 1B88     		ldrh	r3, [r3]
 807 0136 9A42     		cmp	r2, r3
 808 0138 07D3     		bcc	.L46
 809              		.loc 1 381 0 discriminator 2
 810 013a 1A23     		movs	r3, #26
 811 013c FA18     		adds	r2, r7, r3
ARM GAS  C:\Users\User\AppData\Local\Temp\ccmH1EJa.s 			page 22


 812 013e 1623     		movs	r3, #22
 813 0140 FB18     		adds	r3, r7, r3
 814 0142 1288     		ldrh	r2, [r2]
 815 0144 1B88     		ldrh	r3, [r3]
 816 0146 9A42     		cmp	r2, r3
 817 0148 03D9     		bls	.L44
 818              	.L46:
 382:Generated_Source\PSoC4/BLE_hts.c ****                                 {
 383:Generated_Source\PSoC4/BLE_hts.c ****                                     gattErr = CYBLE_GATT_ERR_HTS_OUT_OF_RANGE;
 819              		.loc 1 383 0 is_stmt 1
 820 014a 1E23     		movs	r3, #30
 821 014c FB18     		adds	r3, r7, r3
 822 014e 8022     		movs	r2, #128
 823 0150 1A70     		strb	r2, [r3]
 824              	.L44:
 825              	.LBE3:
 826              	.LBE2:
 384:Generated_Source\PSoC4/BLE_hts.c ****                                 }
 385:Generated_Source\PSoC4/BLE_hts.c ****                             }
 386:Generated_Source\PSoC4/BLE_hts.c ****                         }
 387:Generated_Source\PSoC4/BLE_hts.c ****                     }
 388:Generated_Source\PSoC4/BLE_hts.c ****                     if(gattErr == CYBLE_GATT_ERR_NONE)
 827              		.loc 1 388 0
 828 0152 1E23     		movs	r3, #30
 829 0154 FB18     		adds	r3, r7, r3
 830 0156 1B78     		ldrb	r3, [r3]
 831 0158 002B     		cmp	r3, #0
 832 015a 00D0     		beq	.LCB694
 833 015c 9FE0     		b	.L48	@long jump
 834              	.LCB694:
 389:Generated_Source\PSoC4/BLE_hts.c ****                     {   /* Store value to database */
 390:Generated_Source\PSoC4/BLE_hts.c ****                         gattErr = CyBle_GattsWriteAttributeValue(&eventParam->handleValPair, 0u, 
 835              		.loc 1 390 0
 836 015e 7B68     		ldr	r3, [r7, #4]
 837 0160 181D     		adds	r0, r3, #4
 838 0162 7A68     		ldr	r2, [r7, #4]
 839 0164 1E23     		movs	r3, #30
 840 0166 FC18     		adds	r4, r7, r3
 841 0168 4023     		movs	r3, #64
 842 016a 0021     		movs	r1, #0
 843 016c FFF7FEFF 		bl	CyBle_GattsWriteAttributeValue
 844 0170 0300     		movs	r3, r0
 845 0172 2370     		strb	r3, [r4]
 391:Generated_Source\PSoC4/BLE_hts.c ****                                     &eventParam->connHandle, CYBLE_GATT_DB_PEER_INITIATED);
 392:Generated_Source\PSoC4/BLE_hts.c ****                         if(gattErr == CYBLE_GATT_ERR_NONE)
 846              		.loc 1 392 0
 847 0174 1E23     		movs	r3, #30
 848 0176 FB18     		adds	r3, r7, r3
 849 0178 1B78     		ldrb	r3, [r3]
 850 017a 002B     		cmp	r3, #0
 851 017c 00D0     		beq	.LCB709
 852 017e 8EE0     		b	.L48	@long jump
 853              	.LCB709:
 393:Generated_Source\PSoC4/BLE_hts.c ****                         {
 394:Generated_Source\PSoC4/BLE_hts.c ****                             CyBle_HtsApplCallback((uint32)CYBLE_EVT_HTSS_CHAR_WRITE, &locCharValue)
 854              		.loc 1 394 0
 855 0180 594B     		ldr	r3, .L55
ARM GAS  C:\Users\User\AppData\Local\Temp\ccmH1EJa.s 			page 23


 856 0182 1B68     		ldr	r3, [r3]
 857 0184 0C22     		movs	r2, #12
 858 0186 B918     		adds	r1, r7, r2
 859 0188 DB22     		movs	r2, #219
 860 018a 5200     		lsls	r2, r2, #1
 861 018c 1000     		movs	r0, r2
 862 018e 9847     		blx	r3
 863 0190 85E0     		b	.L48
 864              	.L43:
 395:Generated_Source\PSoC4/BLE_hts.c ****                         }
 396:Generated_Source\PSoC4/BLE_hts.c ****                     }    
 397:Generated_Source\PSoC4/BLE_hts.c ****                 }
 398:Generated_Source\PSoC4/BLE_hts.c ****                 else /* Client Characteristic Configuration descriptor write request */
 399:Generated_Source\PSoC4/BLE_hts.c ****                 {
 400:Generated_Source\PSoC4/BLE_hts.c ****                     /* Store value to database */
 401:Generated_Source\PSoC4/BLE_hts.c ****                     gattErr = CyBle_GattsWriteAttributeValue(&eventParam->handleValPair, 0u, 
 865              		.loc 1 401 0
 866 0192 7B68     		ldr	r3, [r7, #4]
 867 0194 181D     		adds	r0, r3, #4
 868 0196 7A68     		ldr	r2, [r7, #4]
 869 0198 1E23     		movs	r3, #30
 870 019a FC18     		adds	r4, r7, r3
 871 019c 4023     		movs	r3, #64
 872 019e 0021     		movs	r1, #0
 873 01a0 FFF7FEFF 		bl	CyBle_GattsWriteAttributeValue
 874 01a4 0300     		movs	r3, r0
 875 01a6 2370     		strb	r3, [r4]
 402:Generated_Source\PSoC4/BLE_hts.c ****                                     &eventParam->connHandle, CYBLE_GATT_DB_PEER_INITIATED);
 403:Generated_Source\PSoC4/BLE_hts.c ****                     if(gattErr == CYBLE_GATT_ERR_NONE)
 876              		.loc 1 403 0
 877 01a8 1E23     		movs	r3, #30
 878 01aa FB18     		adds	r3, r7, r3
 879 01ac 1B78     		ldrb	r3, [r3]
 880 01ae 002B     		cmp	r3, #0
 881 01b0 00D0     		beq	.LCB736
 882 01b2 74E0     		b	.L48	@long jump
 883              	.LCB736:
 404:Generated_Source\PSoC4/BLE_hts.c ****                     {
 405:Generated_Source\PSoC4/BLE_hts.c ****                         /* Check characteristic properties for Notification */
 406:Generated_Source\PSoC4/BLE_hts.c ****                         if(CYBLE_IS_NOTIFICATION_SUPPORTED(cyBle_htss.charInfo[locCharIndex].charHa
 884              		.loc 1 406 0
 885 01b4 1F23     		movs	r3, #31
 886 01b6 FB18     		adds	r3, r7, r3
 887 01b8 1A78     		ldrb	r2, [r3]
 888 01ba 4C49     		ldr	r1, .L55+4
 889 01bc 1300     		movs	r3, r2
 890 01be 5B00     		lsls	r3, r3, #1
 891 01c0 9B18     		adds	r3, r3, r2
 892 01c2 5B00     		lsls	r3, r3, #1
 893 01c4 CB18     		adds	r3, r1, r3
 894 01c6 0233     		adds	r3, r3, #2
 895 01c8 1B88     		ldrh	r3, [r3]
 896 01ca 5A1E     		subs	r2, r3, #1
 897 01cc 4849     		ldr	r1, .L55+8
 898 01ce 1300     		movs	r3, r2
 899 01d0 9B00     		lsls	r3, r3, #2
 900 01d2 9B18     		adds	r3, r3, r2
ARM GAS  C:\Users\User\AppData\Local\Temp\ccmH1EJa.s 			page 24


 901 01d4 9B00     		lsls	r3, r3, #2
 902 01d6 CB18     		adds	r3, r1, r3
 903 01d8 0433     		adds	r3, r3, #4
 904 01da 1A68     		ldr	r2, [r3]
 905 01dc 8023     		movs	r3, #128
 906 01de 5B03     		lsls	r3, r3, #13
 907 01e0 1340     		ands	r3, r2
 908 01e2 1CD0     		beq	.L49
 407:Generated_Source\PSoC4/BLE_hts.c ****                         {
 408:Generated_Source\PSoC4/BLE_hts.c ****                             if(CYBLE_IS_NOTIFICATION_ENABLED_IN_PTR(eventParam->handleValPair.value
 909              		.loc 1 408 0
 910 01e4 7B68     		ldr	r3, [r7, #4]
 911 01e6 5B68     		ldr	r3, [r3, #4]
 912 01e8 1800     		movs	r0, r3
 913 01ea FFF7FEFF 		bl	CyBle_Get16ByPtr
 914 01ee 0300     		movs	r3, r0
 915 01f0 1A00     		movs	r2, r3
 916 01f2 0123     		movs	r3, #1
 917 01f4 1340     		ands	r3, r2
 918 01f6 9BB2     		uxth	r3, r3
 919 01f8 002B     		cmp	r3, #0
 920 01fa 08D0     		beq	.L50
 409:Generated_Source\PSoC4/BLE_hts.c ****                             {
 410:Generated_Source\PSoC4/BLE_hts.c ****                                 CyBle_HtsApplCallback((uint32)CYBLE_EVT_HTSS_NOTIFICATION_ENABLED, 
 921              		.loc 1 410 0
 922 01fc 3A4B     		ldr	r3, .L55
 923 01fe 1B68     		ldr	r3, [r3]
 924 0200 0C22     		movs	r2, #12
 925 0202 B918     		adds	r1, r7, r2
 926 0204 B222     		movs	r2, #178
 927 0206 FF32     		adds	r2, r2, #255
 928 0208 1000     		movs	r0, r2
 929 020a 9847     		blx	r3
 930 020c 07E0     		b	.L49
 931              	.L50:
 411:Generated_Source\PSoC4/BLE_hts.c ****                             }
 412:Generated_Source\PSoC4/BLE_hts.c ****                             else
 413:Generated_Source\PSoC4/BLE_hts.c ****                             {
 414:Generated_Source\PSoC4/BLE_hts.c ****                                 CyBle_HtsApplCallback((uint32)CYBLE_EVT_HTSS_NOTIFICATION_DISABLED,
 932              		.loc 1 414 0
 933 020e 364B     		ldr	r3, .L55
 934 0210 1B68     		ldr	r3, [r3]
 935 0212 0C22     		movs	r2, #12
 936 0214 B918     		adds	r1, r7, r2
 937 0216 D922     		movs	r2, #217
 938 0218 5200     		lsls	r2, r2, #1
 939 021a 1000     		movs	r0, r2
 940 021c 9847     		blx	r3
 941              	.L49:
 415:Generated_Source\PSoC4/BLE_hts.c ****                             }
 416:Generated_Source\PSoC4/BLE_hts.c ****                         }
 417:Generated_Source\PSoC4/BLE_hts.c ****                         /* Check characteristic properties for Indication */
 418:Generated_Source\PSoC4/BLE_hts.c ****                         if(CYBLE_IS_INDICATION_SUPPORTED(cyBle_htss.charInfo[locCharIndex].charHand
 942              		.loc 1 418 0
 943 021e 1F23     		movs	r3, #31
 944 0220 FB18     		adds	r3, r7, r3
 945 0222 1A78     		ldrb	r2, [r3]
ARM GAS  C:\Users\User\AppData\Local\Temp\ccmH1EJa.s 			page 25


 946 0224 3149     		ldr	r1, .L55+4
 947 0226 1300     		movs	r3, r2
 948 0228 5B00     		lsls	r3, r3, #1
 949 022a 9B18     		adds	r3, r3, r2
 950 022c 5B00     		lsls	r3, r3, #1
 951 022e CB18     		adds	r3, r1, r3
 952 0230 0233     		adds	r3, r3, #2
 953 0232 1B88     		ldrh	r3, [r3]
 954 0234 5A1E     		subs	r2, r3, #1
 955 0236 2E49     		ldr	r1, .L55+8
 956 0238 1300     		movs	r3, r2
 957 023a 9B00     		lsls	r3, r3, #2
 958 023c 9B18     		adds	r3, r3, r2
 959 023e 9B00     		lsls	r3, r3, #2
 960 0240 CB18     		adds	r3, r1, r3
 961 0242 0433     		adds	r3, r3, #4
 962 0244 1A68     		ldr	r2, [r3]
 963 0246 8023     		movs	r3, #128
 964 0248 9B03     		lsls	r3, r3, #14
 965 024a 1340     		ands	r3, r2
 966 024c 1CD0     		beq	.L51
 419:Generated_Source\PSoC4/BLE_hts.c ****                         {
 420:Generated_Source\PSoC4/BLE_hts.c ****                             if(CYBLE_IS_INDICATION_ENABLED_IN_PTR(eventParam->handleValPair.value.v
 967              		.loc 1 420 0
 968 024e 7B68     		ldr	r3, [r7, #4]
 969 0250 5B68     		ldr	r3, [r3, #4]
 970 0252 1800     		movs	r0, r3
 971 0254 FFF7FEFF 		bl	CyBle_Get16ByPtr
 972 0258 0300     		movs	r3, r0
 973 025a 1A00     		movs	r2, r3
 974 025c 0223     		movs	r3, #2
 975 025e 1340     		ands	r3, r2
 976 0260 9BB2     		uxth	r3, r3
 977 0262 002B     		cmp	r3, #0
 978 0264 08D0     		beq	.L52
 421:Generated_Source\PSoC4/BLE_hts.c ****                             {
 422:Generated_Source\PSoC4/BLE_hts.c ****                                 CyBle_HtsApplCallback((uint32)CYBLE_EVT_HTSS_INDICATION_ENABLED, &l
 979              		.loc 1 422 0
 980 0266 204B     		ldr	r3, .L55
 981 0268 1B68     		ldr	r3, [r3]
 982 026a 0C22     		movs	r2, #12
 983 026c B918     		adds	r1, r7, r2
 984 026e B422     		movs	r2, #180
 985 0270 FF32     		adds	r2, r2, #255
 986 0272 1000     		movs	r0, r2
 987 0274 9847     		blx	r3
 988 0276 07E0     		b	.L51
 989              	.L52:
 423:Generated_Source\PSoC4/BLE_hts.c ****                             }
 424:Generated_Source\PSoC4/BLE_hts.c ****                             else
 425:Generated_Source\PSoC4/BLE_hts.c ****                             {
 426:Generated_Source\PSoC4/BLE_hts.c ****                                 CyBle_HtsApplCallback((uint32)CYBLE_EVT_HTSS_INDICATION_DISABLED, &
 990              		.loc 1 426 0
 991 0278 1B4B     		ldr	r3, .L55
 992 027a 1B68     		ldr	r3, [r3]
 993 027c 0C22     		movs	r2, #12
 994 027e B918     		adds	r1, r7, r2
ARM GAS  C:\Users\User\AppData\Local\Temp\ccmH1EJa.s 			page 26


 995 0280 DA22     		movs	r2, #218
 996 0282 5200     		lsls	r2, r2, #1
 997 0284 1000     		movs	r0, r2
 998 0286 9847     		blx	r3
 999              	.L51:
 427:Generated_Source\PSoC4/BLE_hts.c ****                             }
 428:Generated_Source\PSoC4/BLE_hts.c ****                         }
 429:Generated_Source\PSoC4/BLE_hts.c ****                     #if((CYBLE_GAP_ROLE_PERIPHERAL || CYBLE_GAP_ROLE_CENTRAL) && \
 430:Generated_Source\PSoC4/BLE_hts.c ****                         (CYBLE_BONDING_REQUIREMENT == CYBLE_BONDING_YES))
 431:Generated_Source\PSoC4/BLE_hts.c ****                         /* Set flag to store bonding data to flash */
 432:Generated_Source\PSoC4/BLE_hts.c ****                         if(cyBle_peerBonding == CYBLE_GAP_BONDING)
 1000              		.loc 1 432 0
 1001 0288 1A4B     		ldr	r3, .L55+12
 1002 028a 1B78     		ldrb	r3, [r3]
 1003 028c 012B     		cmp	r3, #1
 1004 028e 06D1     		bne	.L48
 433:Generated_Source\PSoC4/BLE_hts.c ****                         {
 434:Generated_Source\PSoC4/BLE_hts.c ****                             cyBle_pendingFlashWrite |= CYBLE_PENDING_CCCD_FLASH_WRITE_BIT;
 1005              		.loc 1 434 0
 1006 0290 194B     		ldr	r3, .L55+16
 1007 0292 1B78     		ldrb	r3, [r3]
 1008 0294 0222     		movs	r2, #2
 1009 0296 1343     		orrs	r3, r2
 1010 0298 DAB2     		uxtb	r2, r3
 1011 029a 174B     		ldr	r3, .L55+16
 1012 029c 1A70     		strb	r2, [r3]
 1013              	.L48:
 435:Generated_Source\PSoC4/BLE_hts.c ****                         }
 436:Generated_Source\PSoC4/BLE_hts.c ****                     #endif /* (CYBLE_BONDING_REQUIREMENT == CYBLE_BONDING_YES) */
 437:Generated_Source\PSoC4/BLE_hts.c ****                         
 438:Generated_Source\PSoC4/BLE_hts.c ****                     }
 439:Generated_Source\PSoC4/BLE_hts.c ****                 }
 440:Generated_Source\PSoC4/BLE_hts.c ****                 cyBle_eventHandlerFlag &= (uint8)~CYBLE_CALLBACK;
 1014              		.loc 1 440 0
 1015 029e 174B     		ldr	r3, .L55+20
 1016 02a0 1B78     		ldrb	r3, [r3]
 1017 02a2 DBB2     		uxtb	r3, r3
 1018 02a4 0122     		movs	r2, #1
 1019 02a6 9343     		bics	r3, r2
 1020 02a8 DAB2     		uxtb	r2, r3
 1021 02aa 144B     		ldr	r3, .L55+20
 1022 02ac 1A70     		strb	r2, [r3]
 441:Generated_Source\PSoC4/BLE_hts.c ****                 locReqHandle = 1u;
 1023              		.loc 1 441 0
 1024 02ae 1D23     		movs	r3, #29
 1025 02b0 FB18     		adds	r3, r7, r3
 1026 02b2 0122     		movs	r2, #1
 1027 02b4 1A70     		strb	r2, [r3]
 1028              	.L42:
 349:Generated_Source\PSoC4/BLE_hts.c ****         {
 1029              		.loc 1 349 0
 1030 02b6 1F23     		movs	r3, #31
 1031 02b8 FB18     		adds	r3, r7, r3
 1032 02ba 1A78     		ldrb	r2, [r3]
 1033 02bc 1F23     		movs	r3, #31
 1034 02be FB18     		adds	r3, r7, r3
 1035 02c0 0132     		adds	r2, r2, #1
ARM GAS  C:\Users\User\AppData\Local\Temp\ccmH1EJa.s 			page 27


 1036 02c2 1A70     		strb	r2, [r3]
 1037              	.L40:
 348:Generated_Source\PSoC4/BLE_hts.c ****             locCharIndex++)
 1038              		.loc 1 348 0 discriminator 1
 1039 02c4 1F23     		movs	r3, #31
 1040 02c6 FB18     		adds	r3, r7, r3
 1041 02c8 1B78     		ldrb	r3, [r3]
 1042 02ca 032B     		cmp	r3, #3
 1043 02cc 05D8     		bhi	.L39
 348:Generated_Source\PSoC4/BLE_hts.c ****             locCharIndex++)
 1044              		.loc 1 348 0 is_stmt 0 discriminator 2
 1045 02ce 1D23     		movs	r3, #29
 1046 02d0 FB18     		adds	r3, r7, r3
 1047 02d2 1B78     		ldrb	r3, [r3]
 1048 02d4 002B     		cmp	r3, #0
 1049 02d6 00D1     		bne	.LCB898
 1050 02d8 A8E6     		b	.L53	@long jump
 1051              	.LCB898:
 1052              	.L39:
 442:Generated_Source\PSoC4/BLE_hts.c ****             }
 443:Generated_Source\PSoC4/BLE_hts.c ****         }
 444:Generated_Source\PSoC4/BLE_hts.c ****     }
 445:Generated_Source\PSoC4/BLE_hts.c ****     return (gattErr);
 1053              		.loc 1 445 0 is_stmt 1
 1054 02da 1E23     		movs	r3, #30
 1055 02dc FB18     		adds	r3, r7, r3
 1056 02de 1B78     		ldrb	r3, [r3]
 446:Generated_Source\PSoC4/BLE_hts.c **** }
 1057              		.loc 1 446 0
 1058 02e0 1800     		movs	r0, r3
 1059 02e2 BD46     		mov	sp, r7
 1060 02e4 09B0     		add	sp, sp, #36
 1061              		@ sp needed
 1062 02e6 90BD     		pop	{r4, r7, pc}
 1063              	.L56:
 1064              		.align	2
 1065              	.L55:
 1066 02e8 00000000 		.word	CyBle_HtsApplCallback
 1067 02ec 00000000 		.word	cyBle_htss
 1068 02f0 00000000 		.word	cyBle_gattDB
 1069 02f4 00000000 		.word	cyBle_peerBonding
 1070 02f8 00000000 		.word	cyBle_pendingFlashWrite
 1071 02fc 00000000 		.word	cyBle_eventHandlerFlag
 1072              		.cfi_endproc
 1073              	.LFE8:
 1074              		.size	CyBle_HtssWriteEventHandler, .-CyBle_HtssWriteEventHandler
 1075              		.section	.text.CyBle_HtssSendNotification,"ax",%progbits
 1076              		.align	2
 1077              		.global	CyBle_HtssSendNotification
 1078              		.code	16
 1079              		.thumb_func
 1080              		.type	CyBle_HtssSendNotification, %function
 1081              	CyBle_HtssSendNotification:
 1082              	.LFB9:
 447:Generated_Source\PSoC4/BLE_hts.c **** 
 448:Generated_Source\PSoC4/BLE_hts.c **** 
 449:Generated_Source\PSoC4/BLE_hts.c **** /******************************************************************************
ARM GAS  C:\Users\User\AppData\Local\Temp\ccmH1EJa.s 			page 28


 450:Generated_Source\PSoC4/BLE_hts.c **** * Function Name: CyBle_HtssSendNotification
 451:Generated_Source\PSoC4/BLE_hts.c **** ***************************************************************************//**
 452:Generated_Source\PSoC4/BLE_hts.c **** * 
 453:Generated_Source\PSoC4/BLE_hts.c **** *  Sends notification with a characteristic value of the Health Thermometer 
 454:Generated_Source\PSoC4/BLE_hts.c **** *  Service, which is a value specified by charIndex, to the Client device.
 455:Generated_Source\PSoC4/BLE_hts.c **** * 
 456:Generated_Source\PSoC4/BLE_hts.c **** *  On enabling notification successfully for a service characteristic it sends
 457:Generated_Source\PSoC4/BLE_hts.c **** *  out a 'Handle Value Notification' which results in 
 458:Generated_Source\PSoC4/BLE_hts.c **** *  CYBLE_EVT_HTSC_NOTIFICATION event at the GATT Client's end.
 459:Generated_Source\PSoC4/BLE_hts.c **** *
 460:Generated_Source\PSoC4/BLE_hts.c **** *  \param connHandle: The connection handle.
 461:Generated_Source\PSoC4/BLE_hts.c **** *  \param charIndex:  The index of the service characteristic.
 462:Generated_Source\PSoC4/BLE_hts.c **** *  \param attrSize:   The size of the characteristic value attribute.
 463:Generated_Source\PSoC4/BLE_hts.c **** *  \param attrValue:  The pointer to the characteristic value data that should 
 464:Generated_Source\PSoC4/BLE_hts.c **** *                     be sent to the client's device.
 465:Generated_Source\PSoC4/BLE_hts.c **** * 
 466:Generated_Source\PSoC4/BLE_hts.c **** * \return
 467:Generated_Source\PSoC4/BLE_hts.c **** *  Return value is of type CYBLE_API_RESULT_T.
 468:Generated_Source\PSoC4/BLE_hts.c **** *   * CYBLE_ERROR_OK - The request handled successfully.
 469:Generated_Source\PSoC4/BLE_hts.c **** *   * CYBLE_ERROR_INVALID_PARAMETER - Validation of the input parameter failed.
 470:Generated_Source\PSoC4/BLE_hts.c **** *   * CYBLE_ERROR_INVALID_OPERATION - This operation is not permitted.
 471:Generated_Source\PSoC4/BLE_hts.c **** *   * CYBLE_ERROR_INVALID_STATE - Connection with the client is not established.
 472:Generated_Source\PSoC4/BLE_hts.c **** *   * CYBLE_ERROR_MEMORY_ALLOCATION_FAILED - Memory allocation failed. 
 473:Generated_Source\PSoC4/BLE_hts.c **** *   * CYBLE_ERROR_NTF_DISABLED - Notification is not enabled by the client.
 474:Generated_Source\PSoC4/BLE_hts.c **** *
 475:Generated_Source\PSoC4/BLE_hts.c **** ******************************************************************************/
 476:Generated_Source\PSoC4/BLE_hts.c **** CYBLE_API_RESULT_T CyBle_HtssSendNotification(CYBLE_CONN_HANDLE_T connHandle,
 477:Generated_Source\PSoC4/BLE_hts.c ****     CYBLE_HTS_CHAR_INDEX_T charIndex, uint8 attrSize, uint8 *attrValue)
 478:Generated_Source\PSoC4/BLE_hts.c **** {
 1083              		.loc 1 478 0
 1084              		.cfi_startproc
 1085              		@ args = 0, pretend = 0, frame = 32
 1086              		@ frame_needed = 1, uses_anonymous_args = 0
 1087 0000 90B5     		push	{r4, r7, lr}
 1088              		.cfi_def_cfa_offset 12
 1089              		.cfi_offset 4, -12
 1090              		.cfi_offset 7, -8
 1091              		.cfi_offset 14, -4
 1092 0002 89B0     		sub	sp, sp, #36
 1093              		.cfi_def_cfa_offset 48
 1094 0004 00AF     		add	r7, sp, #0
 1095              		.cfi_def_cfa_register 7
 1096 0006 0C24     		movs	r4, #12
 1097 0008 3C19     		adds	r4, r7, r4
 1098 000a 2080     		strh	r0, [r4]
 1099 000c 0800     		movs	r0, r1
 1100 000e 1100     		movs	r1, r2
 1101 0010 7B60     		str	r3, [r7, #4]
 1102 0012 0B23     		movs	r3, #11
 1103 0014 FB18     		adds	r3, r7, r3
 1104 0016 021C     		adds	r2, r0, #0
 1105 0018 1A70     		strb	r2, [r3]
 1106 001a 0A23     		movs	r3, #10
 1107 001c FB18     		adds	r3, r7, r3
 1108 001e 0A1C     		adds	r2, r1, #0
 1109 0020 1A70     		strb	r2, [r3]
 479:Generated_Source\PSoC4/BLE_hts.c **** 
ARM GAS  C:\Users\User\AppData\Local\Temp\ccmH1EJa.s 			page 29


 480:Generated_Source\PSoC4/BLE_hts.c ****     CYBLE_API_RESULT_T apiResult;
 481:Generated_Source\PSoC4/BLE_hts.c ****     
 482:Generated_Source\PSoC4/BLE_hts.c ****     /* Send Notification if it is enabled and connected */
 483:Generated_Source\PSoC4/BLE_hts.c ****     if(CYBLE_STATE_CONNECTED != CyBle_GetState())
 1110              		.loc 1 483 0
 1111 0022 2D4B     		ldr	r3, .L62
 1112 0024 1B78     		ldrb	r3, [r3]
 1113 0026 022B     		cmp	r3, #2
 1114 0028 05D0     		beq	.L58
 484:Generated_Source\PSoC4/BLE_hts.c ****     {
 485:Generated_Source\PSoC4/BLE_hts.c ****         apiResult = CYBLE_ERROR_INVALID_STATE;
 1115              		.loc 1 485 0
 1116 002a 1E23     		movs	r3, #30
 1117 002c FB18     		adds	r3, r7, r3
 1118 002e 0422     		movs	r2, #4
 1119 0030 FF32     		adds	r2, r2, #255
 1120 0032 1A80     		strh	r2, [r3]
 1121 0034 49E0     		b	.L59
 1122              	.L58:
 486:Generated_Source\PSoC4/BLE_hts.c ****     }
 487:Generated_Source\PSoC4/BLE_hts.c ****     else if(!CYBLE_IS_NOTIFICATION_ENABLED(cyBle_htss.charInfo[charIndex].descrHandle[CYBLE_HTS_CCC
 1123              		.loc 1 487 0
 1124 0036 0B23     		movs	r3, #11
 1125 0038 FB18     		adds	r3, r7, r3
 1126 003a 1A78     		ldrb	r2, [r3]
 1127 003c 2749     		ldr	r1, .L62+4
 1128 003e 1300     		movs	r3, r2
 1129 0040 5B00     		lsls	r3, r3, #1
 1130 0042 9B18     		adds	r3, r3, r2
 1131 0044 5B00     		lsls	r3, r3, #1
 1132 0046 CB18     		adds	r3, r1, r3
 1133 0048 0433     		adds	r3, r3, #4
 1134 004a 1B88     		ldrh	r3, [r3]
 1135 004c 5A1E     		subs	r2, r3, #1
 1136 004e 2449     		ldr	r1, .L62+8
 1137 0050 1300     		movs	r3, r2
 1138 0052 9B00     		lsls	r3, r3, #2
 1139 0054 9B18     		adds	r3, r3, r2
 1140 0056 9B00     		lsls	r3, r3, #2
 1141 0058 CB18     		adds	r3, r1, r3
 1142 005a 1033     		adds	r3, r3, #16
 1143 005c 1B68     		ldr	r3, [r3]
 1144 005e 5B68     		ldr	r3, [r3, #4]
 1145 0060 1800     		movs	r0, r3
 1146 0062 FFF7FEFF 		bl	CyBle_Get16ByPtr
 1147 0066 0300     		movs	r3, r0
 1148 0068 1A00     		movs	r2, r3
 1149 006a 0123     		movs	r3, #1
 1150 006c 1340     		ands	r3, r2
 1151 006e 9BB2     		uxth	r3, r3
 1152 0070 002B     		cmp	r3, #0
 1153 0072 05D1     		bne	.L60
 488:Generated_Source\PSoC4/BLE_hts.c ****     {
 489:Generated_Source\PSoC4/BLE_hts.c ****         apiResult = CYBLE_ERROR_NTF_DISABLED;
 1154              		.loc 1 489 0
 1155 0074 1E23     		movs	r3, #30
 1156 0076 FB18     		adds	r3, r7, r3
ARM GAS  C:\Users\User\AppData\Local\Temp\ccmH1EJa.s 			page 30


 1157 0078 8022     		movs	r2, #128
 1158 007a 5200     		lsls	r2, r2, #1
 1159 007c 1A80     		strh	r2, [r3]
 1160 007e 24E0     		b	.L59
 1161              	.L60:
 1162              	.LBB4:
 490:Generated_Source\PSoC4/BLE_hts.c ****     }
 491:Generated_Source\PSoC4/BLE_hts.c ****     else
 492:Generated_Source\PSoC4/BLE_hts.c ****     {
 493:Generated_Source\PSoC4/BLE_hts.c ****         CYBLE_GATTS_HANDLE_VALUE_NTF_T ntfReqParam;
 494:Generated_Source\PSoC4/BLE_hts.c ****         
 495:Generated_Source\PSoC4/BLE_hts.c ****         /* Fill all fields of write request structure ... */
 496:Generated_Source\PSoC4/BLE_hts.c ****         ntfReqParam.attrHandle = cyBle_htss.charInfo[charIndex].charHandle;
 1163              		.loc 1 496 0
 1164 0080 0B23     		movs	r3, #11
 1165 0082 FB18     		adds	r3, r7, r3
 1166 0084 1A78     		ldrb	r2, [r3]
 1167 0086 1549     		ldr	r1, .L62+4
 1168 0088 1300     		movs	r3, r2
 1169 008a 5B00     		lsls	r3, r3, #1
 1170 008c 9B18     		adds	r3, r3, r2
 1171 008e 5B00     		lsls	r3, r3, #1
 1172 0090 CB18     		adds	r3, r1, r3
 1173 0092 0233     		adds	r3, r3, #2
 1174 0094 1A88     		ldrh	r2, [r3]
 1175 0096 1023     		movs	r3, #16
 1176 0098 FB18     		adds	r3, r7, r3
 1177 009a 1A81     		strh	r2, [r3, #8]
 497:Generated_Source\PSoC4/BLE_hts.c ****         ntfReqParam.value.val = attrValue;
 1178              		.loc 1 497 0
 1179 009c 1023     		movs	r3, #16
 1180 009e FB18     		adds	r3, r7, r3
 1181 00a0 7A68     		ldr	r2, [r7, #4]
 1182 00a2 1A60     		str	r2, [r3]
 498:Generated_Source\PSoC4/BLE_hts.c ****         ntfReqParam.value.len = attrSize;
 1183              		.loc 1 498 0
 1184 00a4 0A23     		movs	r3, #10
 1185 00a6 FB18     		adds	r3, r7, r3
 1186 00a8 1B78     		ldrb	r3, [r3]
 1187 00aa 9AB2     		uxth	r2, r3
 1188 00ac 1023     		movs	r3, #16
 1189 00ae FB18     		adds	r3, r7, r3
 1190 00b0 9A80     		strh	r2, [r3, #4]
 499:Generated_Source\PSoC4/BLE_hts.c ****         
 500:Generated_Source\PSoC4/BLE_hts.c ****         /* Send notification to client using previously filled structure */
 501:Generated_Source\PSoC4/BLE_hts.c ****         apiResult = CyBle_GattsNotification(connHandle, &ntfReqParam);
 1191              		.loc 1 501 0
 1192 00b2 1E23     		movs	r3, #30
 1193 00b4 FC18     		adds	r4, r7, r3
 1194 00b6 1023     		movs	r3, #16
 1195 00b8 FA18     		adds	r2, r7, r3
 1196 00ba 0C23     		movs	r3, #12
 1197 00bc FB18     		adds	r3, r7, r3
 1198 00be 1100     		movs	r1, r2
 1199 00c0 1868     		ldr	r0, [r3]
 1200 00c2 FFF7FEFF 		bl	CyBle_GattsNotification
 1201 00c6 0300     		movs	r3, r0
ARM GAS  C:\Users\User\AppData\Local\Temp\ccmH1EJa.s 			page 31


 1202 00c8 2380     		strh	r3, [r4]
 1203              	.L59:
 1204              	.LBE4:
 502:Generated_Source\PSoC4/BLE_hts.c ****     }
 503:Generated_Source\PSoC4/BLE_hts.c **** 
 504:Generated_Source\PSoC4/BLE_hts.c ****     return (apiResult);
 1205              		.loc 1 504 0
 1206 00ca 1E23     		movs	r3, #30
 1207 00cc FB18     		adds	r3, r7, r3
 1208 00ce 1B88     		ldrh	r3, [r3]
 505:Generated_Source\PSoC4/BLE_hts.c **** }
 1209              		.loc 1 505 0
 1210 00d0 1800     		movs	r0, r3
 1211 00d2 BD46     		mov	sp, r7
 1212 00d4 09B0     		add	sp, sp, #36
 1213              		@ sp needed
 1214 00d6 90BD     		pop	{r4, r7, pc}
 1215              	.L63:
 1216              		.align	2
 1217              	.L62:
 1218 00d8 00000000 		.word	cyBle_state
 1219 00dc 00000000 		.word	cyBle_htss
 1220 00e0 00000000 		.word	cyBle_gattDB
 1221              		.cfi_endproc
 1222              	.LFE9:
 1223              		.size	CyBle_HtssSendNotification, .-CyBle_HtssSendNotification
 1224              		.section	.text.CyBle_HtssSendIndication,"ax",%progbits
 1225              		.align	2
 1226              		.global	CyBle_HtssSendIndication
 1227              		.code	16
 1228              		.thumb_func
 1229              		.type	CyBle_HtssSendIndication, %function
 1230              	CyBle_HtssSendIndication:
 1231              	.LFB10:
 506:Generated_Source\PSoC4/BLE_hts.c **** 
 507:Generated_Source\PSoC4/BLE_hts.c **** 
 508:Generated_Source\PSoC4/BLE_hts.c **** /******************************************************************************
 509:Generated_Source\PSoC4/BLE_hts.c **** * Function Name: CyBle_HtssSendIndication
 510:Generated_Source\PSoC4/BLE_hts.c **** ***************************************************************************//**
 511:Generated_Source\PSoC4/BLE_hts.c **** * 
 512:Generated_Source\PSoC4/BLE_hts.c **** *  Sends indication with a characteristic value of the Health Thermometer 
 513:Generated_Source\PSoC4/BLE_hts.c **** *  Service, which is a value specified by charIndex, to the Client device.
 514:Generated_Source\PSoC4/BLE_hts.c **** *
 515:Generated_Source\PSoC4/BLE_hts.c **** *  On enabling indication successfully it sends out a 'Handle Value Indication'
 516:Generated_Source\PSoC4/BLE_hts.c **** *  which results in CYBLE_EVT_HTSC_INDICATION or 
 517:Generated_Source\PSoC4/BLE_hts.c **** *  CYBLE_EVT_GATTC_HANDLE_VALUE_IND (if service specific callback function is 
 518:Generated_Source\PSoC4/BLE_hts.c **** *  not registered) event at the GATT Client's end.
 519:Generated_Source\PSoC4/BLE_hts.c **** *
 520:Generated_Source\PSoC4/BLE_hts.c **** *  \param connHandle: The connection handle.
 521:Generated_Source\PSoC4/BLE_hts.c **** *  \param charIndex:  The index of the service characteristic.
 522:Generated_Source\PSoC4/BLE_hts.c **** *  \param attrSize:   The size of the characteristic value attribute.
 523:Generated_Source\PSoC4/BLE_hts.c **** *  \param attrValue:  The pointer to the characteristic value data that should be
 524:Generated_Source\PSoC4/BLE_hts.c **** *                     sent to the Client device.
 525:Generated_Source\PSoC4/BLE_hts.c **** * 
 526:Generated_Source\PSoC4/BLE_hts.c **** * \return
 527:Generated_Source\PSoC4/BLE_hts.c **** *  Return value is of type CYBLE_API_RESULT_T.
 528:Generated_Source\PSoC4/BLE_hts.c **** *   * CYBLE_ERROR_OK - The request handled successfully.
ARM GAS  C:\Users\User\AppData\Local\Temp\ccmH1EJa.s 			page 32


 529:Generated_Source\PSoC4/BLE_hts.c **** *   * CYBLE_ERROR_INVALID_PARAMETER - Validation of the input parameter failed.
 530:Generated_Source\PSoC4/BLE_hts.c **** *   * CYBLE_ERROR_INVALID_OPERATION - This operation is not permitted.
 531:Generated_Source\PSoC4/BLE_hts.c **** *   * CYBLE_ERROR_INVALID_STATE - Connection with the client is not established.
 532:Generated_Source\PSoC4/BLE_hts.c **** *   * CYBLE_ERROR_MEMORY_ALLOCATION_FAILED - Memory allocation failed.
 533:Generated_Source\PSoC4/BLE_hts.c **** *   * CYBLE_ERROR_IND_DISABLED - Indication is not enabled by the client.
 534:Generated_Source\PSoC4/BLE_hts.c **** *
 535:Generated_Source\PSoC4/BLE_hts.c **** * \events
 536:Generated_Source\PSoC4/BLE_hts.c **** *  In case of successful execution (return value = CYBLE_ERROR_OK)
 537:Generated_Source\PSoC4/BLE_hts.c **** *  the next events can appear: \n
 538:Generated_Source\PSoC4/BLE_hts.c **** *   If the HTS service-specific callback is registered 
 539:Generated_Source\PSoC4/BLE_hts.c **** *      (with CyBle_HtsRegisterAttrCallback):
 540:Generated_Source\PSoC4/BLE_hts.c **** *  * CYBLE_EVT_HTSS_INDICATION_CONFIRMED - in case if the indication is
 541:Generated_Source\PSoC4/BLE_hts.c **** *                                successfully delivered to the peer device.
 542:Generated_Source\PSoC4/BLE_hts.c **** *  .
 543:Generated_Source\PSoC4/BLE_hts.c **** *   Otherwise (if the HTS service-specific callback is not registered):
 544:Generated_Source\PSoC4/BLE_hts.c **** *  * CYBLE_EVT_GATTS_HANDLE_VALUE_CNF - in case if the indication is
 545:Generated_Source\PSoC4/BLE_hts.c **** *                                successfully delivered to the peer device.
 546:Generated_Source\PSoC4/BLE_hts.c **** *
 547:Generated_Source\PSoC4/BLE_hts.c **** ******************************************************************************/
 548:Generated_Source\PSoC4/BLE_hts.c **** CYBLE_API_RESULT_T CyBle_HtssSendIndication(CYBLE_CONN_HANDLE_T connHandle,
 549:Generated_Source\PSoC4/BLE_hts.c ****     CYBLE_HTS_CHAR_INDEX_T charIndex, uint8 attrSize, uint8 *attrValue)
 550:Generated_Source\PSoC4/BLE_hts.c **** {
 1232              		.loc 1 550 0
 1233              		.cfi_startproc
 1234              		@ args = 0, pretend = 0, frame = 32
 1235              		@ frame_needed = 1, uses_anonymous_args = 0
 1236 0000 90B5     		push	{r4, r7, lr}
 1237              		.cfi_def_cfa_offset 12
 1238              		.cfi_offset 4, -12
 1239              		.cfi_offset 7, -8
 1240              		.cfi_offset 14, -4
 1241 0002 89B0     		sub	sp, sp, #36
 1242              		.cfi_def_cfa_offset 48
 1243 0004 00AF     		add	r7, sp, #0
 1244              		.cfi_def_cfa_register 7
 1245 0006 0C24     		movs	r4, #12
 1246 0008 3C19     		adds	r4, r7, r4
 1247 000a 2080     		strh	r0, [r4]
 1248 000c 0800     		movs	r0, r1
 1249 000e 1100     		movs	r1, r2
 1250 0010 7B60     		str	r3, [r7, #4]
 1251 0012 0B23     		movs	r3, #11
 1252 0014 FB18     		adds	r3, r7, r3
 1253 0016 021C     		adds	r2, r0, #0
 1254 0018 1A70     		strb	r2, [r3]
 1255 001a 0A23     		movs	r3, #10
 1256 001c FB18     		adds	r3, r7, r3
 1257 001e 0A1C     		adds	r2, r1, #0
 1258 0020 1A70     		strb	r2, [r3]
 551:Generated_Source\PSoC4/BLE_hts.c ****     CYBLE_API_RESULT_T apiResult;
 552:Generated_Source\PSoC4/BLE_hts.c ****     
 553:Generated_Source\PSoC4/BLE_hts.c ****     /* Send Notification if it is enabled and connected */
 554:Generated_Source\PSoC4/BLE_hts.c ****     if(CYBLE_STATE_CONNECTED != CyBle_GetState())
 1259              		.loc 1 554 0
 1260 0022 324B     		ldr	r3, .L70
 1261 0024 1B78     		ldrb	r3, [r3]
 1262 0026 022B     		cmp	r3, #2
ARM GAS  C:\Users\User\AppData\Local\Temp\ccmH1EJa.s 			page 33


 1263 0028 05D0     		beq	.L65
 555:Generated_Source\PSoC4/BLE_hts.c ****     {
 556:Generated_Source\PSoC4/BLE_hts.c ****         apiResult = CYBLE_ERROR_INVALID_STATE;
 1264              		.loc 1 556 0
 1265 002a 1E23     		movs	r3, #30
 1266 002c FB18     		adds	r3, r7, r3
 1267 002e 0422     		movs	r2, #4
 1268 0030 FF32     		adds	r2, r2, #255
 1269 0032 1A80     		strh	r2, [r3]
 1270 0034 53E0     		b	.L66
 1271              	.L65:
 557:Generated_Source\PSoC4/BLE_hts.c ****     }
 558:Generated_Source\PSoC4/BLE_hts.c ****     else if(!CYBLE_IS_INDICATION_ENABLED(cyBle_htss.charInfo[charIndex].descrHandle[CYBLE_HTS_CCCD]
 1272              		.loc 1 558 0
 1273 0036 0B23     		movs	r3, #11
 1274 0038 FB18     		adds	r3, r7, r3
 1275 003a 1A78     		ldrb	r2, [r3]
 1276 003c 2C49     		ldr	r1, .L70+4
 1277 003e 1300     		movs	r3, r2
 1278 0040 5B00     		lsls	r3, r3, #1
 1279 0042 9B18     		adds	r3, r3, r2
 1280 0044 5B00     		lsls	r3, r3, #1
 1281 0046 CB18     		adds	r3, r1, r3
 1282 0048 0433     		adds	r3, r3, #4
 1283 004a 1B88     		ldrh	r3, [r3]
 1284 004c 5A1E     		subs	r2, r3, #1
 1285 004e 2949     		ldr	r1, .L70+8
 1286 0050 1300     		movs	r3, r2
 1287 0052 9B00     		lsls	r3, r3, #2
 1288 0054 9B18     		adds	r3, r3, r2
 1289 0056 9B00     		lsls	r3, r3, #2
 1290 0058 CB18     		adds	r3, r1, r3
 1291 005a 1033     		adds	r3, r3, #16
 1292 005c 1B68     		ldr	r3, [r3]
 1293 005e 5B68     		ldr	r3, [r3, #4]
 1294 0060 1800     		movs	r0, r3
 1295 0062 FFF7FEFF 		bl	CyBle_Get16ByPtr
 1296 0066 0300     		movs	r3, r0
 1297 0068 1A00     		movs	r2, r3
 1298 006a 0223     		movs	r3, #2
 1299 006c 1340     		ands	r3, r2
 1300 006e 9BB2     		uxth	r3, r3
 1301 0070 002B     		cmp	r3, #0
 1302 0072 05D1     		bne	.L67
 559:Generated_Source\PSoC4/BLE_hts.c ****     {
 560:Generated_Source\PSoC4/BLE_hts.c ****         apiResult = CYBLE_ERROR_IND_DISABLED;
 1303              		.loc 1 560 0
 1304 0074 1E23     		movs	r3, #30
 1305 0076 FB18     		adds	r3, r7, r3
 1306 0078 0222     		movs	r2, #2
 1307 007a FF32     		adds	r2, r2, #255
 1308 007c 1A80     		strh	r2, [r3]
 1309 007e 2EE0     		b	.L66
 1310              	.L67:
 1311              	.LBB5:
 561:Generated_Source\PSoC4/BLE_hts.c ****     }
 562:Generated_Source\PSoC4/BLE_hts.c ****     else
ARM GAS  C:\Users\User\AppData\Local\Temp\ccmH1EJa.s 			page 34


 563:Generated_Source\PSoC4/BLE_hts.c ****     {
 564:Generated_Source\PSoC4/BLE_hts.c ****         CYBLE_GATTS_HANDLE_VALUE_NTF_T ntfReqParam;
 565:Generated_Source\PSoC4/BLE_hts.c ****         
 566:Generated_Source\PSoC4/BLE_hts.c ****         /* Fill all fields of write request structure ... */
 567:Generated_Source\PSoC4/BLE_hts.c ****         ntfReqParam.attrHandle = cyBle_htss.charInfo[charIndex].charHandle;
 1312              		.loc 1 567 0
 1313 0080 0B23     		movs	r3, #11
 1314 0082 FB18     		adds	r3, r7, r3
 1315 0084 1A78     		ldrb	r2, [r3]
 1316 0086 1A49     		ldr	r1, .L70+4
 1317 0088 1300     		movs	r3, r2
 1318 008a 5B00     		lsls	r3, r3, #1
 1319 008c 9B18     		adds	r3, r3, r2
 1320 008e 5B00     		lsls	r3, r3, #1
 1321 0090 CB18     		adds	r3, r1, r3
 1322 0092 0233     		adds	r3, r3, #2
 1323 0094 1A88     		ldrh	r2, [r3]
 1324 0096 1023     		movs	r3, #16
 1325 0098 FB18     		adds	r3, r7, r3
 1326 009a 1A81     		strh	r2, [r3, #8]
 568:Generated_Source\PSoC4/BLE_hts.c ****         ntfReqParam.value.val = attrValue;
 1327              		.loc 1 568 0
 1328 009c 1023     		movs	r3, #16
 1329 009e FB18     		adds	r3, r7, r3
 1330 00a0 7A68     		ldr	r2, [r7, #4]
 1331 00a2 1A60     		str	r2, [r3]
 569:Generated_Source\PSoC4/BLE_hts.c ****         ntfReqParam.value.len = attrSize;
 1332              		.loc 1 569 0
 1333 00a4 0A23     		movs	r3, #10
 1334 00a6 FB18     		adds	r3, r7, r3
 1335 00a8 1B78     		ldrb	r3, [r3]
 1336 00aa 9AB2     		uxth	r2, r3
 1337 00ac 1023     		movs	r3, #16
 1338 00ae FB18     		adds	r3, r7, r3
 1339 00b0 9A80     		strh	r2, [r3, #4]
 570:Generated_Source\PSoC4/BLE_hts.c ****         
 571:Generated_Source\PSoC4/BLE_hts.c ****         /* Send indication to client using previously filled structure */
 572:Generated_Source\PSoC4/BLE_hts.c ****         apiResult = CyBle_GattsIndication(connHandle, &ntfReqParam);
 1340              		.loc 1 572 0
 1341 00b2 1E23     		movs	r3, #30
 1342 00b4 FC18     		adds	r4, r7, r3
 1343 00b6 1023     		movs	r3, #16
 1344 00b8 FA18     		adds	r2, r7, r3
 1345 00ba 0C23     		movs	r3, #12
 1346 00bc FB18     		adds	r3, r7, r3
 1347 00be 1100     		movs	r1, r2
 1348 00c0 1868     		ldr	r0, [r3]
 1349 00c2 FFF7FEFF 		bl	CyBle_GattsIndication
 1350 00c6 0300     		movs	r3, r0
 1351 00c8 2380     		strh	r3, [r4]
 573:Generated_Source\PSoC4/BLE_hts.c ****         /* Save handle to support service specific value confirmation response from client */
 574:Generated_Source\PSoC4/BLE_hts.c ****         if(apiResult == CYBLE_ERROR_OK)
 1352              		.loc 1 574 0
 1353 00ca 1E23     		movs	r3, #30
 1354 00cc FB18     		adds	r3, r7, r3
 1355 00ce 1B88     		ldrh	r3, [r3]
 1356 00d0 002B     		cmp	r3, #0
ARM GAS  C:\Users\User\AppData\Local\Temp\ccmH1EJa.s 			page 35


 1357 00d2 04D1     		bne	.L66
 575:Generated_Source\PSoC4/BLE_hts.c ****         {
 576:Generated_Source\PSoC4/BLE_hts.c ****             cyBle_htssReqHandle = ntfReqParam.attrHandle;
 1358              		.loc 1 576 0
 1359 00d4 1023     		movs	r3, #16
 1360 00d6 FB18     		adds	r3, r7, r3
 1361 00d8 1A89     		ldrh	r2, [r3, #8]
 1362 00da 074B     		ldr	r3, .L70+12
 1363 00dc 1A80     		strh	r2, [r3]
 1364              	.L66:
 1365              	.LBE5:
 577:Generated_Source\PSoC4/BLE_hts.c ****         }
 578:Generated_Source\PSoC4/BLE_hts.c ****     }
 579:Generated_Source\PSoC4/BLE_hts.c ****     return (apiResult);
 1366              		.loc 1 579 0
 1367 00de 1E23     		movs	r3, #30
 1368 00e0 FB18     		adds	r3, r7, r3
 1369 00e2 1B88     		ldrh	r3, [r3]
 580:Generated_Source\PSoC4/BLE_hts.c **** }
 1370              		.loc 1 580 0
 1371 00e4 1800     		movs	r0, r3
 1372 00e6 BD46     		mov	sp, r7
 1373 00e8 09B0     		add	sp, sp, #36
 1374              		@ sp needed
 1375 00ea 90BD     		pop	{r4, r7, pc}
 1376              	.L71:
 1377              		.align	2
 1378              	.L70:
 1379 00ec 00000000 		.word	cyBle_state
 1380 00f0 00000000 		.word	cyBle_htss
 1381 00f4 00000000 		.word	cyBle_gattDB
 1382 00f8 04000000 		.word	cyBle_htssReqHandle
 1383              		.cfi_endproc
 1384              	.LFE10:
 1385              		.size	CyBle_HtssSendIndication, .-CyBle_HtssSendIndication
 1386              		.section	.text.CyBle_HtssConfirmationEventHandler,"ax",%progbits
 1387              		.align	2
 1388              		.global	CyBle_HtssConfirmationEventHandler
 1389              		.code	16
 1390              		.thumb_func
 1391              		.type	CyBle_HtssConfirmationEventHandler, %function
 1392              	CyBle_HtssConfirmationEventHandler:
 1393              	.LFB11:
 581:Generated_Source\PSoC4/BLE_hts.c **** 
 582:Generated_Source\PSoC4/BLE_hts.c **** 
 583:Generated_Source\PSoC4/BLE_hts.c **** /******************************************************************************
 584:Generated_Source\PSoC4/BLE_hts.c **** * Function Name: CyBle_HtssConfirmationEventHandler
 585:Generated_Source\PSoC4/BLE_hts.c **** ***************************************************************************//**
 586:Generated_Source\PSoC4/BLE_hts.c **** * 
 587:Generated_Source\PSoC4/BLE_hts.c **** *  Handles a Value Confirmation request event from the BLE stack.
 588:Generated_Source\PSoC4/BLE_hts.c **** * 
 589:Generated_Source\PSoC4/BLE_hts.c **** *  \param eventParam - The pointer to a structure of type CYBLE_CONN_HANDLE_T.
 590:Generated_Source\PSoC4/BLE_hts.c **** * 
 591:Generated_Source\PSoC4/BLE_hts.c **** ******************************************************************************/
 592:Generated_Source\PSoC4/BLE_hts.c **** void CyBle_HtssConfirmationEventHandler(const CYBLE_CONN_HANDLE_T *eventParam)
 593:Generated_Source\PSoC4/BLE_hts.c **** {
 1394              		.loc 1 593 0
ARM GAS  C:\Users\User\AppData\Local\Temp\ccmH1EJa.s 			page 36


 1395              		.cfi_startproc
 1396              		@ args = 0, pretend = 0, frame = 24
 1397              		@ frame_needed = 1, uses_anonymous_args = 0
 1398 0000 80B5     		push	{r7, lr}
 1399              		.cfi_def_cfa_offset 8
 1400              		.cfi_offset 7, -8
 1401              		.cfi_offset 14, -4
 1402 0002 86B0     		sub	sp, sp, #24
 1403              		.cfi_def_cfa_offset 32
 1404 0004 00AF     		add	r7, sp, #0
 1405              		.cfi_def_cfa_register 7
 1406 0006 7860     		str	r0, [r7, #4]
 594:Generated_Source\PSoC4/BLE_hts.c ****     CYBLE_HTS_CHAR_INDEX_T locCharIndex;
 595:Generated_Source\PSoC4/BLE_hts.c ****     CYBLE_HTS_CHAR_VALUE_T locCharValue;
 596:Generated_Source\PSoC4/BLE_hts.c ****     uint8 locReqHandle = 0u;
 1407              		.loc 1 596 0
 1408 0008 1623     		movs	r3, #22
 1409 000a FB18     		adds	r3, r7, r3
 1410 000c 0022     		movs	r2, #0
 1411 000e 1A70     		strb	r2, [r3]
 597:Generated_Source\PSoC4/BLE_hts.c **** 
 598:Generated_Source\PSoC4/BLE_hts.c ****     if((NULL != CyBle_HtsApplCallback) && (CYBLE_GATT_INVALID_ATTR_HANDLE_VALUE != cyBle_htssReqHan
 1412              		.loc 1 598 0
 1413 0010 2D4B     		ldr	r3, .L78
 1414 0012 1B68     		ldr	r3, [r3]
 1415 0014 002B     		cmp	r3, #0
 1416 0016 52D0     		beq	.L77
 1417              		.loc 1 598 0 is_stmt 0 discriminator 1
 1418 0018 2C4B     		ldr	r3, .L78+4
 1419 001a 1B88     		ldrh	r3, [r3]
 1420 001c 002B     		cmp	r3, #0
 1421 001e 4ED0     		beq	.L77
 599:Generated_Source\PSoC4/BLE_hts.c ****     {
 600:Generated_Source\PSoC4/BLE_hts.c ****         for(locCharIndex = CYBLE_HTS_TEMP_MEASURE; (locCharIndex < CYBLE_HTS_CHAR_COUNT) && (locReq
 1422              		.loc 1 600 0 is_stmt 1
 1423 0020 1723     		movs	r3, #23
 1424 0022 FB18     		adds	r3, r7, r3
 1425 0024 0022     		movs	r2, #0
 1426 0026 1A70     		strb	r2, [r3]
 1427 0028 3FE0     		b	.L74
 1428              	.L76:
 601:Generated_Source\PSoC4/BLE_hts.c ****             locCharIndex++)
 602:Generated_Source\PSoC4/BLE_hts.c ****         {
 603:Generated_Source\PSoC4/BLE_hts.c ****             if(cyBle_htssReqHandle == cyBle_htss.charInfo[locCharIndex].charHandle)
 1429              		.loc 1 603 0
 1430 002a 1723     		movs	r3, #23
 1431 002c FB18     		adds	r3, r7, r3
 1432 002e 1A78     		ldrb	r2, [r3]
 1433 0030 2749     		ldr	r1, .L78+8
 1434 0032 1300     		movs	r3, r2
 1435 0034 5B00     		lsls	r3, r3, #1
 1436 0036 9B18     		adds	r3, r3, r2
 1437 0038 5B00     		lsls	r3, r3, #1
 1438 003a CB18     		adds	r3, r1, r3
 1439 003c 0233     		adds	r3, r3, #2
 1440 003e 1A88     		ldrh	r2, [r3]
 1441 0040 224B     		ldr	r3, .L78+4
ARM GAS  C:\Users\User\AppData\Local\Temp\ccmH1EJa.s 			page 37


 1442 0042 1B88     		ldrh	r3, [r3]
 1443 0044 9A42     		cmp	r2, r3
 1444 0046 29D1     		bne	.L75
 604:Generated_Source\PSoC4/BLE_hts.c ****             {
 605:Generated_Source\PSoC4/BLE_hts.c ****                 locCharValue.connHandle = *eventParam;
 1445              		.loc 1 605 0
 1446 0048 0C23     		movs	r3, #12
 1447 004a FA18     		adds	r2, r7, r3
 1448 004c 7B68     		ldr	r3, [r7, #4]
 1449 004e 1000     		movs	r0, r2
 1450 0050 1900     		movs	r1, r3
 1451 0052 0223     		movs	r3, #2
 1452 0054 1A00     		movs	r2, r3
 1453 0056 FFF7FEFF 		bl	memcpy
 606:Generated_Source\PSoC4/BLE_hts.c ****                 locCharValue.charIndex = locCharIndex;
 1454              		.loc 1 606 0
 1455 005a 0C23     		movs	r3, #12
 1456 005c FB18     		adds	r3, r7, r3
 1457 005e 1722     		movs	r2, #23
 1458 0060 BA18     		adds	r2, r7, r2
 1459 0062 1278     		ldrb	r2, [r2]
 1460 0064 9A70     		strb	r2, [r3, #2]
 607:Generated_Source\PSoC4/BLE_hts.c ****                 locCharValue.value = NULL;
 1461              		.loc 1 607 0
 1462 0066 0C23     		movs	r3, #12
 1463 0068 FB18     		adds	r3, r7, r3
 1464 006a 0022     		movs	r2, #0
 1465 006c 5A60     		str	r2, [r3, #4]
 608:Generated_Source\PSoC4/BLE_hts.c ****                 cyBle_eventHandlerFlag &= (uint8)~CYBLE_CALLBACK;
 1466              		.loc 1 608 0
 1467 006e 194B     		ldr	r3, .L78+12
 1468 0070 1B78     		ldrb	r3, [r3]
 1469 0072 DBB2     		uxtb	r3, r3
 1470 0074 0122     		movs	r2, #1
 1471 0076 9343     		bics	r3, r2
 1472 0078 DAB2     		uxtb	r2, r3
 1473 007a 164B     		ldr	r3, .L78+12
 1474 007c 1A70     		strb	r2, [r3]
 609:Generated_Source\PSoC4/BLE_hts.c ****                 cyBle_htssReqHandle = CYBLE_GATT_INVALID_ATTR_HANDLE_VALUE;
 1475              		.loc 1 609 0
 1476 007e 134B     		ldr	r3, .L78+4
 1477 0080 0022     		movs	r2, #0
 1478 0082 1A80     		strh	r2, [r3]
 610:Generated_Source\PSoC4/BLE_hts.c ****                 CyBle_HtsApplCallback((uint32)CYBLE_EVT_HTSS_INDICATION_CONFIRMED, &locCharValue);
 1479              		.loc 1 610 0
 1480 0084 104B     		ldr	r3, .L78
 1481 0086 1B68     		ldr	r3, [r3]
 1482 0088 0C22     		movs	r2, #12
 1483 008a B918     		adds	r1, r7, r2
 1484 008c B622     		movs	r2, #182
 1485 008e FF32     		adds	r2, r2, #255
 1486 0090 1000     		movs	r0, r2
 1487 0092 9847     		blx	r3
 611:Generated_Source\PSoC4/BLE_hts.c ****                 locReqHandle = 1u;
 1488              		.loc 1 611 0
 1489 0094 1623     		movs	r3, #22
 1490 0096 FB18     		adds	r3, r7, r3
ARM GAS  C:\Users\User\AppData\Local\Temp\ccmH1EJa.s 			page 38


 1491 0098 0122     		movs	r2, #1
 1492 009a 1A70     		strb	r2, [r3]
 1493              	.L75:
 601:Generated_Source\PSoC4/BLE_hts.c ****         {
 1494              		.loc 1 601 0
 1495 009c 1723     		movs	r3, #23
 1496 009e FB18     		adds	r3, r7, r3
 1497 00a0 1A78     		ldrb	r2, [r3]
 1498 00a2 1723     		movs	r3, #23
 1499 00a4 FB18     		adds	r3, r7, r3
 1500 00a6 0132     		adds	r2, r2, #1
 1501 00a8 1A70     		strb	r2, [r3]
 1502              	.L74:
 600:Generated_Source\PSoC4/BLE_hts.c ****             locCharIndex++)
 1503              		.loc 1 600 0 discriminator 1
 1504 00aa 1723     		movs	r3, #23
 1505 00ac FB18     		adds	r3, r7, r3
 1506 00ae 1B78     		ldrb	r3, [r3]
 1507 00b0 032B     		cmp	r3, #3
 1508 00b2 04D8     		bhi	.L77
 600:Generated_Source\PSoC4/BLE_hts.c ****             locCharIndex++)
 1509              		.loc 1 600 0 is_stmt 0 discriminator 2
 1510 00b4 1623     		movs	r3, #22
 1511 00b6 FB18     		adds	r3, r7, r3
 1512 00b8 1B78     		ldrb	r3, [r3]
 1513 00ba 002B     		cmp	r3, #0
 1514 00bc B5D0     		beq	.L76
 1515              	.L77:
 612:Generated_Source\PSoC4/BLE_hts.c ****             }
 613:Generated_Source\PSoC4/BLE_hts.c ****         }
 614:Generated_Source\PSoC4/BLE_hts.c ****     }
 615:Generated_Source\PSoC4/BLE_hts.c **** }
 1516              		.loc 1 615 0 is_stmt 1
 1517 00be C046     		nop
 1518 00c0 BD46     		mov	sp, r7
 1519 00c2 06B0     		add	sp, sp, #24
 1520              		@ sp needed
 1521 00c4 80BD     		pop	{r7, pc}
 1522              	.L79:
 1523 00c6 C046     		.align	2
 1524              	.L78:
 1525 00c8 00000000 		.word	CyBle_HtsApplCallback
 1526 00cc 04000000 		.word	cyBle_htssReqHandle
 1527 00d0 00000000 		.word	cyBle_htss
 1528 00d4 00000000 		.word	cyBle_eventHandlerFlag
 1529              		.cfi_endproc
 1530              	.LFE11:
 1531              		.size	CyBle_HtssConfirmationEventHandler, .-CyBle_HtssConfirmationEventHandler
 1532              		.section	.text.CyBle_HtscDiscoverCharacteristicsEventHandler,"ax",%progbits
 1533              		.align	2
 1534              		.global	CyBle_HtscDiscoverCharacteristicsEventHandler
 1535              		.code	16
 1536              		.thumb_func
 1537              		.type	CyBle_HtscDiscoverCharacteristicsEventHandler, %function
 1538              	CyBle_HtscDiscoverCharacteristicsEventHandler:
 1539              	.LFB12:
 616:Generated_Source\PSoC4/BLE_hts.c **** 
ARM GAS  C:\Users\User\AppData\Local\Temp\ccmH1EJa.s 			page 39


 617:Generated_Source\PSoC4/BLE_hts.c **** 
 618:Generated_Source\PSoC4/BLE_hts.c **** #endif /* CYBLE_HTS_SERVER */
 619:Generated_Source\PSoC4/BLE_hts.c **** 
 620:Generated_Source\PSoC4/BLE_hts.c **** #ifdef CYBLE_HTS_CLIENT
 621:Generated_Source\PSoC4/BLE_hts.c **** 
 622:Generated_Source\PSoC4/BLE_hts.c **** 
 623:Generated_Source\PSoC4/BLE_hts.c **** /******************************************************************************
 624:Generated_Source\PSoC4/BLE_hts.c **** * Function Name: CyBle_HtscDiscoverCharacteristicsEventHandler
 625:Generated_Source\PSoC4/BLE_hts.c **** ***************************************************************************//**
 626:Generated_Source\PSoC4/BLE_hts.c **** * 
 627:Generated_Source\PSoC4/BLE_hts.c **** *  This function is called on receiving a CYBLE_EVT_GATTC_READ_BY_TYPE_RSP
 628:Generated_Source\PSoC4/BLE_hts.c **** *  event. Based on the service UUID, an appropriate data structure is populated
 629:Generated_Source\PSoC4/BLE_hts.c **** *  using the data received as part of the callback.
 630:Generated_Source\PSoC4/BLE_hts.c **** * 
 631:Generated_Source\PSoC4/BLE_hts.c **** *  \param discCharInfo: The pointer to a characteristic information structure.
 632:Generated_Source\PSoC4/BLE_hts.c **** * 
 633:Generated_Source\PSoC4/BLE_hts.c **** ******************************************************************************/
 634:Generated_Source\PSoC4/BLE_hts.c **** void CyBle_HtscDiscoverCharacteristicsEventHandler(CYBLE_DISC_CHAR_INFO_T *discCharInfo)
 635:Generated_Source\PSoC4/BLE_hts.c **** {
 1540              		.loc 1 635 0
 1541              		.cfi_startproc
 1542              		@ args = 0, pretend = 0, frame = 16
 1543              		@ frame_needed = 1, uses_anonymous_args = 0
 1544 0000 80B5     		push	{r7, lr}
 1545              		.cfi_def_cfa_offset 8
 1546              		.cfi_offset 7, -8
 1547              		.cfi_offset 14, -4
 1548 0002 84B0     		sub	sp, sp, #16
 1549              		.cfi_def_cfa_offset 24
 1550 0004 00AF     		add	r7, sp, #0
 1551              		.cfi_def_cfa_register 7
 1552 0006 7860     		str	r0, [r7, #4]
 636:Generated_Source\PSoC4/BLE_hts.c ****     /* HTS characteristics UUIDs */
 637:Generated_Source\PSoC4/BLE_hts.c ****     static const CYBLE_UUID16 cyBle_htscCharUuid[CYBLE_HTS_CHAR_COUNT] =
 638:Generated_Source\PSoC4/BLE_hts.c ****     {
 639:Generated_Source\PSoC4/BLE_hts.c ****         CYBLE_UUID_CHAR_TEMPERATURE_MSMNT,
 640:Generated_Source\PSoC4/BLE_hts.c ****         CYBLE_UUID_CHAR_TEMPERATURE_TYPE,
 641:Generated_Source\PSoC4/BLE_hts.c ****         CYBLE_UUID_CHAR_INTERMEDIATE_TEMP,
 642:Generated_Source\PSoC4/BLE_hts.c ****         CYBLE_UUID_CHAR_MSMNT_INTERVAL    
 643:Generated_Source\PSoC4/BLE_hts.c ****     };
 644:Generated_Source\PSoC4/BLE_hts.c ****     uint8 i;
 645:Generated_Source\PSoC4/BLE_hts.c ****     static CYBLE_GATT_DB_ATTR_HANDLE_T *htsLastEndHandle = NULL;
 646:Generated_Source\PSoC4/BLE_hts.c **** 
 647:Generated_Source\PSoC4/BLE_hts.c ****     /* Update last characteristic endHandle to declaration handle of this characteristic */ 
 648:Generated_Source\PSoC4/BLE_hts.c ****     if(htsLastEndHandle != NULL)
 1553              		.loc 1 648 0
 1554 0008 3E4B     		ldr	r3, .L90
 1555 000a 1B68     		ldr	r3, [r3]
 1556 000c 002B     		cmp	r3, #0
 1557 000e 09D0     		beq	.L81
 649:Generated_Source\PSoC4/BLE_hts.c ****     {
 650:Generated_Source\PSoC4/BLE_hts.c ****         *htsLastEndHandle = discCharInfo->charDeclHandle - 1u;
 1558              		.loc 1 650 0
 1559 0010 3C4B     		ldr	r3, .L90
 1560 0012 1B68     		ldr	r3, [r3]
 1561 0014 7A68     		ldr	r2, [r7, #4]
 1562 0016 1288     		ldrh	r2, [r2]
ARM GAS  C:\Users\User\AppData\Local\Temp\ccmH1EJa.s 			page 40


 1563 0018 013A     		subs	r2, r2, #1
 1564 001a 92B2     		uxth	r2, r2
 1565 001c 1A80     		strh	r2, [r3]
 651:Generated_Source\PSoC4/BLE_hts.c ****         htsLastEndHandle = NULL;
 1566              		.loc 1 651 0
 1567 001e 394B     		ldr	r3, .L90
 1568 0020 0022     		movs	r2, #0
 1569 0022 1A60     		str	r2, [r3]
 1570              	.L81:
 652:Generated_Source\PSoC4/BLE_hts.c ****     }
 653:Generated_Source\PSoC4/BLE_hts.c **** 
 654:Generated_Source\PSoC4/BLE_hts.c ****     for(i = (uint8) CYBLE_HTS_TEMP_MEASURE; i < (uint8) CYBLE_HTS_CHAR_COUNT; i++)
 1571              		.loc 1 654 0
 1572 0024 0F23     		movs	r3, #15
 1573 0026 FB18     		adds	r3, r7, r3
 1574 0028 0022     		movs	r2, #0
 1575 002a 1A70     		strb	r2, [r3]
 1576 002c 4FE0     		b	.L82
 1577              	.L87:
 655:Generated_Source\PSoC4/BLE_hts.c ****     {
 656:Generated_Source\PSoC4/BLE_hts.c ****         if(cyBle_htscCharUuid[i] == discCharInfo->uuid.uuid16)
 1578              		.loc 1 656 0
 1579 002e 0F23     		movs	r3, #15
 1580 0030 FB18     		adds	r3, r7, r3
 1581 0032 1A78     		ldrb	r2, [r3]
 1582 0034 344B     		ldr	r3, .L90+4
 1583 0036 5200     		lsls	r2, r2, #1
 1584 0038 D25A     		ldrh	r2, [r2, r3]
 1585 003a 7B68     		ldr	r3, [r7, #4]
 1586 003c DB88     		ldrh	r3, [r3, #6]
 1587 003e 9A42     		cmp	r2, r3
 1588 0040 3ED1     		bne	.L83
 657:Generated_Source\PSoC4/BLE_hts.c ****         {
 658:Generated_Source\PSoC4/BLE_hts.c ****             CyBle_CheckStoreCharHandle(cyBle_htsc.charInfo[i]);
 1589              		.loc 1 658 0
 1590 0042 0F23     		movs	r3, #15
 1591 0044 FB18     		adds	r3, r7, r3
 1592 0046 1A78     		ldrb	r2, [r3]
 1593 0048 3049     		ldr	r1, .L90+8
 1594 004a 1300     		movs	r3, r2
 1595 004c 9B00     		lsls	r3, r3, #2
 1596 004e 9B18     		adds	r3, r3, r2
 1597 0050 5B00     		lsls	r3, r3, #1
 1598 0052 CB18     		adds	r3, r1, r3
 1599 0054 0433     		adds	r3, r3, #4
 1600 0056 1B88     		ldrh	r3, [r3]
 1601 0058 002B     		cmp	r3, #0
 1602 005a 1CD1     		bne	.L84
 1603              		.loc 1 658 0 is_stmt 0 discriminator 1
 1604 005c 0F23     		movs	r3, #15
 1605 005e FB18     		adds	r3, r7, r3
 1606 0060 1A78     		ldrb	r2, [r3]
 1607 0062 7B68     		ldr	r3, [r7, #4]
 1608 0064 9888     		ldrh	r0, [r3, #4]
 1609 0066 2949     		ldr	r1, .L90+8
 1610 0068 1300     		movs	r3, r2
 1611 006a 9B00     		lsls	r3, r3, #2
ARM GAS  C:\Users\User\AppData\Local\Temp\ccmH1EJa.s 			page 41


 1612 006c 9B18     		adds	r3, r3, r2
 1613 006e 5B00     		lsls	r3, r3, #1
 1614 0070 CB18     		adds	r3, r1, r3
 1615 0072 0433     		adds	r3, r3, #4
 1616 0074 021C     		adds	r2, r0, #0
 1617 0076 1A80     		strh	r2, [r3]
 1618 0078 0F23     		movs	r3, #15
 1619 007a FB18     		adds	r3, r7, r3
 1620 007c 1A78     		ldrb	r2, [r3]
 1621 007e 7B68     		ldr	r3, [r7, #4]
 1622 0080 9878     		ldrb	r0, [r3, #2]
 1623 0082 2249     		ldr	r1, .L90+8
 1624 0084 1300     		movs	r3, r2
 1625 0086 9B00     		lsls	r3, r3, #2
 1626 0088 9B18     		adds	r3, r3, r2
 1627 008a 5B00     		lsls	r3, r3, #1
 1628 008c CB18     		adds	r3, r1, r3
 1629 008e 0833     		adds	r3, r3, #8
 1630 0090 021C     		adds	r2, r0, #0
 1631 0092 1A70     		strb	r2, [r3]
 1632 0094 07E0     		b	.L85
 1633              	.L84:
 1634              		.loc 1 658 0 discriminator 2
 1635 0096 1E4B     		ldr	r3, .L90+12
 1636 0098 1B68     		ldr	r3, [r3]
 1637 009a 7A68     		ldr	r2, [r7, #4]
 1638 009c 911D     		adds	r1, r2, #6
 1639 009e 8622     		movs	r2, #134
 1640 00a0 5200     		lsls	r2, r2, #1
 1641 00a2 1000     		movs	r0, r2
 1642 00a4 9847     		blx	r3
 1643              	.L85:
 659:Generated_Source\PSoC4/BLE_hts.c ****             htsLastEndHandle = &cyBle_htsc.charInfo[i].endHandle;
 1644              		.loc 1 659 0 is_stmt 1
 1645 00a6 0F23     		movs	r3, #15
 1646 00a8 FB18     		adds	r3, r7, r3
 1647 00aa 1A78     		ldrb	r2, [r3]
 1648 00ac 1300     		movs	r3, r2
 1649 00ae 9B00     		lsls	r3, r3, #2
 1650 00b0 9B18     		adds	r3, r3, r2
 1651 00b2 5B00     		lsls	r3, r3, #1
 1652 00b4 154A     		ldr	r2, .L90+8
 1653 00b6 9B18     		adds	r3, r3, r2
 1654 00b8 9A1D     		adds	r2, r3, #6
 1655 00ba 124B     		ldr	r3, .L90
 1656 00bc 1A60     		str	r2, [r3]
 660:Generated_Source\PSoC4/BLE_hts.c ****             break;
 1657              		.loc 1 660 0
 1658 00be 0BE0     		b	.L86
 1659              	.L83:
 654:Generated_Source\PSoC4/BLE_hts.c ****     {
 1660              		.loc 1 654 0 discriminator 2
 1661 00c0 0F23     		movs	r3, #15
 1662 00c2 FB18     		adds	r3, r7, r3
 1663 00c4 1A78     		ldrb	r2, [r3]
 1664 00c6 0F23     		movs	r3, #15
 1665 00c8 FB18     		adds	r3, r7, r3
ARM GAS  C:\Users\User\AppData\Local\Temp\ccmH1EJa.s 			page 42


 1666 00ca 0132     		adds	r2, r2, #1
 1667 00cc 1A70     		strb	r2, [r3]
 1668              	.L82:
 654:Generated_Source\PSoC4/BLE_hts.c ****     {
 1669              		.loc 1 654 0 is_stmt 0 discriminator 1
 1670 00ce 0F23     		movs	r3, #15
 1671 00d0 FB18     		adds	r3, r7, r3
 1672 00d2 1B78     		ldrb	r3, [r3]
 1673 00d4 032B     		cmp	r3, #3
 1674 00d6 AAD9     		bls	.L87
 1675              	.L86:
 661:Generated_Source\PSoC4/BLE_hts.c ****         }
 662:Generated_Source\PSoC4/BLE_hts.c ****     }
 663:Generated_Source\PSoC4/BLE_hts.c ****     
 664:Generated_Source\PSoC4/BLE_hts.c ****     /* Init characteristic endHandle to the Service endHandle.
 665:Generated_Source\PSoC4/BLE_hts.c ****        Characteristic endHandle will be updated to declaration
 666:Generated_Source\PSoC4/BLE_hts.c ****        handler of the following characteristic,
 667:Generated_Source\PSoC4/BLE_hts.c ****        in the following characteristic discovery procedure. */
 668:Generated_Source\PSoC4/BLE_hts.c ****     if(htsLastEndHandle != NULL)
 1676              		.loc 1 668 0 is_stmt 1
 1677 00d8 0A4B     		ldr	r3, .L90
 1678 00da 1B68     		ldr	r3, [r3]
 1679 00dc 002B     		cmp	r3, #0
 1680 00de 0DD0     		beq	.L89
 669:Generated_Source\PSoC4/BLE_hts.c ****     {
 670:Generated_Source\PSoC4/BLE_hts.c ****         *htsLastEndHandle = cyBle_serverInfo[cyBle_disCount].range.endHandle;
 1681              		.loc 1 670 0
 1682 00e0 084B     		ldr	r3, .L90
 1683 00e2 1A68     		ldr	r2, [r3]
 1684 00e4 0B4B     		ldr	r3, .L90+16
 1685 00e6 1B78     		ldrb	r3, [r3]
 1686 00e8 1800     		movs	r0, r3
 1687 00ea 0B49     		ldr	r1, .L90+20
 1688 00ec 0300     		movs	r3, r0
 1689 00ee 5B00     		lsls	r3, r3, #1
 1690 00f0 1B18     		adds	r3, r3, r0
 1691 00f2 5B00     		lsls	r3, r3, #1
 1692 00f4 CB18     		adds	r3, r1, r3
 1693 00f6 0233     		adds	r3, r3, #2
 1694 00f8 1B88     		ldrh	r3, [r3]
 1695 00fa 1380     		strh	r3, [r2]
 1696              	.L89:
 671:Generated_Source\PSoC4/BLE_hts.c ****     }    
 672:Generated_Source\PSoC4/BLE_hts.c ****     
 673:Generated_Source\PSoC4/BLE_hts.c **** }
 1697              		.loc 1 673 0
 1698 00fc C046     		nop
 1699 00fe BD46     		mov	sp, r7
 1700 0100 04B0     		add	sp, sp, #16
 1701              		@ sp needed
 1702 0102 80BD     		pop	{r7, pc}
 1703              	.L91:
 1704              		.align	2
 1705              	.L90:
 1706 0104 08000000 		.word	htsLastEndHandle.6943
 1707 0108 1C000000 		.word	cyBle_htscCharUuid.6941
 1708 010c 00000000 		.word	cyBle_htsc
ARM GAS  C:\Users\User\AppData\Local\Temp\ccmH1EJa.s 			page 43


 1709 0110 00000000 		.word	CyBle_ApplCallback
 1710 0114 00000000 		.word	cyBle_disCount
 1711 0118 00000000 		.word	cyBle_serverInfo
 1712              		.cfi_endproc
 1713              	.LFE12:
 1714              		.size	CyBle_HtscDiscoverCharacteristicsEventHandler, .-CyBle_HtscDiscoverCharacteristicsEventHandl
 1715              		.section	.text.CyBle_HtscDiscoverCharDescriptorsEventHandler,"ax",%progbits
 1716              		.align	2
 1717              		.global	CyBle_HtscDiscoverCharDescriptorsEventHandler
 1718              		.code	16
 1719              		.thumb_func
 1720              		.type	CyBle_HtscDiscoverCharDescriptorsEventHandler, %function
 1721              	CyBle_HtscDiscoverCharDescriptorsEventHandler:
 1722              	.LFB13:
 674:Generated_Source\PSoC4/BLE_hts.c **** 
 675:Generated_Source\PSoC4/BLE_hts.c **** 
 676:Generated_Source\PSoC4/BLE_hts.c **** /******************************************************************************
 677:Generated_Source\PSoC4/BLE_hts.c **** * Function Name: CyBle_HtscDiscoverCharDescriptorsEventHandler
 678:Generated_Source\PSoC4/BLE_hts.c **** ***************************************************************************//**
 679:Generated_Source\PSoC4/BLE_hts.c **** * 
 680:Generated_Source\PSoC4/BLE_hts.c **** *  This function is called on receiving a CYBLE_EVT_GATTC_FIND_INFO_RSP event.
 681:Generated_Source\PSoC4/BLE_hts.c **** *  Based on the descriptor UUID, an appropriate data structure is populated 
 682:Generated_Source\PSoC4/BLE_hts.c **** *  using the data received as part of the callback.
 683:Generated_Source\PSoC4/BLE_hts.c **** * 
 684:Generated_Source\PSoC4/BLE_hts.c **** *  \param discoveryCharIndex: The characteristic index which is discovered.
 685:Generated_Source\PSoC4/BLE_hts.c **** *  \param discDescrInfo:      The pointer to a descriptor information structure.
 686:Generated_Source\PSoC4/BLE_hts.c **** * 
 687:Generated_Source\PSoC4/BLE_hts.c **** ******************************************************************************/
 688:Generated_Source\PSoC4/BLE_hts.c **** void CyBle_HtscDiscoverCharDescriptorsEventHandler(CYBLE_HTS_CHAR_INDEX_T discoveryCharIndex, 
 689:Generated_Source\PSoC4/BLE_hts.c ****                                                    CYBLE_DISC_DESCR_INFO_T *discDescrInfo)
 690:Generated_Source\PSoC4/BLE_hts.c **** {
 1723              		.loc 1 690 0
 1724              		.cfi_startproc
 1725              		@ args = 0, pretend = 0, frame = 16
 1726              		@ frame_needed = 1, uses_anonymous_args = 0
 1727 0000 90B5     		push	{r4, r7, lr}
 1728              		.cfi_def_cfa_offset 12
 1729              		.cfi_offset 4, -12
 1730              		.cfi_offset 7, -8
 1731              		.cfi_offset 14, -4
 1732 0002 85B0     		sub	sp, sp, #20
 1733              		.cfi_def_cfa_offset 32
 1734 0004 00AF     		add	r7, sp, #0
 1735              		.cfi_def_cfa_register 7
 1736 0006 0200     		movs	r2, r0
 1737 0008 3960     		str	r1, [r7]
 1738 000a FB1D     		adds	r3, r7, #7
 1739 000c 1A70     		strb	r2, [r3]
 691:Generated_Source\PSoC4/BLE_hts.c ****     CYBLE_HTS_DESCR_INDEX_T locDescIndex;
 692:Generated_Source\PSoC4/BLE_hts.c **** 
 693:Generated_Source\PSoC4/BLE_hts.c ****     if(discDescrInfo->uuid.uuid16 == CYBLE_UUID_CHAR_CLIENT_CONFIG)
 1740              		.loc 1 693 0
 1741 000e 3B68     		ldr	r3, [r7]
 1742 0010 9B88     		ldrh	r3, [r3, #4]
 1743 0012 224A     		ldr	r2, .L99
 1744 0014 9342     		cmp	r3, r2
 1745 0016 04D1     		bne	.L93
ARM GAS  C:\Users\User\AppData\Local\Temp\ccmH1EJa.s 			page 44


 694:Generated_Source\PSoC4/BLE_hts.c ****     {
 695:Generated_Source\PSoC4/BLE_hts.c ****         locDescIndex = CYBLE_HTS_CCCD;
 1746              		.loc 1 695 0
 1747 0018 0F23     		movs	r3, #15
 1748 001a FB18     		adds	r3, r7, r3
 1749 001c 0022     		movs	r2, #0
 1750 001e 1A70     		strb	r2, [r3]
 1751 0020 0DE0     		b	.L94
 1752              	.L93:
 696:Generated_Source\PSoC4/BLE_hts.c ****     }
 697:Generated_Source\PSoC4/BLE_hts.c ****     else if(discDescrInfo->uuid.uuid16 == CYBLE_UUID_CHAR_VALID_RANGE)
 1753              		.loc 1 697 0
 1754 0022 3B68     		ldr	r3, [r7]
 1755 0024 9B88     		ldrh	r3, [r3, #4]
 1756 0026 1E4A     		ldr	r2, .L99+4
 1757 0028 9342     		cmp	r3, r2
 1758 002a 04D1     		bne	.L95
 698:Generated_Source\PSoC4/BLE_hts.c ****     {
 699:Generated_Source\PSoC4/BLE_hts.c ****         locDescIndex = CYBLE_HTS_VRD;
 1759              		.loc 1 699 0
 1760 002c 0F23     		movs	r3, #15
 1761 002e FB18     		adds	r3, r7, r3
 1762 0030 0122     		movs	r2, #1
 1763 0032 1A70     		strb	r2, [r3]
 1764 0034 03E0     		b	.L94
 1765              	.L95:
 700:Generated_Source\PSoC4/BLE_hts.c ****     }
 701:Generated_Source\PSoC4/BLE_hts.c ****     else    /* Not supported descriptor */
 702:Generated_Source\PSoC4/BLE_hts.c ****     {
 703:Generated_Source\PSoC4/BLE_hts.c ****         locDescIndex = CYBLE_HTS_DESCR_COUNT;
 1766              		.loc 1 703 0
 1767 0036 0F23     		movs	r3, #15
 1768 0038 FB18     		adds	r3, r7, r3
 1769 003a 0222     		movs	r2, #2
 1770 003c 1A70     		strb	r2, [r3]
 1771              	.L94:
 704:Generated_Source\PSoC4/BLE_hts.c ****     }
 705:Generated_Source\PSoC4/BLE_hts.c **** 
 706:Generated_Source\PSoC4/BLE_hts.c ****     if(locDescIndex < CYBLE_HTS_DESCR_COUNT)
 1772              		.loc 1 706 0
 1773 003e 0F23     		movs	r3, #15
 1774 0040 FB18     		adds	r3, r7, r3
 1775 0042 1B78     		ldrb	r3, [r3]
 1776 0044 012B     		cmp	r3, #1
 1777 0046 25D8     		bhi	.L98
 707:Generated_Source\PSoC4/BLE_hts.c ****     {
 708:Generated_Source\PSoC4/BLE_hts.c ****         if(cyBle_htsc.charInfo[discoveryCharIndex].descrHandle[locDescIndex] == CYBLE_GATT_INVALID_
 1778              		.loc 1 708 0
 1779 0048 FB1D     		adds	r3, r7, #7
 1780 004a 1A78     		ldrb	r2, [r3]
 1781 004c 0F23     		movs	r3, #15
 1782 004e FB18     		adds	r3, r7, r3
 1783 0050 1878     		ldrb	r0, [r3]
 1784 0052 1449     		ldr	r1, .L99+8
 1785 0054 1300     		movs	r3, r2
 1786 0056 9B00     		lsls	r3, r3, #2
 1787 0058 9B18     		adds	r3, r3, r2
ARM GAS  C:\Users\User\AppData\Local\Temp\ccmH1EJa.s 			page 45


 1788 005a 1B18     		adds	r3, r3, r0
 1789 005c 5B00     		lsls	r3, r3, #1
 1790 005e 5B5A     		ldrh	r3, [r3, r1]
 1791 0060 002B     		cmp	r3, #0
 1792 0062 0FD1     		bne	.L97
 709:Generated_Source\PSoC4/BLE_hts.c ****         {
 710:Generated_Source\PSoC4/BLE_hts.c ****             cyBle_htsc.charInfo[discoveryCharIndex].descrHandle[locDescIndex] = discDescrInfo->desc
 1793              		.loc 1 710 0
 1794 0064 FB1D     		adds	r3, r7, #7
 1795 0066 1A78     		ldrb	r2, [r3]
 1796 0068 0F23     		movs	r3, #15
 1797 006a FB18     		adds	r3, r7, r3
 1798 006c 1878     		ldrb	r0, [r3]
 1799 006e 3B68     		ldr	r3, [r7]
 1800 0070 5C88     		ldrh	r4, [r3, #2]
 1801 0072 0C49     		ldr	r1, .L99+8
 1802 0074 1300     		movs	r3, r2
 1803 0076 9B00     		lsls	r3, r3, #2
 1804 0078 9B18     		adds	r3, r3, r2
 1805 007a 1B18     		adds	r3, r3, r0
 1806 007c 5B00     		lsls	r3, r3, #1
 1807 007e 221C     		adds	r2, r4, #0
 1808 0080 5A52     		strh	r2, [r3, r1]
 711:Generated_Source\PSoC4/BLE_hts.c ****         }
 712:Generated_Source\PSoC4/BLE_hts.c ****         else    /* Duplication of descriptor */
 713:Generated_Source\PSoC4/BLE_hts.c ****         {
 714:Generated_Source\PSoC4/BLE_hts.c ****             CyBle_ApplCallback(CYBLE_EVT_GATTC_DESCR_DUPLICATION, &discDescrInfo->uuid);
 715:Generated_Source\PSoC4/BLE_hts.c ****         }
 716:Generated_Source\PSoC4/BLE_hts.c ****     }
 717:Generated_Source\PSoC4/BLE_hts.c **** }
 1809              		.loc 1 717 0
 1810 0082 07E0     		b	.L98
 1811              	.L97:
 714:Generated_Source\PSoC4/BLE_hts.c ****         }
 1812              		.loc 1 714 0
 1813 0084 084B     		ldr	r3, .L99+12
 1814 0086 1B68     		ldr	r3, [r3]
 1815 0088 3A68     		ldr	r2, [r7]
 1816 008a 111D     		adds	r1, r2, #4
 1817 008c 0E22     		movs	r2, #14
 1818 008e FF32     		adds	r2, r2, #255
 1819 0090 1000     		movs	r0, r2
 1820 0092 9847     		blx	r3
 1821              	.L98:
 1822              		.loc 1 717 0
 1823 0094 C046     		nop
 1824 0096 BD46     		mov	sp, r7
 1825 0098 05B0     		add	sp, sp, #20
 1826              		@ sp needed
 1827 009a 90BD     		pop	{r4, r7, pc}
 1828              	.L100:
 1829              		.align	2
 1830              	.L99:
 1831 009c 02290000 		.word	10498
 1832 00a0 06290000 		.word	10502
 1833 00a4 00000000 		.word	cyBle_htsc
 1834 00a8 00000000 		.word	CyBle_ApplCallback
ARM GAS  C:\Users\User\AppData\Local\Temp\ccmH1EJa.s 			page 46


 1835              		.cfi_endproc
 1836              	.LFE13:
 1837              		.size	CyBle_HtscDiscoverCharDescriptorsEventHandler, .-CyBle_HtscDiscoverCharDescriptorsEventHandl
 1838              		.section	.text.CyBle_HtscSetCharacteristicValue,"ax",%progbits
 1839              		.align	2
 1840              		.global	CyBle_HtscSetCharacteristicValue
 1841              		.code	16
 1842              		.thumb_func
 1843              		.type	CyBle_HtscSetCharacteristicValue, %function
 1844              	CyBle_HtscSetCharacteristicValue:
 1845              	.LFB14:
 718:Generated_Source\PSoC4/BLE_hts.c **** 
 719:Generated_Source\PSoC4/BLE_hts.c **** 
 720:Generated_Source\PSoC4/BLE_hts.c **** /******************************************************************************
 721:Generated_Source\PSoC4/BLE_hts.c **** * Function Name: CyBle_HtscSetCharacteristicValue
 722:Generated_Source\PSoC4/BLE_hts.c **** ***************************************************************************//**
 723:Generated_Source\PSoC4/BLE_hts.c **** * 
 724:Generated_Source\PSoC4/BLE_hts.c **** *  This function is used to write the characteristic (which is identified by
 725:Generated_Source\PSoC4/BLE_hts.c **** *  charIndex) value attribute in the server. As a result a Write Request is 
 726:Generated_Source\PSoC4/BLE_hts.c **** *  sent to the GATT Server and on successful execution of the request on the 
 727:Generated_Source\PSoC4/BLE_hts.c **** *  Server side the CYBLE_EVT_HTSS_CHAR_WRITE events is generated.
 728:Generated_Source\PSoC4/BLE_hts.c **** *  On successful request execution on the Server side the Write Response is 
 729:Generated_Source\PSoC4/BLE_hts.c **** *  sent to the Client.
 730:Generated_Source\PSoC4/BLE_hts.c **** * 
 731:Generated_Source\PSoC4/BLE_hts.c **** *  \param connHandle: The connection handle.
 732:Generated_Source\PSoC4/BLE_hts.c **** *  \param charIndex:  The index of the service characteristic.
 733:Generated_Source\PSoC4/BLE_hts.c **** *  \param attrSize:   The size of the characteristic value attribute.
 734:Generated_Source\PSoC4/BLE_hts.c **** *  \param attrValue:  The pointer to the characteristic value data that should  
 735:Generated_Source\PSoC4/BLE_hts.c **** *                     be sent to the server device.
 736:Generated_Source\PSoC4/BLE_hts.c **** * 
 737:Generated_Source\PSoC4/BLE_hts.c **** * \return
 738:Generated_Source\PSoC4/BLE_hts.c **** *  Return value is of type CYBLE_API_RESULT_T.
 739:Generated_Source\PSoC4/BLE_hts.c **** *  * CYBLE_ERROR_OK - The request was sent successfully.
 740:Generated_Source\PSoC4/BLE_hts.c **** *  * CYBLE_ERROR_INVALID_PARAMETER - Validation of the input parameters failed.
 741:Generated_Source\PSoC4/BLE_hts.c **** *  * CYBLE_ERROR_MEMORY_ALLOCATION_FAILED - Memory allocation failed.
 742:Generated_Source\PSoC4/BLE_hts.c **** *  * CYBLE_ERROR_INVALID_STATE - Connection with the server is not established.
 743:Generated_Source\PSoC4/BLE_hts.c **** *  * CYBLE_ERROR_GATT_DB_INVALID_ATTR_HANDLE - The peer device doesn't have
 744:Generated_Source\PSoC4/BLE_hts.c **** *                                              the particular characteristic.
 745:Generated_Source\PSoC4/BLE_hts.c **** *  * CYBLE_ERROR_INVALID_OPERATION - Operation is invalid for this
 746:Generated_Source\PSoC4/BLE_hts.c **** *                                    characteristic.
 747:Generated_Source\PSoC4/BLE_hts.c **** *
 748:Generated_Source\PSoC4/BLE_hts.c **** * \events
 749:Generated_Source\PSoC4/BLE_hts.c **** *  In case of successful execution (return value = CYBLE_ERROR_OK)
 750:Generated_Source\PSoC4/BLE_hts.c **** *  the next events can appear: \n
 751:Generated_Source\PSoC4/BLE_hts.c **** *   If the HTS service-specific callback is registered 
 752:Generated_Source\PSoC4/BLE_hts.c **** *      (with CyBle_HtsRegisterAttrCallback):
 753:Generated_Source\PSoC4/BLE_hts.c **** *  * CYBLE_EVT_HTSC_WRITE_CHAR_RESPONSE - In case if the requested attribute is
 754:Generated_Source\PSoC4/BLE_hts.c **** *                                successfully wrote on the peer device,
 755:Generated_Source\PSoC4/BLE_hts.c **** *                                the details (char index, etc.) are 
 756:Generated_Source\PSoC4/BLE_hts.c **** *                                provided with event parameter structure
 757:Generated_Source\PSoC4/BLE_hts.c **** *                                of type CYBLE_HTS_CHAR_VALUE_T.
 758:Generated_Source\PSoC4/BLE_hts.c **** *  .
 759:Generated_Source\PSoC4/BLE_hts.c **** *   Otherwise (if the HTS service-specific callback is not registered):
 760:Generated_Source\PSoC4/BLE_hts.c **** *  * CYBLE_EVT_GATTC_WRITE_RSP - In case if the requested attribute is 
 761:Generated_Source\PSoC4/BLE_hts.c **** *                                successfully wrote on the peer device.
 762:Generated_Source\PSoC4/BLE_hts.c **** *  * CYBLE_EVT_GATTC_ERROR_RSP - In case if there some trouble with the 
 763:Generated_Source\PSoC4/BLE_hts.c **** *                                requested attribute on the peer device,
ARM GAS  C:\Users\User\AppData\Local\Temp\ccmH1EJa.s 			page 47


 764:Generated_Source\PSoC4/BLE_hts.c **** *                                the details are provided with event parameters 
 765:Generated_Source\PSoC4/BLE_hts.c **** *                                structure (CYBLE_GATTC_ERR_RSP_PARAM_T).
 766:Generated_Source\PSoC4/BLE_hts.c **** *
 767:Generated_Source\PSoC4/BLE_hts.c **** ******************************************************************************/
 768:Generated_Source\PSoC4/BLE_hts.c **** CYBLE_API_RESULT_T CyBle_HtscSetCharacteristicValue(CYBLE_CONN_HANDLE_T connHandle, CYBLE_HTS_CHAR_
 769:Generated_Source\PSoC4/BLE_hts.c ****     uint8 attrSize, uint8 * attrValue)
 770:Generated_Source\PSoC4/BLE_hts.c **** {
 1846              		.loc 1 770 0
 1847              		.cfi_startproc
 1848              		@ args = 0, pretend = 0, frame = 32
 1849              		@ frame_needed = 1, uses_anonymous_args = 0
 1850 0000 90B5     		push	{r4, r7, lr}
 1851              		.cfi_def_cfa_offset 12
 1852              		.cfi_offset 4, -12
 1853              		.cfi_offset 7, -8
 1854              		.cfi_offset 14, -4
 1855 0002 89B0     		sub	sp, sp, #36
 1856              		.cfi_def_cfa_offset 48
 1857 0004 00AF     		add	r7, sp, #0
 1858              		.cfi_def_cfa_register 7
 1859 0006 0C24     		movs	r4, #12
 1860 0008 3C19     		adds	r4, r7, r4
 1861 000a 2080     		strh	r0, [r4]
 1862 000c 0800     		movs	r0, r1
 1863 000e 1100     		movs	r1, r2
 1864 0010 7B60     		str	r3, [r7, #4]
 1865 0012 0B23     		movs	r3, #11
 1866 0014 FB18     		adds	r3, r7, r3
 1867 0016 021C     		adds	r2, r0, #0
 1868 0018 1A70     		strb	r2, [r3]
 1869 001a 0A23     		movs	r3, #10
 1870 001c FB18     		adds	r3, r7, r3
 1871 001e 0A1C     		adds	r2, r1, #0
 1872 0020 1A70     		strb	r2, [r3]
 771:Generated_Source\PSoC4/BLE_hts.c ****     CYBLE_API_RESULT_T apiResult;
 772:Generated_Source\PSoC4/BLE_hts.c ****     CYBLE_GATT_HANDLE_VALUE_PAIR_T writeReqParam;
 773:Generated_Source\PSoC4/BLE_hts.c **** 
 774:Generated_Source\PSoC4/BLE_hts.c ****     if(CyBle_GetClientState() != CYBLE_CLIENT_STATE_DISCOVERED)
 1873              		.loc 1 774 0
 1874 0022 2E4B     		ldr	r3, .L108
 1875 0024 1B78     		ldrb	r3, [r3]
 1876 0026 052B     		cmp	r3, #5
 1877 0028 05D0     		beq	.L102
 775:Generated_Source\PSoC4/BLE_hts.c ****     {
 776:Generated_Source\PSoC4/BLE_hts.c ****         apiResult = CYBLE_ERROR_INVALID_STATE;
 1878              		.loc 1 776 0
 1879 002a 1E23     		movs	r3, #30
 1880 002c FB18     		adds	r3, r7, r3
 1881 002e 0422     		movs	r2, #4
 1882 0030 FF32     		adds	r2, r2, #255
 1883 0032 1A80     		strh	r2, [r3]
 1884 0034 4AE0     		b	.L103
 1885              	.L102:
 777:Generated_Source\PSoC4/BLE_hts.c ****     }
 778:Generated_Source\PSoC4/BLE_hts.c ****     else if(charIndex >= CYBLE_HTS_CHAR_COUNT)
 1886              		.loc 1 778 0
 1887 0036 0B23     		movs	r3, #11
ARM GAS  C:\Users\User\AppData\Local\Temp\ccmH1EJa.s 			page 48


 1888 0038 FB18     		adds	r3, r7, r3
 1889 003a 1B78     		ldrb	r3, [r3]
 1890 003c 032B     		cmp	r3, #3
 1891 003e 04D9     		bls	.L104
 779:Generated_Source\PSoC4/BLE_hts.c ****     {
 780:Generated_Source\PSoC4/BLE_hts.c ****         apiResult = CYBLE_ERROR_INVALID_PARAMETER;
 1892              		.loc 1 780 0
 1893 0040 1E23     		movs	r3, #30
 1894 0042 FB18     		adds	r3, r7, r3
 1895 0044 0122     		movs	r2, #1
 1896 0046 1A80     		strh	r2, [r3]
 1897 0048 40E0     		b	.L103
 1898              	.L104:
 781:Generated_Source\PSoC4/BLE_hts.c ****     }
 782:Generated_Source\PSoC4/BLE_hts.c ****     else if(cyBle_htsc.charInfo[charIndex].valueHandle != CYBLE_GATT_INVALID_ATTR_HANDLE_VALUE)
 1899              		.loc 1 782 0
 1900 004a 0B23     		movs	r3, #11
 1901 004c FB18     		adds	r3, r7, r3
 1902 004e 1A78     		ldrb	r2, [r3]
 1903 0050 2349     		ldr	r1, .L108+4
 1904 0052 1300     		movs	r3, r2
 1905 0054 9B00     		lsls	r3, r3, #2
 1906 0056 9B18     		adds	r3, r3, r2
 1907 0058 5B00     		lsls	r3, r3, #1
 1908 005a CB18     		adds	r3, r1, r3
 1909 005c 0433     		adds	r3, r3, #4
 1910 005e 1B88     		ldrh	r3, [r3]
 1911 0060 002B     		cmp	r3, #0
 1912 0062 2FD0     		beq	.L105
 783:Generated_Source\PSoC4/BLE_hts.c ****     {
 784:Generated_Source\PSoC4/BLE_hts.c ****         writeReqParam.attrHandle = cyBle_htsc.charInfo[charIndex].valueHandle;
 1913              		.loc 1 784 0
 1914 0064 0B23     		movs	r3, #11
 1915 0066 FB18     		adds	r3, r7, r3
 1916 0068 1A78     		ldrb	r2, [r3]
 1917 006a 1D49     		ldr	r1, .L108+4
 1918 006c 1300     		movs	r3, r2
 1919 006e 9B00     		lsls	r3, r3, #2
 1920 0070 9B18     		adds	r3, r3, r2
 1921 0072 5B00     		lsls	r3, r3, #1
 1922 0074 CB18     		adds	r3, r1, r3
 1923 0076 0433     		adds	r3, r3, #4
 1924 0078 1A88     		ldrh	r2, [r3]
 1925 007a 1023     		movs	r3, #16
 1926 007c FB18     		adds	r3, r7, r3
 1927 007e 1A81     		strh	r2, [r3, #8]
 785:Generated_Source\PSoC4/BLE_hts.c ****         writeReqParam.value.val = attrValue;
 1928              		.loc 1 785 0
 1929 0080 1023     		movs	r3, #16
 1930 0082 FB18     		adds	r3, r7, r3
 1931 0084 7A68     		ldr	r2, [r7, #4]
 1932 0086 1A60     		str	r2, [r3]
 786:Generated_Source\PSoC4/BLE_hts.c ****         writeReqParam.value.len = attrSize;
 1933              		.loc 1 786 0
 1934 0088 0A23     		movs	r3, #10
 1935 008a FB18     		adds	r3, r7, r3
 1936 008c 1B78     		ldrb	r3, [r3]
ARM GAS  C:\Users\User\AppData\Local\Temp\ccmH1EJa.s 			page 49


 1937 008e 9AB2     		uxth	r2, r3
 1938 0090 1023     		movs	r3, #16
 1939 0092 FB18     		adds	r3, r7, r3
 1940 0094 9A80     		strh	r2, [r3, #4]
 787:Generated_Source\PSoC4/BLE_hts.c **** 
 788:Generated_Source\PSoC4/BLE_hts.c ****         apiResult = CyBle_GattcWriteCharacteristicValue(connHandle, &writeReqParam);
 1941              		.loc 1 788 0
 1942 0096 1E23     		movs	r3, #30
 1943 0098 FC18     		adds	r4, r7, r3
 1944 009a 1023     		movs	r3, #16
 1945 009c FA18     		adds	r2, r7, r3
 1946 009e 0C23     		movs	r3, #12
 1947 00a0 FB18     		adds	r3, r7, r3
 1948 00a2 1100     		movs	r1, r2
 1949 00a4 1868     		ldr	r0, [r3]
 1950 00a6 FFF7FEFF 		bl	CyBle_GattcWriteCharacteristicValue
 1951 00aa 0300     		movs	r3, r0
 1952 00ac 2380     		strh	r3, [r4]
 789:Generated_Source\PSoC4/BLE_hts.c ****         /* Save handle to support service specific write response from device */
 790:Generated_Source\PSoC4/BLE_hts.c ****         if(apiResult == CYBLE_ERROR_OK)
 1953              		.loc 1 790 0
 1954 00ae 1E23     		movs	r3, #30
 1955 00b0 FB18     		adds	r3, r7, r3
 1956 00b2 1B88     		ldrh	r3, [r3]
 1957 00b4 002B     		cmp	r3, #0
 1958 00b6 09D1     		bne	.L103
 791:Generated_Source\PSoC4/BLE_hts.c ****         {
 792:Generated_Source\PSoC4/BLE_hts.c ****             cyBle_htscReqHandle = writeReqParam.attrHandle;
 1959              		.loc 1 792 0
 1960 00b8 1023     		movs	r3, #16
 1961 00ba FB18     		adds	r3, r7, r3
 1962 00bc 1A89     		ldrh	r2, [r3, #8]
 1963 00be 094B     		ldr	r3, .L108+8
 1964 00c0 1A80     		strh	r2, [r3]
 1965 00c2 03E0     		b	.L103
 1966              	.L105:
 793:Generated_Source\PSoC4/BLE_hts.c ****         }
 794:Generated_Source\PSoC4/BLE_hts.c ****     }
 795:Generated_Source\PSoC4/BLE_hts.c ****     else
 796:Generated_Source\PSoC4/BLE_hts.c ****     {
 797:Generated_Source\PSoC4/BLE_hts.c ****         apiResult = CYBLE_ERROR_GATT_DB_INVALID_ATTR_HANDLE;
 1967              		.loc 1 797 0
 1968 00c4 1E23     		movs	r3, #30
 1969 00c6 FB18     		adds	r3, r7, r3
 1970 00c8 1322     		movs	r2, #19
 1971 00ca 1A80     		strh	r2, [r3]
 1972              	.L103:
 798:Generated_Source\PSoC4/BLE_hts.c ****     }
 799:Generated_Source\PSoC4/BLE_hts.c ****     
 800:Generated_Source\PSoC4/BLE_hts.c ****     return (apiResult);
 1973              		.loc 1 800 0
 1974 00cc 1E23     		movs	r3, #30
 1975 00ce FB18     		adds	r3, r7, r3
 1976 00d0 1B88     		ldrh	r3, [r3]
 801:Generated_Source\PSoC4/BLE_hts.c **** }
 1977              		.loc 1 801 0
 1978 00d2 1800     		movs	r0, r3
ARM GAS  C:\Users\User\AppData\Local\Temp\ccmH1EJa.s 			page 50


 1979 00d4 BD46     		mov	sp, r7
 1980 00d6 09B0     		add	sp, sp, #36
 1981              		@ sp needed
 1982 00d8 90BD     		pop	{r4, r7, pc}
 1983              	.L109:
 1984 00da C046     		.align	2
 1985              	.L108:
 1986 00dc 00000000 		.word	cyBle_clientState
 1987 00e0 00000000 		.word	cyBle_htsc
 1988 00e4 06000000 		.word	cyBle_htscReqHandle
 1989              		.cfi_endproc
 1990              	.LFE14:
 1991              		.size	CyBle_HtscSetCharacteristicValue, .-CyBle_HtscSetCharacteristicValue
 1992              		.section	.text.CyBle_HtscGetCharacteristicValue,"ax",%progbits
 1993              		.align	2
 1994              		.global	CyBle_HtscGetCharacteristicValue
 1995              		.code	16
 1996              		.thumb_func
 1997              		.type	CyBle_HtscGetCharacteristicValue, %function
 1998              	CyBle_HtscGetCharacteristicValue:
 1999              	.LFB15:
 802:Generated_Source\PSoC4/BLE_hts.c **** 
 803:Generated_Source\PSoC4/BLE_hts.c **** 
 804:Generated_Source\PSoC4/BLE_hts.c **** /******************************************************************************
 805:Generated_Source\PSoC4/BLE_hts.c **** * Function Name: CyBle_HtscGetCharacteristicValue
 806:Generated_Source\PSoC4/BLE_hts.c **** ***************************************************************************//**
 807:Generated_Source\PSoC4/BLE_hts.c **** * 
 808:Generated_Source\PSoC4/BLE_hts.c **** *  This function is used to read a characteristic value, which is a value 
 809:Generated_Source\PSoC4/BLE_hts.c **** *  identified by charIndex, from the server.
 810:Generated_Source\PSoC4/BLE_hts.c **** * 
 811:Generated_Source\PSoC4/BLE_hts.c **** *  \param connHandle: The connection handle.
 812:Generated_Source\PSoC4/BLE_hts.c **** *  \param charIndex:  The index of the service characteristic.
 813:Generated_Source\PSoC4/BLE_hts.c **** * 
 814:Generated_Source\PSoC4/BLE_hts.c **** * \return
 815:Generated_Source\PSoC4/BLE_hts.c **** *  Return value is of type CYBLE_API_RESULT_T.
 816:Generated_Source\PSoC4/BLE_hts.c **** *  * CYBLE_ERROR_OK - The read request was sent successfully. 
 817:Generated_Source\PSoC4/BLE_hts.c **** *  * CYBLE_ERROR_INVALID_PARAMETER - Validation of the input parameters failed.
 818:Generated_Source\PSoC4/BLE_hts.c **** *  * CYBLE_ERROR_GATT_DB_INVALID_ATTR_HANDLE - The peer device doesn't have
 819:Generated_Source\PSoC4/BLE_hts.c **** *                                              the particular characteristic.
 820:Generated_Source\PSoC4/BLE_hts.c **** *  * CYBLE_ERROR_MEMORY_ALLOCATION_FAILED - Memory allocation failed.
 821:Generated_Source\PSoC4/BLE_hts.c **** *  * CYBLE_ERROR_INVALID_STATE - Connection with the server is not established.
 822:Generated_Source\PSoC4/BLE_hts.c **** *  * CYBLE_ERROR_INVALID_OPERATION - Operation is invalid for this 
 823:Generated_Source\PSoC4/BLE_hts.c **** *                                    characteristic.
 824:Generated_Source\PSoC4/BLE_hts.c **** *
 825:Generated_Source\PSoC4/BLE_hts.c **** * \events
 826:Generated_Source\PSoC4/BLE_hts.c **** *  In case of successful execution (return value = CYBLE_ERROR_OK)
 827:Generated_Source\PSoC4/BLE_hts.c **** *  the next events can appear: \n
 828:Generated_Source\PSoC4/BLE_hts.c **** *   If the HTS service-specific callback is registered 
 829:Generated_Source\PSoC4/BLE_hts.c **** *      (with CyBle_HtsRegisterAttrCallback):
 830:Generated_Source\PSoC4/BLE_hts.c **** *  * CYBLE_EVT_HTSC_READ_CHAR_RESPONSE - In case if the requested attribute is
 831:Generated_Source\PSoC4/BLE_hts.c **** *                                successfully wrote on the peer device,
 832:Generated_Source\PSoC4/BLE_hts.c **** *                                the details (char index , value, etc.) are 
 833:Generated_Source\PSoC4/BLE_hts.c **** *                                provided with event parameter structure
 834:Generated_Source\PSoC4/BLE_hts.c **** *                                of type CYBLE_HTS_CHAR_VALUE_T.
 835:Generated_Source\PSoC4/BLE_hts.c **** *  .
 836:Generated_Source\PSoC4/BLE_hts.c **** *   Otherwise (if the HTS service-specific callback is not registered):
 837:Generated_Source\PSoC4/BLE_hts.c **** *  * CYBLE_EVT_GATTC_READ_RSP - In case if the requested attribute is 
ARM GAS  C:\Users\User\AppData\Local\Temp\ccmH1EJa.s 			page 51


 838:Generated_Source\PSoC4/BLE_hts.c **** *                               successfully read on the peer device,
 839:Generated_Source\PSoC4/BLE_hts.c **** *                               the details (handle, value, etc.) are 
 840:Generated_Source\PSoC4/BLE_hts.c **** *                               provided with event parameters 
 841:Generated_Source\PSoC4/BLE_hts.c **** *                               structure (CYBLE_GATTC_READ_RSP_PARAM_T).
 842:Generated_Source\PSoC4/BLE_hts.c **** *  * CYBLE_EVT_GATTC_ERROR_RSP - In case if there some trouble with the 
 843:Generated_Source\PSoC4/BLE_hts.c **** *                                requested attribute on the peer device,
 844:Generated_Source\PSoC4/BLE_hts.c **** *                                the details are provided with event parameters 
 845:Generated_Source\PSoC4/BLE_hts.c **** *                                structure (CYBLE_GATTC_ERR_RSP_PARAM_T).
 846:Generated_Source\PSoC4/BLE_hts.c **** *
 847:Generated_Source\PSoC4/BLE_hts.c **** ******************************************************************************/
 848:Generated_Source\PSoC4/BLE_hts.c **** CYBLE_API_RESULT_T CyBle_HtscGetCharacteristicValue(CYBLE_CONN_HANDLE_T connHandle, CYBLE_HTS_CHAR_
 849:Generated_Source\PSoC4/BLE_hts.c **** {
 2000              		.loc 1 849 0
 2001              		.cfi_startproc
 2002              		@ args = 0, pretend = 0, frame = 16
 2003              		@ frame_needed = 1, uses_anonymous_args = 0
 2004 0000 90B5     		push	{r4, r7, lr}
 2005              		.cfi_def_cfa_offset 12
 2006              		.cfi_offset 4, -12
 2007              		.cfi_offset 7, -8
 2008              		.cfi_offset 14, -4
 2009 0002 85B0     		sub	sp, sp, #20
 2010              		.cfi_def_cfa_offset 32
 2011 0004 00AF     		add	r7, sp, #0
 2012              		.cfi_def_cfa_register 7
 2013 0006 3B1D     		adds	r3, r7, #4
 2014 0008 1880     		strh	r0, [r3]
 2015 000a 0A00     		movs	r2, r1
 2016 000c FB1C     		adds	r3, r7, #3
 2017 000e 1A70     		strb	r2, [r3]
 850:Generated_Source\PSoC4/BLE_hts.c ****     CYBLE_API_RESULT_T apiResult;
 851:Generated_Source\PSoC4/BLE_hts.c **** 
 852:Generated_Source\PSoC4/BLE_hts.c ****     if(CyBle_GetClientState() != CYBLE_CLIENT_STATE_DISCOVERED)
 2018              		.loc 1 852 0
 2019 0010 274B     		ldr	r3, .L117
 2020 0012 1B78     		ldrb	r3, [r3]
 2021 0014 052B     		cmp	r3, #5
 2022 0016 05D0     		beq	.L111
 853:Generated_Source\PSoC4/BLE_hts.c ****     {
 854:Generated_Source\PSoC4/BLE_hts.c ****         apiResult = CYBLE_ERROR_INVALID_STATE;
 2023              		.loc 1 854 0
 2024 0018 0E23     		movs	r3, #14
 2025 001a FB18     		adds	r3, r7, r3
 2026 001c 0422     		movs	r2, #4
 2027 001e FF32     		adds	r2, r2, #255
 2028 0020 1A80     		strh	r2, [r3]
 2029 0022 3DE0     		b	.L112
 2030              	.L111:
 855:Generated_Source\PSoC4/BLE_hts.c ****     }
 856:Generated_Source\PSoC4/BLE_hts.c ****     else if(charIndex >= CYBLE_HTS_CHAR_COUNT)
 2031              		.loc 1 856 0
 2032 0024 FB1C     		adds	r3, r7, #3
 2033 0026 1B78     		ldrb	r3, [r3]
 2034 0028 032B     		cmp	r3, #3
 2035 002a 04D9     		bls	.L113
 857:Generated_Source\PSoC4/BLE_hts.c ****     {
 858:Generated_Source\PSoC4/BLE_hts.c ****         apiResult = CYBLE_ERROR_INVALID_PARAMETER;
ARM GAS  C:\Users\User\AppData\Local\Temp\ccmH1EJa.s 			page 52


 2036              		.loc 1 858 0
 2037 002c 0E23     		movs	r3, #14
 2038 002e FB18     		adds	r3, r7, r3
 2039 0030 0122     		movs	r2, #1
 2040 0032 1A80     		strh	r2, [r3]
 2041 0034 34E0     		b	.L112
 2042              	.L113:
 859:Generated_Source\PSoC4/BLE_hts.c ****     }
 860:Generated_Source\PSoC4/BLE_hts.c ****     else if(cyBle_htsc.charInfo[charIndex].valueHandle != CYBLE_GATT_INVALID_ATTR_HANDLE_VALUE)
 2043              		.loc 1 860 0
 2044 0036 FB1C     		adds	r3, r7, #3
 2045 0038 1A78     		ldrb	r2, [r3]
 2046 003a 1E49     		ldr	r1, .L117+4
 2047 003c 1300     		movs	r3, r2
 2048 003e 9B00     		lsls	r3, r3, #2
 2049 0040 9B18     		adds	r3, r3, r2
 2050 0042 5B00     		lsls	r3, r3, #1
 2051 0044 CB18     		adds	r3, r1, r3
 2052 0046 0433     		adds	r3, r3, #4
 2053 0048 1B88     		ldrh	r3, [r3]
 2054 004a 002B     		cmp	r3, #0
 2055 004c 24D0     		beq	.L114
 861:Generated_Source\PSoC4/BLE_hts.c ****     {
 862:Generated_Source\PSoC4/BLE_hts.c ****         apiResult = CyBle_GattcReadCharacteristicValue(connHandle, 
 2056              		.loc 1 862 0
 2057 004e FB1C     		adds	r3, r7, #3
 2058 0050 1A78     		ldrb	r2, [r3]
 2059 0052 1849     		ldr	r1, .L117+4
 2060 0054 1300     		movs	r3, r2
 2061 0056 9B00     		lsls	r3, r3, #2
 2062 0058 9B18     		adds	r3, r3, r2
 2063 005a 5B00     		lsls	r3, r3, #1
 2064 005c CB18     		adds	r3, r1, r3
 2065 005e 0433     		adds	r3, r3, #4
 2066 0060 1A88     		ldrh	r2, [r3]
 2067 0062 0E23     		movs	r3, #14
 2068 0064 FC18     		adds	r4, r7, r3
 2069 0066 3B1D     		adds	r3, r7, #4
 2070 0068 1100     		movs	r1, r2
 2071 006a 1868     		ldr	r0, [r3]
 2072 006c FFF7FEFF 		bl	CyBle_GattcReadCharacteristicValue
 2073 0070 0300     		movs	r3, r0
 2074 0072 2380     		strh	r3, [r4]
 863:Generated_Source\PSoC4/BLE_hts.c ****                                                        cyBle_htsc.charInfo[charIndex].valueHandle);
 864:Generated_Source\PSoC4/BLE_hts.c ****         /* Save handle to support service specific read response from device */
 865:Generated_Source\PSoC4/BLE_hts.c ****         if(apiResult == CYBLE_ERROR_OK)
 2075              		.loc 1 865 0
 2076 0074 0E23     		movs	r3, #14
 2077 0076 FB18     		adds	r3, r7, r3
 2078 0078 1B88     		ldrh	r3, [r3]
 2079 007a 002B     		cmp	r3, #0
 2080 007c 10D1     		bne	.L112
 866:Generated_Source\PSoC4/BLE_hts.c ****         {
 867:Generated_Source\PSoC4/BLE_hts.c ****             cyBle_htscReqHandle = cyBle_htsc.charInfo[charIndex].valueHandle;
 2081              		.loc 1 867 0
 2082 007e FB1C     		adds	r3, r7, #3
 2083 0080 1A78     		ldrb	r2, [r3]
ARM GAS  C:\Users\User\AppData\Local\Temp\ccmH1EJa.s 			page 53


 2084 0082 0C49     		ldr	r1, .L117+4
 2085 0084 1300     		movs	r3, r2
 2086 0086 9B00     		lsls	r3, r3, #2
 2087 0088 9B18     		adds	r3, r3, r2
 2088 008a 5B00     		lsls	r3, r3, #1
 2089 008c CB18     		adds	r3, r1, r3
 2090 008e 0433     		adds	r3, r3, #4
 2091 0090 1A88     		ldrh	r2, [r3]
 2092 0092 094B     		ldr	r3, .L117+8
 2093 0094 1A80     		strh	r2, [r3]
 2094 0096 03E0     		b	.L112
 2095              	.L114:
 868:Generated_Source\PSoC4/BLE_hts.c ****         }
 869:Generated_Source\PSoC4/BLE_hts.c ****     }
 870:Generated_Source\PSoC4/BLE_hts.c ****     else
 871:Generated_Source\PSoC4/BLE_hts.c ****     {
 872:Generated_Source\PSoC4/BLE_hts.c ****         apiResult = CYBLE_ERROR_GATT_DB_INVALID_ATTR_HANDLE;
 2096              		.loc 1 872 0
 2097 0098 0E23     		movs	r3, #14
 2098 009a FB18     		adds	r3, r7, r3
 2099 009c 1322     		movs	r2, #19
 2100 009e 1A80     		strh	r2, [r3]
 2101              	.L112:
 873:Generated_Source\PSoC4/BLE_hts.c ****     }
 874:Generated_Source\PSoC4/BLE_hts.c ****     
 875:Generated_Source\PSoC4/BLE_hts.c ****     return (apiResult);
 2102              		.loc 1 875 0
 2103 00a0 0E23     		movs	r3, #14
 2104 00a2 FB18     		adds	r3, r7, r3
 2105 00a4 1B88     		ldrh	r3, [r3]
 876:Generated_Source\PSoC4/BLE_hts.c **** }
 2106              		.loc 1 876 0
 2107 00a6 1800     		movs	r0, r3
 2108 00a8 BD46     		mov	sp, r7
 2109 00aa 05B0     		add	sp, sp, #20
 2110              		@ sp needed
 2111 00ac 90BD     		pop	{r4, r7, pc}
 2112              	.L118:
 2113 00ae C046     		.align	2
 2114              	.L117:
 2115 00b0 00000000 		.word	cyBle_clientState
 2116 00b4 00000000 		.word	cyBle_htsc
 2117 00b8 06000000 		.word	cyBle_htscReqHandle
 2118              		.cfi_endproc
 2119              	.LFE15:
 2120              		.size	CyBle_HtscGetCharacteristicValue, .-CyBle_HtscGetCharacteristicValue
 2121              		.section	.text.CyBle_HtscSetCharacteristicDescriptor,"ax",%progbits
 2122              		.align	2
 2123              		.global	CyBle_HtscSetCharacteristicDescriptor
 2124              		.code	16
 2125              		.thumb_func
 2126              		.type	CyBle_HtscSetCharacteristicDescriptor, %function
 2127              	CyBle_HtscSetCharacteristicDescriptor:
 2128              	.LFB16:
 877:Generated_Source\PSoC4/BLE_hts.c **** 
 878:Generated_Source\PSoC4/BLE_hts.c **** 
 879:Generated_Source\PSoC4/BLE_hts.c **** /******************************************************************************
ARM GAS  C:\Users\User\AppData\Local\Temp\ccmH1EJa.s 			page 54


 880:Generated_Source\PSoC4/BLE_hts.c **** * Function Name: CyBle_HtscSetCharacteristicDescriptor
 881:Generated_Source\PSoC4/BLE_hts.c **** ***************************************************************************//**
 882:Generated_Source\PSoC4/BLE_hts.c **** * 
 883:Generated_Source\PSoC4/BLE_hts.c **** *  This function is used to write the characteristic descriptor to the server,
 884:Generated_Source\PSoC4/BLE_hts.c **** *  which is identified by charIndex and descrIndex.
 885:Generated_Source\PSoC4/BLE_hts.c **** * 
 886:Generated_Source\PSoC4/BLE_hts.c **** *  Internally, Write Request is sent to the GATT Server and on successful 
 887:Generated_Source\PSoC4/BLE_hts.c **** *  execution of the request on the Server side the following events can be 
 888:Generated_Source\PSoC4/BLE_hts.c **** *  generated: 
 889:Generated_Source\PSoC4/BLE_hts.c **** *  * CYBLE_EVT_HTSS_NOTIFICATION_ENABLED;
 890:Generated_Source\PSoC4/BLE_hts.c **** *  * CYBLE_EVT_HTSS_NOTIFICATION_ENABLED;
 891:Generated_Source\PSoC4/BLE_hts.c **** *  * CYBLE_EVT_HTSS_INDICATION_ENABLED;
 892:Generated_Source\PSoC4/BLE_hts.c **** *  * CYBLE_EVT_HTSS_INDICATION_DISABLED.
 893:Generated_Source\PSoC4/BLE_hts.c **** * 
 894:Generated_Source\PSoC4/BLE_hts.c **** *  \param connHandle: The connection handle.
 895:Generated_Source\PSoC4/BLE_hts.c **** *  \param charIndex:  The index of the service characteristic.
 896:Generated_Source\PSoC4/BLE_hts.c **** *  \param descrIndex: The index of the service characteristic descriptor.
 897:Generated_Source\PSoC4/BLE_hts.c **** *  \param attrSize:   The size of the characteristic value attribute.
 898:Generated_Source\PSoC4/BLE_hts.c **** *  \param attrValue:  The pointer to the characteristic descriptor value data  
 899:Generated_Source\PSoC4/BLE_hts.c **** *                     that should be sent to the server device. 
 900:Generated_Source\PSoC4/BLE_hts.c **** * 
 901:Generated_Source\PSoC4/BLE_hts.c **** * \return
 902:Generated_Source\PSoC4/BLE_hts.c **** *  Return value is of type CYBLE_API_RESULT_T.
 903:Generated_Source\PSoC4/BLE_hts.c **** *  * CYBLE_ERROR_OK - The request was sent successfully.
 904:Generated_Source\PSoC4/BLE_hts.c **** *  * CYBLE_ERROR_INVALID_PARAMETER - Validation of the input parameters failed.
 905:Generated_Source\PSoC4/BLE_hts.c **** *  * CYBLE_ERROR_INVALID_STATE - The state is not valid.
 906:Generated_Source\PSoC4/BLE_hts.c **** *  * CYBLE_ERROR_MEMORY_ALLOCATION_FAILED - Memory allocation failed.
 907:Generated_Source\PSoC4/BLE_hts.c **** *  * CYBLE_ERROR_INVALID_OPERATION - This operation is not permitted on 
 908:Generated_Source\PSoC4/BLE_hts.c **** *                                    the specified attribute.
 909:Generated_Source\PSoC4/BLE_hts.c **** *
 910:Generated_Source\PSoC4/BLE_hts.c **** * \events
 911:Generated_Source\PSoC4/BLE_hts.c **** *  In case of successful execution (return value = CYBLE_ERROR_OK)
 912:Generated_Source\PSoC4/BLE_hts.c **** *  the next events can appear: \n
 913:Generated_Source\PSoC4/BLE_hts.c **** *   If the HTS service-specific callback is registered 
 914:Generated_Source\PSoC4/BLE_hts.c **** *      (with CyBle_HtsRegisterAttrCallback):
 915:Generated_Source\PSoC4/BLE_hts.c **** *  * CYBLE_EVT_HTSC_WRITE_DESCR_RESPONSE - In case if the requested attribute is
 916:Generated_Source\PSoC4/BLE_hts.c **** *                                successfully wrote on the peer device,
 917:Generated_Source\PSoC4/BLE_hts.c **** *                                the details (char index, descr index etc.) are 
 918:Generated_Source\PSoC4/BLE_hts.c **** *                                provided with event parameter structure
 919:Generated_Source\PSoC4/BLE_hts.c **** *                                of type CYBLE_HTS_DESCR_VALUE_T.
 920:Generated_Source\PSoC4/BLE_hts.c **** *  .
 921:Generated_Source\PSoC4/BLE_hts.c **** *   Otherwise (if the HTS service-specific callback is not registered):
 922:Generated_Source\PSoC4/BLE_hts.c **** *  * CYBLE_EVT_GATTC_WRITE_RSP - In case if the requested attribute is 
 923:Generated_Source\PSoC4/BLE_hts.c **** *                                successfully wrote on the peer device.
 924:Generated_Source\PSoC4/BLE_hts.c **** *  * CYBLE_EVT_GATTC_ERROR_RSP - In case if there some trouble with the 
 925:Generated_Source\PSoC4/BLE_hts.c **** *                                requested attribute on the peer device,
 926:Generated_Source\PSoC4/BLE_hts.c **** *                                the details are provided with event parameters 
 927:Generated_Source\PSoC4/BLE_hts.c **** *                                structure (CYBLE_GATTC_ERR_RSP_PARAM_T).
 928:Generated_Source\PSoC4/BLE_hts.c **** *
 929:Generated_Source\PSoC4/BLE_hts.c **** ******************************************************************************/
 930:Generated_Source\PSoC4/BLE_hts.c **** CYBLE_API_RESULT_T CyBle_HtscSetCharacteristicDescriptor(CYBLE_CONN_HANDLE_T connHandle,
 931:Generated_Source\PSoC4/BLE_hts.c ****     CYBLE_HTS_CHAR_INDEX_T charIndex, CYBLE_HTS_DESCR_INDEX_T descrIndex, uint8 attrSize, uint8 *at
 932:Generated_Source\PSoC4/BLE_hts.c **** {
 2129              		.loc 1 932 0
 2130              		.cfi_startproc
 2131              		@ args = 4, pretend = 0, frame = 24
 2132              		@ frame_needed = 1, uses_anonymous_args = 0
ARM GAS  C:\Users\User\AppData\Local\Temp\ccmH1EJa.s 			page 55


 2133 0000 90B5     		push	{r4, r7, lr}
 2134              		.cfi_def_cfa_offset 12
 2135              		.cfi_offset 4, -12
 2136              		.cfi_offset 7, -8
 2137              		.cfi_offset 14, -4
 2138 0002 87B0     		sub	sp, sp, #28
 2139              		.cfi_def_cfa_offset 40
 2140 0004 00AF     		add	r7, sp, #0
 2141              		.cfi_def_cfa_register 7
 2142 0006 3C1D     		adds	r4, r7, #4
 2143 0008 2080     		strh	r0, [r4]
 2144 000a 0C00     		movs	r4, r1
 2145 000c 1000     		movs	r0, r2
 2146 000e 1900     		movs	r1, r3
 2147 0010 FB1C     		adds	r3, r7, #3
 2148 0012 221C     		adds	r2, r4, #0
 2149 0014 1A70     		strb	r2, [r3]
 2150 0016 BB1C     		adds	r3, r7, #2
 2151 0018 021C     		adds	r2, r0, #0
 2152 001a 1A70     		strb	r2, [r3]
 2153 001c 7B1C     		adds	r3, r7, #1
 2154 001e 0A1C     		adds	r2, r1, #0
 2155 0020 1A70     		strb	r2, [r3]
 933:Generated_Source\PSoC4/BLE_hts.c ****     CYBLE_API_RESULT_T apiResult;
 934:Generated_Source\PSoC4/BLE_hts.c ****     CYBLE_GATTC_WRITE_REQ_T writeReqParam;
 935:Generated_Source\PSoC4/BLE_hts.c **** 
 936:Generated_Source\PSoC4/BLE_hts.c ****     if(CyBle_GetClientState() != CYBLE_CLIENT_STATE_DISCOVERED)
 2156              		.loc 1 936 0
 2157 0022 284B     		ldr	r3, .L126
 2158 0024 1B78     		ldrb	r3, [r3]
 2159 0026 052B     		cmp	r3, #5
 2160 0028 05D0     		beq	.L120
 937:Generated_Source\PSoC4/BLE_hts.c ****     {
 938:Generated_Source\PSoC4/BLE_hts.c ****         apiResult = CYBLE_ERROR_INVALID_STATE;
 2161              		.loc 1 938 0
 2162 002a 1623     		movs	r3, #22
 2163 002c FB18     		adds	r3, r7, r3
 2164 002e 0422     		movs	r2, #4
 2165 0030 FF32     		adds	r2, r2, #255
 2166 0032 1A80     		strh	r2, [r3]
 2167 0034 3FE0     		b	.L121
 2168              	.L120:
 939:Generated_Source\PSoC4/BLE_hts.c ****     }
 940:Generated_Source\PSoC4/BLE_hts.c ****     else if((charIndex >= CYBLE_HTS_CHAR_COUNT) || (descrIndex >= CYBLE_HTS_DESCR_COUNT))
 2169              		.loc 1 940 0
 2170 0036 FB1C     		adds	r3, r7, #3
 2171 0038 1B78     		ldrb	r3, [r3]
 2172 003a 032B     		cmp	r3, #3
 2173 003c 03D8     		bhi	.L122
 2174              		.loc 1 940 0 is_stmt 0 discriminator 1
 2175 003e BB1C     		adds	r3, r7, #2
 2176 0040 1B78     		ldrb	r3, [r3]
 2177 0042 012B     		cmp	r3, #1
 2178 0044 04D9     		bls	.L123
 2179              	.L122:
 941:Generated_Source\PSoC4/BLE_hts.c ****     {
 942:Generated_Source\PSoC4/BLE_hts.c ****         apiResult = CYBLE_ERROR_INVALID_PARAMETER;
ARM GAS  C:\Users\User\AppData\Local\Temp\ccmH1EJa.s 			page 56


 2180              		.loc 1 942 0 is_stmt 1
 2181 0046 1623     		movs	r3, #22
 2182 0048 FB18     		adds	r3, r7, r3
 2183 004a 0122     		movs	r2, #1
 2184 004c 1A80     		strh	r2, [r3]
 2185 004e 32E0     		b	.L121
 2186              	.L123:
 943:Generated_Source\PSoC4/BLE_hts.c ****     }
 944:Generated_Source\PSoC4/BLE_hts.c ****     else if(descrIndex != CYBLE_HTS_CCCD)
 2187              		.loc 1 944 0
 2188 0050 BB1C     		adds	r3, r7, #2
 2189 0052 1B78     		ldrb	r3, [r3]
 2190 0054 002B     		cmp	r3, #0
 2191 0056 04D0     		beq	.L124
 945:Generated_Source\PSoC4/BLE_hts.c ****     {
 946:Generated_Source\PSoC4/BLE_hts.c ****         apiResult = CYBLE_ERROR_INVALID_OPERATION;
 2192              		.loc 1 946 0
 2193 0058 1623     		movs	r3, #22
 2194 005a FB18     		adds	r3, r7, r3
 2195 005c 0222     		movs	r2, #2
 2196 005e 1A80     		strh	r2, [r3]
 2197 0060 29E0     		b	.L121
 2198              	.L124:
 947:Generated_Source\PSoC4/BLE_hts.c ****     }
 948:Generated_Source\PSoC4/BLE_hts.c ****     else
 949:Generated_Source\PSoC4/BLE_hts.c ****     {
 950:Generated_Source\PSoC4/BLE_hts.c ****      /* Fill all fields of write request structure ... */
 951:Generated_Source\PSoC4/BLE_hts.c ****         writeReqParam.attrHandle = cyBle_htsc.charInfo[charIndex].descrHandle[CYBLE_HTS_CCCD];
 2199              		.loc 1 951 0
 2200 0062 FB1C     		adds	r3, r7, #3
 2201 0064 1A78     		ldrb	r2, [r3]
 2202 0066 1849     		ldr	r1, .L126+4
 2203 0068 1300     		movs	r3, r2
 2204 006a 9B00     		lsls	r3, r3, #2
 2205 006c 9B18     		adds	r3, r3, r2
 2206 006e 5B00     		lsls	r3, r3, #1
 2207 0070 5A5A     		ldrh	r2, [r3, r1]
 2208 0072 0823     		movs	r3, #8
 2209 0074 FB18     		adds	r3, r7, r3
 2210 0076 1A81     		strh	r2, [r3, #8]
 952:Generated_Source\PSoC4/BLE_hts.c ****         writeReqParam.value.val = attrValue;
 2211              		.loc 1 952 0
 2212 0078 0823     		movs	r3, #8
 2213 007a FB18     		adds	r3, r7, r3
 2214 007c BA6A     		ldr	r2, [r7, #40]
 2215 007e 1A60     		str	r2, [r3]
 953:Generated_Source\PSoC4/BLE_hts.c ****         writeReqParam.value.len = attrSize;
 2216              		.loc 1 953 0
 2217 0080 7B1C     		adds	r3, r7, #1
 2218 0082 1B78     		ldrb	r3, [r3]
 2219 0084 9AB2     		uxth	r2, r3
 2220 0086 0823     		movs	r3, #8
 2221 0088 FB18     		adds	r3, r7, r3
 2222 008a 9A80     		strh	r2, [r3, #4]
 954:Generated_Source\PSoC4/BLE_hts.c **** 
 955:Generated_Source\PSoC4/BLE_hts.c ****         /* ... and send request to server device. */
 956:Generated_Source\PSoC4/BLE_hts.c ****         apiResult = CyBle_GattcWriteCharacteristicDescriptors(connHandle, &writeReqParam);
ARM GAS  C:\Users\User\AppData\Local\Temp\ccmH1EJa.s 			page 57


 2223              		.loc 1 956 0
 2224 008c 1623     		movs	r3, #22
 2225 008e FC18     		adds	r4, r7, r3
 2226 0090 0823     		movs	r3, #8
 2227 0092 FA18     		adds	r2, r7, r3
 2228 0094 3B1D     		adds	r3, r7, #4
 2229 0096 1100     		movs	r1, r2
 2230 0098 1868     		ldr	r0, [r3]
 2231 009a FFF7FEFF 		bl	CyBle_GattcWriteCharacteristicDescriptors
 2232 009e 0300     		movs	r3, r0
 2233 00a0 2380     		strh	r3, [r4]
 957:Generated_Source\PSoC4/BLE_hts.c ****         
 958:Generated_Source\PSoC4/BLE_hts.c ****         /* Save handle to support service specific read response from device */
 959:Generated_Source\PSoC4/BLE_hts.c ****         if(apiResult == CYBLE_ERROR_OK)
 2234              		.loc 1 959 0
 2235 00a2 1623     		movs	r3, #22
 2236 00a4 FB18     		adds	r3, r7, r3
 2237 00a6 1B88     		ldrh	r3, [r3]
 2238 00a8 002B     		cmp	r3, #0
 2239 00aa 04D1     		bne	.L121
 960:Generated_Source\PSoC4/BLE_hts.c ****         {
 961:Generated_Source\PSoC4/BLE_hts.c ****             cyBle_htscReqHandle = writeReqParam.attrHandle;
 2240              		.loc 1 961 0
 2241 00ac 0823     		movs	r3, #8
 2242 00ae FB18     		adds	r3, r7, r3
 2243 00b0 1A89     		ldrh	r2, [r3, #8]
 2244 00b2 064B     		ldr	r3, .L126+8
 2245 00b4 1A80     		strh	r2, [r3]
 2246              	.L121:
 962:Generated_Source\PSoC4/BLE_hts.c ****         }
 963:Generated_Source\PSoC4/BLE_hts.c ****     }
 964:Generated_Source\PSoC4/BLE_hts.c ****     
 965:Generated_Source\PSoC4/BLE_hts.c ****     return (apiResult);
 2247              		.loc 1 965 0
 2248 00b6 1623     		movs	r3, #22
 2249 00b8 FB18     		adds	r3, r7, r3
 2250 00ba 1B88     		ldrh	r3, [r3]
 966:Generated_Source\PSoC4/BLE_hts.c **** }
 2251              		.loc 1 966 0
 2252 00bc 1800     		movs	r0, r3
 2253 00be BD46     		mov	sp, r7
 2254 00c0 07B0     		add	sp, sp, #28
 2255              		@ sp needed
 2256 00c2 90BD     		pop	{r4, r7, pc}
 2257              	.L127:
 2258              		.align	2
 2259              	.L126:
 2260 00c4 00000000 		.word	cyBle_clientState
 2261 00c8 00000000 		.word	cyBle_htsc
 2262 00cc 06000000 		.word	cyBle_htscReqHandle
 2263              		.cfi_endproc
 2264              	.LFE16:
 2265              		.size	CyBle_HtscSetCharacteristicDescriptor, .-CyBle_HtscSetCharacteristicDescriptor
 2266              		.section	.text.CyBle_HtscGetCharacteristicDescriptor,"ax",%progbits
 2267              		.align	2
 2268              		.global	CyBle_HtscGetCharacteristicDescriptor
 2269              		.code	16
ARM GAS  C:\Users\User\AppData\Local\Temp\ccmH1EJa.s 			page 58


 2270              		.thumb_func
 2271              		.type	CyBle_HtscGetCharacteristicDescriptor, %function
 2272              	CyBle_HtscGetCharacteristicDescriptor:
 2273              	.LFB17:
 967:Generated_Source\PSoC4/BLE_hts.c **** 
 968:Generated_Source\PSoC4/BLE_hts.c **** 
 969:Generated_Source\PSoC4/BLE_hts.c **** /******************************************************************************
 970:Generated_Source\PSoC4/BLE_hts.c **** * Function Name: CyBle_HtscGetCharacteristicDescriptor
 971:Generated_Source\PSoC4/BLE_hts.c **** ***************************************************************************//**
 972:Generated_Source\PSoC4/BLE_hts.c **** * 
 973:Generated_Source\PSoC4/BLE_hts.c **** *  Gets the characteristic descriptor of the specified characteristic of the
 974:Generated_Source\PSoC4/BLE_hts.c **** *  service.
 975:Generated_Source\PSoC4/BLE_hts.c **** * 
 976:Generated_Source\PSoC4/BLE_hts.c **** *  \param connHandle: The connection handle.
 977:Generated_Source\PSoC4/BLE_hts.c **** *  \param charIndex:  The index of the service characteristic.
 978:Generated_Source\PSoC4/BLE_hts.c **** *  \param descrIndex: The index of the service characteristic descriptor.
 979:Generated_Source\PSoC4/BLE_hts.c **** * 
 980:Generated_Source\PSoC4/BLE_hts.c **** * \return
 981:Generated_Source\PSoC4/BLE_hts.c **** *  * CYBLE_ERROR_OK - The request was sent successfully.
 982:Generated_Source\PSoC4/BLE_hts.c **** *  * CYBLE_ERROR_INVALID_PARAMETER - Validation of the input parameters failed.
 983:Generated_Source\PSoC4/BLE_hts.c **** *  * CYBLE_ERROR_INVALID_STATE - The state is not valid.
 984:Generated_Source\PSoC4/BLE_hts.c **** *  * CYBLE_ERROR_MEMORY_ALLOCATION_FAILED - Memory allocation failed.
 985:Generated_Source\PSoC4/BLE_hts.c **** *  * CYBLE_ERROR_INVALID_OPERATION - This operation is not permitted on 
 986:Generated_Source\PSoC4/BLE_hts.c **** *                                    the specified attribute.
 987:Generated_Source\PSoC4/BLE_hts.c **** *
 988:Generated_Source\PSoC4/BLE_hts.c **** * \events
 989:Generated_Source\PSoC4/BLE_hts.c **** *  In case of successful execution (return value = CYBLE_ERROR_OK)
 990:Generated_Source\PSoC4/BLE_hts.c **** *  the next events can appear: \n
 991:Generated_Source\PSoC4/BLE_hts.c **** *  If the HTS service-specific callback is registered 
 992:Generated_Source\PSoC4/BLE_hts.c **** *      (with CyBle_HtsRegisterAttrCallback):
 993:Generated_Source\PSoC4/BLE_hts.c **** *  * CYBLE_EVT_HTSC_READ_DESCR_RESPONSE - In case if the requested attribute is
 994:Generated_Source\PSoC4/BLE_hts.c **** *                                successfully wrote on the peer device,
 995:Generated_Source\PSoC4/BLE_hts.c **** *                                the details (char index, descr index, value, etc.) 
 996:Generated_Source\PSoC4/BLE_hts.c **** *                                are provided with event parameter structure
 997:Generated_Source\PSoC4/BLE_hts.c **** *                                of type CYBLE_HTS_DESCR_VALUE_T. 
 998:Generated_Source\PSoC4/BLE_hts.c **** *  .
 999:Generated_Source\PSoC4/BLE_hts.c **** *  Otherwise (if the HTS service-specific callback is not registered):
1000:Generated_Source\PSoC4/BLE_hts.c **** *  * CYBLE_EVT_GATTC_READ_RSP - In case if the requested attribute is 
1001:Generated_Source\PSoC4/BLE_hts.c **** *                               successfully read on the peer device,
1002:Generated_Source\PSoC4/BLE_hts.c **** *                               the details (handle, value, etc.) are 
1003:Generated_Source\PSoC4/BLE_hts.c **** *                               provided with event parameters 
1004:Generated_Source\PSoC4/BLE_hts.c **** *                               structure (CYBLE_GATTC_READ_RSP_PARAM_T).
1005:Generated_Source\PSoC4/BLE_hts.c **** *  * CYBLE_EVT_GATTC_ERROR_RSP - In case if there some trouble with the 
1006:Generated_Source\PSoC4/BLE_hts.c **** *                                requested attribute on the peer device,
1007:Generated_Source\PSoC4/BLE_hts.c **** *                                the details are provided with event parameters 
1008:Generated_Source\PSoC4/BLE_hts.c **** *                                structure (CYBLE_GATTC_ERR_RSP_PARAM_T).
1009:Generated_Source\PSoC4/BLE_hts.c **** *
1010:Generated_Source\PSoC4/BLE_hts.c **** ******************************************************************************/
1011:Generated_Source\PSoC4/BLE_hts.c **** CYBLE_API_RESULT_T CyBle_HtscGetCharacteristicDescriptor(CYBLE_CONN_HANDLE_T connHandle,
1012:Generated_Source\PSoC4/BLE_hts.c ****     CYBLE_HTS_CHAR_INDEX_T charIndex, CYBLE_HTS_DESCR_INDEX_T descrIndex)
1013:Generated_Source\PSoC4/BLE_hts.c **** {
 2274              		.loc 1 1013 0
 2275              		.cfi_startproc
 2276              		@ args = 0, pretend = 0, frame = 16
 2277              		@ frame_needed = 1, uses_anonymous_args = 0
 2278 0000 90B5     		push	{r4, r7, lr}
 2279              		.cfi_def_cfa_offset 12
ARM GAS  C:\Users\User\AppData\Local\Temp\ccmH1EJa.s 			page 59


 2280              		.cfi_offset 4, -12
 2281              		.cfi_offset 7, -8
 2282              		.cfi_offset 14, -4
 2283 0002 85B0     		sub	sp, sp, #20
 2284              		.cfi_def_cfa_offset 32
 2285 0004 00AF     		add	r7, sp, #0
 2286              		.cfi_def_cfa_register 7
 2287 0006 3B1D     		adds	r3, r7, #4
 2288 0008 1880     		strh	r0, [r3]
 2289 000a 0800     		movs	r0, r1
 2290 000c 1100     		movs	r1, r2
 2291 000e FB1C     		adds	r3, r7, #3
 2292 0010 021C     		adds	r2, r0, #0
 2293 0012 1A70     		strb	r2, [r3]
 2294 0014 BB1C     		adds	r3, r7, #2
 2295 0016 0A1C     		adds	r2, r1, #0
 2296 0018 1A70     		strb	r2, [r3]
1014:Generated_Source\PSoC4/BLE_hts.c ****     CYBLE_API_RESULT_T apiResult;
1015:Generated_Source\PSoC4/BLE_hts.c ****     
1016:Generated_Source\PSoC4/BLE_hts.c ****     if(CyBle_GetClientState() != CYBLE_CLIENT_STATE_DISCOVERED)
 2297              		.loc 1 1016 0
 2298 001a 224B     		ldr	r3, .L134
 2299 001c 1B78     		ldrb	r3, [r3]
 2300 001e 052B     		cmp	r3, #5
 2301 0020 05D0     		beq	.L129
1017:Generated_Source\PSoC4/BLE_hts.c ****     {
1018:Generated_Source\PSoC4/BLE_hts.c ****         apiResult = CYBLE_ERROR_INVALID_STATE;
 2302              		.loc 1 1018 0
 2303 0022 0E23     		movs	r3, #14
 2304 0024 FB18     		adds	r3, r7, r3
 2305 0026 0422     		movs	r2, #4
 2306 0028 FF32     		adds	r2, r2, #255
 2307 002a 1A80     		strh	r2, [r3]
 2308 002c 32E0     		b	.L130
 2309              	.L129:
1019:Generated_Source\PSoC4/BLE_hts.c ****     }
1020:Generated_Source\PSoC4/BLE_hts.c ****     else if((charIndex >= CYBLE_HTS_CHAR_COUNT) || (descrIndex >= CYBLE_HTS_DESCR_COUNT))
 2310              		.loc 1 1020 0
 2311 002e FB1C     		adds	r3, r7, #3
 2312 0030 1B78     		ldrb	r3, [r3]
 2313 0032 032B     		cmp	r3, #3
 2314 0034 03D8     		bhi	.L131
 2315              		.loc 1 1020 0 is_stmt 0 discriminator 1
 2316 0036 BB1C     		adds	r3, r7, #2
 2317 0038 1B78     		ldrb	r3, [r3]
 2318 003a 012B     		cmp	r3, #1
 2319 003c 04D9     		bls	.L132
 2320              	.L131:
1021:Generated_Source\PSoC4/BLE_hts.c ****     {
1022:Generated_Source\PSoC4/BLE_hts.c ****         apiResult = CYBLE_ERROR_INVALID_PARAMETER;
 2321              		.loc 1 1022 0 is_stmt 1
 2322 003e 0E23     		movs	r3, #14
 2323 0040 FB18     		adds	r3, r7, r3
 2324 0042 0122     		movs	r2, #1
 2325 0044 1A80     		strh	r2, [r3]
 2326 0046 25E0     		b	.L130
 2327              	.L132:
ARM GAS  C:\Users\User\AppData\Local\Temp\ccmH1EJa.s 			page 60


1023:Generated_Source\PSoC4/BLE_hts.c ****     }
1024:Generated_Source\PSoC4/BLE_hts.c ****     else
1025:Generated_Source\PSoC4/BLE_hts.c ****     {
1026:Generated_Source\PSoC4/BLE_hts.c ****         apiResult = CyBle_GattcReadCharacteristicDescriptors(connHandle, 
 2328              		.loc 1 1026 0
 2329 0048 FB1C     		adds	r3, r7, #3
 2330 004a 1A78     		ldrb	r2, [r3]
 2331 004c BB1C     		adds	r3, r7, #2
 2332 004e 1878     		ldrb	r0, [r3]
 2333 0050 1549     		ldr	r1, .L134+4
 2334 0052 1300     		movs	r3, r2
 2335 0054 9B00     		lsls	r3, r3, #2
 2336 0056 9B18     		adds	r3, r3, r2
 2337 0058 1B18     		adds	r3, r3, r0
 2338 005a 5B00     		lsls	r3, r3, #1
 2339 005c 5A5A     		ldrh	r2, [r3, r1]
 2340 005e 0E23     		movs	r3, #14
 2341 0060 FC18     		adds	r4, r7, r3
 2342 0062 3B1D     		adds	r3, r7, #4
 2343 0064 1100     		movs	r1, r2
 2344 0066 1868     		ldr	r0, [r3]
 2345 0068 FFF7FEFF 		bl	CyBle_GattcReadCharacteristicDescriptors
 2346 006c 0300     		movs	r3, r0
 2347 006e 2380     		strh	r3, [r4]
1027:Generated_Source\PSoC4/BLE_hts.c ****                                                     cyBle_htsc.charInfo[charIndex].descrHandle[desc
1028:Generated_Source\PSoC4/BLE_hts.c ****         
1029:Generated_Source\PSoC4/BLE_hts.c ****         /* Save handle to support service specific read response from device */
1030:Generated_Source\PSoC4/BLE_hts.c ****         if(apiResult == CYBLE_ERROR_OK)
 2348              		.loc 1 1030 0
 2349 0070 0E23     		movs	r3, #14
 2350 0072 FB18     		adds	r3, r7, r3
 2351 0074 1B88     		ldrh	r3, [r3]
 2352 0076 002B     		cmp	r3, #0
 2353 0078 0CD1     		bne	.L130
1031:Generated_Source\PSoC4/BLE_hts.c ****         {
1032:Generated_Source\PSoC4/BLE_hts.c ****             cyBle_htscReqHandle = cyBle_htsc.charInfo[charIndex].descrHandle[descrIndex];
 2354              		.loc 1 1032 0
 2355 007a FB1C     		adds	r3, r7, #3
 2356 007c 1A78     		ldrb	r2, [r3]
 2357 007e BB1C     		adds	r3, r7, #2
 2358 0080 1878     		ldrb	r0, [r3]
 2359 0082 0949     		ldr	r1, .L134+4
 2360 0084 1300     		movs	r3, r2
 2361 0086 9B00     		lsls	r3, r3, #2
 2362 0088 9B18     		adds	r3, r3, r2
 2363 008a 1B18     		adds	r3, r3, r0
 2364 008c 5B00     		lsls	r3, r3, #1
 2365 008e 5A5A     		ldrh	r2, [r3, r1]
 2366 0090 064B     		ldr	r3, .L134+8
 2367 0092 1A80     		strh	r2, [r3]
 2368              	.L130:
1033:Generated_Source\PSoC4/BLE_hts.c ****         }
1034:Generated_Source\PSoC4/BLE_hts.c ****     }
1035:Generated_Source\PSoC4/BLE_hts.c **** 
1036:Generated_Source\PSoC4/BLE_hts.c ****     return (apiResult);
 2369              		.loc 1 1036 0
 2370 0094 0E23     		movs	r3, #14
ARM GAS  C:\Users\User\AppData\Local\Temp\ccmH1EJa.s 			page 61


 2371 0096 FB18     		adds	r3, r7, r3
 2372 0098 1B88     		ldrh	r3, [r3]
1037:Generated_Source\PSoC4/BLE_hts.c **** }
 2373              		.loc 1 1037 0
 2374 009a 1800     		movs	r0, r3
 2375 009c BD46     		mov	sp, r7
 2376 009e 05B0     		add	sp, sp, #20
 2377              		@ sp needed
 2378 00a0 90BD     		pop	{r4, r7, pc}
 2379              	.L135:
 2380 00a2 C046     		.align	2
 2381              	.L134:
 2382 00a4 00000000 		.word	cyBle_clientState
 2383 00a8 00000000 		.word	cyBle_htsc
 2384 00ac 06000000 		.word	cyBle_htscReqHandle
 2385              		.cfi_endproc
 2386              	.LFE17:
 2387              		.size	CyBle_HtscGetCharacteristicDescriptor, .-CyBle_HtscGetCharacteristicDescriptor
 2388              		.section	.text.CyBle_HtscNotificationEventHandler,"ax",%progbits
 2389              		.align	2
 2390              		.global	CyBle_HtscNotificationEventHandler
 2391              		.code	16
 2392              		.thumb_func
 2393              		.type	CyBle_HtscNotificationEventHandler, %function
 2394              	CyBle_HtscNotificationEventHandler:
 2395              	.LFB18:
1038:Generated_Source\PSoC4/BLE_hts.c **** 
1039:Generated_Source\PSoC4/BLE_hts.c **** 
1040:Generated_Source\PSoC4/BLE_hts.c **** /******************************************************************************
1041:Generated_Source\PSoC4/BLE_hts.c **** * Function Name: CyBle_HtscNotificationEventHandler
1042:Generated_Source\PSoC4/BLE_hts.c **** ***************************************************************************//**
1043:Generated_Source\PSoC4/BLE_hts.c **** * 
1044:Generated_Source\PSoC4/BLE_hts.c **** *  Handles Notification Event.
1045:Generated_Source\PSoC4/BLE_hts.c **** * 
1046:Generated_Source\PSoC4/BLE_hts.c **** *  \param eventParam: The pointer to the data structure specified by an event.
1047:Generated_Source\PSoC4/BLE_hts.c **** * 
1048:Generated_Source\PSoC4/BLE_hts.c **** ******************************************************************************/
1049:Generated_Source\PSoC4/BLE_hts.c **** void CyBle_HtscNotificationEventHandler(CYBLE_GATTC_HANDLE_VALUE_NTF_PARAM_T *eventParam)
1050:Generated_Source\PSoC4/BLE_hts.c **** {
 2396              		.loc 1 1050 0
 2397              		.cfi_startproc
 2398              		@ args = 0, pretend = 0, frame = 24
 2399              		@ frame_needed = 1, uses_anonymous_args = 0
 2400 0000 80B5     		push	{r7, lr}
 2401              		.cfi_def_cfa_offset 8
 2402              		.cfi_offset 7, -8
 2403              		.cfi_offset 14, -4
 2404 0002 86B0     		sub	sp, sp, #24
 2405              		.cfi_def_cfa_offset 32
 2406 0004 00AF     		add	r7, sp, #0
 2407              		.cfi_def_cfa_register 7
 2408 0006 7860     		str	r0, [r7, #4]
1051:Generated_Source\PSoC4/BLE_hts.c ****     CYBLE_HTS_CHAR_INDEX_T locCharIndex;
1052:Generated_Source\PSoC4/BLE_hts.c ****     CYBLE_HTS_CHAR_VALUE_T notifValue;
1053:Generated_Source\PSoC4/BLE_hts.c **** 
1054:Generated_Source\PSoC4/BLE_hts.c ****     if(NULL != CyBle_HtsApplCallback)
 2409              		.loc 1 1054 0
ARM GAS  C:\Users\User\AppData\Local\Temp\ccmH1EJa.s 			page 62


 2410 0008 244B     		ldr	r3, .L142
 2411 000a 1B68     		ldr	r3, [r3]
 2412 000c 002B     		cmp	r3, #0
 2413 000e 41D0     		beq	.L141
1055:Generated_Source\PSoC4/BLE_hts.c ****     {
1056:Generated_Source\PSoC4/BLE_hts.c ****         for(locCharIndex = CYBLE_HTS_TEMP_MEASURE; locCharIndex < CYBLE_HTS_CHAR_COUNT; locCharInde
 2414              		.loc 1 1056 0
 2415 0010 1723     		movs	r3, #23
 2416 0012 FB18     		adds	r3, r7, r3
 2417 0014 0022     		movs	r2, #0
 2418 0016 1A70     		strb	r2, [r3]
 2419 0018 37E0     		b	.L138
 2420              	.L140:
1057:Generated_Source\PSoC4/BLE_hts.c ****         {
1058:Generated_Source\PSoC4/BLE_hts.c ****             if(cyBle_htsc.charInfo[locCharIndex].valueHandle == eventParam->handleValPair.attrHandl
 2421              		.loc 1 1058 0
 2422 001a 1723     		movs	r3, #23
 2423 001c FB18     		adds	r3, r7, r3
 2424 001e 1A78     		ldrb	r2, [r3]
 2425 0020 1F49     		ldr	r1, .L142+4
 2426 0022 1300     		movs	r3, r2
 2427 0024 9B00     		lsls	r3, r3, #2
 2428 0026 9B18     		adds	r3, r3, r2
 2429 0028 5B00     		lsls	r3, r3, #1
 2430 002a CB18     		adds	r3, r1, r3
 2431 002c 0433     		adds	r3, r3, #4
 2432 002e 1A88     		ldrh	r2, [r3]
 2433 0030 7B68     		ldr	r3, [r7, #4]
 2434 0032 9B89     		ldrh	r3, [r3, #12]
 2435 0034 9A42     		cmp	r2, r3
 2436 0036 21D1     		bne	.L139
1059:Generated_Source\PSoC4/BLE_hts.c ****             {
1060:Generated_Source\PSoC4/BLE_hts.c ****                 notifValue.connHandle = eventParam->connHandle;
 2437              		.loc 1 1060 0
 2438 0038 0C23     		movs	r3, #12
 2439 003a FB18     		adds	r3, r7, r3
 2440 003c 7A68     		ldr	r2, [r7, #4]
 2441 003e 1288     		ldrh	r2, [r2]
 2442 0040 1A80     		strh	r2, [r3]
1061:Generated_Source\PSoC4/BLE_hts.c ****                 notifValue.charIndex = locCharIndex;
 2443              		.loc 1 1061 0
 2444 0042 0C23     		movs	r3, #12
 2445 0044 FB18     		adds	r3, r7, r3
 2446 0046 1722     		movs	r2, #23
 2447 0048 BA18     		adds	r2, r7, r2
 2448 004a 1278     		ldrb	r2, [r2]
 2449 004c 9A70     		strb	r2, [r3, #2]
1062:Generated_Source\PSoC4/BLE_hts.c ****                 notifValue.value = &eventParam->handleValPair.value;
 2450              		.loc 1 1062 0
 2451 004e 7B68     		ldr	r3, [r7, #4]
 2452 0050 1A1D     		adds	r2, r3, #4
 2453 0052 0C23     		movs	r3, #12
 2454 0054 FB18     		adds	r3, r7, r3
 2455 0056 5A60     		str	r2, [r3, #4]
1063:Generated_Source\PSoC4/BLE_hts.c ****                 CyBle_HtsApplCallback((uint32)CYBLE_EVT_HTSC_NOTIFICATION, &notifValue);
 2456              		.loc 1 1063 0
 2457 0058 104B     		ldr	r3, .L142
ARM GAS  C:\Users\User\AppData\Local\Temp\ccmH1EJa.s 			page 63


 2458 005a 1B68     		ldr	r3, [r3]
 2459 005c 0C22     		movs	r2, #12
 2460 005e B918     		adds	r1, r7, r2
 2461 0060 B822     		movs	r2, #184
 2462 0062 FF32     		adds	r2, r2, #255
 2463 0064 1000     		movs	r0, r2
 2464 0066 9847     		blx	r3
1064:Generated_Source\PSoC4/BLE_hts.c ****                 cyBle_eventHandlerFlag &= (uint8)~CYBLE_CALLBACK;
 2465              		.loc 1 1064 0
 2466 0068 0E4B     		ldr	r3, .L142+8
 2467 006a 1B78     		ldrb	r3, [r3]
 2468 006c DBB2     		uxtb	r3, r3
 2469 006e 0122     		movs	r2, #1
 2470 0070 9343     		bics	r3, r2
 2471 0072 DAB2     		uxtb	r2, r3
 2472 0074 0B4B     		ldr	r3, .L142+8
 2473 0076 1A70     		strb	r2, [r3]
1065:Generated_Source\PSoC4/BLE_hts.c ****                 break;
 2474              		.loc 1 1065 0
 2475 0078 C046     		nop
1066:Generated_Source\PSoC4/BLE_hts.c ****             }
1067:Generated_Source\PSoC4/BLE_hts.c ****         }
1068:Generated_Source\PSoC4/BLE_hts.c ****     }
1069:Generated_Source\PSoC4/BLE_hts.c **** }
 2476              		.loc 1 1069 0
 2477 007a 0BE0     		b	.L141
 2478              	.L139:
1056:Generated_Source\PSoC4/BLE_hts.c ****         {
 2479              		.loc 1 1056 0 discriminator 2
 2480 007c 1723     		movs	r3, #23
 2481 007e FB18     		adds	r3, r7, r3
 2482 0080 1A78     		ldrb	r2, [r3]
 2483 0082 1723     		movs	r3, #23
 2484 0084 FB18     		adds	r3, r7, r3
 2485 0086 0132     		adds	r2, r2, #1
 2486 0088 1A70     		strb	r2, [r3]
 2487              	.L138:
1056:Generated_Source\PSoC4/BLE_hts.c ****         {
 2488              		.loc 1 1056 0 is_stmt 0 discriminator 1
 2489 008a 1723     		movs	r3, #23
 2490 008c FB18     		adds	r3, r7, r3
 2491 008e 1B78     		ldrb	r3, [r3]
 2492 0090 032B     		cmp	r3, #3
 2493 0092 C2D9     		bls	.L140
 2494              	.L141:
 2495              		.loc 1 1069 0 is_stmt 1
 2496 0094 C046     		nop
 2497 0096 BD46     		mov	sp, r7
 2498 0098 06B0     		add	sp, sp, #24
 2499              		@ sp needed
 2500 009a 80BD     		pop	{r7, pc}
 2501              	.L143:
 2502              		.align	2
 2503              	.L142:
 2504 009c 00000000 		.word	CyBle_HtsApplCallback
 2505 00a0 00000000 		.word	cyBle_htsc
 2506 00a4 00000000 		.word	cyBle_eventHandlerFlag
ARM GAS  C:\Users\User\AppData\Local\Temp\ccmH1EJa.s 			page 64


 2507              		.cfi_endproc
 2508              	.LFE18:
 2509              		.size	CyBle_HtscNotificationEventHandler, .-CyBle_HtscNotificationEventHandler
 2510              		.section	.text.CyBle_HtscIndicationEventHandler,"ax",%progbits
 2511              		.align	2
 2512              		.global	CyBle_HtscIndicationEventHandler
 2513              		.code	16
 2514              		.thumb_func
 2515              		.type	CyBle_HtscIndicationEventHandler, %function
 2516              	CyBle_HtscIndicationEventHandler:
 2517              	.LFB19:
1070:Generated_Source\PSoC4/BLE_hts.c **** 
1071:Generated_Source\PSoC4/BLE_hts.c **** 
1072:Generated_Source\PSoC4/BLE_hts.c **** /******************************************************************************
1073:Generated_Source\PSoC4/BLE_hts.c **** * Function Name: CyBle_HtscIndicationEventHandler
1074:Generated_Source\PSoC4/BLE_hts.c **** ***************************************************************************//**
1075:Generated_Source\PSoC4/BLE_hts.c **** * 
1076:Generated_Source\PSoC4/BLE_hts.c **** *  Handles Indication Event.
1077:Generated_Source\PSoC4/BLE_hts.c **** * 
1078:Generated_Source\PSoC4/BLE_hts.c **** *  \param eventParam: The pointer to the data structure specified by an event.
1079:Generated_Source\PSoC4/BLE_hts.c **** * 
1080:Generated_Source\PSoC4/BLE_hts.c **** ******************************************************************************/
1081:Generated_Source\PSoC4/BLE_hts.c **** void CyBle_HtscIndicationEventHandler(CYBLE_GATTC_HANDLE_VALUE_IND_PARAM_T *eventParam)
1082:Generated_Source\PSoC4/BLE_hts.c **** {
 2518              		.loc 1 1082 0
 2519              		.cfi_startproc
 2520              		@ args = 0, pretend = 0, frame = 24
 2521              		@ frame_needed = 1, uses_anonymous_args = 0
 2522 0000 80B5     		push	{r7, lr}
 2523              		.cfi_def_cfa_offset 8
 2524              		.cfi_offset 7, -8
 2525              		.cfi_offset 14, -4
 2526 0002 86B0     		sub	sp, sp, #24
 2527              		.cfi_def_cfa_offset 32
 2528 0004 00AF     		add	r7, sp, #0
 2529              		.cfi_def_cfa_register 7
 2530 0006 7860     		str	r0, [r7, #4]
1083:Generated_Source\PSoC4/BLE_hts.c ****     CYBLE_HTS_CHAR_INDEX_T locCharIndex;
1084:Generated_Source\PSoC4/BLE_hts.c ****     CYBLE_HTS_CHAR_VALUE_T indicationValue;
1085:Generated_Source\PSoC4/BLE_hts.c **** 
1086:Generated_Source\PSoC4/BLE_hts.c ****     if(NULL != CyBle_HtsApplCallback)
 2531              		.loc 1 1086 0
 2532 0008 244B     		ldr	r3, .L150
 2533 000a 1B68     		ldr	r3, [r3]
 2534 000c 002B     		cmp	r3, #0
 2535 000e 41D0     		beq	.L149
1087:Generated_Source\PSoC4/BLE_hts.c ****     {
1088:Generated_Source\PSoC4/BLE_hts.c ****         for(locCharIndex = CYBLE_HTS_TEMP_MEASURE; locCharIndex < CYBLE_HTS_CHAR_COUNT; locCharInde
 2536              		.loc 1 1088 0
 2537 0010 1723     		movs	r3, #23
 2538 0012 FB18     		adds	r3, r7, r3
 2539 0014 0022     		movs	r2, #0
 2540 0016 1A70     		strb	r2, [r3]
 2541 0018 37E0     		b	.L146
 2542              	.L148:
1089:Generated_Source\PSoC4/BLE_hts.c ****         {
1090:Generated_Source\PSoC4/BLE_hts.c ****             if(cyBle_htsc.charInfo[locCharIndex].valueHandle == eventParam->handleValPair.attrHandl
ARM GAS  C:\Users\User\AppData\Local\Temp\ccmH1EJa.s 			page 65


 2543              		.loc 1 1090 0
 2544 001a 1723     		movs	r3, #23
 2545 001c FB18     		adds	r3, r7, r3
 2546 001e 1A78     		ldrb	r2, [r3]
 2547 0020 1F49     		ldr	r1, .L150+4
 2548 0022 1300     		movs	r3, r2
 2549 0024 9B00     		lsls	r3, r3, #2
 2550 0026 9B18     		adds	r3, r3, r2
 2551 0028 5B00     		lsls	r3, r3, #1
 2552 002a CB18     		adds	r3, r1, r3
 2553 002c 0433     		adds	r3, r3, #4
 2554 002e 1A88     		ldrh	r2, [r3]
 2555 0030 7B68     		ldr	r3, [r7, #4]
 2556 0032 9B89     		ldrh	r3, [r3, #12]
 2557 0034 9A42     		cmp	r2, r3
 2558 0036 21D1     		bne	.L147
1091:Generated_Source\PSoC4/BLE_hts.c ****             {
1092:Generated_Source\PSoC4/BLE_hts.c ****                 indicationValue.connHandle = eventParam->connHandle;
 2559              		.loc 1 1092 0
 2560 0038 0C23     		movs	r3, #12
 2561 003a FB18     		adds	r3, r7, r3
 2562 003c 7A68     		ldr	r2, [r7, #4]
 2563 003e 1288     		ldrh	r2, [r2]
 2564 0040 1A80     		strh	r2, [r3]
1093:Generated_Source\PSoC4/BLE_hts.c ****                 indicationValue.charIndex = locCharIndex;
 2565              		.loc 1 1093 0
 2566 0042 0C23     		movs	r3, #12
 2567 0044 FB18     		adds	r3, r7, r3
 2568 0046 1722     		movs	r2, #23
 2569 0048 BA18     		adds	r2, r7, r2
 2570 004a 1278     		ldrb	r2, [r2]
 2571 004c 9A70     		strb	r2, [r3, #2]
1094:Generated_Source\PSoC4/BLE_hts.c ****                 indicationValue.value = &eventParam->handleValPair.value;
 2572              		.loc 1 1094 0
 2573 004e 7B68     		ldr	r3, [r7, #4]
 2574 0050 1A1D     		adds	r2, r3, #4
 2575 0052 0C23     		movs	r3, #12
 2576 0054 FB18     		adds	r3, r7, r3
 2577 0056 5A60     		str	r2, [r3, #4]
1095:Generated_Source\PSoC4/BLE_hts.c ****                 CyBle_HtsApplCallback((uint32)CYBLE_EVT_HTSC_INDICATION, &indicationValue);
 2578              		.loc 1 1095 0
 2579 0058 104B     		ldr	r3, .L150
 2580 005a 1B68     		ldr	r3, [r3]
 2581 005c 0C22     		movs	r2, #12
 2582 005e B918     		adds	r1, r7, r2
 2583 0060 DC22     		movs	r2, #220
 2584 0062 5200     		lsls	r2, r2, #1
 2585 0064 1000     		movs	r0, r2
 2586 0066 9847     		blx	r3
1096:Generated_Source\PSoC4/BLE_hts.c ****                 cyBle_eventHandlerFlag &= (uint8)~CYBLE_CALLBACK;
 2587              		.loc 1 1096 0
 2588 0068 0E4B     		ldr	r3, .L150+8
 2589 006a 1B78     		ldrb	r3, [r3]
 2590 006c DBB2     		uxtb	r3, r3
 2591 006e 0122     		movs	r2, #1
 2592 0070 9343     		bics	r3, r2
 2593 0072 DAB2     		uxtb	r2, r3
ARM GAS  C:\Users\User\AppData\Local\Temp\ccmH1EJa.s 			page 66


 2594 0074 0B4B     		ldr	r3, .L150+8
 2595 0076 1A70     		strb	r2, [r3]
1097:Generated_Source\PSoC4/BLE_hts.c ****                 break;
 2596              		.loc 1 1097 0
 2597 0078 C046     		nop
1098:Generated_Source\PSoC4/BLE_hts.c ****             }
1099:Generated_Source\PSoC4/BLE_hts.c ****         }
1100:Generated_Source\PSoC4/BLE_hts.c ****     }
1101:Generated_Source\PSoC4/BLE_hts.c **** }
 2598              		.loc 1 1101 0
 2599 007a 0BE0     		b	.L149
 2600              	.L147:
1088:Generated_Source\PSoC4/BLE_hts.c ****         {
 2601              		.loc 1 1088 0 discriminator 2
 2602 007c 1723     		movs	r3, #23
 2603 007e FB18     		adds	r3, r7, r3
 2604 0080 1A78     		ldrb	r2, [r3]
 2605 0082 1723     		movs	r3, #23
 2606 0084 FB18     		adds	r3, r7, r3
 2607 0086 0132     		adds	r2, r2, #1
 2608 0088 1A70     		strb	r2, [r3]
 2609              	.L146:
1088:Generated_Source\PSoC4/BLE_hts.c ****         {
 2610              		.loc 1 1088 0 is_stmt 0 discriminator 1
 2611 008a 1723     		movs	r3, #23
 2612 008c FB18     		adds	r3, r7, r3
 2613 008e 1B78     		ldrb	r3, [r3]
 2614 0090 032B     		cmp	r3, #3
 2615 0092 C2D9     		bls	.L148
 2616              	.L149:
 2617              		.loc 1 1101 0 is_stmt 1
 2618 0094 C046     		nop
 2619 0096 BD46     		mov	sp, r7
 2620 0098 06B0     		add	sp, sp, #24
 2621              		@ sp needed
 2622 009a 80BD     		pop	{r7, pc}
 2623              	.L151:
 2624              		.align	2
 2625              	.L150:
 2626 009c 00000000 		.word	CyBle_HtsApplCallback
 2627 00a0 00000000 		.word	cyBle_htsc
 2628 00a4 00000000 		.word	cyBle_eventHandlerFlag
 2629              		.cfi_endproc
 2630              	.LFE19:
 2631              		.size	CyBle_HtscIndicationEventHandler, .-CyBle_HtscIndicationEventHandler
 2632              		.section	.text.CyBle_HtscReadResponseEventHandler,"ax",%progbits
 2633              		.align	2
 2634              		.global	CyBle_HtscReadResponseEventHandler
 2635              		.code	16
 2636              		.thumb_func
 2637              		.type	CyBle_HtscReadResponseEventHandler, %function
 2638              	CyBle_HtscReadResponseEventHandler:
 2639              	.LFB20:
1102:Generated_Source\PSoC4/BLE_hts.c **** 
1103:Generated_Source\PSoC4/BLE_hts.c **** 
1104:Generated_Source\PSoC4/BLE_hts.c **** /******************************************************************************
1105:Generated_Source\PSoC4/BLE_hts.c **** * Function Name: CyBle_HtscReadResponseEventHandler
ARM GAS  C:\Users\User\AppData\Local\Temp\ccmH1EJa.s 			page 67


1106:Generated_Source\PSoC4/BLE_hts.c **** ***************************************************************************//**
1107:Generated_Source\PSoC4/BLE_hts.c **** * 
1108:Generated_Source\PSoC4/BLE_hts.c **** *  Handles Read Response Event.
1109:Generated_Source\PSoC4/BLE_hts.c **** * 
1110:Generated_Source\PSoC4/BLE_hts.c **** *  \param eventParam: The pointer to the data structure specified by an event.
1111:Generated_Source\PSoC4/BLE_hts.c **** * 
1112:Generated_Source\PSoC4/BLE_hts.c **** ******************************************************************************/
1113:Generated_Source\PSoC4/BLE_hts.c **** void CyBle_HtscReadResponseEventHandler(CYBLE_GATTC_READ_RSP_PARAM_T *eventParam)
1114:Generated_Source\PSoC4/BLE_hts.c **** {
 2640              		.loc 1 1114 0
 2641              		.cfi_startproc
 2642              		@ args = 0, pretend = 0, frame = 32
 2643              		@ frame_needed = 1, uses_anonymous_args = 0
 2644 0000 80B5     		push	{r7, lr}
 2645              		.cfi_def_cfa_offset 8
 2646              		.cfi_offset 7, -8
 2647              		.cfi_offset 14, -4
 2648 0002 88B0     		sub	sp, sp, #32
 2649              		.cfi_def_cfa_offset 40
 2650 0004 00AF     		add	r7, sp, #0
 2651              		.cfi_def_cfa_register 7
 2652 0006 7860     		str	r0, [r7, #4]
1115:Generated_Source\PSoC4/BLE_hts.c ****     uint8 locReqHandle = 0u;
 2653              		.loc 1 1115 0
 2654 0008 1F23     		movs	r3, #31
 2655 000a FB18     		adds	r3, r7, r3
 2656 000c 0022     		movs	r2, #0
 2657 000e 1A70     		strb	r2, [r3]
1116:Generated_Source\PSoC4/BLE_hts.c ****     CYBLE_HTS_CHAR_INDEX_T locCharIndex;
1117:Generated_Source\PSoC4/BLE_hts.c **** 
1118:Generated_Source\PSoC4/BLE_hts.c ****     if((NULL != CyBle_HtsApplCallback) && (CYBLE_GATT_INVALID_ATTR_HANDLE_VALUE != cyBle_htscReqHan
 2658              		.loc 1 1118 0
 2659 0010 564B     		ldr	r3, .L163
 2660 0012 1B68     		ldr	r3, [r3]
 2661 0014 002B     		cmp	r3, #0
 2662 0016 00D1     		bne	.LCB2400
 2663 0018 A3E0     		b	.L162	@long jump
 2664              	.LCB2400:
 2665              		.loc 1 1118 0 is_stmt 0 discriminator 1
 2666 001a 554B     		ldr	r3, .L163+4
 2667 001c 1B88     		ldrh	r3, [r3]
 2668 001e 002B     		cmp	r3, #0
 2669 0020 00D1     		bne	.LCB2404
 2670 0022 9EE0     		b	.L162	@long jump
 2671              	.LCB2404:
1119:Generated_Source\PSoC4/BLE_hts.c ****     {
1120:Generated_Source\PSoC4/BLE_hts.c ****         for(locCharIndex = CYBLE_HTS_TEMP_MEASURE; (locCharIndex < CYBLE_HTS_CHAR_COUNT) && (locReq
 2672              		.loc 1 1120 0 is_stmt 1
 2673 0024 1E23     		movs	r3, #30
 2674 0026 FB18     		adds	r3, r7, r3
 2675 0028 0022     		movs	r2, #0
 2676 002a 1A70     		strb	r2, [r3]
 2677 002c 81E0     		b	.L154
 2678              	.L161:
1121:Generated_Source\PSoC4/BLE_hts.c ****             locCharIndex++)
1122:Generated_Source\PSoC4/BLE_hts.c ****         {
1123:Generated_Source\PSoC4/BLE_hts.c ****             if(cyBle_htscReqHandle == cyBle_htsc.charInfo[locCharIndex].valueHandle)
ARM GAS  C:\Users\User\AppData\Local\Temp\ccmH1EJa.s 			page 68


 2679              		.loc 1 1123 0
 2680 002e 1E23     		movs	r3, #30
 2681 0030 FB18     		adds	r3, r7, r3
 2682 0032 1A78     		ldrb	r2, [r3]
 2683 0034 4F49     		ldr	r1, .L163+8
 2684 0036 1300     		movs	r3, r2
 2685 0038 9B00     		lsls	r3, r3, #2
 2686 003a 9B18     		adds	r3, r3, r2
 2687 003c 5B00     		lsls	r3, r3, #1
 2688 003e CB18     		adds	r3, r1, r3
 2689 0040 0433     		adds	r3, r3, #4
 2690 0042 1A88     		ldrh	r2, [r3]
 2691 0044 4A4B     		ldr	r3, .L163+4
 2692 0046 1B88     		ldrh	r3, [r3]
 2693 0048 9A42     		cmp	r2, r3
 2694 004a 1FD1     		bne	.L155
 2695              	.LBB6:
1124:Generated_Source\PSoC4/BLE_hts.c ****             {
1125:Generated_Source\PSoC4/BLE_hts.c ****                 CYBLE_HTS_CHAR_VALUE_T locCharValue;
1126:Generated_Source\PSoC4/BLE_hts.c ****                 
1127:Generated_Source\PSoC4/BLE_hts.c ****                 locCharValue.connHandle = eventParam->connHandle;
 2696              		.loc 1 1127 0
 2697 004c 1423     		movs	r3, #20
 2698 004e FB18     		adds	r3, r7, r3
 2699 0050 7A68     		ldr	r2, [r7, #4]
 2700 0052 1288     		ldrh	r2, [r2]
 2701 0054 1A80     		strh	r2, [r3]
1128:Generated_Source\PSoC4/BLE_hts.c ****                 locCharValue.charIndex = locCharIndex;
 2702              		.loc 1 1128 0
 2703 0056 1423     		movs	r3, #20
 2704 0058 FB18     		adds	r3, r7, r3
 2705 005a 1E22     		movs	r2, #30
 2706 005c BA18     		adds	r2, r7, r2
 2707 005e 1278     		ldrb	r2, [r2]
 2708 0060 9A70     		strb	r2, [r3, #2]
1129:Generated_Source\PSoC4/BLE_hts.c ****                 locCharValue.value = &eventParam->value;
 2709              		.loc 1 1129 0
 2710 0062 7B68     		ldr	r3, [r7, #4]
 2711 0064 1A1D     		adds	r2, r3, #4
 2712 0066 1423     		movs	r3, #20
 2713 0068 FB18     		adds	r3, r7, r3
 2714 006a 5A60     		str	r2, [r3, #4]
1130:Generated_Source\PSoC4/BLE_hts.c ****                 cyBle_htscReqHandle = CYBLE_GATT_INVALID_ATTR_HANDLE_VALUE;
 2715              		.loc 1 1130 0
 2716 006c 404B     		ldr	r3, .L163+4
 2717 006e 0022     		movs	r2, #0
 2718 0070 1A80     		strh	r2, [r3]
1131:Generated_Source\PSoC4/BLE_hts.c ****                 CyBle_HtsApplCallback((uint32)CYBLE_EVT_HTSC_READ_CHAR_RESPONSE, &locCharValue);
 2719              		.loc 1 1131 0
 2720 0072 3E4B     		ldr	r3, .L163
 2721 0074 1B68     		ldr	r3, [r3]
 2722 0076 1422     		movs	r2, #20
 2723 0078 B918     		adds	r1, r7, r2
 2724 007a BA22     		movs	r2, #186
 2725 007c FF32     		adds	r2, r2, #255
 2726 007e 1000     		movs	r0, r2
 2727 0080 9847     		blx	r3
ARM GAS  C:\Users\User\AppData\Local\Temp\ccmH1EJa.s 			page 69


1132:Generated_Source\PSoC4/BLE_hts.c ****                 locReqHandle = 1u;
 2728              		.loc 1 1132 0
 2729 0082 1F23     		movs	r3, #31
 2730 0084 FB18     		adds	r3, r7, r3
 2731 0086 0122     		movs	r2, #1
 2732 0088 1A70     		strb	r2, [r3]
 2733              	.LBE6:
 2734 008a 4BE0     		b	.L156
 2735              	.L155:
 2736              	.LBB7:
1133:Generated_Source\PSoC4/BLE_hts.c ****             }
1134:Generated_Source\PSoC4/BLE_hts.c ****             else
1135:Generated_Source\PSoC4/BLE_hts.c ****             {
1136:Generated_Source\PSoC4/BLE_hts.c ****                 CYBLE_HTS_DESCR_INDEX_T locDescIndex;
1137:Generated_Source\PSoC4/BLE_hts.c **** 
1138:Generated_Source\PSoC4/BLE_hts.c ****                 for(locDescIndex = CYBLE_HTS_CCCD; (locDescIndex < CYBLE_HTS_DESCR_COUNT) &&
 2737              		.loc 1 1138 0
 2738 008c 1D23     		movs	r3, #29
 2739 008e FB18     		adds	r3, r7, r3
 2740 0090 0022     		movs	r2, #0
 2741 0092 1A70     		strb	r2, [r3]
 2742 0094 3CE0     		b	.L157
 2743              	.L159:
1139:Generated_Source\PSoC4/BLE_hts.c ****                    (locReqHandle == 0u); locDescIndex++)
1140:Generated_Source\PSoC4/BLE_hts.c ****                 {
1141:Generated_Source\PSoC4/BLE_hts.c ****                     if(cyBle_htscReqHandle == cyBle_htsc.charInfo[locCharIndex].descrHandle[locDesc
 2744              		.loc 1 1141 0
 2745 0096 1E23     		movs	r3, #30
 2746 0098 FB18     		adds	r3, r7, r3
 2747 009a 1A78     		ldrb	r2, [r3]
 2748 009c 1D23     		movs	r3, #29
 2749 009e FB18     		adds	r3, r7, r3
 2750 00a0 1878     		ldrb	r0, [r3]
 2751 00a2 3449     		ldr	r1, .L163+8
 2752 00a4 1300     		movs	r3, r2
 2753 00a6 9B00     		lsls	r3, r3, #2
 2754 00a8 9B18     		adds	r3, r3, r2
 2755 00aa 1B18     		adds	r3, r3, r0
 2756 00ac 5B00     		lsls	r3, r3, #1
 2757 00ae 5A5A     		ldrh	r2, [r3, r1]
 2758 00b0 2F4B     		ldr	r3, .L163+4
 2759 00b2 1B88     		ldrh	r3, [r3]
 2760 00b4 9A42     		cmp	r2, r3
 2761 00b6 24D1     		bne	.L158
 2762              	.LBB8:
1142:Generated_Source\PSoC4/BLE_hts.c ****                     {
1143:Generated_Source\PSoC4/BLE_hts.c ****                         CYBLE_HTS_DESCR_VALUE_T locDescrValue;
1144:Generated_Source\PSoC4/BLE_hts.c ****                         
1145:Generated_Source\PSoC4/BLE_hts.c ****                         locDescrValue.connHandle = eventParam->connHandle;
 2763              		.loc 1 1145 0
 2764 00b8 0C23     		movs	r3, #12
 2765 00ba FB18     		adds	r3, r7, r3
 2766 00bc 7A68     		ldr	r2, [r7, #4]
 2767 00be 1288     		ldrh	r2, [r2]
 2768 00c0 1A80     		strh	r2, [r3]
1146:Generated_Source\PSoC4/BLE_hts.c ****                         locDescrValue.charIndex = locCharIndex;
 2769              		.loc 1 1146 0
ARM GAS  C:\Users\User\AppData\Local\Temp\ccmH1EJa.s 			page 70


 2770 00c2 0C23     		movs	r3, #12
 2771 00c4 FB18     		adds	r3, r7, r3
 2772 00c6 1E22     		movs	r2, #30
 2773 00c8 BA18     		adds	r2, r7, r2
 2774 00ca 1278     		ldrb	r2, [r2]
 2775 00cc 9A70     		strb	r2, [r3, #2]
1147:Generated_Source\PSoC4/BLE_hts.c ****                         locDescrValue.descrIndex = locDescIndex;
 2776              		.loc 1 1147 0
 2777 00ce 0C23     		movs	r3, #12
 2778 00d0 FB18     		adds	r3, r7, r3
 2779 00d2 1D22     		movs	r2, #29
 2780 00d4 BA18     		adds	r2, r7, r2
 2781 00d6 1278     		ldrb	r2, [r2]
 2782 00d8 DA70     		strb	r2, [r3, #3]
1148:Generated_Source\PSoC4/BLE_hts.c ****                         locDescrValue.value = &eventParam->value;
 2783              		.loc 1 1148 0
 2784 00da 7B68     		ldr	r3, [r7, #4]
 2785 00dc 1A1D     		adds	r2, r3, #4
 2786 00de 0C23     		movs	r3, #12
 2787 00e0 FB18     		adds	r3, r7, r3
 2788 00e2 5A60     		str	r2, [r3, #4]
1149:Generated_Source\PSoC4/BLE_hts.c ****                         cyBle_htscReqHandle = CYBLE_GATT_INVALID_ATTR_HANDLE_VALUE;
 2789              		.loc 1 1149 0
 2790 00e4 224B     		ldr	r3, .L163+4
 2791 00e6 0022     		movs	r2, #0
 2792 00e8 1A80     		strh	r2, [r3]
1150:Generated_Source\PSoC4/BLE_hts.c ****                         CyBle_HtsApplCallback((uint32)CYBLE_EVT_HTSC_READ_DESCR_RESPONSE, &locDescr
 2793              		.loc 1 1150 0
 2794 00ea 204B     		ldr	r3, .L163
 2795 00ec 1B68     		ldr	r3, [r3]
 2796 00ee 0C22     		movs	r2, #12
 2797 00f0 B918     		adds	r1, r7, r2
 2798 00f2 BC22     		movs	r2, #188
 2799 00f4 FF32     		adds	r2, r2, #255
 2800 00f6 1000     		movs	r0, r2
 2801 00f8 9847     		blx	r3
1151:Generated_Source\PSoC4/BLE_hts.c ****                         locReqHandle = 1u;
 2802              		.loc 1 1151 0
 2803 00fa 1F23     		movs	r3, #31
 2804 00fc FB18     		adds	r3, r7, r3
 2805 00fe 0122     		movs	r2, #1
 2806 0100 1A70     		strb	r2, [r3]
 2807              	.L158:
 2808              	.LBE8:
1139:Generated_Source\PSoC4/BLE_hts.c ****                 {
 2809              		.loc 1 1139 0
 2810 0102 1D23     		movs	r3, #29
 2811 0104 FB18     		adds	r3, r7, r3
 2812 0106 1A78     		ldrb	r2, [r3]
 2813 0108 1D23     		movs	r3, #29
 2814 010a FB18     		adds	r3, r7, r3
 2815 010c 0132     		adds	r2, r2, #1
 2816 010e 1A70     		strb	r2, [r3]
 2817              	.L157:
1138:Generated_Source\PSoC4/BLE_hts.c ****                    (locReqHandle == 0u); locDescIndex++)
 2818              		.loc 1 1138 0 discriminator 1
 2819 0110 1D23     		movs	r3, #29
ARM GAS  C:\Users\User\AppData\Local\Temp\ccmH1EJa.s 			page 71


 2820 0112 FB18     		adds	r3, r7, r3
 2821 0114 1B78     		ldrb	r3, [r3]
 2822 0116 012B     		cmp	r3, #1
 2823 0118 04D8     		bhi	.L156
1138:Generated_Source\PSoC4/BLE_hts.c ****                    (locReqHandle == 0u); locDescIndex++)
 2824              		.loc 1 1138 0 is_stmt 0 discriminator 2
 2825 011a 1F23     		movs	r3, #31
 2826 011c FB18     		adds	r3, r7, r3
 2827 011e 1B78     		ldrb	r3, [r3]
 2828 0120 002B     		cmp	r3, #0
 2829 0122 B8D0     		beq	.L159
 2830              	.L156:
 2831              	.LBE7:
1121:Generated_Source\PSoC4/BLE_hts.c ****         {
 2832              		.loc 1 1121 0 is_stmt 1
 2833 0124 1E23     		movs	r3, #30
 2834 0126 FB18     		adds	r3, r7, r3
 2835 0128 1A78     		ldrb	r2, [r3]
 2836 012a 1E23     		movs	r3, #30
 2837 012c FB18     		adds	r3, r7, r3
 2838 012e 0132     		adds	r2, r2, #1
 2839 0130 1A70     		strb	r2, [r3]
 2840              	.L154:
1120:Generated_Source\PSoC4/BLE_hts.c ****             locCharIndex++)
 2841              		.loc 1 1120 0 discriminator 1
 2842 0132 1E23     		movs	r3, #30
 2843 0134 FB18     		adds	r3, r7, r3
 2844 0136 1B78     		ldrb	r3, [r3]
 2845 0138 032B     		cmp	r3, #3
 2846 013a 05D8     		bhi	.L160
1120:Generated_Source\PSoC4/BLE_hts.c ****             locCharIndex++)
 2847              		.loc 1 1120 0 is_stmt 0 discriminator 2
 2848 013c 1F23     		movs	r3, #31
 2849 013e FB18     		adds	r3, r7, r3
 2850 0140 1B78     		ldrb	r3, [r3]
 2851 0142 002B     		cmp	r3, #0
 2852 0144 00D1     		bne	.LCB2571
 2853 0146 72E7     		b	.L161	@long jump
 2854              	.LCB2571:
 2855              	.L160:
1152:Generated_Source\PSoC4/BLE_hts.c ****                     }
1153:Generated_Source\PSoC4/BLE_hts.c ****                 }
1154:Generated_Source\PSoC4/BLE_hts.c ****             }
1155:Generated_Source\PSoC4/BLE_hts.c ****         }
1156:Generated_Source\PSoC4/BLE_hts.c ****         if(locReqHandle != 0u)
 2856              		.loc 1 1156 0 is_stmt 1
 2857 0148 1F23     		movs	r3, #31
 2858 014a FB18     		adds	r3, r7, r3
 2859 014c 1B78     		ldrb	r3, [r3]
 2860 014e 002B     		cmp	r3, #0
 2861 0150 07D0     		beq	.L162
1157:Generated_Source\PSoC4/BLE_hts.c ****         {
1158:Generated_Source\PSoC4/BLE_hts.c ****             cyBle_eventHandlerFlag &= (uint8)~CYBLE_CALLBACK;
 2862              		.loc 1 1158 0
 2863 0152 094B     		ldr	r3, .L163+12
 2864 0154 1B78     		ldrb	r3, [r3]
 2865 0156 DBB2     		uxtb	r3, r3
ARM GAS  C:\Users\User\AppData\Local\Temp\ccmH1EJa.s 			page 72


 2866 0158 0122     		movs	r2, #1
 2867 015a 9343     		bics	r3, r2
 2868 015c DAB2     		uxtb	r2, r3
 2869 015e 064B     		ldr	r3, .L163+12
 2870 0160 1A70     		strb	r2, [r3]
 2871              	.L162:
1159:Generated_Source\PSoC4/BLE_hts.c ****         }
1160:Generated_Source\PSoC4/BLE_hts.c ****     }
1161:Generated_Source\PSoC4/BLE_hts.c **** }
 2872              		.loc 1 1161 0
 2873 0162 C046     		nop
 2874 0164 BD46     		mov	sp, r7
 2875 0166 08B0     		add	sp, sp, #32
 2876              		@ sp needed
 2877 0168 80BD     		pop	{r7, pc}
 2878              	.L164:
 2879 016a C046     		.align	2
 2880              	.L163:
 2881 016c 00000000 		.word	CyBle_HtsApplCallback
 2882 0170 06000000 		.word	cyBle_htscReqHandle
 2883 0174 00000000 		.word	cyBle_htsc
 2884 0178 00000000 		.word	cyBle_eventHandlerFlag
 2885              		.cfi_endproc
 2886              	.LFE20:
 2887              		.size	CyBle_HtscReadResponseEventHandler, .-CyBle_HtscReadResponseEventHandler
 2888              		.section	.text.CyBle_HtscWriteResponseEventHandler,"ax",%progbits
 2889              		.align	2
 2890              		.global	CyBle_HtscWriteResponseEventHandler
 2891              		.code	16
 2892              		.thumb_func
 2893              		.type	CyBle_HtscWriteResponseEventHandler, %function
 2894              	CyBle_HtscWriteResponseEventHandler:
 2895              	.LFB21:
1162:Generated_Source\PSoC4/BLE_hts.c **** 
1163:Generated_Source\PSoC4/BLE_hts.c **** 
1164:Generated_Source\PSoC4/BLE_hts.c **** /******************************************************************************
1165:Generated_Source\PSoC4/BLE_hts.c **** * Function Name: CyBle_HtscWriteResponseEventHandler
1166:Generated_Source\PSoC4/BLE_hts.c **** ***************************************************************************//**
1167:Generated_Source\PSoC4/BLE_hts.c **** * 
1168:Generated_Source\PSoC4/BLE_hts.c **** *  Handles Write Response Event.
1169:Generated_Source\PSoC4/BLE_hts.c **** * 
1170:Generated_Source\PSoC4/BLE_hts.c **** *  \param eventParam: The pointer to a data structure specified by the event.
1171:Generated_Source\PSoC4/BLE_hts.c **** * 
1172:Generated_Source\PSoC4/BLE_hts.c **** ******************************************************************************/
1173:Generated_Source\PSoC4/BLE_hts.c **** void CyBle_HtscWriteResponseEventHandler(const CYBLE_CONN_HANDLE_T *eventParam)
1174:Generated_Source\PSoC4/BLE_hts.c **** {
 2896              		.loc 1 1174 0
 2897              		.cfi_startproc
 2898              		@ args = 0, pretend = 0, frame = 32
 2899              		@ frame_needed = 1, uses_anonymous_args = 0
 2900 0000 80B5     		push	{r7, lr}
 2901              		.cfi_def_cfa_offset 8
 2902              		.cfi_offset 7, -8
 2903              		.cfi_offset 14, -4
 2904 0002 88B0     		sub	sp, sp, #32
 2905              		.cfi_def_cfa_offset 40
 2906 0004 00AF     		add	r7, sp, #0
ARM GAS  C:\Users\User\AppData\Local\Temp\ccmH1EJa.s 			page 73


 2907              		.cfi_def_cfa_register 7
 2908 0006 7860     		str	r0, [r7, #4]
1175:Generated_Source\PSoC4/BLE_hts.c ****     uint8 locReqHandle = 0u;
 2909              		.loc 1 1175 0
 2910 0008 1F23     		movs	r3, #31
 2911 000a FB18     		adds	r3, r7, r3
 2912 000c 0022     		movs	r2, #0
 2913 000e 1A70     		strb	r2, [r3]
1176:Generated_Source\PSoC4/BLE_hts.c ****     CYBLE_HTS_CHAR_INDEX_T locCharIndex;
1177:Generated_Source\PSoC4/BLE_hts.c ****     
1178:Generated_Source\PSoC4/BLE_hts.c ****     if((NULL != CyBle_HtsApplCallback) && (CYBLE_GATT_INVALID_ATTR_HANDLE_VALUE != cyBle_htscReqHan
 2914              		.loc 1 1178 0
 2915 0010 4A4B     		ldr	r3, .L173
 2916 0012 1B68     		ldr	r3, [r3]
 2917 0014 002B     		cmp	r3, #0
 2918 0016 00D1     		bne	.LCB2627
 2919 0018 8CE0     		b	.L172	@long jump
 2920              	.LCB2627:
 2921              		.loc 1 1178 0 is_stmt 0 discriminator 1
 2922 001a 494B     		ldr	r3, .L173+4
 2923 001c 1B88     		ldrh	r3, [r3]
 2924 001e 002B     		cmp	r3, #0
 2925 0020 00D1     		bne	.LCB2631
 2926 0022 87E0     		b	.L172	@long jump
 2927              	.LCB2631:
1179:Generated_Source\PSoC4/BLE_hts.c ****     {
1180:Generated_Source\PSoC4/BLE_hts.c ****         for(locCharIndex = CYBLE_HTS_TEMP_MEASURE; (locCharIndex < CYBLE_HTS_CHAR_COUNT) && (locReq
 2928              		.loc 1 1180 0 is_stmt 1
 2929 0024 1E23     		movs	r3, #30
 2930 0026 FB18     		adds	r3, r7, r3
 2931 0028 0022     		movs	r2, #0
 2932 002a 1A70     		strb	r2, [r3]
 2933 002c 6BE0     		b	.L167
 2934              	.L171:
1181:Generated_Source\PSoC4/BLE_hts.c ****             locCharIndex++)
1182:Generated_Source\PSoC4/BLE_hts.c ****         {
1183:Generated_Source\PSoC4/BLE_hts.c ****             if(cyBle_htscReqHandle == cyBle_htsc.charInfo[locCharIndex].valueHandle)
 2935              		.loc 1 1183 0
 2936 002e 1E23     		movs	r3, #30
 2937 0030 FB18     		adds	r3, r7, r3
 2938 0032 1A78     		ldrb	r2, [r3]
 2939 0034 4349     		ldr	r1, .L173+8
 2940 0036 1300     		movs	r3, r2
 2941 0038 9B00     		lsls	r3, r3, #2
 2942 003a 9B18     		adds	r3, r3, r2
 2943 003c 5B00     		lsls	r3, r3, #1
 2944 003e CB18     		adds	r3, r1, r3
 2945 0040 0433     		adds	r3, r3, #4
 2946 0042 1A88     		ldrh	r2, [r3]
 2947 0044 3E4B     		ldr	r3, .L173+4
 2948 0046 1B88     		ldrh	r3, [r3]
 2949 0048 9A42     		cmp	r2, r3
 2950 004a 22D1     		bne	.L168
 2951              	.LBB9:
1184:Generated_Source\PSoC4/BLE_hts.c ****             {
1185:Generated_Source\PSoC4/BLE_hts.c ****                 CYBLE_HTS_CHAR_VALUE_T locCharValue;
1186:Generated_Source\PSoC4/BLE_hts.c ****                 
ARM GAS  C:\Users\User\AppData\Local\Temp\ccmH1EJa.s 			page 74


1187:Generated_Source\PSoC4/BLE_hts.c ****                 locCharValue.connHandle = *eventParam;
 2952              		.loc 1 1187 0
 2953 004c 1423     		movs	r3, #20
 2954 004e FA18     		adds	r2, r7, r3
 2955 0050 7B68     		ldr	r3, [r7, #4]
 2956 0052 1000     		movs	r0, r2
 2957 0054 1900     		movs	r1, r3
 2958 0056 0223     		movs	r3, #2
 2959 0058 1A00     		movs	r2, r3
 2960 005a FFF7FEFF 		bl	memcpy
1188:Generated_Source\PSoC4/BLE_hts.c ****                 locCharValue.charIndex = locCharIndex;
 2961              		.loc 1 1188 0
 2962 005e 1423     		movs	r3, #20
 2963 0060 FB18     		adds	r3, r7, r3
 2964 0062 1E22     		movs	r2, #30
 2965 0064 BA18     		adds	r2, r7, r2
 2966 0066 1278     		ldrb	r2, [r2]
 2967 0068 9A70     		strb	r2, [r3, #2]
1189:Generated_Source\PSoC4/BLE_hts.c ****                 locCharValue.value = NULL;
 2968              		.loc 1 1189 0
 2969 006a 1423     		movs	r3, #20
 2970 006c FB18     		adds	r3, r7, r3
 2971 006e 0022     		movs	r2, #0
 2972 0070 5A60     		str	r2, [r3, #4]
1190:Generated_Source\PSoC4/BLE_hts.c ****                 cyBle_htscReqHandle = CYBLE_GATT_INVALID_ATTR_HANDLE_VALUE;
 2973              		.loc 1 1190 0
 2974 0072 334B     		ldr	r3, .L173+4
 2975 0074 0022     		movs	r2, #0
 2976 0076 1A80     		strh	r2, [r3]
1191:Generated_Source\PSoC4/BLE_hts.c ****                 CyBle_HtsApplCallback((uint32)CYBLE_EVT_HTSC_WRITE_CHAR_RESPONSE, &locCharValue);
 2977              		.loc 1 1191 0
 2978 0078 304B     		ldr	r3, .L173
 2979 007a 1B68     		ldr	r3, [r3]
 2980 007c 1422     		movs	r2, #20
 2981 007e B918     		adds	r1, r7, r2
 2982 0080 DD22     		movs	r2, #221
 2983 0082 5200     		lsls	r2, r2, #1
 2984 0084 1000     		movs	r0, r2
 2985 0086 9847     		blx	r3
1192:Generated_Source\PSoC4/BLE_hts.c ****                 locReqHandle = 1u;
 2986              		.loc 1 1192 0
 2987 0088 1F23     		movs	r3, #31
 2988 008a FB18     		adds	r3, r7, r3
 2989 008c 0122     		movs	r2, #1
 2990 008e 1A70     		strb	r2, [r3]
 2991              	.LBE9:
 2992 0090 32E0     		b	.L169
 2993              	.L168:
1193:Generated_Source\PSoC4/BLE_hts.c ****             }
1194:Generated_Source\PSoC4/BLE_hts.c ****             else if(cyBle_htscReqHandle == cyBle_htsc.charInfo[locCharIndex].descrHandle[CYBLE_HTS_
 2994              		.loc 1 1194 0
 2995 0092 1E23     		movs	r3, #30
 2996 0094 FB18     		adds	r3, r7, r3
 2997 0096 1A78     		ldrb	r2, [r3]
 2998 0098 2A49     		ldr	r1, .L173+8
 2999 009a 1300     		movs	r3, r2
 3000 009c 9B00     		lsls	r3, r3, #2
ARM GAS  C:\Users\User\AppData\Local\Temp\ccmH1EJa.s 			page 75


 3001 009e 9B18     		adds	r3, r3, r2
 3002 00a0 5B00     		lsls	r3, r3, #1
 3003 00a2 5A5A     		ldrh	r2, [r3, r1]
 3004 00a4 264B     		ldr	r3, .L173+4
 3005 00a6 1B88     		ldrh	r3, [r3]
 3006 00a8 9A42     		cmp	r2, r3
 3007 00aa 25D1     		bne	.L169
 3008              	.LBB10:
1195:Generated_Source\PSoC4/BLE_hts.c ****             {
1196:Generated_Source\PSoC4/BLE_hts.c ****                 CYBLE_HTS_DESCR_VALUE_T locDescrValue;
1197:Generated_Source\PSoC4/BLE_hts.c ****                 
1198:Generated_Source\PSoC4/BLE_hts.c ****                 locDescrValue.connHandle = *eventParam;
 3009              		.loc 1 1198 0
 3010 00ac 0C23     		movs	r3, #12
 3011 00ae FA18     		adds	r2, r7, r3
 3012 00b0 7B68     		ldr	r3, [r7, #4]
 3013 00b2 1000     		movs	r0, r2
 3014 00b4 1900     		movs	r1, r3
 3015 00b6 0223     		movs	r3, #2
 3016 00b8 1A00     		movs	r2, r3
 3017 00ba FFF7FEFF 		bl	memcpy
1199:Generated_Source\PSoC4/BLE_hts.c ****                 locDescrValue.charIndex = locCharIndex;
 3018              		.loc 1 1199 0
 3019 00be 0C23     		movs	r3, #12
 3020 00c0 FB18     		adds	r3, r7, r3
 3021 00c2 1E22     		movs	r2, #30
 3022 00c4 BA18     		adds	r2, r7, r2
 3023 00c6 1278     		ldrb	r2, [r2]
 3024 00c8 9A70     		strb	r2, [r3, #2]
1200:Generated_Source\PSoC4/BLE_hts.c ****                 locDescrValue.descrIndex = CYBLE_HTS_CCCD;
 3025              		.loc 1 1200 0
 3026 00ca 0C23     		movs	r3, #12
 3027 00cc FB18     		adds	r3, r7, r3
 3028 00ce 0022     		movs	r2, #0
 3029 00d0 DA70     		strb	r2, [r3, #3]
1201:Generated_Source\PSoC4/BLE_hts.c ****                 locDescrValue.value = NULL;
 3030              		.loc 1 1201 0
 3031 00d2 0C23     		movs	r3, #12
 3032 00d4 FB18     		adds	r3, r7, r3
 3033 00d6 0022     		movs	r2, #0
 3034 00d8 5A60     		str	r2, [r3, #4]
1202:Generated_Source\PSoC4/BLE_hts.c ****                 cyBle_htscReqHandle = CYBLE_GATT_INVALID_ATTR_HANDLE_VALUE;
 3035              		.loc 1 1202 0
 3036 00da 194B     		ldr	r3, .L173+4
 3037 00dc 0022     		movs	r2, #0
 3038 00de 1A80     		strh	r2, [r3]
1203:Generated_Source\PSoC4/BLE_hts.c ****                 CyBle_HtsApplCallback((uint32)CYBLE_EVT_HTSC_WRITE_DESCR_RESPONSE, &locDescrValue);
 3039              		.loc 1 1203 0
 3040 00e0 164B     		ldr	r3, .L173
 3041 00e2 1B68     		ldr	r3, [r3]
 3042 00e4 0C22     		movs	r2, #12
 3043 00e6 B918     		adds	r1, r7, r2
 3044 00e8 DE22     		movs	r2, #222
 3045 00ea 5200     		lsls	r2, r2, #1
 3046 00ec 1000     		movs	r0, r2
 3047 00ee 9847     		blx	r3
1204:Generated_Source\PSoC4/BLE_hts.c ****                 locReqHandle = 1u;
ARM GAS  C:\Users\User\AppData\Local\Temp\ccmH1EJa.s 			page 76


 3048              		.loc 1 1204 0
 3049 00f0 1F23     		movs	r3, #31
 3050 00f2 FB18     		adds	r3, r7, r3
 3051 00f4 0122     		movs	r2, #1
 3052 00f6 1A70     		strb	r2, [r3]
 3053              	.L169:
 3054              	.LBE10:
1181:Generated_Source\PSoC4/BLE_hts.c ****         {
 3055              		.loc 1 1181 0
 3056 00f8 1E23     		movs	r3, #30
 3057 00fa FB18     		adds	r3, r7, r3
 3058 00fc 1A78     		ldrb	r2, [r3]
 3059 00fe 1E23     		movs	r3, #30
 3060 0100 FB18     		adds	r3, r7, r3
 3061 0102 0132     		adds	r2, r2, #1
 3062 0104 1A70     		strb	r2, [r3]
 3063              	.L167:
1180:Generated_Source\PSoC4/BLE_hts.c ****             locCharIndex++)
 3064              		.loc 1 1180 0 discriminator 1
 3065 0106 1E23     		movs	r3, #30
 3066 0108 FB18     		adds	r3, r7, r3
 3067 010a 1B78     		ldrb	r3, [r3]
 3068 010c 032B     		cmp	r3, #3
 3069 010e 04D8     		bhi	.L170
1180:Generated_Source\PSoC4/BLE_hts.c ****             locCharIndex++)
 3070              		.loc 1 1180 0 is_stmt 0 discriminator 2
 3071 0110 1F23     		movs	r3, #31
 3072 0112 FB18     		adds	r3, r7, r3
 3073 0114 1B78     		ldrb	r3, [r3]
 3074 0116 002B     		cmp	r3, #0
 3075 0118 89D0     		beq	.L171
 3076              	.L170:
1205:Generated_Source\PSoC4/BLE_hts.c ****             }
1206:Generated_Source\PSoC4/BLE_hts.c ****             else /* No other destination for write operation is possible */
1207:Generated_Source\PSoC4/BLE_hts.c ****             {
1208:Generated_Source\PSoC4/BLE_hts.c ****             }
1209:Generated_Source\PSoC4/BLE_hts.c ****         }
1210:Generated_Source\PSoC4/BLE_hts.c ****         if(locReqHandle != 0u)
 3077              		.loc 1 1210 0 is_stmt 1
 3078 011a 1F23     		movs	r3, #31
 3079 011c FB18     		adds	r3, r7, r3
 3080 011e 1B78     		ldrb	r3, [r3]
 3081 0120 002B     		cmp	r3, #0
 3082 0122 07D0     		beq	.L172
1211:Generated_Source\PSoC4/BLE_hts.c ****         {
1212:Generated_Source\PSoC4/BLE_hts.c ****             cyBle_eventHandlerFlag &= (uint8)~CYBLE_CALLBACK;
 3083              		.loc 1 1212 0
 3084 0124 084B     		ldr	r3, .L173+12
 3085 0126 1B78     		ldrb	r3, [r3]
 3086 0128 DBB2     		uxtb	r3, r3
 3087 012a 0122     		movs	r2, #1
 3088 012c 9343     		bics	r3, r2
 3089 012e DAB2     		uxtb	r2, r3
 3090 0130 054B     		ldr	r3, .L173+12
 3091 0132 1A70     		strb	r2, [r3]
 3092              	.L172:
1213:Generated_Source\PSoC4/BLE_hts.c ****         }
ARM GAS  C:\Users\User\AppData\Local\Temp\ccmH1EJa.s 			page 77


1214:Generated_Source\PSoC4/BLE_hts.c ****     }
1215:Generated_Source\PSoC4/BLE_hts.c **** }
 3093              		.loc 1 1215 0
 3094 0134 C046     		nop
 3095 0136 BD46     		mov	sp, r7
 3096 0138 08B0     		add	sp, sp, #32
 3097              		@ sp needed
 3098 013a 80BD     		pop	{r7, pc}
 3099              	.L174:
 3100              		.align	2
 3101              	.L173:
 3102 013c 00000000 		.word	CyBle_HtsApplCallback
 3103 0140 06000000 		.word	cyBle_htscReqHandle
 3104 0144 00000000 		.word	cyBle_htsc
 3105 0148 00000000 		.word	cyBle_eventHandlerFlag
 3106              		.cfi_endproc
 3107              	.LFE21:
 3108              		.size	CyBle_HtscWriteResponseEventHandler, .-CyBle_HtscWriteResponseEventHandler
 3109              		.section	.text.CyBle_HtscErrorResponseEventHandler,"ax",%progbits
 3110              		.align	2
 3111              		.global	CyBle_HtscErrorResponseEventHandler
 3112              		.code	16
 3113              		.thumb_func
 3114              		.type	CyBle_HtscErrorResponseEventHandler, %function
 3115              	CyBle_HtscErrorResponseEventHandler:
 3116              	.LFB22:
1216:Generated_Source\PSoC4/BLE_hts.c **** 
1217:Generated_Source\PSoC4/BLE_hts.c **** 
1218:Generated_Source\PSoC4/BLE_hts.c **** /******************************************************************************
1219:Generated_Source\PSoC4/BLE_hts.c **** * Function Name: CyBle_HtscErrorResponseEventHandler
1220:Generated_Source\PSoC4/BLE_hts.c **** ***************************************************************************//**
1221:Generated_Source\PSoC4/BLE_hts.c **** * 
1222:Generated_Source\PSoC4/BLE_hts.c **** *  Handles Error Response Event.
1223:Generated_Source\PSoC4/BLE_hts.c **** * 
1224:Generated_Source\PSoC4/BLE_hts.c **** *  \param eventParam: The pointer to a data structure specified by an event.
1225:Generated_Source\PSoC4/BLE_hts.c **** * 
1226:Generated_Source\PSoC4/BLE_hts.c **** ******************************************************************************/
1227:Generated_Source\PSoC4/BLE_hts.c **** void CyBle_HtscErrorResponseEventHandler(const CYBLE_GATTC_ERR_RSP_PARAM_T *eventParam)
1228:Generated_Source\PSoC4/BLE_hts.c **** {
 3117              		.loc 1 1228 0
 3118              		.cfi_startproc
 3119              		@ args = 0, pretend = 0, frame = 8
 3120              		@ frame_needed = 1, uses_anonymous_args = 0
 3121 0000 80B5     		push	{r7, lr}
 3122              		.cfi_def_cfa_offset 8
 3123              		.cfi_offset 7, -8
 3124              		.cfi_offset 14, -4
 3125 0002 82B0     		sub	sp, sp, #8
 3126              		.cfi_def_cfa_offset 16
 3127 0004 00AF     		add	r7, sp, #0
 3128              		.cfi_def_cfa_register 7
 3129 0006 7860     		str	r0, [r7, #4]
1229:Generated_Source\PSoC4/BLE_hts.c ****     if((eventParam != NULL) && (eventParam->attrHandle == cyBle_htscReqHandle))
 3130              		.loc 1 1229 0
 3131 0008 7B68     		ldr	r3, [r7, #4]
 3132 000a 002B     		cmp	r3, #0
 3133 000c 08D0     		beq	.L177
ARM GAS  C:\Users\User\AppData\Local\Temp\ccmH1EJa.s 			page 78


 3134              		.loc 1 1229 0 is_stmt 0 discriminator 1
 3135 000e 7B68     		ldr	r3, [r7, #4]
 3136 0010 9A88     		ldrh	r2, [r3, #4]
 3137 0012 054B     		ldr	r3, .L178
 3138 0014 1B88     		ldrh	r3, [r3]
 3139 0016 9A42     		cmp	r2, r3
 3140 0018 02D1     		bne	.L177
1230:Generated_Source\PSoC4/BLE_hts.c ****     {
1231:Generated_Source\PSoC4/BLE_hts.c ****         cyBle_htscReqHandle = CYBLE_GATT_INVALID_ATTR_HANDLE_VALUE;
 3141              		.loc 1 1231 0 is_stmt 1
 3142 001a 034B     		ldr	r3, .L178
 3143 001c 0022     		movs	r2, #0
 3144 001e 1A80     		strh	r2, [r3]
 3145              	.L177:
1232:Generated_Source\PSoC4/BLE_hts.c ****     }
1233:Generated_Source\PSoC4/BLE_hts.c **** }
 3146              		.loc 1 1233 0
 3147 0020 C046     		nop
 3148 0022 BD46     		mov	sp, r7
 3149 0024 02B0     		add	sp, sp, #8
 3150              		@ sp needed
 3151 0026 80BD     		pop	{r7, pc}
 3152              	.L179:
 3153              		.align	2
 3154              	.L178:
 3155 0028 06000000 		.word	cyBle_htscReqHandle
 3156              		.cfi_endproc
 3157              	.LFE22:
 3158              		.size	CyBle_HtscErrorResponseEventHandler, .-CyBle_HtscErrorResponseEventHandler
 3159              		.bss
 3160              		.align	2
 3161              	htsLastEndHandle.6943:
 3162 0008 00000000 		.space	4
 3163              		.section	.rodata
 3164 001a 0000     		.align	2
 3165              		.type	cyBle_htscCharUuid.6941, %object
 3166              		.size	cyBle_htscCharUuid.6941, 8
 3167              	cyBle_htscCharUuid.6941:
 3168 001c 1C2A     		.short	10780
 3169 001e 1D2A     		.short	10781
 3170 0020 1E2A     		.short	10782
 3171 0022 212A     		.short	10785
 3172              		.text
 3173              	.Letext0:
 3174              		.file 2 "Generated_Source\\PSoC4\\cytypes.h"
 3175              		.file 3 "Generated_Source\\PSoC4\\BLE_Stack.h"
 3176              		.file 4 "Generated_Source\\PSoC4\\BLE_StackGatt.h"
 3177              		.file 5 "Generated_Source\\PSoC4\\BLE_StackGattServer.h"
 3178              		.file 6 "Generated_Source\\PSoC4\\BLE_StackGattClient.h"
 3179              		.file 7 "Generated_Source\\PSoC4\\BLE_StackGattDb.h"
 3180              		.file 8 "Generated_Source\\PSoC4\\BLE.h"
 3181              		.file 9 "Generated_Source\\PSoC4\\BLE_gatt.h"
 3182              		.file 10 "Generated_Source\\PSoC4\\BLE_hts.h"
 3183              		.file 11 "Generated_Source\\PSoC4\\BLE_eventHandler.h"