ARM GAS  C:\Users\User\AppData\Local\Temp\ccMCuqWG.s 			page 1


   1              		.syntax unified
   2              		.cpu cortex-m0
   3              		.fpu softvfp
   4              		.eabi_attribute 20, 1
   5              		.eabi_attribute 21, 1
   6              		.eabi_attribute 23, 3
   7              		.eabi_attribute 24, 1
   8              		.eabi_attribute 25, 1
   9              		.eabi_attribute 26, 1
  10              		.eabi_attribute 30, 6
  11              		.eabi_attribute 34, 0
  12              		.eabi_attribute 18, 4
  13              		.thumb
  14              		.syntax unified
  15              		.file	"BLE_HAL_PVT.c"
  16              		.text
  17              	.Ltext0:
  18              		.cfi_sections	.debug_frame
  19              		.section	.text.CyBLE_Nvram_Write,"ax",%progbits
  20              		.align	2
  21              		.global	CyBLE_Nvram_Write
  22              		.code	16
  23              		.thumb_func
  24              		.type	CyBLE_Nvram_Write, %function
  25              	CyBLE_Nvram_Write:
  26              	.LFB2:
  27              		.file 1 "Generated_Source\\PSoC4\\BLE_HAL_PVT.c"
   1:Generated_Source\PSoC4/BLE_HAL_PVT.c **** /***************************************************************************//**
   2:Generated_Source\PSoC4/BLE_HAL_PVT.c **** * \file CYBLE_HAL_PVT.c
   3:Generated_Source\PSoC4/BLE_HAL_PVT.c **** * \version 3.66
   4:Generated_Source\PSoC4/BLE_HAL_PVT.c **** *
   5:Generated_Source\PSoC4/BLE_HAL_PVT.c **** * \brief
   6:Generated_Source\PSoC4/BLE_HAL_PVT.c **** *  This file contains the source code for the HAL section of the BLE component
   7:Generated_Source\PSoC4/BLE_HAL_PVT.c **** *
   8:Generated_Source\PSoC4/BLE_HAL_PVT.c **** ********************************************************************************
   9:Generated_Source\PSoC4/BLE_HAL_PVT.c **** * \copyright
  10:Generated_Source\PSoC4/BLE_HAL_PVT.c **** * Copyright 2014-2020, Cypress Semiconductor Corporation.  All rights reserved.
  11:Generated_Source\PSoC4/BLE_HAL_PVT.c **** * You may use this file only in accordance with the license, terms, conditions,
  12:Generated_Source\PSoC4/BLE_HAL_PVT.c **** * disclaimers, and limitations in the end user license agreement accompanying
  13:Generated_Source\PSoC4/BLE_HAL_PVT.c **** * the software package with which this file was provided.
  14:Generated_Source\PSoC4/BLE_HAL_PVT.c **** *******************************************************************************/
  15:Generated_Source\PSoC4/BLE_HAL_PVT.c **** 
  16:Generated_Source\PSoC4/BLE_HAL_PVT.c **** #include "BLE_HAL_PVT.h"
  17:Generated_Source\PSoC4/BLE_HAL_PVT.c **** 
  18:Generated_Source\PSoC4/BLE_HAL_PVT.c **** 
  19:Generated_Source\PSoC4/BLE_HAL_PVT.c **** #if(CYBLE_MODE == CYBLE_HCI)
  20:Generated_Source\PSoC4/BLE_HAL_PVT.c **** 
  21:Generated_Source\PSoC4/BLE_HAL_PVT.c **** 
  22:Generated_Source\PSoC4/BLE_HAL_PVT.c **** /*******************************************************************************
  23:Generated_Source\PSoC4/BLE_HAL_PVT.c **** * Function Name: CyBLE_Uart_Start
  24:Generated_Source\PSoC4/BLE_HAL_PVT.c **** ****************************************************************************//**
  25:Generated_Source\PSoC4/BLE_HAL_PVT.c **** *
  26:Generated_Source\PSoC4/BLE_HAL_PVT.c **** *  Enables the platform UART Tx and RX interrupts and then enables the UART
  27:Generated_Source\PSoC4/BLE_HAL_PVT.c **** *  component.
  28:Generated_Source\PSoC4/BLE_HAL_PVT.c **** *
  29:Generated_Source\PSoC4/BLE_HAL_PVT.c **** * \return
  30:Generated_Source\PSoC4/BLE_HAL_PVT.c **** *  None
ARM GAS  C:\Users\User\AppData\Local\Temp\ccMCuqWG.s 			page 2


  31:Generated_Source\PSoC4/BLE_HAL_PVT.c **** *
  32:Generated_Source\PSoC4/BLE_HAL_PVT.c **** *******************************************************************************/
  33:Generated_Source\PSoC4/BLE_HAL_PVT.c **** void CyBLE_Uart_Start (void)
  34:Generated_Source\PSoC4/BLE_HAL_PVT.c **** {
  35:Generated_Source\PSoC4/BLE_HAL_PVT.c ****     #if (CYBLE_HCI_TYPE == CYBLE_HCI_OVER_UART)
  36:Generated_Source\PSoC4/BLE_HAL_PVT.c ****         /* Setup ISR */
  37:Generated_Source\PSoC4/BLE_HAL_PVT.c ****         BLE_uart_isr_StartEx(&CyBLE_Uart_Interrupt);
  38:Generated_Source\PSoC4/BLE_HAL_PVT.c **** 
  39:Generated_Source\PSoC4/BLE_HAL_PVT.c ****         BLE_HAL_Uart_Start();
  40:Generated_Source\PSoC4/BLE_HAL_PVT.c ****     #endif /* (CYBLE_HCI_TYPE == CYBLE_HCI_OVER_UART) */
  41:Generated_Source\PSoC4/BLE_HAL_PVT.c **** }
  42:Generated_Source\PSoC4/BLE_HAL_PVT.c **** 
  43:Generated_Source\PSoC4/BLE_HAL_PVT.c **** 
  44:Generated_Source\PSoC4/BLE_HAL_PVT.c **** /*******************************************************************************
  45:Generated_Source\PSoC4/BLE_HAL_PVT.c **** * Function Name: CyBLE_Uart_Stop
  46:Generated_Source\PSoC4/BLE_HAL_PVT.c **** ****************************************************************************//**
  47:Generated_Source\PSoC4/BLE_HAL_PVT.c **** *
  48:Generated_Source\PSoC4/BLE_HAL_PVT.c **** *  Disables the UART, clears all pending interrupts and disables the UART Tx
  49:Generated_Source\PSoC4/BLE_HAL_PVT.c **** *  and RX interrupts. This will also empty out the FIFOs.
  50:Generated_Source\PSoC4/BLE_HAL_PVT.c **** *
  51:Generated_Source\PSoC4/BLE_HAL_PVT.c **** * \return
  52:Generated_Source\PSoC4/BLE_HAL_PVT.c **** *  None
  53:Generated_Source\PSoC4/BLE_HAL_PVT.c **** *
  54:Generated_Source\PSoC4/BLE_HAL_PVT.c **** *******************************************************************************/
  55:Generated_Source\PSoC4/BLE_HAL_PVT.c **** void CyBLE_Uart_Stop (void)
  56:Generated_Source\PSoC4/BLE_HAL_PVT.c **** {
  57:Generated_Source\PSoC4/BLE_HAL_PVT.c ****     #if (CYBLE_HCI_TYPE == CYBLE_HCI_OVER_UART)
  58:Generated_Source\PSoC4/BLE_HAL_PVT.c ****         /* Stop interrupt and UART */
  59:Generated_Source\PSoC4/BLE_HAL_PVT.c ****         BLE_uart_isr_Stop();
  60:Generated_Source\PSoC4/BLE_HAL_PVT.c **** 
  61:Generated_Source\PSoC4/BLE_HAL_PVT.c ****         BLE_HAL_Uart_Stop();
  62:Generated_Source\PSoC4/BLE_HAL_PVT.c ****     #endif /* (CYBLE_HCI_TYPE == CYBLE_HCI_OVER_UART) */
  63:Generated_Source\PSoC4/BLE_HAL_PVT.c **** }
  64:Generated_Source\PSoC4/BLE_HAL_PVT.c **** 
  65:Generated_Source\PSoC4/BLE_HAL_PVT.c **** 
  66:Generated_Source\PSoC4/BLE_HAL_PVT.c **** /*******************************************************************************
  67:Generated_Source\PSoC4/BLE_HAL_PVT.c **** * Function Name: CyBLE_Uart_Transmit
  68:Generated_Source\PSoC4/BLE_HAL_PVT.c **** ****************************************************************************//**
  69:Generated_Source\PSoC4/BLE_HAL_PVT.c **** *
  70:Generated_Source\PSoC4/BLE_HAL_PVT.c **** *  Sends the data to Uart Tx FIFO. The function handles data length up to the 
  71:Generated_Source\PSoC4/BLE_HAL_PVT.c **** *  supported Tx FIFO length of the uart hardware module.
  72:Generated_Source\PSoC4/BLE_HAL_PVT.c **** *
  73:Generated_Source\PSoC4/BLE_HAL_PVT.c **** *  \param data: Pointer to the data to send through the UART
  74:Generated_Source\PSoC4/BLE_HAL_PVT.c **** *  \param length: the length of data to transmit in bytes
  75:Generated_Source\PSoC4/BLE_HAL_PVT.c **** *
  76:Generated_Source\PSoC4/BLE_HAL_PVT.c **** * \return
  77:Generated_Source\PSoC4/BLE_HAL_PVT.c **** *  None
  78:Generated_Source\PSoC4/BLE_HAL_PVT.c **** *
  79:Generated_Source\PSoC4/BLE_HAL_PVT.c **** *******************************************************************************/
  80:Generated_Source\PSoC4/BLE_HAL_PVT.c **** void CyBLE_Uart_Transmit (const uint8 *dataBuf, uint8 length)
  81:Generated_Source\PSoC4/BLE_HAL_PVT.c **** {
  82:Generated_Source\PSoC4/BLE_HAL_PVT.c ****     #if (CYBLE_HCI_TYPE == CYBLE_HCI_OVER_UART)
  83:Generated_Source\PSoC4/BLE_HAL_PVT.c ****         BLE_HAL_Uart_SpiUartPutArray(dataBuf, (uint32)length);
  84:Generated_Source\PSoC4/BLE_HAL_PVT.c ****     #endif /* (CYBLE_HCI_TYPE == CYBLE_HCI_OVER_UART) */
  85:Generated_Source\PSoC4/BLE_HAL_PVT.c **** }
  86:Generated_Source\PSoC4/BLE_HAL_PVT.c **** 
  87:Generated_Source\PSoC4/BLE_HAL_PVT.c **** /*******************************************************************************
ARM GAS  C:\Users\User\AppData\Local\Temp\ccMCuqWG.s 			page 3


  88:Generated_Source\PSoC4/BLE_HAL_PVT.c **** * Function Name: CyBLE_Uart_Isr_Enable
  89:Generated_Source\PSoC4/BLE_HAL_PVT.c **** ****************************************************************************//**
  90:Generated_Source\PSoC4/BLE_HAL_PVT.c **** *
  91:Generated_Source\PSoC4/BLE_HAL_PVT.c **** *   Enables the UART interrupt to the interrupt controller. 
  92:Generated_Source\PSoC4/BLE_HAL_PVT.c **** *   Do not call this function unless CyBLE_Uart_Start() has been called or the
  93:Generated_Source\PSoC4/BLE_HAL_PVT.c **** *   functionality of the SysInt_Init() function, which sets the vector and the
  94:Generated_Source\PSoC4/BLE_HAL_PVT.c **** *   priority, has been called.
  95:Generated_Source\PSoC4/BLE_HAL_PVT.c **** *
  96:Generated_Source\PSoC4/BLE_HAL_PVT.c **** *******************************************************************************/
  97:Generated_Source\PSoC4/BLE_HAL_PVT.c **** void CyBLE_Uart_Isr_Enable(void)
  98:Generated_Source\PSoC4/BLE_HAL_PVT.c **** {
  99:Generated_Source\PSoC4/BLE_HAL_PVT.c ****     #if (CYBLE_HCI_TYPE == CYBLE_HCI_OVER_UART)
 100:Generated_Source\PSoC4/BLE_HAL_PVT.c ****         BLE_uart_isr_Enable();
 101:Generated_Source\PSoC4/BLE_HAL_PVT.c ****     #endif /* (CYBLE_HCI_TYPE == CYBLE_HCI_OVER_UART) */
 102:Generated_Source\PSoC4/BLE_HAL_PVT.c **** }
 103:Generated_Source\PSoC4/BLE_HAL_PVT.c **** 
 104:Generated_Source\PSoC4/BLE_HAL_PVT.c **** 
 105:Generated_Source\PSoC4/BLE_HAL_PVT.c **** /*******************************************************************************
 106:Generated_Source\PSoC4/BLE_HAL_PVT.c **** * Function Name: CyBLE_Uart_Isr_Disable
 107:Generated_Source\PSoC4/BLE_HAL_PVT.c **** ****************************************************************************//**
 108:Generated_Source\PSoC4/BLE_HAL_PVT.c **** *
 109:Generated_Source\PSoC4/BLE_HAL_PVT.c **** *   Disables the UART Interrupt in the interrupt controller.
 110:Generated_Source\PSoC4/BLE_HAL_PVT.c **** *
 111:Generated_Source\PSoC4/BLE_HAL_PVT.c **** *******************************************************************************/
 112:Generated_Source\PSoC4/BLE_HAL_PVT.c **** void CyBLE_Uart_Isr_Disable(void)
 113:Generated_Source\PSoC4/BLE_HAL_PVT.c **** {
 114:Generated_Source\PSoC4/BLE_HAL_PVT.c ****     #if (CYBLE_HCI_TYPE == CYBLE_HCI_OVER_UART)
 115:Generated_Source\PSoC4/BLE_HAL_PVT.c ****         BLE_uart_isr_Disable();
 116:Generated_Source\PSoC4/BLE_HAL_PVT.c ****     #endif /* (CYBLE_HCI_TYPE == CYBLE_HCI_OVER_UART) */
 117:Generated_Source\PSoC4/BLE_HAL_PVT.c **** }
 118:Generated_Source\PSoC4/BLE_HAL_PVT.c **** 
 119:Generated_Source\PSoC4/BLE_HAL_PVT.c **** #endif /* (CYBLE_MODE == CYBLE_HCI) */
 120:Generated_Source\PSoC4/BLE_HAL_PVT.c **** 
 121:Generated_Source\PSoC4/BLE_HAL_PVT.c **** 
 122:Generated_Source\PSoC4/BLE_HAL_PVT.c **** /*******************************************************************************
 123:Generated_Source\PSoC4/BLE_HAL_PVT.c **** * Function Name: CyBLE_Nvram_Write
 124:Generated_Source\PSoC4/BLE_HAL_PVT.c **** ****************************************************************************//**
 125:Generated_Source\PSoC4/BLE_HAL_PVT.c **** *
 126:Generated_Source\PSoC4/BLE_HAL_PVT.c **** *  This function writes the data to the NVRAM store. It will check the 
 127:Generated_Source\PSoC4/BLE_HAL_PVT.c **** *  appropriate alignment of a start address and also perform an address range 
 128:Generated_Source\PSoC4/BLE_HAL_PVT.c **** *  check based on the length before performing the write operation.
 129:Generated_Source\PSoC4/BLE_HAL_PVT.c **** *  This function performs memory compare and writes only row where there are new
 130:Generated_Source\PSoC4/BLE_HAL_PVT.c **** *  data to write.
 131:Generated_Source\PSoC4/BLE_HAL_PVT.c **** *
 132:Generated_Source\PSoC4/BLE_HAL_PVT.c **** *  \param buffer:   Pointer to the buffer containing the data to be stored.
 133:Generated_Source\PSoC4/BLE_HAL_PVT.c **** *  \param varFlash: Pointer to the array or variable in the flash.
 134:Generated_Source\PSoC4/BLE_HAL_PVT.c **** *  \param length:    The length of the data in bytes.
 135:Generated_Source\PSoC4/BLE_HAL_PVT.c **** *
 136:Generated_Source\PSoC4/BLE_HAL_PVT.c **** * \return
 137:Generated_Source\PSoC4/BLE_HAL_PVT.c **** *  CYRET_SUCCESS    a successful write
 138:Generated_Source\PSoC4/BLE_HAL_PVT.c **** *  CYRET_BAD_PARAM  A request to write outside the flash boundary.
 139:Generated_Source\PSoC4/BLE_HAL_PVT.c **** *  CYRET_UNKNOWN    Other errors in writing the flash
 140:Generated_Source\PSoC4/BLE_HAL_PVT.c **** *
 141:Generated_Source\PSoC4/BLE_HAL_PVT.c **** * \sideeffect
 142:Generated_Source\PSoC4/BLE_HAL_PVT.c **** *  For BLE devices with 128K of Flash memory this function will automatically 
 143:Generated_Source\PSoC4/BLE_HAL_PVT.c **** *  modify the clock settings for the device.
 144:Generated_Source\PSoC4/BLE_HAL_PVT.c **** *  Writing to flash requires changes to be done to the IMO (set to 48 MHz)
ARM GAS  C:\Users\User\AppData\Local\Temp\ccMCuqWG.s 			page 4


 145:Generated_Source\PSoC4/BLE_HAL_PVT.c **** *  and HFCLK (source set to IMO) settings. The configuration is restored before
 146:Generated_Source\PSoC4/BLE_HAL_PVT.c **** *  returning. This will impact the operation of most of the hardware in the
 147:Generated_Source\PSoC4/BLE_HAL_PVT.c **** *  device.
 148:Generated_Source\PSoC4/BLE_HAL_PVT.c **** *
 149:Generated_Source\PSoC4/BLE_HAL_PVT.c **** *******************************************************************************/
 150:Generated_Source\PSoC4/BLE_HAL_PVT.c **** cystatus CyBLE_Nvram_Write (const uint8 buffer[], const uint8 varFlash[], uint16 length)
 151:Generated_Source\PSoC4/BLE_HAL_PVT.c **** {
  28              		.loc 1 151 0
  29              		.cfi_startproc
  30              		@ args = 0, pretend = 0, frame = 304
  31              		@ frame_needed = 1, uses_anonymous_args = 0
  32 0000 80B5     		push	{r7, lr}
  33              		.cfi_def_cfa_offset 8
  34              		.cfi_offset 7, -8
  35              		.cfi_offset 14, -4
  36 0002 CCB0     		sub	sp, sp, #304
  37              		.cfi_def_cfa_offset 312
  38 0004 00AF     		add	r7, sp, #0
  39              		.cfi_def_cfa_register 7
  40 0006 F860     		str	r0, [r7, #12]
  41 0008 B960     		str	r1, [r7, #8]
  42 000a 844B     		ldr	r3, .L14
  43 000c 9821     		movs	r1, #152
  44 000e 4900     		lsls	r1, r1, #1
  45 0010 8C46     		mov	ip, r1
  46 0012 BC44     		add	ip, ip, r7
  47 0014 6344     		add	r3, r3, ip
  48 0016 1A80     		strh	r2, [r3]
 152:Generated_Source\PSoC4/BLE_HAL_PVT.c ****     uint8 writeBuffer[CY_FLASH_SIZEOF_ROW];
 153:Generated_Source\PSoC4/BLE_HAL_PVT.c ****     uint32 rowId;
 154:Generated_Source\PSoC4/BLE_HAL_PVT.c ****     uint32 dstIndex;
 155:Generated_Source\PSoC4/BLE_HAL_PVT.c ****     uint32 srcIndex = 0u;
  49              		.loc 1 155 0
  50 0018 0023     		movs	r3, #0
  51 001a 9222     		movs	r2, #146
  52 001c 5200     		lsls	r2, r2, #1
  53 001e BA18     		adds	r2, r7, r2
  54 0020 1360     		str	r3, [r2]
 156:Generated_Source\PSoC4/BLE_HAL_PVT.c ****     cystatus rc = CYRET_SUCCESS;
  55              		.loc 1 156 0
  56 0022 0023     		movs	r3, #0
  57 0024 9022     		movs	r2, #144
  58 0026 5200     		lsls	r2, r2, #1
  59 0028 BA18     		adds	r2, r7, r2
  60 002a 1360     		str	r3, [r2]
 157:Generated_Source\PSoC4/BLE_HAL_PVT.c ****     uint32 eeOffset;
 158:Generated_Source\PSoC4/BLE_HAL_PVT.c ****     uint32 byteOffset;
 159:Generated_Source\PSoC4/BLE_HAL_PVT.c ****     uint32 rowsNotEqual;
 160:Generated_Source\PSoC4/BLE_HAL_PVT.c **** 
 161:Generated_Source\PSoC4/BLE_HAL_PVT.c ****     eeOffset = (uint32)varFlash;
  61              		.loc 1 161 0
  62 002c BB68     		ldr	r3, [r7, #8]
  63 002e 8A22     		movs	r2, #138
  64 0030 5200     		lsls	r2, r2, #1
  65 0032 BA18     		adds	r2, r7, r2
  66 0034 1360     		str	r3, [r2]
 162:Generated_Source\PSoC4/BLE_HAL_PVT.c **** 
ARM GAS  C:\Users\User\AppData\Local\Temp\ccMCuqWG.s 			page 5


 163:Generated_Source\PSoC4/BLE_HAL_PVT.c ****     /* Make sure, that varFlash[] points to Flash */
 164:Generated_Source\PSoC4/BLE_HAL_PVT.c ****     if ((eeOffset + length) < CYBLE_HAL_FLASH_END_ADDR)
  67              		.loc 1 164 0
  68 0036 794B     		ldr	r3, .L14
  69 0038 9822     		movs	r2, #152
  70 003a 5200     		lsls	r2, r2, #1
  71 003c 9446     		mov	ip, r2
  72 003e BC44     		add	ip, ip, r7
  73 0040 6344     		add	r3, r3, ip
  74 0042 1A88     		ldrh	r2, [r3]
  75 0044 8A23     		movs	r3, #138
  76 0046 5B00     		lsls	r3, r3, #1
  77 0048 FB18     		adds	r3, r7, r3
  78 004a 1B68     		ldr	r3, [r3]
  79 004c D318     		adds	r3, r2, r3
  80 004e 744A     		ldr	r2, .L14+4
  81 0050 9342     		cmp	r3, r2
  82 0052 00D9     		bls	.LCB50
  83 0054 C2E0     		b	.L2	@long jump
  84              	.LCB50:
 165:Generated_Source\PSoC4/BLE_HAL_PVT.c ****     {
 166:Generated_Source\PSoC4/BLE_HAL_PVT.c ****         rowId = eeOffset / CY_FLASH_SIZEOF_ROW;
  85              		.loc 1 166 0
  86 0056 8A23     		movs	r3, #138
  87 0058 5B00     		lsls	r3, r3, #1
  88 005a FB18     		adds	r3, r7, r3
  89 005c 1B68     		ldr	r3, [r3]
  90 005e 1B0A     		lsrs	r3, r3, #8
  91 0060 9622     		movs	r2, #150
  92 0062 5200     		lsls	r2, r2, #1
  93 0064 BA18     		adds	r2, r7, r2
  94 0066 1360     		str	r3, [r2]
 167:Generated_Source\PSoC4/BLE_HAL_PVT.c ****         byteOffset = CY_FLASH_SIZEOF_ROW * rowId;
  95              		.loc 1 167 0
  96 0068 9623     		movs	r3, #150
  97 006a 5B00     		lsls	r3, r3, #1
  98 006c FB18     		adds	r3, r7, r3
  99 006e 1B68     		ldr	r3, [r3]
 100 0070 1B02     		lsls	r3, r3, #8
 101 0072 8E22     		movs	r2, #142
 102 0074 5200     		lsls	r2, r2, #1
 103 0076 BA18     		adds	r2, r7, r2
 104 0078 1360     		str	r3, [r2]
 168:Generated_Source\PSoC4/BLE_HAL_PVT.c **** 
 169:Generated_Source\PSoC4/BLE_HAL_PVT.c ****         while ((srcIndex < length) && (rc == CYRET_SUCCESS))
 105              		.loc 1 169 0
 106 007a 9AE0     		b	.L3
 107              	.L11:
 170:Generated_Source\PSoC4/BLE_HAL_PVT.c ****         {
 171:Generated_Source\PSoC4/BLE_HAL_PVT.c ****             rowsNotEqual = 0u;
 108              		.loc 1 171 0
 109 007c 0023     		movs	r3, #0
 110 007e 8C22     		movs	r2, #140
 111 0080 5200     		lsls	r2, r2, #1
 112 0082 BA18     		adds	r2, r7, r2
 113 0084 1360     		str	r3, [r2]
 172:Generated_Source\PSoC4/BLE_HAL_PVT.c ****             /* Copy data to the write buffer either from the source buffer or from the flash */
ARM GAS  C:\Users\User\AppData\Local\Temp\ccMCuqWG.s 			page 6


 173:Generated_Source\PSoC4/BLE_HAL_PVT.c ****             for (dstIndex = 0u; dstIndex < CY_FLASH_SIZEOF_ROW; dstIndex++)
 114              		.loc 1 173 0
 115 0086 0023     		movs	r3, #0
 116 0088 9422     		movs	r2, #148
 117 008a 5200     		lsls	r2, r2, #1
 118 008c BA18     		adds	r2, r7, r2
 119 008e 1360     		str	r3, [r2]
 120 0090 6BE0     		b	.L4
 121              	.L8:
 174:Generated_Source\PSoC4/BLE_HAL_PVT.c ****             {
 175:Generated_Source\PSoC4/BLE_HAL_PVT.c ****                 if ((byteOffset >= eeOffset) && (srcIndex < length))
 122              		.loc 1 175 0
 123 0092 8E23     		movs	r3, #142
 124 0094 5B00     		lsls	r3, r3, #1
 125 0096 FB18     		adds	r3, r7, r3
 126 0098 1A68     		ldr	r2, [r3]
 127 009a 8A23     		movs	r3, #138
 128 009c 5B00     		lsls	r3, r3, #1
 129 009e FB18     		adds	r3, r7, r3
 130 00a0 1B68     		ldr	r3, [r3]
 131 00a2 9A42     		cmp	r2, r3
 132 00a4 3DD3     		bcc	.L5
 133              		.loc 1 175 0 is_stmt 0 discriminator 1
 134 00a6 5D4B     		ldr	r3, .L14
 135 00a8 9822     		movs	r2, #152
 136 00aa 5200     		lsls	r2, r2, #1
 137 00ac 9446     		mov	ip, r2
 138 00ae BC44     		add	ip, ip, r7
 139 00b0 6344     		add	r3, r3, ip
 140 00b2 1A88     		ldrh	r2, [r3]
 141 00b4 9223     		movs	r3, #146
 142 00b6 5B00     		lsls	r3, r3, #1
 143 00b8 FB18     		adds	r3, r7, r3
 144 00ba 1B68     		ldr	r3, [r3]
 145 00bc 9A42     		cmp	r2, r3
 146 00be 30D9     		bls	.L5
 176:Generated_Source\PSoC4/BLE_HAL_PVT.c ****                 {
 177:Generated_Source\PSoC4/BLE_HAL_PVT.c ****                     writeBuffer[dstIndex] = buffer[srcIndex];
 147              		.loc 1 177 0 is_stmt 1
 148 00c0 FA68     		ldr	r2, [r7, #12]
 149 00c2 9223     		movs	r3, #146
 150 00c4 5B00     		lsls	r3, r3, #1
 151 00c6 FB18     		adds	r3, r7, r3
 152 00c8 1B68     		ldr	r3, [r3]
 153 00ca D318     		adds	r3, r2, r3
 154 00cc 1978     		ldrb	r1, [r3]
 155 00ce 554B     		ldr	r3, .L14+8
 156 00d0 9822     		movs	r2, #152
 157 00d2 5200     		lsls	r2, r2, #1
 158 00d4 BA18     		adds	r2, r7, r2
 159 00d6 D218     		adds	r2, r2, r3
 160 00d8 9423     		movs	r3, #148
 161 00da 5B00     		lsls	r3, r3, #1
 162 00dc FB18     		adds	r3, r7, r3
 163 00de 1B68     		ldr	r3, [r3]
 164 00e0 D318     		adds	r3, r2, r3
 165 00e2 0A1C     		adds	r2, r1, #0
ARM GAS  C:\Users\User\AppData\Local\Temp\ccMCuqWG.s 			page 7


 166 00e4 1A70     		strb	r2, [r3]
 178:Generated_Source\PSoC4/BLE_HAL_PVT.c ****                     /* Detect that row programming is required */
 179:Generated_Source\PSoC4/BLE_HAL_PVT.c ****                     if(CY_GET_XTND_REG8(CYDEV_FLASH_BASE + byteOffset) != buffer[srcIndex])
 167              		.loc 1 179 0
 168 00e6 8E23     		movs	r3, #142
 169 00e8 5B00     		lsls	r3, r3, #1
 170 00ea FB18     		adds	r3, r7, r3
 171 00ec 1B68     		ldr	r3, [r3]
 172 00ee 1B78     		ldrb	r3, [r3]
 173 00f0 DAB2     		uxtb	r2, r3
 174 00f2 F968     		ldr	r1, [r7, #12]
 175 00f4 9223     		movs	r3, #146
 176 00f6 5B00     		lsls	r3, r3, #1
 177 00f8 FB18     		adds	r3, r7, r3
 178 00fa 1B68     		ldr	r3, [r3]
 179 00fc CB18     		adds	r3, r1, r3
 180 00fe 1B78     		ldrb	r3, [r3]
 181 0100 9A42     		cmp	r2, r3
 182 0102 04D0     		beq	.L6
 180:Generated_Source\PSoC4/BLE_HAL_PVT.c ****                     {
 181:Generated_Source\PSoC4/BLE_HAL_PVT.c ****                         rowsNotEqual = 1u;  
 183              		.loc 1 181 0
 184 0104 0123     		movs	r3, #1
 185 0106 8C22     		movs	r2, #140
 186 0108 5200     		lsls	r2, r2, #1
 187 010a BA18     		adds	r2, r7, r2
 188 010c 1360     		str	r3, [r2]
 189              	.L6:
 182:Generated_Source\PSoC4/BLE_HAL_PVT.c ****                     }
 183:Generated_Source\PSoC4/BLE_HAL_PVT.c ****                     srcIndex++;
 190              		.loc 1 183 0
 191 010e 9223     		movs	r3, #146
 192 0110 5B00     		lsls	r3, r3, #1
 193 0112 FB18     		adds	r3, r7, r3
 194 0114 1B68     		ldr	r3, [r3]
 195 0116 0133     		adds	r3, r3, #1
 196 0118 9222     		movs	r2, #146
 197 011a 5200     		lsls	r2, r2, #1
 198 011c BA18     		adds	r2, r7, r2
 199 011e 1360     		str	r3, [r2]
 200 0120 11E0     		b	.L7
 201              	.L5:
 184:Generated_Source\PSoC4/BLE_HAL_PVT.c ****                 }
 185:Generated_Source\PSoC4/BLE_HAL_PVT.c ****                 else
 186:Generated_Source\PSoC4/BLE_HAL_PVT.c ****                 {
 187:Generated_Source\PSoC4/BLE_HAL_PVT.c ****                     writeBuffer[dstIndex] = CY_GET_XTND_REG8(CYDEV_FLASH_BASE + byteOffset);
 202              		.loc 1 187 0
 203 0122 8E23     		movs	r3, #142
 204 0124 5B00     		lsls	r3, r3, #1
 205 0126 FB18     		adds	r3, r7, r3
 206 0128 1B68     		ldr	r3, [r3]
 207 012a 1B78     		ldrb	r3, [r3]
 208 012c D9B2     		uxtb	r1, r3
 209 012e 3D4B     		ldr	r3, .L14+8
 210 0130 9822     		movs	r2, #152
 211 0132 5200     		lsls	r2, r2, #1
 212 0134 BA18     		adds	r2, r7, r2
ARM GAS  C:\Users\User\AppData\Local\Temp\ccMCuqWG.s 			page 8


 213 0136 D218     		adds	r2, r2, r3
 214 0138 9423     		movs	r3, #148
 215 013a 5B00     		lsls	r3, r3, #1
 216 013c FB18     		adds	r3, r7, r3
 217 013e 1B68     		ldr	r3, [r3]
 218 0140 D318     		adds	r3, r2, r3
 219 0142 0A1C     		adds	r2, r1, #0
 220 0144 1A70     		strb	r2, [r3]
 221              	.L7:
 188:Generated_Source\PSoC4/BLE_HAL_PVT.c ****                 }
 189:Generated_Source\PSoC4/BLE_HAL_PVT.c ****                 byteOffset++;
 222              		.loc 1 189 0 discriminator 2
 223 0146 8E23     		movs	r3, #142
 224 0148 5B00     		lsls	r3, r3, #1
 225 014a FB18     		adds	r3, r7, r3
 226 014c 1B68     		ldr	r3, [r3]
 227 014e 0133     		adds	r3, r3, #1
 228 0150 8E22     		movs	r2, #142
 229 0152 5200     		lsls	r2, r2, #1
 230 0154 BA18     		adds	r2, r7, r2
 231 0156 1360     		str	r3, [r2]
 173:Generated_Source\PSoC4/BLE_HAL_PVT.c ****             {
 232              		.loc 1 173 0 discriminator 2
 233 0158 9423     		movs	r3, #148
 234 015a 5B00     		lsls	r3, r3, #1
 235 015c FB18     		adds	r3, r7, r3
 236 015e 1B68     		ldr	r3, [r3]
 237 0160 0133     		adds	r3, r3, #1
 238 0162 9422     		movs	r2, #148
 239 0164 5200     		lsls	r2, r2, #1
 240 0166 BA18     		adds	r2, r7, r2
 241 0168 1360     		str	r3, [r2]
 242              	.L4:
 173:Generated_Source\PSoC4/BLE_HAL_PVT.c ****             {
 243              		.loc 1 173 0 is_stmt 0 discriminator 1
 244 016a 9423     		movs	r3, #148
 245 016c 5B00     		lsls	r3, r3, #1
 246 016e FB18     		adds	r3, r7, r3
 247 0170 1B68     		ldr	r3, [r3]
 248 0172 FF2B     		cmp	r3, #255
 249 0174 8DD9     		bls	.L8
 190:Generated_Source\PSoC4/BLE_HAL_PVT.c ****             }
 191:Generated_Source\PSoC4/BLE_HAL_PVT.c **** 
 192:Generated_Source\PSoC4/BLE_HAL_PVT.c ****             if(rowsNotEqual != 0u)
 250              		.loc 1 192 0 is_stmt 1
 251 0176 8C23     		movs	r3, #140
 252 0178 5B00     		lsls	r3, r3, #1
 253 017a FB18     		adds	r3, r7, r3
 254 017c 1B68     		ldr	r3, [r3]
 255 017e 002B     		cmp	r3, #0
 256 0180 0ED0     		beq	.L9
 193:Generated_Source\PSoC4/BLE_HAL_PVT.c ****             {
 194:Generated_Source\PSoC4/BLE_HAL_PVT.c ****                 /* Write flash row */
 195:Generated_Source\PSoC4/BLE_HAL_PVT.c ****                 rc = CySysFlashWriteRow(rowId, writeBuffer);
 257              		.loc 1 195 0
 258 0182 1423     		movs	r3, #20
 259 0184 FA18     		adds	r2, r7, r3
ARM GAS  C:\Users\User\AppData\Local\Temp\ccMCuqWG.s 			page 9


 260 0186 9623     		movs	r3, #150
 261 0188 5B00     		lsls	r3, r3, #1
 262 018a FB18     		adds	r3, r7, r3
 263 018c 1B68     		ldr	r3, [r3]
 264 018e 1100     		movs	r1, r2
 265 0190 1800     		movs	r0, r3
 266 0192 FFF7FEFF 		bl	CySysFlashWriteRow
 267 0196 0300     		movs	r3, r0
 268 0198 9022     		movs	r2, #144
 269 019a 5200     		lsls	r2, r2, #1
 270 019c BA18     		adds	r2, r7, r2
 271 019e 1360     		str	r3, [r2]
 272              	.L9:
 196:Generated_Source\PSoC4/BLE_HAL_PVT.c ****             }
 197:Generated_Source\PSoC4/BLE_HAL_PVT.c **** 
 198:Generated_Source\PSoC4/BLE_HAL_PVT.c ****             /* Go to the next row */
 199:Generated_Source\PSoC4/BLE_HAL_PVT.c ****             rowId++;
 273              		.loc 1 199 0
 274 01a0 9623     		movs	r3, #150
 275 01a2 5B00     		lsls	r3, r3, #1
 276 01a4 FB18     		adds	r3, r7, r3
 277 01a6 1B68     		ldr	r3, [r3]
 278 01a8 0133     		adds	r3, r3, #1
 279 01aa 9622     		movs	r2, #150
 280 01ac 5200     		lsls	r2, r2, #1
 281 01ae BA18     		adds	r2, r7, r2
 282 01b0 1360     		str	r3, [r2]
 283              	.L3:
 169:Generated_Source\PSoC4/BLE_HAL_PVT.c ****         {
 284              		.loc 1 169 0
 285 01b2 1A4B     		ldr	r3, .L14
 286 01b4 9822     		movs	r2, #152
 287 01b6 5200     		lsls	r2, r2, #1
 288 01b8 9446     		mov	ip, r2
 289 01ba BC44     		add	ip, ip, r7
 290 01bc 6344     		add	r3, r3, ip
 291 01be 1A88     		ldrh	r2, [r3]
 292 01c0 9223     		movs	r3, #146
 293 01c2 5B00     		lsls	r3, r3, #1
 294 01c4 FB18     		adds	r3, r7, r3
 295 01c6 1B68     		ldr	r3, [r3]
 296 01c8 9A42     		cmp	r2, r3
 297 01ca 0CD9     		bls	.L10
 169:Generated_Source\PSoC4/BLE_HAL_PVT.c ****         {
 298              		.loc 1 169 0 is_stmt 0 discriminator 1
 299 01cc 9023     		movs	r3, #144
 300 01ce 5B00     		lsls	r3, r3, #1
 301 01d0 FB18     		adds	r3, r7, r3
 302 01d2 1B68     		ldr	r3, [r3]
 303 01d4 002B     		cmp	r3, #0
 304 01d6 00D1     		bne	.LCB261
 305 01d8 50E7     		b	.L11	@long jump
 306              	.LCB261:
 307 01da 04E0     		b	.L10
 308              	.L2:
 200:Generated_Source\PSoC4/BLE_HAL_PVT.c ****         }
 201:Generated_Source\PSoC4/BLE_HAL_PVT.c ****     }
ARM GAS  C:\Users\User\AppData\Local\Temp\ccMCuqWG.s 			page 10


 202:Generated_Source\PSoC4/BLE_HAL_PVT.c ****     else
 203:Generated_Source\PSoC4/BLE_HAL_PVT.c ****     {
 204:Generated_Source\PSoC4/BLE_HAL_PVT.c ****         rc = CYRET_BAD_PARAM;
 309              		.loc 1 204 0 is_stmt 1
 310 01dc 0123     		movs	r3, #1
 311 01de 9022     		movs	r2, #144
 312 01e0 5200     		lsls	r2, r2, #1
 313 01e2 BA18     		adds	r2, r7, r2
 314 01e4 1360     		str	r3, [r2]
 315              	.L10:
 205:Generated_Source\PSoC4/BLE_HAL_PVT.c ****     }
 206:Generated_Source\PSoC4/BLE_HAL_PVT.c **** 
 207:Generated_Source\PSoC4/BLE_HAL_PVT.c ****     /* Mask return codes from flash, if they are not supported */
 208:Generated_Source\PSoC4/BLE_HAL_PVT.c ****     if ((CYRET_SUCCESS != rc) && (CYRET_BAD_PARAM != rc))
 316              		.loc 1 208 0
 317 01e6 9023     		movs	r3, #144
 318 01e8 5B00     		lsls	r3, r3, #1
 319 01ea FB18     		adds	r3, r7, r3
 320 01ec 1B68     		ldr	r3, [r3]
 321 01ee 002B     		cmp	r3, #0
 322 01f0 0BD0     		beq	.L12
 323              		.loc 1 208 0 is_stmt 0 discriminator 1
 324 01f2 9023     		movs	r3, #144
 325 01f4 5B00     		lsls	r3, r3, #1
 326 01f6 FB18     		adds	r3, r7, r3
 327 01f8 1B68     		ldr	r3, [r3]
 328 01fa 012B     		cmp	r3, #1
 329 01fc 05D0     		beq	.L12
 209:Generated_Source\PSoC4/BLE_HAL_PVT.c ****     {
 210:Generated_Source\PSoC4/BLE_HAL_PVT.c ****         rc = CYRET_UNKNOWN;
 330              		.loc 1 210 0 is_stmt 1
 331 01fe 0123     		movs	r3, #1
 332 0200 5B42     		rsbs	r3, r3, #0
 333 0202 9022     		movs	r2, #144
 334 0204 5200     		lsls	r2, r2, #1
 335 0206 BA18     		adds	r2, r7, r2
 336 0208 1360     		str	r3, [r2]
 337              	.L12:
 211:Generated_Source\PSoC4/BLE_HAL_PVT.c ****     }
 212:Generated_Source\PSoC4/BLE_HAL_PVT.c ****     
 213:Generated_Source\PSoC4/BLE_HAL_PVT.c ****     return (rc);
 338              		.loc 1 213 0
 339 020a 9023     		movs	r3, #144
 340 020c 5B00     		lsls	r3, r3, #1
 341 020e FB18     		adds	r3, r7, r3
 342 0210 1B68     		ldr	r3, [r3]
 214:Generated_Source\PSoC4/BLE_HAL_PVT.c **** }
 343              		.loc 1 214 0
 344 0212 1800     		movs	r0, r3
 345 0214 BD46     		mov	sp, r7
 346 0216 4CB0     		add	sp, sp, #304
 347              		@ sp needed
 348 0218 80BD     		pop	{r7, pc}
 349              	.L15:
 350 021a C046     		.align	2
 351              	.L14:
 352 021c D6FEFFFF 		.word	-298
ARM GAS  C:\Users\User\AppData\Local\Temp\ccMCuqWG.s 			page 11


 353 0220 FFFF0300 		.word	262143
 354 0224 E4FEFFFF 		.word	-284
 355              		.cfi_endproc
 356              	.LFE2:
 357              		.size	CyBLE_Nvram_Write, .-CyBLE_Nvram_Write
 358              		.section	.text.CyBLE_Nvram_Erase,"ax",%progbits
 359              		.align	2
 360              		.global	CyBLE_Nvram_Erase
 361              		.code	16
 362              		.thumb_func
 363              		.type	CyBLE_Nvram_Erase, %function
 364              	CyBLE_Nvram_Erase:
 365              	.LFB3:
 215:Generated_Source\PSoC4/BLE_HAL_PVT.c **** 
 216:Generated_Source\PSoC4/BLE_HAL_PVT.c **** /*******************************************************************************
 217:Generated_Source\PSoC4/BLE_HAL_PVT.c **** * Function Name: CyBLE_Nvram_Erase
 218:Generated_Source\PSoC4/BLE_HAL_PVT.c **** ****************************************************************************//**
 219:Generated_Source\PSoC4/BLE_HAL_PVT.c **** *
 220:Generated_Source\PSoC4/BLE_HAL_PVT.c **** *  This function erases the data from the NVRAM store. It will perform an 
 221:Generated_Source\PSoC4/BLE_HAL_PVT.c **** *  address range check based on the length before performing erase operation.
 222:Generated_Source\PSoC4/BLE_HAL_PVT.c **** *
 223:Generated_Source\PSoC4/BLE_HAL_PVT.c **** *  \param varFlash: the pointer to the array or variable in the flash.
 224:Generated_Source\PSoC4/BLE_HAL_PVT.c **** *  \param length:    the length of the data in bytes.
 225:Generated_Source\PSoC4/BLE_HAL_PVT.c **** *
 226:Generated_Source\PSoC4/BLE_HAL_PVT.c **** * \return
 227:Generated_Source\PSoC4/BLE_HAL_PVT.c **** *  CYRET_SUCCESS    a successful write
 228:Generated_Source\PSoC4/BLE_HAL_PVT.c **** *  CYRET_BAD_PARAM  A request to write outside the flash boundary.
 229:Generated_Source\PSoC4/BLE_HAL_PVT.c **** *  CYRET_UNKNOWN    Other errors in writing the flash
 230:Generated_Source\PSoC4/BLE_HAL_PVT.c **** *
 231:Generated_Source\PSoC4/BLE_HAL_PVT.c **** *******************************************************************************/
 232:Generated_Source\PSoC4/BLE_HAL_PVT.c **** cystatus CyBLE_Nvram_Erase (const uint8 *varFlash, uint16 length)
 233:Generated_Source\PSoC4/BLE_HAL_PVT.c **** {
 366              		.loc 1 233 0
 367              		.cfi_startproc
 368              		@ args = 0, pretend = 0, frame = 280
 369              		@ frame_needed = 1, uses_anonymous_args = 0
 370 0000 80B5     		push	{r7, lr}
 371              		.cfi_def_cfa_offset 8
 372              		.cfi_offset 7, -8
 373              		.cfi_offset 14, -4
 374 0002 C6B0     		sub	sp, sp, #280
 375              		.cfi_def_cfa_offset 288
 376 0004 00AF     		add	r7, sp, #0
 377              		.cfi_def_cfa_register 7
 378 0006 7860     		str	r0, [r7, #4]
 379 0008 0A00     		movs	r2, r1
 380 000a 3F4B     		ldr	r3, .L25
 381 000c 8C21     		movs	r1, #140
 382 000e 4900     		lsls	r1, r1, #1
 383 0010 8C46     		mov	ip, r1
 384 0012 BC44     		add	ip, ip, r7
 385 0014 6344     		add	r3, r3, ip
 386 0016 1A80     		strh	r2, [r3]
 234:Generated_Source\PSoC4/BLE_HAL_PVT.c ****     const uint8 *tempFlash;
 235:Generated_Source\PSoC4/BLE_HAL_PVT.c ****     uint8 flashBuffer[CY_FLASH_SIZEOF_ROW] = {0u};
 387              		.loc 1 235 0
 388 0018 3C4B     		ldr	r3, .L25+4
ARM GAS  C:\Users\User\AppData\Local\Temp\ccMCuqWG.s 			page 12


 389 001a 8C22     		movs	r2, #140
 390 001c 5200     		lsls	r2, r2, #1
 391 001e 9446     		mov	ip, r2
 392 0020 BC44     		add	ip, ip, r7
 393 0022 6344     		add	r3, r3, ip
 394 0024 1800     		movs	r0, r3
 395 0026 8023     		movs	r3, #128
 396 0028 5B00     		lsls	r3, r3, #1
 397 002a 1A00     		movs	r2, r3
 398 002c 0021     		movs	r1, #0
 399 002e FFF7FEFF 		bl	memset
 236:Generated_Source\PSoC4/BLE_HAL_PVT.c ****     uint16 lengthFlash;
 237:Generated_Source\PSoC4/BLE_HAL_PVT.c ****     uint16 lengthRemaining;
 238:Generated_Source\PSoC4/BLE_HAL_PVT.c ****     cystatus rc = CYRET_UNKNOWN;
 400              		.loc 1 238 0
 401 0032 0123     		movs	r3, #1
 402 0034 5B42     		rsbs	r3, r3, #0
 403 0036 8622     		movs	r2, #134
 404 0038 5200     		lsls	r2, r2, #1
 405 003a BA18     		adds	r2, r7, r2
 406 003c 1360     		str	r3, [r2]
 239:Generated_Source\PSoC4/BLE_HAL_PVT.c **** 
 240:Generated_Source\PSoC4/BLE_HAL_PVT.c ****     tempFlash = varFlash;
 407              		.loc 1 240 0
 408 003e 7B68     		ldr	r3, [r7, #4]
 409 0040 8A22     		movs	r2, #138
 410 0042 5200     		lsls	r2, r2, #1
 411 0044 BA18     		adds	r2, r7, r2
 412 0046 1360     		str	r3, [r2]
 241:Generated_Source\PSoC4/BLE_HAL_PVT.c ****     lengthRemaining = length;
 413              		.loc 1 241 0
 414 0048 8823     		movs	r3, #136
 415 004a 5B00     		lsls	r3, r3, #1
 416 004c FB18     		adds	r3, r7, r3
 417 004e 2E4A     		ldr	r2, .L25
 418 0050 8C21     		movs	r1, #140
 419 0052 4900     		lsls	r1, r1, #1
 420 0054 8C46     		mov	ip, r1
 421 0056 BC44     		add	ip, ip, r7
 422 0058 6244     		add	r2, r2, ip
 423 005a 1288     		ldrh	r2, [r2]
 424 005c 1A80     		strh	r2, [r3]
 242:Generated_Source\PSoC4/BLE_HAL_PVT.c **** 
 243:Generated_Source\PSoC4/BLE_HAL_PVT.c ****     while(lengthRemaining > 0u)
 425              		.loc 1 243 0
 426 005e 43E0     		b	.L17
 427              	.L22:
 244:Generated_Source\PSoC4/BLE_HAL_PVT.c ****     {
 245:Generated_Source\PSoC4/BLE_HAL_PVT.c ****         if(lengthRemaining < CY_FLASH_SIZEOF_ROW)
 428              		.loc 1 245 0
 429 0060 8823     		movs	r3, #136
 430 0062 5B00     		lsls	r3, r3, #1
 431 0064 FB18     		adds	r3, r7, r3
 432 0066 1B88     		ldrh	r3, [r3]
 433 0068 FF2B     		cmp	r3, #255
 434 006a 08D8     		bhi	.L18
 246:Generated_Source\PSoC4/BLE_HAL_PVT.c ****         {
ARM GAS  C:\Users\User\AppData\Local\Temp\ccMCuqWG.s 			page 13


 247:Generated_Source\PSoC4/BLE_HAL_PVT.c ****             lengthFlash = lengthRemaining;
 435              		.loc 1 247 0
 436 006c 8923     		movs	r3, #137
 437 006e 5B00     		lsls	r3, r3, #1
 438 0070 FB18     		adds	r3, r7, r3
 439 0072 8822     		movs	r2, #136
 440 0074 5200     		lsls	r2, r2, #1
 441 0076 BA18     		adds	r2, r7, r2
 442 0078 1288     		ldrh	r2, [r2]
 443 007a 1A80     		strh	r2, [r3]
 444 007c 05E0     		b	.L19
 445              	.L18:
 248:Generated_Source\PSoC4/BLE_HAL_PVT.c ****         }
 249:Generated_Source\PSoC4/BLE_HAL_PVT.c ****         else
 250:Generated_Source\PSoC4/BLE_HAL_PVT.c ****         {
 251:Generated_Source\PSoC4/BLE_HAL_PVT.c ****             lengthFlash = CY_FLASH_SIZEOF_ROW;
 446              		.loc 1 251 0
 447 007e 8923     		movs	r3, #137
 448 0080 5B00     		lsls	r3, r3, #1
 449 0082 FB18     		adds	r3, r7, r3
 450 0084 8022     		movs	r2, #128
 451 0086 5200     		lsls	r2, r2, #1
 452 0088 1A80     		strh	r2, [r3]
 453              	.L19:
 252:Generated_Source\PSoC4/BLE_HAL_PVT.c ****         }
 253:Generated_Source\PSoC4/BLE_HAL_PVT.c ****         rc = CyBLE_Nvram_Write(flashBuffer, tempFlash, lengthFlash);
 454              		.loc 1 253 0
 455 008a 8923     		movs	r3, #137
 456 008c 5B00     		lsls	r3, r3, #1
 457 008e FB18     		adds	r3, r7, r3
 458 0090 1A88     		ldrh	r2, [r3]
 459 0092 8A23     		movs	r3, #138
 460 0094 5B00     		lsls	r3, r3, #1
 461 0096 FB18     		adds	r3, r7, r3
 462 0098 1968     		ldr	r1, [r3]
 463 009a 0C23     		movs	r3, #12
 464 009c FB18     		adds	r3, r7, r3
 465 009e 1800     		movs	r0, r3
 466 00a0 FFF7FEFF 		bl	CyBLE_Nvram_Write
 467 00a4 0300     		movs	r3, r0
 468 00a6 8622     		movs	r2, #134
 469 00a8 5200     		lsls	r2, r2, #1
 470 00aa BA18     		adds	r2, r7, r2
 471 00ac 1360     		str	r3, [r2]
 254:Generated_Source\PSoC4/BLE_HAL_PVT.c ****         if(rc != CYRET_SUCCESS)
 472              		.loc 1 254 0
 473 00ae 8623     		movs	r3, #134
 474 00b0 5B00     		lsls	r3, r3, #1
 475 00b2 FB18     		adds	r3, r7, r3
 476 00b4 1B68     		ldr	r3, [r3]
 477 00b6 002B     		cmp	r3, #0
 478 00b8 1DD1     		bne	.L24
 255:Generated_Source\PSoC4/BLE_HAL_PVT.c ****         {
 256:Generated_Source\PSoC4/BLE_HAL_PVT.c ****             break;
 257:Generated_Source\PSoC4/BLE_HAL_PVT.c ****         }
 258:Generated_Source\PSoC4/BLE_HAL_PVT.c ****         tempFlash += CY_FLASH_SIZEOF_ROW;
 479              		.loc 1 258 0
ARM GAS  C:\Users\User\AppData\Local\Temp\ccMCuqWG.s 			page 14


 480 00ba 8A23     		movs	r3, #138
 481 00bc 5B00     		lsls	r3, r3, #1
 482 00be FB18     		adds	r3, r7, r3
 483 00c0 1B68     		ldr	r3, [r3]
 484 00c2 0133     		adds	r3, r3, #1
 485 00c4 FF33     		adds	r3, r3, #255
 486 00c6 8A22     		movs	r2, #138
 487 00c8 5200     		lsls	r2, r2, #1
 488 00ca BA18     		adds	r2, r7, r2
 489 00cc 1360     		str	r3, [r2]
 259:Generated_Source\PSoC4/BLE_HAL_PVT.c ****         lengthRemaining -= lengthFlash;
 490              		.loc 1 259 0
 491 00ce 8823     		movs	r3, #136
 492 00d0 5B00     		lsls	r3, r3, #1
 493 00d2 FB18     		adds	r3, r7, r3
 494 00d4 8822     		movs	r2, #136
 495 00d6 5200     		lsls	r2, r2, #1
 496 00d8 B918     		adds	r1, r7, r2
 497 00da 8922     		movs	r2, #137
 498 00dc 5200     		lsls	r2, r2, #1
 499 00de BA18     		adds	r2, r7, r2
 500 00e0 0988     		ldrh	r1, [r1]
 501 00e2 1288     		ldrh	r2, [r2]
 502 00e4 8A1A     		subs	r2, r1, r2
 503 00e6 1A80     		strh	r2, [r3]
 504              	.L17:
 243:Generated_Source\PSoC4/BLE_HAL_PVT.c ****     {
 505              		.loc 1 243 0
 506 00e8 8823     		movs	r3, #136
 507 00ea 5B00     		lsls	r3, r3, #1
 508 00ec FB18     		adds	r3, r7, r3
 509 00ee 1B88     		ldrh	r3, [r3]
 510 00f0 002B     		cmp	r3, #0
 511 00f2 B5D1     		bne	.L22
 512 00f4 00E0     		b	.L21
 513              	.L24:
 256:Generated_Source\PSoC4/BLE_HAL_PVT.c ****         }
 514              		.loc 1 256 0
 515 00f6 C046     		nop
 516              	.L21:
 260:Generated_Source\PSoC4/BLE_HAL_PVT.c ****     }
 261:Generated_Source\PSoC4/BLE_HAL_PVT.c **** 
 262:Generated_Source\PSoC4/BLE_HAL_PVT.c ****     return rc;
 517              		.loc 1 262 0
 518 00f8 8623     		movs	r3, #134
 519 00fa 5B00     		lsls	r3, r3, #1
 520 00fc FB18     		adds	r3, r7, r3
 521 00fe 1B68     		ldr	r3, [r3]
 263:Generated_Source\PSoC4/BLE_HAL_PVT.c **** }
 522              		.loc 1 263 0
 523 0100 1800     		movs	r0, r3
 524 0102 BD46     		mov	sp, r7
 525 0104 46B0     		add	sp, sp, #280
 526              		@ sp needed
 527 0106 80BD     		pop	{r7, pc}
 528              	.L26:
 529              		.align	2
ARM GAS  C:\Users\User\AppData\Local\Temp\ccMCuqWG.s 			page 15


 530              	.L25:
 531 0108 EAFEFFFF 		.word	-278
 532 010c F4FEFFFF 		.word	-268
 533              		.cfi_endproc
 534              	.LFE3:
 535              		.size	CyBLE_Nvram_Erase, .-CyBLE_Nvram_Erase
 536              		.section	.text.CyBLE_Bless_LlRegRead,"ax",%progbits
 537              		.align	2
 538              		.global	CyBLE_Bless_LlRegRead
 539              		.code	16
 540              		.thumb_func
 541              		.type	CyBLE_Bless_LlRegRead, %function
 542              	CyBLE_Bless_LlRegRead:
 543              	.LFB4:
 264:Generated_Source\PSoC4/BLE_HAL_PVT.c **** 
 265:Generated_Source\PSoC4/BLE_HAL_PVT.c **** 
 266:Generated_Source\PSoC4/BLE_HAL_PVT.c **** /*******************************************************************************
 267:Generated_Source\PSoC4/BLE_HAL_PVT.c **** * Function Name: CyBLE_Bless_LlRegRead
 268:Generated_Source\PSoC4/BLE_HAL_PVT.c **** ****************************************************************************//**
 269:Generated_Source\PSoC4/BLE_HAL_PVT.c **** *
 270:Generated_Source\PSoC4/BLE_HAL_PVT.c **** *  This function reads the content of the BLESS Link Layer register from the 
 271:Generated_Source\PSoC4/BLE_HAL_PVT.c **** *  stack.
 272:Generated_Source\PSoC4/BLE_HAL_PVT.c **** *
 273:Generated_Source\PSoC4/BLE_HAL_PVT.c **** *  \param blessAddr: the pointer to the BLESS link layer address.
 274:Generated_Source\PSoC4/BLE_HAL_PVT.c **** *  \param regValue: the pointer to the buffer space to copy the read value.
 275:Generated_Source\PSoC4/BLE_HAL_PVT.c **** *
 276:Generated_Source\PSoC4/BLE_HAL_PVT.c **** * \return
 277:Generated_Source\PSoC4/BLE_HAL_PVT.c **** *  None
 278:Generated_Source\PSoC4/BLE_HAL_PVT.c **** *
 279:Generated_Source\PSoC4/BLE_HAL_PVT.c **** *******************************************************************************/
 280:Generated_Source\PSoC4/BLE_HAL_PVT.c **** void CyBLE_Bless_LlRegRead (const reg32 *blessAddr, uint16 *regValue)
 281:Generated_Source\PSoC4/BLE_HAL_PVT.c **** {
 544              		.loc 1 281 0
 545              		.cfi_startproc
 546              		@ args = 0, pretend = 0, frame = 8
 547              		@ frame_needed = 1, uses_anonymous_args = 0
 548 0000 80B5     		push	{r7, lr}
 549              		.cfi_def_cfa_offset 8
 550              		.cfi_offset 7, -8
 551              		.cfi_offset 14, -4
 552 0002 82B0     		sub	sp, sp, #8
 553              		.cfi_def_cfa_offset 16
 554 0004 00AF     		add	r7, sp, #0
 555              		.cfi_def_cfa_register 7
 556 0006 7860     		str	r0, [r7, #4]
 557 0008 3960     		str	r1, [r7]
 282:Generated_Source\PSoC4/BLE_HAL_PVT.c ****     *regValue = (uint16)CY_GET_REG32(blessAddr);
 558              		.loc 1 282 0
 559 000a 7B68     		ldr	r3, [r7, #4]
 560 000c 1B68     		ldr	r3, [r3]
 561 000e 9AB2     		uxth	r2, r3
 562 0010 3B68     		ldr	r3, [r7]
 563 0012 1A80     		strh	r2, [r3]
 283:Generated_Source\PSoC4/BLE_HAL_PVT.c **** }
 564              		.loc 1 283 0
 565 0014 C046     		nop
 566 0016 BD46     		mov	sp, r7
ARM GAS  C:\Users\User\AppData\Local\Temp\ccMCuqWG.s 			page 16


 567 0018 02B0     		add	sp, sp, #8
 568              		@ sp needed
 569 001a 80BD     		pop	{r7, pc}
 570              		.cfi_endproc
 571              	.LFE4:
 572              		.size	CyBLE_Bless_LlRegRead, .-CyBLE_Bless_LlRegRead
 573              		.section	.text.CyBLE_Bless_LlRegWrite,"ax",%progbits
 574              		.align	2
 575              		.global	CyBLE_Bless_LlRegWrite
 576              		.code	16
 577              		.thumb_func
 578              		.type	CyBLE_Bless_LlRegWrite, %function
 579              	CyBLE_Bless_LlRegWrite:
 580              	.LFB5:
 284:Generated_Source\PSoC4/BLE_HAL_PVT.c **** 
 285:Generated_Source\PSoC4/BLE_HAL_PVT.c **** 
 286:Generated_Source\PSoC4/BLE_HAL_PVT.c **** /*******************************************************************************
 287:Generated_Source\PSoC4/BLE_HAL_PVT.c **** * Function Name: CyBLE_Bless_LlRegWrite
 288:Generated_Source\PSoC4/BLE_HAL_PVT.c **** ****************************************************************************//**
 289:Generated_Source\PSoC4/BLE_HAL_PVT.c **** *
 290:Generated_Source\PSoC4/BLE_HAL_PVT.c **** *  This function writes to the BLESS Link Layer register from the stack.
 291:Generated_Source\PSoC4/BLE_HAL_PVT.c **** *
 292:Generated_Source\PSoC4/BLE_HAL_PVT.c **** *  \param blessAddr: the pointer to the BLESS link layer address.
 293:Generated_Source\PSoC4/BLE_HAL_PVT.c **** *  \param regValue: the pointer to the value to be written to the BLESS LL reg.
 294:Generated_Source\PSoC4/BLE_HAL_PVT.c **** *
 295:Generated_Source\PSoC4/BLE_HAL_PVT.c **** * \return
 296:Generated_Source\PSoC4/BLE_HAL_PVT.c **** *  None
 297:Generated_Source\PSoC4/BLE_HAL_PVT.c **** *
 298:Generated_Source\PSoC4/BLE_HAL_PVT.c **** *******************************************************************************/
 299:Generated_Source\PSoC4/BLE_HAL_PVT.c **** void CyBLE_Bless_LlRegWrite (reg32 *blessAddr, const uint16 regValue)
 300:Generated_Source\PSoC4/BLE_HAL_PVT.c **** {
 581              		.loc 1 300 0
 582              		.cfi_startproc
 583              		@ args = 0, pretend = 0, frame = 8
 584              		@ frame_needed = 1, uses_anonymous_args = 0
 585 0000 80B5     		push	{r7, lr}
 586              		.cfi_def_cfa_offset 8
 587              		.cfi_offset 7, -8
 588              		.cfi_offset 14, -4
 589 0002 82B0     		sub	sp, sp, #8
 590              		.cfi_def_cfa_offset 16
 591 0004 00AF     		add	r7, sp, #0
 592              		.cfi_def_cfa_register 7
 593 0006 7860     		str	r0, [r7, #4]
 594 0008 0A00     		movs	r2, r1
 595 000a BB1C     		adds	r3, r7, #2
 596 000c 1A80     		strh	r2, [r3]
 301:Generated_Source\PSoC4/BLE_HAL_PVT.c ****     CY_SET_REG32(blessAddr, regValue);
 597              		.loc 1 301 0
 598 000e BB1C     		adds	r3, r7, #2
 599 0010 1A88     		ldrh	r2, [r3]
 600 0012 7B68     		ldr	r3, [r7, #4]
 601 0014 1A60     		str	r2, [r3]
 302:Generated_Source\PSoC4/BLE_HAL_PVT.c **** }
 602              		.loc 1 302 0
 603 0016 C046     		nop
 604 0018 BD46     		mov	sp, r7
ARM GAS  C:\Users\User\AppData\Local\Temp\ccMCuqWG.s 			page 17


 605 001a 02B0     		add	sp, sp, #8
 606              		@ sp needed
 607 001c 80BD     		pop	{r7, pc}
 608              		.cfi_endproc
 609              	.LFE5:
 610              		.size	CyBLE_Bless_LlRegWrite, .-CyBLE_Bless_LlRegWrite
 611 001e C046     		.section	.text.CyBLE_Bless_RfRegRead,"ax",%progbits
 612              		.align	2
 613              		.global	CyBLE_Bless_RfRegRead
 614              		.code	16
 615              		.thumb_func
 616              		.type	CyBLE_Bless_RfRegRead, %function
 617              	CyBLE_Bless_RfRegRead:
 618              	.LFB6:
 303:Generated_Source\PSoC4/BLE_HAL_PVT.c **** 
 304:Generated_Source\PSoC4/BLE_HAL_PVT.c **** 
 305:Generated_Source\PSoC4/BLE_HAL_PVT.c **** /*******************************************************************************
 306:Generated_Source\PSoC4/BLE_HAL_PVT.c **** * Function Name: CyBLE_Bless_RfRegRead
 307:Generated_Source\PSoC4/BLE_HAL_PVT.c **** ****************************************************************************//**
 308:Generated_Source\PSoC4/BLE_HAL_PVT.c **** *
 309:Generated_Source\PSoC4/BLE_HAL_PVT.c **** *  This function reads the content of the BLESS RF register from the stack.
 310:Generated_Source\PSoC4/BLE_HAL_PVT.c **** *
 311:Generated_Source\PSoC4/BLE_HAL_PVT.c **** *  \param blessAddr: the pointer to BLESS RF register address.
 312:Generated_Source\PSoC4/BLE_HAL_PVT.c **** *  \param regValue: the pointer to the buffer space to copy the read value.
 313:Generated_Source\PSoC4/BLE_HAL_PVT.c **** *
 314:Generated_Source\PSoC4/BLE_HAL_PVT.c **** * \return
 315:Generated_Source\PSoC4/BLE_HAL_PVT.c **** *  None
 316:Generated_Source\PSoC4/BLE_HAL_PVT.c **** *
 317:Generated_Source\PSoC4/BLE_HAL_PVT.c **** *******************************************************************************/
 318:Generated_Source\PSoC4/BLE_HAL_PVT.c **** void CyBLE_Bless_RfRegRead (const reg32 *blessAddr, uint16 *regValue)
 319:Generated_Source\PSoC4/BLE_HAL_PVT.c **** {
 619              		.loc 1 319 0
 620              		.cfi_startproc
 621              		@ args = 0, pretend = 0, frame = 8
 622              		@ frame_needed = 1, uses_anonymous_args = 0
 623 0000 80B5     		push	{r7, lr}
 624              		.cfi_def_cfa_offset 8
 625              		.cfi_offset 7, -8
 626              		.cfi_offset 14, -4
 627 0002 82B0     		sub	sp, sp, #8
 628              		.cfi_def_cfa_offset 16
 629 0004 00AF     		add	r7, sp, #0
 630              		.cfi_def_cfa_register 7
 631 0006 7860     		str	r0, [r7, #4]
 632 0008 3960     		str	r1, [r7]
 320:Generated_Source\PSoC4/BLE_HAL_PVT.c ****     *regValue = (uint16)CY_GET_REG32(blessAddr);
 633              		.loc 1 320 0
 634 000a 7B68     		ldr	r3, [r7, #4]
 635 000c 1B68     		ldr	r3, [r3]
 636 000e 9AB2     		uxth	r2, r3
 637 0010 3B68     		ldr	r3, [r7]
 638 0012 1A80     		strh	r2, [r3]
 321:Generated_Source\PSoC4/BLE_HAL_PVT.c **** }
 639              		.loc 1 321 0
 640 0014 C046     		nop
 641 0016 BD46     		mov	sp, r7
 642 0018 02B0     		add	sp, sp, #8
ARM GAS  C:\Users\User\AppData\Local\Temp\ccMCuqWG.s 			page 18


 643              		@ sp needed
 644 001a 80BD     		pop	{r7, pc}
 645              		.cfi_endproc
 646              	.LFE6:
 647              		.size	CyBLE_Bless_RfRegRead, .-CyBLE_Bless_RfRegRead
 648              		.section	.text.CyBLE_Bless_RfRegWrite,"ax",%progbits
 649              		.align	2
 650              		.global	CyBLE_Bless_RfRegWrite
 651              		.code	16
 652              		.thumb_func
 653              		.type	CyBLE_Bless_RfRegWrite, %function
 654              	CyBLE_Bless_RfRegWrite:
 655              	.LFB7:
 322:Generated_Source\PSoC4/BLE_HAL_PVT.c **** 
 323:Generated_Source\PSoC4/BLE_HAL_PVT.c **** 
 324:Generated_Source\PSoC4/BLE_HAL_PVT.c **** /*******************************************************************************
 325:Generated_Source\PSoC4/BLE_HAL_PVT.c **** * Function Name: CyBLE_Bless_RfRegWrite
 326:Generated_Source\PSoC4/BLE_HAL_PVT.c **** ****************************************************************************//**
 327:Generated_Source\PSoC4/BLE_HAL_PVT.c **** *
 328:Generated_Source\PSoC4/BLE_HAL_PVT.c **** *  This function writes to the BLESS RF register from the stack.
 329:Generated_Source\PSoC4/BLE_HAL_PVT.c **** *
 330:Generated_Source\PSoC4/BLE_HAL_PVT.c **** *  \param blessAddr: the pointer to the BLESS RF address.
 331:Generated_Source\PSoC4/BLE_HAL_PVT.c **** *  \param regValue: the pointer to the value to be written to the BLESS RF reg.
 332:Generated_Source\PSoC4/BLE_HAL_PVT.c **** *
 333:Generated_Source\PSoC4/BLE_HAL_PVT.c **** * \return
 334:Generated_Source\PSoC4/BLE_HAL_PVT.c **** *  None
 335:Generated_Source\PSoC4/BLE_HAL_PVT.c **** *
 336:Generated_Source\PSoC4/BLE_HAL_PVT.c **** *******************************************************************************/
 337:Generated_Source\PSoC4/BLE_HAL_PVT.c **** void CyBLE_Bless_RfRegWrite (reg32 *blessAddr, const uint16 regValue)
 338:Generated_Source\PSoC4/BLE_HAL_PVT.c **** {
 656              		.loc 1 338 0
 657              		.cfi_startproc
 658              		@ args = 0, pretend = 0, frame = 8
 659              		@ frame_needed = 1, uses_anonymous_args = 0
 660 0000 80B5     		push	{r7, lr}
 661              		.cfi_def_cfa_offset 8
 662              		.cfi_offset 7, -8
 663              		.cfi_offset 14, -4
 664 0002 82B0     		sub	sp, sp, #8
 665              		.cfi_def_cfa_offset 16
 666 0004 00AF     		add	r7, sp, #0
 667              		.cfi_def_cfa_register 7
 668 0006 7860     		str	r0, [r7, #4]
 669 0008 0A00     		movs	r2, r1
 670 000a BB1C     		adds	r3, r7, #2
 671 000c 1A80     		strh	r2, [r3]
 339:Generated_Source\PSoC4/BLE_HAL_PVT.c ****      CY_SET_REG32(blessAddr, regValue);
 672              		.loc 1 339 0
 673 000e BB1C     		adds	r3, r7, #2
 674 0010 1A88     		ldrh	r2, [r3]
 675 0012 7B68     		ldr	r3, [r7, #4]
 676 0014 1A60     		str	r2, [r3]
 340:Generated_Source\PSoC4/BLE_HAL_PVT.c **** }
 677              		.loc 1 340 0
 678 0016 C046     		nop
 679 0018 BD46     		mov	sp, r7
 680 001a 02B0     		add	sp, sp, #8
ARM GAS  C:\Users\User\AppData\Local\Temp\ccMCuqWG.s 			page 19


 681              		@ sp needed
 682 001c 80BD     		pop	{r7, pc}
 683              		.cfi_endproc
 684              	.LFE7:
 685              		.size	CyBLE_Bless_RfRegWrite, .-CyBLE_Bless_RfRegWrite
 686 001e C046     		.section	.text.CyBLE_BlessDeviceConfig,"ax",%progbits
 687              		.align	2
 688              		.global	CyBLE_BlessDeviceConfig
 689              		.code	16
 690              		.thumb_func
 691              		.type	CyBLE_BlessDeviceConfig, %function
 692              	CyBLE_BlessDeviceConfig:
 693              	.LFB8:
 341:Generated_Source\PSoC4/BLE_HAL_PVT.c **** 
 342:Generated_Source\PSoC4/BLE_HAL_PVT.c **** /*******************************************************************************
 343:Generated_Source\PSoC4/BLE_HAL_PVT.c **** * Function Name: CyBLE_BlessDeviceConfig
 344:Generated_Source\PSoC4/BLE_HAL_PVT.c **** ****************************************************************************//**
 345:Generated_Source\PSoC4/BLE_HAL_PVT.c **** *
 346:Generated_Source\PSoC4/BLE_HAL_PVT.c **** *  This function configures BLESS registers by trimmed values stored in SFLASH.
 347:Generated_Source\PSoC4/BLE_HAL_PVT.c **** *
 348:Generated_Source\PSoC4/BLE_HAL_PVT.c **** * \return
 349:Generated_Source\PSoC4/BLE_HAL_PVT.c **** *  None
 350:Generated_Source\PSoC4/BLE_HAL_PVT.c **** *
 351:Generated_Source\PSoC4/BLE_HAL_PVT.c **** *******************************************************************************/
 352:Generated_Source\PSoC4/BLE_HAL_PVT.c **** void CyBLE_BlessDeviceConfig(void)
 353:Generated_Source\PSoC4/BLE_HAL_PVT.c **** {
 694              		.loc 1 353 0
 695              		.cfi_startproc
 696              		@ args = 0, pretend = 0, frame = 16
 697              		@ frame_needed = 1, uses_anonymous_args = 0
 698 0000 80B5     		push	{r7, lr}
 699              		.cfi_def_cfa_offset 8
 700              		.cfi_offset 7, -8
 701              		.cfi_offset 14, -4
 702 0002 84B0     		sub	sp, sp, #16
 703              		.cfi_def_cfa_offset 24
 704 0004 00AF     		add	r7, sp, #0
 705              		.cfi_def_cfa_register 7
 354:Generated_Source\PSoC4/BLE_HAL_PVT.c **** #if (CYIPBLOCK_m0s8bless_VERSION < 3)
 355:Generated_Source\PSoC4/BLE_HAL_PVT.c ****     
 356:Generated_Source\PSoC4/BLE_HAL_PVT.c ****     uint32 trimRegValue;
 357:Generated_Source\PSoC4/BLE_HAL_PVT.c ****     uint32 ldo;
 358:Generated_Source\PSoC4/BLE_HAL_PVT.c ****     uint16 trimRef34Val;
 359:Generated_Source\PSoC4/BLE_HAL_PVT.c ****     uint16 trimRef38Val;    
 360:Generated_Source\PSoC4/BLE_HAL_PVT.c ****     uint32 siliconRev;
 361:Generated_Source\PSoC4/BLE_HAL_PVT.c **** 
 362:Generated_Source\PSoC4/BLE_HAL_PVT.c ****     trimRegValue = ((uint32)CYBLE_SFLASH_BLESS_BB_BUMP2_HIGH_REG << 8u) | CYBLE_SFLASH_BLESS_BB_BUM
 706              		.loc 1 362 0
 707 0006 494B     		ldr	r3, .L40
 708 0008 1B78     		ldrb	r3, [r3]
 709 000a DBB2     		uxtb	r3, r3
 710 000c 1B02     		lsls	r3, r3, #8
 711 000e 484A     		ldr	r2, .L40+4
 712 0010 1278     		ldrb	r2, [r2]
 713 0012 D2B2     		uxtb	r2, r2
 714 0014 1343     		orrs	r3, r2
 715 0016 FB60     		str	r3, [r7, #12]
ARM GAS  C:\Users\User\AppData\Local\Temp\ccMCuqWG.s 			page 20


 363:Generated_Source\PSoC4/BLE_HAL_PVT.c ****     ldo = ((uint32)CYBLE_SFLASH_BLESS_LDO_HIGH_REG << 8u) | CYBLE_SFLASH_BLESS_LDO_LOW_REG;
 716              		.loc 1 363 0
 717 0018 464B     		ldr	r3, .L40+8
 718 001a 1B78     		ldrb	r3, [r3]
 719 001c DBB2     		uxtb	r3, r3
 720 001e 1B02     		lsls	r3, r3, #8
 721 0020 454A     		ldr	r2, .L40+12
 722 0022 1278     		ldrb	r2, [r2]
 723 0024 D2B2     		uxtb	r2, r2
 724 0026 1343     		orrs	r3, r2
 725 0028 BB60     		str	r3, [r7, #8]
 364:Generated_Source\PSoC4/BLE_HAL_PVT.c **** 
 365:Generated_Source\PSoC4/BLE_HAL_PVT.c ****     if ((ldo == CYBLE_SFLASH_BLERD_LDO_REG_VAL1) && (trimRegValue == CYBLE_SFLASH_BLERD_BB_BUMP2_RE
 726              		.loc 1 365 0
 727 002a BB68     		ldr	r3, [r7, #8]
 728 002c 434A     		ldr	r2, .L40+16
 729 002e 9342     		cmp	r3, r2
 730 0030 07D1     		bne	.L32
 731              		.loc 1 365 0 is_stmt 0 discriminator 1
 732 0032 FB68     		ldr	r3, [r7, #12]
 733 0034 072B     		cmp	r3, #7
 734 0036 04D1     		bne	.L32
 366:Generated_Source\PSoC4/BLE_HAL_PVT.c ****     {
 367:Generated_Source\PSoC4/BLE_HAL_PVT.c ****         ldo = CYBLE_BLERD_LDO_REG_VAL_FINAL;
 735              		.loc 1 367 0 is_stmt 1
 736 0038 414B     		ldr	r3, .L40+20
 737 003a BB60     		str	r3, [r7, #8]
 368:Generated_Source\PSoC4/BLE_HAL_PVT.c ****         trimRegValue = CYBLE_BLERD_BB_BUMP2_REG_VAL_FINAL;
 738              		.loc 1 368 0
 739 003c 0423     		movs	r3, #4
 740 003e FB60     		str	r3, [r7, #12]
 741 0040 09E0     		b	.L33
 742              	.L32:
 369:Generated_Source\PSoC4/BLE_HAL_PVT.c ****     }
 370:Generated_Source\PSoC4/BLE_HAL_PVT.c ****     else if ((ldo == CYBLE_SFLASH_BLERD_LDO_REG_VAL2) && (trimRegValue == CYBLE_BLERD_BB_BUMP2_REG_
 743              		.loc 1 370 0
 744 0042 BA68     		ldr	r2, [r7, #8]
 745 0044 D423     		movs	r3, #212
 746 0046 1B01     		lsls	r3, r3, #4
 747 0048 9A42     		cmp	r2, r3
 748 004a 04D1     		bne	.L33
 749              		.loc 1 370 0 is_stmt 0 discriminator 1
 750 004c FB68     		ldr	r3, [r7, #12]
 751 004e 042B     		cmp	r3, #4
 752 0050 01D1     		bne	.L33
 371:Generated_Source\PSoC4/BLE_HAL_PVT.c ****     {
 372:Generated_Source\PSoC4/BLE_HAL_PVT.c ****         ldo = CYBLE_BLERD_LDO_REG_VAL_FINAL;
 753              		.loc 1 372 0 is_stmt 1
 754 0052 3B4B     		ldr	r3, .L40+20
 755 0054 BB60     		str	r3, [r7, #8]
 756              	.L33:
 373:Generated_Source\PSoC4/BLE_HAL_PVT.c ****     }
 374:Generated_Source\PSoC4/BLE_HAL_PVT.c ****     else
 375:Generated_Source\PSoC4/BLE_HAL_PVT.c ****     {
 376:Generated_Source\PSoC4/BLE_HAL_PVT.c ****     }
 377:Generated_Source\PSoC4/BLE_HAL_PVT.c **** 
 378:Generated_Source\PSoC4/BLE_HAL_PVT.c ****     CYBLE_BLE_BLERD_LDO_REG = ldo;
ARM GAS  C:\Users\User\AppData\Local\Temp\ccMCuqWG.s 			page 21


 757              		.loc 1 378 0
 758 0056 3B4B     		ldr	r3, .L40+24
 759 0058 BA68     		ldr	r2, [r7, #8]
 760 005a 1A60     		str	r2, [r3]
 379:Generated_Source\PSoC4/BLE_HAL_PVT.c ****     CYBLE_BLE_BLERD_BB_BUMP2_REG = trimRegValue;
 761              		.loc 1 379 0
 762 005c 3A4B     		ldr	r3, .L40+28
 763 005e FA68     		ldr	r2, [r7, #12]
 764 0060 1A60     		str	r2, [r3]
 380:Generated_Source\PSoC4/BLE_HAL_PVT.c **** 
 381:Generated_Source\PSoC4/BLE_HAL_PVT.c ****     /* Edit only XTAL fast charge bit */
 382:Generated_Source\PSoC4/BLE_HAL_PVT.c ****     trimRegValue = ((uint32)CYBLE_SFLASH_BLESS_BB_XO_HIGH_REG << 8u) | CYBLE_SFLASH_BLESS_BB_XO_LOW
 765              		.loc 1 382 0
 766 0062 3A4B     		ldr	r3, .L40+32
 767 0064 1B78     		ldrb	r3, [r3]
 768 0066 DBB2     		uxtb	r3, r3
 769 0068 1B02     		lsls	r3, r3, #8
 770 006a 394A     		ldr	r2, .L40+36
 771 006c 1278     		ldrb	r2, [r2]
 772 006e D2B2     		uxtb	r2, r2
 773 0070 1343     		orrs	r3, r2
 774 0072 FB60     		str	r3, [r7, #12]
 383:Generated_Source\PSoC4/BLE_HAL_PVT.c **** 
 384:Generated_Source\PSoC4/BLE_HAL_PVT.c ****     if ((trimRegValue == CYBLE_SFLASH_BLERD_BB_XO_REG_VAL1) || (trimRegValue == CYBLE_SFLASH_BLERD_
 775              		.loc 1 384 0
 776 0074 FA68     		ldr	r2, [r7, #12]
 777 0076 8023     		movs	r3, #128
 778 0078 9B01     		lsls	r3, r3, #6
 779 007a 9A42     		cmp	r2, r3
 780 007c 02D0     		beq	.L34
 781              		.loc 1 384 0 is_stmt 0 discriminator 1
 782 007e FB68     		ldr	r3, [r7, #12]
 783 0080 002B     		cmp	r3, #0
 784 0082 01D1     		bne	.L35
 785              	.L34:
 385:Generated_Source\PSoC4/BLE_HAL_PVT.c ****     {
 386:Generated_Source\PSoC4/BLE_HAL_PVT.c ****         trimRegValue = CYBLE_BLERD_BB_XO_REG_VAL_FINAL;
 786              		.loc 1 386 0 is_stmt 1
 787 0084 334B     		ldr	r3, .L40+40
 788 0086 FB60     		str	r3, [r7, #12]
 789              	.L35:
 387:Generated_Source\PSoC4/BLE_HAL_PVT.c ****     }
 388:Generated_Source\PSoC4/BLE_HAL_PVT.c ****     
 389:Generated_Source\PSoC4/BLE_HAL_PVT.c ****     CYBLE_BLE_BLERD_BB_XO_REG = trimRegValue;
 790              		.loc 1 389 0
 791 0088 334B     		ldr	r3, .L40+44
 792 008a FA68     		ldr	r2, [r7, #12]
 793 008c 1A60     		str	r2, [r3]
 390:Generated_Source\PSoC4/BLE_HAL_PVT.c ****     
 391:Generated_Source\PSoC4/BLE_HAL_PVT.c ****     trimRegValue = ((uint32)CYBLE_SFLASH_BLESS_SY_BUMP1_HIGH_REG << 8u) | CYBLE_SFLASH_BLESS_SY_BUM
 794              		.loc 1 391 0
 795 008e 334B     		ldr	r3, .L40+48
 796 0090 1B78     		ldrb	r3, [r3]
 797 0092 DBB2     		uxtb	r3, r3
 798 0094 1B02     		lsls	r3, r3, #8
 799 0096 324A     		ldr	r2, .L40+52
 800 0098 1278     		ldrb	r2, [r2]
ARM GAS  C:\Users\User\AppData\Local\Temp\ccMCuqWG.s 			page 22


 801 009a D2B2     		uxtb	r2, r2
 802 009c 1343     		orrs	r3, r2
 803 009e FB60     		str	r3, [r7, #12]
 392:Generated_Source\PSoC4/BLE_HAL_PVT.c **** 
 393:Generated_Source\PSoC4/BLE_HAL_PVT.c ****     if ((trimRegValue == CYBLE_SFLASH_BLERD_SY_BUMP1_REG_VAL1) || 
 804              		.loc 1 393 0
 805 00a0 FB68     		ldr	r3, [r7, #12]
 806 00a2 304A     		ldr	r2, .L40+56
 807 00a4 9342     		cmp	r3, r2
 808 00a6 06D0     		beq	.L36
 809              		.loc 1 393 0 is_stmt 0 discriminator 1
 810 00a8 FB68     		ldr	r3, [r7, #12]
 811 00aa 2F4A     		ldr	r2, .L40+60
 812 00ac 9342     		cmp	r3, r2
 813 00ae 02D0     		beq	.L36
 394:Generated_Source\PSoC4/BLE_HAL_PVT.c ****         (trimRegValue == CYBLE_SFLASH_BLERD_SY_BUMP1_REG_VAL2) ||  
 814              		.loc 1 394 0 is_stmt 1
 815 00b0 FB68     		ldr	r3, [r7, #12]
 816 00b2 052B     		cmp	r3, #5
 817 00b4 01D1     		bne	.L37
 818              	.L36:
 395:Generated_Source\PSoC4/BLE_HAL_PVT.c ****         (trimRegValue == CYBLE_SFLASH_BLERD_SY_BUMP1_REG_VAL3))
 396:Generated_Source\PSoC4/BLE_HAL_PVT.c ****     {
 397:Generated_Source\PSoC4/BLE_HAL_PVT.c ****         trimRegValue = CYBLE_BLERD_SY_BUMP1_REG_VAL_FINAL;
 819              		.loc 1 397 0
 820 00b6 2D4B     		ldr	r3, .L40+64
 821 00b8 FB60     		str	r3, [r7, #12]
 822              	.L37:
 398:Generated_Source\PSoC4/BLE_HAL_PVT.c ****     }
 399:Generated_Source\PSoC4/BLE_HAL_PVT.c ****     CYBLE_BLE_BLERD_SY_BUMP1_REG = trimRegValue;
 823              		.loc 1 399 0
 824 00ba 2D4B     		ldr	r3, .L40+68
 825 00bc FA68     		ldr	r2, [r7, #12]
 826 00be 1A60     		str	r2, [r3]
 400:Generated_Source\PSoC4/BLE_HAL_PVT.c **** 
 401:Generated_Source\PSoC4/BLE_HAL_PVT.c ****     /* Following code is for F02FN trimming */
 402:Generated_Source\PSoC4/BLE_HAL_PVT.c ****     siliconRev = (CYBLE_BLE_SILICON_REV_REG >> 4u);
 827              		.loc 1 402 0
 828 00c0 2C4B     		ldr	r3, .L40+72
 829 00c2 1B68     		ldr	r3, [r3]
 830 00c4 1B09     		lsrs	r3, r3, #4
 831 00c6 7B60     		str	r3, [r7, #4]
 403:Generated_Source\PSoC4/BLE_HAL_PVT.c ****     
 404:Generated_Source\PSoC4/BLE_HAL_PVT.c ****     if((CYBLE_BLE_FAMILY_ID_REG == CYBLE_PSOC4A_BLE256DMA_FID) && (siliconRev >= 0x02u) &&
 832              		.loc 1 404 0
 833 00c8 2B4B     		ldr	r3, .L40+76
 834 00ca 1B68     		ldr	r3, [r3]
 835 00cc AA2B     		cmp	r3, #170
 836 00ce 29D1     		bne	.L39
 837              		.loc 1 404 0 is_stmt 0 discriminator 1
 838 00d0 7B68     		ldr	r3, [r7, #4]
 839 00d2 012B     		cmp	r3, #1
 840 00d4 26D9     		bls	.L39
 405:Generated_Source\PSoC4/BLE_HAL_PVT.c ****         (CYBLE_SFLASH_BLESS_SY_BUMP1_HIGH_REG == 0x0Eu))
 841              		.loc 1 405 0 is_stmt 1 discriminator 2
 842 00d6 214B     		ldr	r3, .L40+48
 843 00d8 1B78     		ldrb	r3, [r3]
ARM GAS  C:\Users\User\AppData\Local\Temp\ccMCuqWG.s 			page 23


 844 00da DBB2     		uxtb	r3, r3
 404:Generated_Source\PSoC4/BLE_HAL_PVT.c ****         (CYBLE_SFLASH_BLESS_SY_BUMP1_HIGH_REG == 0x0Eu))
 845              		.loc 1 404 0 discriminator 2
 846 00dc 0E2B     		cmp	r3, #14
 847 00de 21D1     		bne	.L39
 406:Generated_Source\PSoC4/BLE_HAL_PVT.c **** 	{
 407:Generated_Source\PSoC4/BLE_HAL_PVT.c **** 		trimRef34Val = ((uint16)(((uint16) CYBLE_BLE_BLESS_REG34_TRIM_HIGH_REG) << 8u)) |
 848              		.loc 1 407 0
 849 00e0 264B     		ldr	r3, .L40+80
 850 00e2 1B78     		ldrb	r3, [r3]
 851 00e4 DBB2     		uxtb	r3, r3
 852 00e6 9BB2     		uxth	r3, r3
 853 00e8 1B02     		lsls	r3, r3, #8
 854 00ea 99B2     		uxth	r1, r3
 408:Generated_Source\PSoC4/BLE_HAL_PVT.c ****                         ((uint16)CYBLE_BLE_BLESS_REG34_TRIM_LOW_REG);
 855              		.loc 1 408 0
 856 00ec 244B     		ldr	r3, .L40+84
 857 00ee 1B78     		ldrb	r3, [r3]
 858 00f0 DBB2     		uxtb	r3, r3
 407:Generated_Source\PSoC4/BLE_HAL_PVT.c ****                         ((uint16)CYBLE_BLE_BLESS_REG34_TRIM_LOW_REG);
 859              		.loc 1 407 0
 860 00f2 9AB2     		uxth	r2, r3
 861 00f4 BB1C     		adds	r3, r7, #2
 862 00f6 0A43     		orrs	r2, r1
 863 00f8 1A80     		strh	r2, [r3]
 409:Generated_Source\PSoC4/BLE_HAL_PVT.c **** 		CYBLE_BLERD_SY_BUMP2_REG = trimRef34Val;
 864              		.loc 1 409 0
 865 00fa 224B     		ldr	r3, .L40+88
 866 00fc BA1C     		adds	r2, r7, #2
 867 00fe 1288     		ldrh	r2, [r2]
 868 0100 1A60     		str	r2, [r3]
 410:Generated_Source\PSoC4/BLE_HAL_PVT.c **** 	
 411:Generated_Source\PSoC4/BLE_HAL_PVT.c **** 		trimRef38Val = ((uint16)(((uint16)CYBLE_BLE_BLESS_REG38_TRIM_HIGH_REG) << 8u)) |
 869              		.loc 1 411 0
 870 0102 214B     		ldr	r3, .L40+92
 871 0104 1B78     		ldrb	r3, [r3]
 872 0106 DBB2     		uxtb	r3, r3
 873 0108 9BB2     		uxth	r3, r3
 874 010a 1B02     		lsls	r3, r3, #8
 875 010c 99B2     		uxth	r1, r3
 412:Generated_Source\PSoC4/BLE_HAL_PVT.c ****             ((uint16) CYBLE_BLE_BLESS_REG38_TRIM_LOW_REG);
 876              		.loc 1 412 0
 877 010e 1F4B     		ldr	r3, .L40+96
 878 0110 1B78     		ldrb	r3, [r3]
 879 0112 DBB2     		uxtb	r3, r3
 411:Generated_Source\PSoC4/BLE_HAL_PVT.c ****             ((uint16) CYBLE_BLE_BLESS_REG38_TRIM_LOW_REG);
 880              		.loc 1 411 0
 881 0114 9AB2     		uxth	r2, r3
 882 0116 3B00     		movs	r3, r7
 883 0118 0A43     		orrs	r2, r1
 884 011a 1A80     		strh	r2, [r3]
 413:Generated_Source\PSoC4/BLE_HAL_PVT.c **** 		CYBLE_BLERD_RX_BUMP2_REG = trimRef38Val;
 885              		.loc 1 413 0
 886 011c 1C4B     		ldr	r3, .L40+100
 887 011e 3A00     		movs	r2, r7
 888 0120 1288     		ldrh	r2, [r2]
 889 0122 1A60     		str	r2, [r3]
ARM GAS  C:\Users\User\AppData\Local\Temp\ccMCuqWG.s 			page 24


 890              	.L39:
 414:Generated_Source\PSoC4/BLE_HAL_PVT.c **** 	}
 415:Generated_Source\PSoC4/BLE_HAL_PVT.c **** #endif /* (CYIPBLOCK_m0s8bless_VERSION < 3) */
 416:Generated_Source\PSoC4/BLE_HAL_PVT.c **** }
 891              		.loc 1 416 0
 892 0124 C046     		nop
 893 0126 BD46     		mov	sp, r7
 894 0128 04B0     		add	sp, sp, #16
 895              		@ sp needed
 896 012a 80BD     		pop	{r7, pc}
 897              	.L41:
 898              		.align	2
 899              	.L40:
 900 012c 59F1FF0F 		.word	268431705
 901 0130 58F1FF0F 		.word	268431704
 902 0134 5FF1FF0F 		.word	268431711
 903 0138 5EF1FF0F 		.word	268431710
 904 013c 580B0000 		.word	2904
 905 0140 580D0000 		.word	3416
 906 0144 6C002E40 		.word	1076756588
 907 0148 74002E40 		.word	1076756596
 908 014c 5BF1FF0F 		.word	268431707
 909 0150 5AF1FF0F 		.word	268431706
 910 0154 02200000 		.word	8194
 911 0158 78002E40 		.word	1076756600
 912 015c 5DF1FF0F 		.word	268431709
 913 0160 5CF1FF0F 		.word	268431708
 914 0164 0F0F0000 		.word	3855
 915 0168 05050000 		.word	1285
 916 016c 050F0000 		.word	3845
 917 0170 80002E40 		.word	1076756608
 918 0174 EC0F00F0 		.word	-268431380
 919 0178 E00F00F0 		.word	-268431392
 920 017c 6DF2FF0F 		.word	268431981
 921 0180 6CF2FF0F 		.word	268431980
 922 0184 84002E40 		.word	1076756612
 923 0188 6FF2FF0F 		.word	268431983
 924 018c 6EF2FF0F 		.word	268431982
 925 0190 94002E40 		.word	1076756628
 926              		.cfi_endproc
 927              	.LFE8:
 928              		.size	CyBLE_BlessDeviceConfig, .-CyBLE_BlessDeviceConfig
 929              		.section	.text.CyBleHal_DelayUs,"ax",%progbits
 930              		.align	2
 931              		.global	CyBleHal_DelayUs
 932              		.code	16
 933              		.thumb_func
 934              		.type	CyBleHal_DelayUs, %function
 935              	CyBleHal_DelayUs:
 936              	.LFB9:
 417:Generated_Source\PSoC4/BLE_HAL_PVT.c **** 
 418:Generated_Source\PSoC4/BLE_HAL_PVT.c **** 
 419:Generated_Source\PSoC4/BLE_HAL_PVT.c **** /* Interface to CyDelayUs function */
 420:Generated_Source\PSoC4/BLE_HAL_PVT.c **** void CyBleHal_DelayUs(uint16 delayVal)
 421:Generated_Source\PSoC4/BLE_HAL_PVT.c **** {
 937              		.loc 1 421 0
 938              		.cfi_startproc
ARM GAS  C:\Users\User\AppData\Local\Temp\ccMCuqWG.s 			page 25


 939              		@ args = 0, pretend = 0, frame = 8
 940              		@ frame_needed = 1, uses_anonymous_args = 0
 941 0000 80B5     		push	{r7, lr}
 942              		.cfi_def_cfa_offset 8
 943              		.cfi_offset 7, -8
 944              		.cfi_offset 14, -4
 945 0002 82B0     		sub	sp, sp, #8
 946              		.cfi_def_cfa_offset 16
 947 0004 00AF     		add	r7, sp, #0
 948              		.cfi_def_cfa_register 7
 949 0006 0200     		movs	r2, r0
 950 0008 BB1D     		adds	r3, r7, #6
 951 000a 1A80     		strh	r2, [r3]
 422:Generated_Source\PSoC4/BLE_HAL_PVT.c ****     CyDelayUs(delayVal);
 952              		.loc 1 422 0
 953 000c BB1D     		adds	r3, r7, #6
 954 000e 1B88     		ldrh	r3, [r3]
 955 0010 1800     		movs	r0, r3
 956 0012 FFF7FEFF 		bl	CyDelayUs
 423:Generated_Source\PSoC4/BLE_HAL_PVT.c **** }
 957              		.loc 1 423 0
 958 0016 C046     		nop
 959 0018 BD46     		mov	sp, r7
 960 001a 02B0     		add	sp, sp, #8
 961              		@ sp needed
 962 001c 80BD     		pop	{r7, pc}
 963              		.cfi_endproc
 964              	.LFE9:
 965              		.size	CyBleHal_DelayUs, .-CyBleHal_DelayUs
 966 001e C046     		.section	.text.CyBleHal_DelayMs,"ax",%progbits
 967              		.align	2
 968              		.global	CyBleHal_DelayMs
 969              		.code	16
 970              		.thumb_func
 971              		.type	CyBleHal_DelayMs, %function
 972              	CyBleHal_DelayMs:
 973              	.LFB10:
 424:Generated_Source\PSoC4/BLE_HAL_PVT.c **** 
 425:Generated_Source\PSoC4/BLE_HAL_PVT.c **** /* Interface to CyDelay function */
 426:Generated_Source\PSoC4/BLE_HAL_PVT.c **** void CyBleHal_DelayMs(uint32 delayVal)
 427:Generated_Source\PSoC4/BLE_HAL_PVT.c **** {
 974              		.loc 1 427 0
 975              		.cfi_startproc
 976              		@ args = 0, pretend = 0, frame = 8
 977              		@ frame_needed = 1, uses_anonymous_args = 0
 978 0000 80B5     		push	{r7, lr}
 979              		.cfi_def_cfa_offset 8
 980              		.cfi_offset 7, -8
 981              		.cfi_offset 14, -4
 982 0002 82B0     		sub	sp, sp, #8
 983              		.cfi_def_cfa_offset 16
 984 0004 00AF     		add	r7, sp, #0
 985              		.cfi_def_cfa_register 7
 986 0006 7860     		str	r0, [r7, #4]
 428:Generated_Source\PSoC4/BLE_HAL_PVT.c ****     CyDelay(delayVal);
 987              		.loc 1 428 0
 988 0008 7B68     		ldr	r3, [r7, #4]
ARM GAS  C:\Users\User\AppData\Local\Temp\ccMCuqWG.s 			page 26


 989 000a 1800     		movs	r0, r3
 990 000c FFF7FEFF 		bl	CyDelay
 429:Generated_Source\PSoC4/BLE_HAL_PVT.c **** }
 991              		.loc 1 429 0
 992 0010 C046     		nop
 993 0012 BD46     		mov	sp, r7
 994 0014 02B0     		add	sp, sp, #8
 995              		@ sp needed
 996 0016 80BD     		pop	{r7, pc}
 997              		.cfi_endproc
 998              	.LFE10:
 999              		.size	CyBleHal_DelayMs, .-CyBleHal_DelayMs
 1000              		.section	.text.CyBleHal_EnableGlobalInterrupts,"ax",%progbits
 1001              		.align	2
 1002              		.global	CyBleHal_EnableGlobalInterrupts
 1003              		.code	16
 1004              		.thumb_func
 1005              		.type	CyBleHal_EnableGlobalInterrupts, %function
 1006              	CyBleHal_EnableGlobalInterrupts:
 1007              	.LFB11:
 430:Generated_Source\PSoC4/BLE_HAL_PVT.c **** 
 431:Generated_Source\PSoC4/BLE_HAL_PVT.c **** /* Interface to BLE_bless_isr_Enable function */
 432:Generated_Source\PSoC4/BLE_HAL_PVT.c **** void CyBleHal_EnableGlobalInterrupts(void)
 433:Generated_Source\PSoC4/BLE_HAL_PVT.c **** {
 1008              		.loc 1 433 0
 1009              		.cfi_startproc
 1010              		@ args = 0, pretend = 0, frame = 0
 1011              		@ frame_needed = 1, uses_anonymous_args = 0
 1012 0000 80B5     		push	{r7, lr}
 1013              		.cfi_def_cfa_offset 8
 1014              		.cfi_offset 7, -8
 1015              		.cfi_offset 14, -4
 1016 0002 00AF     		add	r7, sp, #0
 1017              		.cfi_def_cfa_register 7
 434:Generated_Source\PSoC4/BLE_HAL_PVT.c ****     BLE_bless_isr_Enable();
 1018              		.loc 1 434 0
 1019 0004 FFF7FEFF 		bl	BLE_bless_isr_Enable
 435:Generated_Source\PSoC4/BLE_HAL_PVT.c **** }
 1020              		.loc 1 435 0
 1021 0008 C046     		nop
 1022 000a BD46     		mov	sp, r7
 1023              		@ sp needed
 1024 000c 80BD     		pop	{r7, pc}
 1025              		.cfi_endproc
 1026              	.LFE11:
 1027              		.size	CyBleHal_EnableGlobalInterrupts, .-CyBleHal_EnableGlobalInterrupts
 1028 000e C046     		.section	.text.CyBleHal_DisableGlobalInterrupts,"ax",%progbits
 1029              		.align	2
 1030              		.global	CyBleHal_DisableGlobalInterrupts
 1031              		.code	16
 1032              		.thumb_func
 1033              		.type	CyBleHal_DisableGlobalInterrupts, %function
 1034              	CyBleHal_DisableGlobalInterrupts:
 1035              	.LFB12:
 436:Generated_Source\PSoC4/BLE_HAL_PVT.c **** 
 437:Generated_Source\PSoC4/BLE_HAL_PVT.c **** /* Interface to BLE_bless_isr_Disable function */
 438:Generated_Source\PSoC4/BLE_HAL_PVT.c **** void CyBleHal_DisableGlobalInterrupts(void)
ARM GAS  C:\Users\User\AppData\Local\Temp\ccMCuqWG.s 			page 27


 439:Generated_Source\PSoC4/BLE_HAL_PVT.c **** {
 1036              		.loc 1 439 0
 1037              		.cfi_startproc
 1038              		@ args = 0, pretend = 0, frame = 0
 1039              		@ frame_needed = 1, uses_anonymous_args = 0
 1040 0000 80B5     		push	{r7, lr}
 1041              		.cfi_def_cfa_offset 8
 1042              		.cfi_offset 7, -8
 1043              		.cfi_offset 14, -4
 1044 0002 00AF     		add	r7, sp, #0
 1045              		.cfi_def_cfa_register 7
 440:Generated_Source\PSoC4/BLE_HAL_PVT.c ****     BLE_bless_isr_Disable();
 1046              		.loc 1 440 0
 1047 0004 FFF7FEFF 		bl	BLE_bless_isr_Disable
 441:Generated_Source\PSoC4/BLE_HAL_PVT.c **** }
 1048              		.loc 1 441 0
 1049 0008 C046     		nop
 1050 000a BD46     		mov	sp, r7
 1051              		@ sp needed
 1052 000c 80BD     		pop	{r7, pc}
 1053              		.cfi_endproc
 1054              	.LFE12:
 1055              		.size	CyBleHal_DisableGlobalInterrupts, .-CyBleHal_DisableGlobalInterrupts
 1056 000e C046     		.section	.text.CyBle_HalInit,"ax",%progbits
 1057              		.align	2
 1058              		.global	CyBle_HalInit
 1059              		.code	16
 1060              		.thumb_func
 1061              		.type	CyBle_HalInit, %function
 1062              	CyBle_HalInit:
 1063              	.LFB13:
 442:Generated_Source\PSoC4/BLE_HAL_PVT.c **** 
 443:Generated_Source\PSoC4/BLE_HAL_PVT.c **** /*******************************************************************************
 444:Generated_Source\PSoC4/BLE_HAL_PVT.c **** * Function Name: CyBle_HalInit
 445:Generated_Source\PSoC4/BLE_HAL_PVT.c **** ****************************************************************************//**
 446:Generated_Source\PSoC4/BLE_HAL_PVT.c **** *
 447:Generated_Source\PSoC4/BLE_HAL_PVT.c **** *  Initializes the BLESS interrupt.
 448:Generated_Source\PSoC4/BLE_HAL_PVT.c **** *
 449:Generated_Source\PSoC4/BLE_HAL_PVT.c **** * \return
 450:Generated_Source\PSoC4/BLE_HAL_PVT.c **** *  None
 451:Generated_Source\PSoC4/BLE_HAL_PVT.c **** *
 452:Generated_Source\PSoC4/BLE_HAL_PVT.c **** *******************************************************************************/
 453:Generated_Source\PSoC4/BLE_HAL_PVT.c **** void CyBle_HalInit(void)
 454:Generated_Source\PSoC4/BLE_HAL_PVT.c **** {
 1064              		.loc 1 454 0
 1065              		.cfi_startproc
 1066              		@ args = 0, pretend = 0, frame = 0
 1067              		@ frame_needed = 1, uses_anonymous_args = 0
 1068 0000 80B5     		push	{r7, lr}
 1069              		.cfi_def_cfa_offset 8
 1070              		.cfi_offset 7, -8
 1071              		.cfi_offset 14, -4
 1072 0002 00AF     		add	r7, sp, #0
 1073              		.cfi_def_cfa_register 7
 455:Generated_Source\PSoC4/BLE_HAL_PVT.c ****     /* For all we know the interrupt is active. */
 456:Generated_Source\PSoC4/BLE_HAL_PVT.c ****     BLE_bless_isr_Disable();
 1074              		.loc 1 456 0
ARM GAS  C:\Users\User\AppData\Local\Temp\ccMCuqWG.s 			page 28


 1075 0004 FFF7FEFF 		bl	BLE_bless_isr_Disable
 457:Generated_Source\PSoC4/BLE_HAL_PVT.c **** 
 458:Generated_Source\PSoC4/BLE_HAL_PVT.c ****     /* Set the ISR to point to the BLE_bless_isr Interrupt. */
 459:Generated_Source\PSoC4/BLE_HAL_PVT.c ****     BLE_bless_isr_SetVector(&CyBLE_Bless_Interrupt);
 1076              		.loc 1 459 0
 1077 0008 044B     		ldr	r3, .L47
 1078 000a 1800     		movs	r0, r3
 1079 000c FFF7FEFF 		bl	BLE_bless_isr_SetVector
 460:Generated_Source\PSoC4/BLE_HAL_PVT.c **** 
 461:Generated_Source\PSoC4/BLE_HAL_PVT.c ****     /* Set the priority. */
 462:Generated_Source\PSoC4/BLE_HAL_PVT.c ****     BLE_bless_isr_SetPriority((uint8)BLE_bless_isr_INTC_PRIOR_NUMBER);
 1080              		.loc 1 462 0
 1081 0010 0320     		movs	r0, #3
 1082 0012 FFF7FEFF 		bl	BLE_bless_isr_SetPriority
 463:Generated_Source\PSoC4/BLE_HAL_PVT.c **** }
 1083              		.loc 1 463 0
 1084 0016 C046     		nop
 1085 0018 BD46     		mov	sp, r7
 1086              		@ sp needed
 1087 001a 80BD     		pop	{r7, pc}
 1088              	.L48:
 1089              		.align	2
 1090              	.L47:
 1091 001c 00000000 		.word	CyBLE_Bless_Interrupt
 1092              		.cfi_endproc
 1093              	.LFE13:
 1094              		.size	CyBle_HalInit, .-CyBle_HalInit
 1095              		.section	.text.CYBLE_BlessStart,"ax",%progbits
 1096              		.align	2
 1097              		.global	CYBLE_BlessStart
 1098              		.code	16
 1099              		.thumb_func
 1100              		.type	CYBLE_BlessStart, %function
 1101              	CYBLE_BlessStart:
 1102              	.LFB14:
 464:Generated_Source\PSoC4/BLE_HAL_PVT.c **** 
 465:Generated_Source\PSoC4/BLE_HAL_PVT.c **** 
 466:Generated_Source\PSoC4/BLE_HAL_PVT.c **** /*******************************************************************************
 467:Generated_Source\PSoC4/BLE_HAL_PVT.c **** * Function Name: CYBLE_BlessStart
 468:Generated_Source\PSoC4/BLE_HAL_PVT.c **** ****************************************************************************//**
 469:Generated_Source\PSoC4/BLE_HAL_PVT.c **** *
 470:Generated_Source\PSoC4/BLE_HAL_PVT.c **** *  Starts Interrupt Controller.
 471:Generated_Source\PSoC4/BLE_HAL_PVT.c **** *
 472:Generated_Source\PSoC4/BLE_HAL_PVT.c **** * \return
 473:Generated_Source\PSoC4/BLE_HAL_PVT.c **** *  None
 474:Generated_Source\PSoC4/BLE_HAL_PVT.c **** *
 475:Generated_Source\PSoC4/BLE_HAL_PVT.c **** *******************************************************************************/
 476:Generated_Source\PSoC4/BLE_HAL_PVT.c **** void CYBLE_BlessStart(void)
 477:Generated_Source\PSoC4/BLE_HAL_PVT.c **** {
 1103              		.loc 1 477 0
 1104              		.cfi_startproc
 1105              		@ args = 0, pretend = 0, frame = 0
 1106              		@ frame_needed = 1, uses_anonymous_args = 0
 1107 0000 80B5     		push	{r7, lr}
 1108              		.cfi_def_cfa_offset 8
 1109              		.cfi_offset 7, -8
 1110              		.cfi_offset 14, -4
ARM GAS  C:\Users\User\AppData\Local\Temp\ccMCuqWG.s 			page 29


 1111 0002 00AF     		add	r7, sp, #0
 1112              		.cfi_def_cfa_register 7
 478:Generated_Source\PSoC4/BLE_HAL_PVT.c **** #if((CYBLE_M0S8BLESS_VERSION_3) && (CYBLE_EXT_PA_ENABLED))
 479:Generated_Source\PSoC4/BLE_HAL_PVT.c ****     CYBLE_EXT_PA_LNA_CTRL_REG |= CYBLE_EXT_PA_LNA_ENABLE | CYBLE_EXT_OUT_EN_DRIVE_VAL; 
 480:Generated_Source\PSoC4/BLE_HAL_PVT.c **** #endif  /* (CYBLE_M0S8BLESS_VERSION_3) */
 481:Generated_Source\PSoC4/BLE_HAL_PVT.c **** 
 482:Generated_Source\PSoC4/BLE_HAL_PVT.c ****     BLE_bless_isr_StartEx(&CyBLE_Bless_Interrupt);
 1113              		.loc 1 482 0
 1114 0004 034B     		ldr	r3, .L50
 1115 0006 1800     		movs	r0, r3
 1116 0008 FFF7FEFF 		bl	BLE_bless_isr_StartEx
 483:Generated_Source\PSoC4/BLE_HAL_PVT.c **** }
 1117              		.loc 1 483 0
 1118 000c C046     		nop
 1119 000e BD46     		mov	sp, r7
 1120              		@ sp needed
 1121 0010 80BD     		pop	{r7, pc}
 1122              	.L51:
 1123 0012 C046     		.align	2
 1124              	.L50:
 1125 0014 00000000 		.word	CyBLE_Bless_Interrupt
 1126              		.cfi_endproc
 1127              	.LFE14:
 1128              		.size	CYBLE_BlessStart, .-CYBLE_BlessStart
 1129              		.section	.text.CyBLE_GetIpBlockVersion,"ax",%progbits
 1130              		.align	2
 1131              		.global	CyBLE_GetIpBlockVersion
 1132              		.code	16
 1133              		.thumb_func
 1134              		.type	CyBLE_GetIpBlockVersion, %function
 1135              	CyBLE_GetIpBlockVersion:
 1136              	.LFB15:
 484:Generated_Source\PSoC4/BLE_HAL_PVT.c **** 
 485:Generated_Source\PSoC4/BLE_HAL_PVT.c **** 
 486:Generated_Source\PSoC4/BLE_HAL_PVT.c **** /*******************************************************************************
 487:Generated_Source\PSoC4/BLE_HAL_PVT.c **** * Function Name: CyBLE_GetIpBlockVersion
 488:Generated_Source\PSoC4/BLE_HAL_PVT.c **** ****************************************************************************//**
 489:Generated_Source\PSoC4/BLE_HAL_PVT.c **** *
 490:Generated_Source\PSoC4/BLE_HAL_PVT.c **** * This function returns the version of m0s8bless ip block.
 491:Generated_Source\PSoC4/BLE_HAL_PVT.c **** *
 492:Generated_Source\PSoC4/BLE_HAL_PVT.c **** * \return
 493:Generated_Source\PSoC4/BLE_HAL_PVT.c **** * uint32 bits:
 494:Generated_Source\PSoC4/BLE_HAL_PVT.c **** * 7:0 - ip version ( 1 - BLE_ver1, 2 - BLE_ver2, 3 - BLE_ver3 )
 495:Generated_Source\PSoC4/BLE_HAL_PVT.c **** * 15:8 - flash size ( 0 - 128k, 1 - 256k )
 496:Generated_Source\PSoC4/BLE_HAL_PVT.c **** * 16 - PSVP device
 497:Generated_Source\PSoC4/BLE_HAL_PVT.c **** * 31:17 - reserved for future usage
 498:Generated_Source\PSoC4/BLE_HAL_PVT.c **** *
 499:Generated_Source\PSoC4/BLE_HAL_PVT.c **** *******************************************************************************/
 500:Generated_Source\PSoC4/BLE_HAL_PVT.c **** uint32 CyBLE_GetIpBlockVersion(void)
 501:Generated_Source\PSoC4/BLE_HAL_PVT.c **** {
 1137              		.loc 1 501 0
 1138              		.cfi_startproc
 1139              		@ args = 0, pretend = 0, frame = 0
 1140              		@ frame_needed = 1, uses_anonymous_args = 0
 1141 0000 80B5     		push	{r7, lr}
 1142              		.cfi_def_cfa_offset 8
 1143              		.cfi_offset 7, -8
ARM GAS  C:\Users\User\AppData\Local\Temp\ccMCuqWG.s 			page 30


 1144              		.cfi_offset 14, -4
 1145 0002 00AF     		add	r7, sp, #0
 1146              		.cfi_def_cfa_register 7
 502:Generated_Source\PSoC4/BLE_HAL_PVT.c ****     return(((uint32)CYBLE_M0S8BLESS_VERSION) | ((uint32)((uint32)CYBLE_FLASH_SIZE) << 8u) |
 1147              		.loc 1 502 0
 1148 0004 014B     		ldr	r3, .L54
 503:Generated_Source\PSoC4/BLE_HAL_PVT.c ****         ((uint32)(((uint32)CYBLE_PSVP_DEVICE)) << 16u));
 504:Generated_Source\PSoC4/BLE_HAL_PVT.c **** }
 1149              		.loc 1 504 0
 1150 0006 1800     		movs	r0, r3
 1151 0008 BD46     		mov	sp, r7
 1152              		@ sp needed
 1153 000a 80BD     		pop	{r7, pc}
 1154              	.L55:
 1155              		.align	2
 1156              	.L54:
 1157 000c 02020000 		.word	514
 1158              		.cfi_endproc
 1159              	.LFE15:
 1160              		.size	CyBLE_GetIpBlockVersion, .-CyBLE_GetIpBlockVersion
 1161              		.section	.text.CyBle_Hal_pairing_local_public_key_handler,"ax",%progbits
 1162              		.align	2
 1163              		.global	CyBle_Hal_pairing_local_public_key_handler
 1164              		.code	16
 1165              		.thumb_func
 1166              		.type	CyBle_Hal_pairing_local_public_key_handler, %function
 1167              	CyBle_Hal_pairing_local_public_key_handler:
 1168              	.LFB16:
 505:Generated_Source\PSoC4/BLE_HAL_PVT.c **** 
 506:Generated_Source\PSoC4/BLE_HAL_PVT.c **** /* Mapping functions for stack size optimization */
 507:Generated_Source\PSoC4/BLE_HAL_PVT.c **** #if(CYBLE_MODE_PROFILE)
 508:Generated_Source\PSoC4/BLE_HAL_PVT.c ****     
 509:Generated_Source\PSoC4/BLE_HAL_PVT.c **** #if(CYBLE_SECURE_CONN_FEATURE_ENABLED)
 510:Generated_Source\PSoC4/BLE_HAL_PVT.c ****     
 511:Generated_Source\PSoC4/BLE_HAL_PVT.c ****     CYBLE_API_RESULT_T CyBle_Hal_pairing_local_public_key_handler(void *param)
 512:Generated_Source\PSoC4/BLE_HAL_PVT.c ****     {
 513:Generated_Source\PSoC4/BLE_HAL_PVT.c ****         return (CyBle_Hal_mapping_pairing_local_public_key_handler(param));
 514:Generated_Source\PSoC4/BLE_HAL_PVT.c ****     }
 515:Generated_Source\PSoC4/BLE_HAL_PVT.c ****      
 516:Generated_Source\PSoC4/BLE_HAL_PVT.c ****     CYBLE_API_RESULT_T CyBle_Hal_pairing_remote_key_handler(void *param)
 517:Generated_Source\PSoC4/BLE_HAL_PVT.c ****     {
 518:Generated_Source\PSoC4/BLE_HAL_PVT.c ****         return (CyBle_Hal_mapping_pairing_remote_key_handler(param));
 519:Generated_Source\PSoC4/BLE_HAL_PVT.c ****     }
 520:Generated_Source\PSoC4/BLE_HAL_PVT.c ****      
 521:Generated_Source\PSoC4/BLE_HAL_PVT.c ****     CYBLE_API_RESULT_T CyBle_Hal_pairing_dhkey_handler(void *param)
 522:Generated_Source\PSoC4/BLE_HAL_PVT.c ****     {
 523:Generated_Source\PSoC4/BLE_HAL_PVT.c ****         return (CyBle_Hal_mapping_pairing_dhkey_handler(param));
 524:Generated_Source\PSoC4/BLE_HAL_PVT.c ****     }
 525:Generated_Source\PSoC4/BLE_HAL_PVT.c **** 
 526:Generated_Source\PSoC4/BLE_HAL_PVT.c ****     CYBLE_API_RESULT_T CyBle_Hal_pairing_dhkey_check_handler(void *param)
 527:Generated_Source\PSoC4/BLE_HAL_PVT.c ****     {
 528:Generated_Source\PSoC4/BLE_HAL_PVT.c ****         return (CyBle_Hal_mapping_pairing_dhkey_check_handler(param));
 529:Generated_Source\PSoC4/BLE_HAL_PVT.c ****     }
 530:Generated_Source\PSoC4/BLE_HAL_PVT.c **** 
 531:Generated_Source\PSoC4/BLE_HAL_PVT.c ****     CYBLE_API_RESULT_T CyBle_Hal_pairing_keypress_notification_handler(void *param)
 532:Generated_Source\PSoC4/BLE_HAL_PVT.c ****     {
 533:Generated_Source\PSoC4/BLE_HAL_PVT.c ****         return (CyBle_Hal_mapping_pairing_keypress_notification_handler(param));
ARM GAS  C:\Users\User\AppData\Local\Temp\ccMCuqWG.s 			page 31


 534:Generated_Source\PSoC4/BLE_HAL_PVT.c ****     }
 535:Generated_Source\PSoC4/BLE_HAL_PVT.c **** 
 536:Generated_Source\PSoC4/BLE_HAL_PVT.c ****     CYBLE_API_RESULT_T CyBle_Hal_pairing_rand_handler(void *param)
 537:Generated_Source\PSoC4/BLE_HAL_PVT.c ****     {
 538:Generated_Source\PSoC4/BLE_HAL_PVT.c ****         return (CyBle_Hal_mapping_pairing_rand_handler(param));
 539:Generated_Source\PSoC4/BLE_HAL_PVT.c ****     }
 540:Generated_Source\PSoC4/BLE_HAL_PVT.c **** 
 541:Generated_Source\PSoC4/BLE_HAL_PVT.c ****     CYBLE_API_RESULT_T CyBle_Hal_pairing_confirm_handler(void *param)
 542:Generated_Source\PSoC4/BLE_HAL_PVT.c ****     {
 543:Generated_Source\PSoC4/BLE_HAL_PVT.c ****         return (CyBle_Hal_mapping_pairing_confirm_handler(param));
 544:Generated_Source\PSoC4/BLE_HAL_PVT.c ****     }
 545:Generated_Source\PSoC4/BLE_HAL_PVT.c **** 
 546:Generated_Source\PSoC4/BLE_HAL_PVT.c ****     CYBLE_API_RESULT_T CyBle_Hal_pairing_lr_confirming_handler(void *param)
 547:Generated_Source\PSoC4/BLE_HAL_PVT.c ****     {
 548:Generated_Source\PSoC4/BLE_HAL_PVT.c ****         return (CyBle_Hal_mapping_pairing_lr_confirming_handler(param));
 549:Generated_Source\PSoC4/BLE_HAL_PVT.c ****     }
 550:Generated_Source\PSoC4/BLE_HAL_PVT.c ****     
 551:Generated_Source\PSoC4/BLE_HAL_PVT.c ****     CYBLE_API_RESULT_T CyBle_Hal_pairing_sc_tbx_dhkey_generate_complete(void* param)
 552:Generated_Source\PSoC4/BLE_HAL_PVT.c ****     {
 553:Generated_Source\PSoC4/BLE_HAL_PVT.c ****         CyBle_Hal_mapping_tbx_dhkey_generate_complete(param);
 554:Generated_Source\PSoC4/BLE_HAL_PVT.c ****         return (CYBLE_ERROR_OK);
 555:Generated_Source\PSoC4/BLE_HAL_PVT.c ****     }
 556:Generated_Source\PSoC4/BLE_HAL_PVT.c **** 
 557:Generated_Source\PSoC4/BLE_HAL_PVT.c ****     CYBLE_API_RESULT_T CyBle_Hal_pairing_sc_tbx_local_pubkey_generate_complete(void)
 558:Generated_Source\PSoC4/BLE_HAL_PVT.c ****     {
 559:Generated_Source\PSoC4/BLE_HAL_PVT.c ****         CyBle_Hal_mapping_tbx_local_pubkey_generate_complete();
 560:Generated_Source\PSoC4/BLE_HAL_PVT.c ****         return (CYBLE_ERROR_OK);
 561:Generated_Source\PSoC4/BLE_HAL_PVT.c ****     }
 562:Generated_Source\PSoC4/BLE_HAL_PVT.c **** 
 563:Generated_Source\PSoC4/BLE_HAL_PVT.c ****     CYBLE_API_RESULT_T CyBle_Hal_pairing_sc_generate_local_P256_public_key(uint8 param)
 564:Generated_Source\PSoC4/BLE_HAL_PVT.c ****     {
 565:Generated_Source\PSoC4/BLE_HAL_PVT.c ****         return (CyBle_Hal_mapping_generate_local_P256_public_key(param));
 566:Generated_Source\PSoC4/BLE_HAL_PVT.c ****     }
 567:Generated_Source\PSoC4/BLE_HAL_PVT.c **** 
 568:Generated_Source\PSoC4/BLE_HAL_PVT.c ****     CYBLE_API_RESULT_T CyBle_Hal_pairing_sc_generate_DHkey(void  * param1, void  * param2)
 569:Generated_Source\PSoC4/BLE_HAL_PVT.c ****     {
 570:Generated_Source\PSoC4/BLE_HAL_PVT.c ****         return (CyBle_Hal_mapping_generate_DHkey(param1, param2));
 571:Generated_Source\PSoC4/BLE_HAL_PVT.c ****     }
 572:Generated_Source\PSoC4/BLE_HAL_PVT.c **** 
 573:Generated_Source\PSoC4/BLE_HAL_PVT.c ****     void CyBle_Hal_smp_sc_cmac_complete(void)
 574:Generated_Source\PSoC4/BLE_HAL_PVT.c ****     {
 575:Generated_Source\PSoC4/BLE_HAL_PVT.c ****        CyBle_Hal_Mapping_smp_sc_cmac_complete();
 576:Generated_Source\PSoC4/BLE_HAL_PVT.c ****     }
 577:Generated_Source\PSoC4/BLE_HAL_PVT.c **** 
 578:Generated_Source\PSoC4/BLE_HAL_PVT.c ****     CYBLE_API_RESULT_T CyBle_Hal_se_smp_sc_user_passkey_handler(void *param1, void *param2)
 579:Generated_Source\PSoC4/BLE_HAL_PVT.c ****     {
 580:Generated_Source\PSoC4/BLE_HAL_PVT.c ****         return (CyBle_Hal_mapping_se_smp_sc_user_passkey_handler(param1, param2));
 581:Generated_Source\PSoC4/BLE_HAL_PVT.c ****     }
 582:Generated_Source\PSoC4/BLE_HAL_PVT.c **** 
 583:Generated_Source\PSoC4/BLE_HAL_PVT.c ****     void CyBle_Hal_EccPointMult(void)
 584:Generated_Source\PSoC4/BLE_HAL_PVT.c ****     {
 585:Generated_Source\PSoC4/BLE_HAL_PVT.c ****         CyBle_Hal_Mapping_EccPointMult();
 586:Generated_Source\PSoC4/BLE_HAL_PVT.c ****     }
 587:Generated_Source\PSoC4/BLE_HAL_PVT.c ****     
 588:Generated_Source\PSoC4/BLE_HAL_PVT.c ****     CYBLE_API_RESULT_T CyBle_Hal_pairing_sc_validate_p256_pub_key_pair (void *param1)
 589:Generated_Source\PSoC4/BLE_HAL_PVT.c ****     {
 590:Generated_Source\PSoC4/BLE_HAL_PVT.c ****         return (CyBle_Hal_mapping_validate_p256_pub_key_pair(param1));
ARM GAS  C:\Users\User\AppData\Local\Temp\ccMCuqWG.s 			page 32


 591:Generated_Source\PSoC4/BLE_HAL_PVT.c ****     }
 592:Generated_Source\PSoC4/BLE_HAL_PVT.c ****     
 593:Generated_Source\PSoC4/BLE_HAL_PVT.c ****     
 594:Generated_Source\PSoC4/BLE_HAL_PVT.c **** #else     /* If feature is not required, return error. */
 595:Generated_Source\PSoC4/BLE_HAL_PVT.c ****     
 596:Generated_Source\PSoC4/BLE_HAL_PVT.c ****     CYBLE_API_RESULT_T CyBle_Hal_pairing_local_public_key_handler(void *param CYBLE_UNUSED_ATTR)
 597:Generated_Source\PSoC4/BLE_HAL_PVT.c ****     {
 1169              		.loc 1 597 0
 1170              		.cfi_startproc
 1171              		@ args = 0, pretend = 0, frame = 8
 1172              		@ frame_needed = 1, uses_anonymous_args = 0
 1173 0000 80B5     		push	{r7, lr}
 1174              		.cfi_def_cfa_offset 8
 1175              		.cfi_offset 7, -8
 1176              		.cfi_offset 14, -4
 1177 0002 82B0     		sub	sp, sp, #8
 1178              		.cfi_def_cfa_offset 16
 1179 0004 00AF     		add	r7, sp, #0
 1180              		.cfi_def_cfa_register 7
 1181 0006 7860     		str	r0, [r7, #4]
 598:Generated_Source\PSoC4/BLE_HAL_PVT.c ****         return (CYBLE_ERROR_UNSUPPORTED_FEATURE_OR_PARAMETER_VALUE);
 1182              		.loc 1 598 0
 1183 0008 2B23     		movs	r3, #43
 599:Generated_Source\PSoC4/BLE_HAL_PVT.c ****     }
 1184              		.loc 1 599 0
 1185 000a 1800     		movs	r0, r3
 1186 000c BD46     		mov	sp, r7
 1187 000e 02B0     		add	sp, sp, #8
 1188              		@ sp needed
 1189 0010 80BD     		pop	{r7, pc}
 1190              		.cfi_endproc
 1191              	.LFE16:
 1192              		.size	CyBle_Hal_pairing_local_public_key_handler, .-CyBle_Hal_pairing_local_public_key_handler
 1193 0012 C046     		.section	.text.CyBle_Hal_pairing_remote_key_handler,"ax",%progbits
 1194              		.align	2
 1195              		.global	CyBle_Hal_pairing_remote_key_handler
 1196              		.code	16
 1197              		.thumb_func
 1198              		.type	CyBle_Hal_pairing_remote_key_handler, %function
 1199              	CyBle_Hal_pairing_remote_key_handler:
 1200              	.LFB17:
 600:Generated_Source\PSoC4/BLE_HAL_PVT.c ****      
 601:Generated_Source\PSoC4/BLE_HAL_PVT.c ****     CYBLE_API_RESULT_T CyBle_Hal_pairing_remote_key_handler(void *param CYBLE_UNUSED_ATTR)
 602:Generated_Source\PSoC4/BLE_HAL_PVT.c ****     {
 1201              		.loc 1 602 0
 1202              		.cfi_startproc
 1203              		@ args = 0, pretend = 0, frame = 8
 1204              		@ frame_needed = 1, uses_anonymous_args = 0
 1205 0000 80B5     		push	{r7, lr}
 1206              		.cfi_def_cfa_offset 8
 1207              		.cfi_offset 7, -8
 1208              		.cfi_offset 14, -4
 1209 0002 82B0     		sub	sp, sp, #8
 1210              		.cfi_def_cfa_offset 16
 1211 0004 00AF     		add	r7, sp, #0
 1212              		.cfi_def_cfa_register 7
 1213 0006 7860     		str	r0, [r7, #4]
ARM GAS  C:\Users\User\AppData\Local\Temp\ccMCuqWG.s 			page 33


 603:Generated_Source\PSoC4/BLE_HAL_PVT.c ****         return (CYBLE_ERROR_UNSUPPORTED_FEATURE_OR_PARAMETER_VALUE);
 1214              		.loc 1 603 0
 1215 0008 2B23     		movs	r3, #43
 604:Generated_Source\PSoC4/BLE_HAL_PVT.c ****     }
 1216              		.loc 1 604 0
 1217 000a 1800     		movs	r0, r3
 1218 000c BD46     		mov	sp, r7
 1219 000e 02B0     		add	sp, sp, #8
 1220              		@ sp needed
 1221 0010 80BD     		pop	{r7, pc}
 1222              		.cfi_endproc
 1223              	.LFE17:
 1224              		.size	CyBle_Hal_pairing_remote_key_handler, .-CyBle_Hal_pairing_remote_key_handler
 1225 0012 C046     		.section	.text.CyBle_Hal_pairing_dhkey_handler,"ax",%progbits
 1226              		.align	2
 1227              		.global	CyBle_Hal_pairing_dhkey_handler
 1228              		.code	16
 1229              		.thumb_func
 1230              		.type	CyBle_Hal_pairing_dhkey_handler, %function
 1231              	CyBle_Hal_pairing_dhkey_handler:
 1232              	.LFB18:
 605:Generated_Source\PSoC4/BLE_HAL_PVT.c ****      
 606:Generated_Source\PSoC4/BLE_HAL_PVT.c ****     CYBLE_API_RESULT_T CyBle_Hal_pairing_dhkey_handler(void *param CYBLE_UNUSED_ATTR)
 607:Generated_Source\PSoC4/BLE_HAL_PVT.c ****     {
 1233              		.loc 1 607 0
 1234              		.cfi_startproc
 1235              		@ args = 0, pretend = 0, frame = 8
 1236              		@ frame_needed = 1, uses_anonymous_args = 0
 1237 0000 80B5     		push	{r7, lr}
 1238              		.cfi_def_cfa_offset 8
 1239              		.cfi_offset 7, -8
 1240              		.cfi_offset 14, -4
 1241 0002 82B0     		sub	sp, sp, #8
 1242              		.cfi_def_cfa_offset 16
 1243 0004 00AF     		add	r7, sp, #0
 1244              		.cfi_def_cfa_register 7
 1245 0006 7860     		str	r0, [r7, #4]
 608:Generated_Source\PSoC4/BLE_HAL_PVT.c ****         return (CYBLE_ERROR_UNSUPPORTED_FEATURE_OR_PARAMETER_VALUE);
 1246              		.loc 1 608 0
 1247 0008 2B23     		movs	r3, #43
 609:Generated_Source\PSoC4/BLE_HAL_PVT.c ****     }
 1248              		.loc 1 609 0
 1249 000a 1800     		movs	r0, r3
 1250 000c BD46     		mov	sp, r7
 1251 000e 02B0     		add	sp, sp, #8
 1252              		@ sp needed
 1253 0010 80BD     		pop	{r7, pc}
 1254              		.cfi_endproc
 1255              	.LFE18:
 1256              		.size	CyBle_Hal_pairing_dhkey_handler, .-CyBle_Hal_pairing_dhkey_handler
 1257 0012 C046     		.section	.text.CyBle_Hal_pairing_dhkey_check_handler,"ax",%progbits
 1258              		.align	2
 1259              		.global	CyBle_Hal_pairing_dhkey_check_handler
 1260              		.code	16
 1261              		.thumb_func
 1262              		.type	CyBle_Hal_pairing_dhkey_check_handler, %function
 1263              	CyBle_Hal_pairing_dhkey_check_handler:
ARM GAS  C:\Users\User\AppData\Local\Temp\ccMCuqWG.s 			page 34


 1264              	.LFB19:
 610:Generated_Source\PSoC4/BLE_HAL_PVT.c **** 
 611:Generated_Source\PSoC4/BLE_HAL_PVT.c ****     CYBLE_API_RESULT_T CyBle_Hal_pairing_dhkey_check_handler(void *param CYBLE_UNUSED_ATTR)
 612:Generated_Source\PSoC4/BLE_HAL_PVT.c ****     {
 1265              		.loc 1 612 0
 1266              		.cfi_startproc
 1267              		@ args = 0, pretend = 0, frame = 8
 1268              		@ frame_needed = 1, uses_anonymous_args = 0
 1269 0000 80B5     		push	{r7, lr}
 1270              		.cfi_def_cfa_offset 8
 1271              		.cfi_offset 7, -8
 1272              		.cfi_offset 14, -4
 1273 0002 82B0     		sub	sp, sp, #8
 1274              		.cfi_def_cfa_offset 16
 1275 0004 00AF     		add	r7, sp, #0
 1276              		.cfi_def_cfa_register 7
 1277 0006 7860     		str	r0, [r7, #4]
 613:Generated_Source\PSoC4/BLE_HAL_PVT.c ****         return (CYBLE_ERROR_UNSUPPORTED_FEATURE_OR_PARAMETER_VALUE);
 1278              		.loc 1 613 0
 1279 0008 2B23     		movs	r3, #43
 614:Generated_Source\PSoC4/BLE_HAL_PVT.c ****     }
 1280              		.loc 1 614 0
 1281 000a 1800     		movs	r0, r3
 1282 000c BD46     		mov	sp, r7
 1283 000e 02B0     		add	sp, sp, #8
 1284              		@ sp needed
 1285 0010 80BD     		pop	{r7, pc}
 1286              		.cfi_endproc
 1287              	.LFE19:
 1288              		.size	CyBle_Hal_pairing_dhkey_check_handler, .-CyBle_Hal_pairing_dhkey_check_handler
 1289 0012 C046     		.section	.text.CyBle_Hal_pairing_keypress_notification_handler,"ax",%progbits
 1290              		.align	2
 1291              		.global	CyBle_Hal_pairing_keypress_notification_handler
 1292              		.code	16
 1293              		.thumb_func
 1294              		.type	CyBle_Hal_pairing_keypress_notification_handler, %function
 1295              	CyBle_Hal_pairing_keypress_notification_handler:
 1296              	.LFB20:
 615:Generated_Source\PSoC4/BLE_HAL_PVT.c **** 
 616:Generated_Source\PSoC4/BLE_HAL_PVT.c ****     CYBLE_API_RESULT_T CyBle_Hal_pairing_keypress_notification_handler(void *param CYBLE_UNUSED_ATT
 617:Generated_Source\PSoC4/BLE_HAL_PVT.c ****     {
 1297              		.loc 1 617 0
 1298              		.cfi_startproc
 1299              		@ args = 0, pretend = 0, frame = 8
 1300              		@ frame_needed = 1, uses_anonymous_args = 0
 1301 0000 80B5     		push	{r7, lr}
 1302              		.cfi_def_cfa_offset 8
 1303              		.cfi_offset 7, -8
 1304              		.cfi_offset 14, -4
 1305 0002 82B0     		sub	sp, sp, #8
 1306              		.cfi_def_cfa_offset 16
 1307 0004 00AF     		add	r7, sp, #0
 1308              		.cfi_def_cfa_register 7
 1309 0006 7860     		str	r0, [r7, #4]
 618:Generated_Source\PSoC4/BLE_HAL_PVT.c ****         return (CYBLE_ERROR_UNSUPPORTED_FEATURE_OR_PARAMETER_VALUE);
 1310              		.loc 1 618 0
 1311 0008 2B23     		movs	r3, #43
ARM GAS  C:\Users\User\AppData\Local\Temp\ccMCuqWG.s 			page 35


 619:Generated_Source\PSoC4/BLE_HAL_PVT.c ****     }
 1312              		.loc 1 619 0
 1313 000a 1800     		movs	r0, r3
 1314 000c BD46     		mov	sp, r7
 1315 000e 02B0     		add	sp, sp, #8
 1316              		@ sp needed
 1317 0010 80BD     		pop	{r7, pc}
 1318              		.cfi_endproc
 1319              	.LFE20:
 1320              		.size	CyBle_Hal_pairing_keypress_notification_handler, .-CyBle_Hal_pairing_keypress_notification_h
 1321 0012 C046     		.section	.text.CyBle_Hal_pairing_rand_handler,"ax",%progbits
 1322              		.align	2
 1323              		.global	CyBle_Hal_pairing_rand_handler
 1324              		.code	16
 1325              		.thumb_func
 1326              		.type	CyBle_Hal_pairing_rand_handler, %function
 1327              	CyBle_Hal_pairing_rand_handler:
 1328              	.LFB21:
 620:Generated_Source\PSoC4/BLE_HAL_PVT.c **** 
 621:Generated_Source\PSoC4/BLE_HAL_PVT.c ****     CYBLE_API_RESULT_T CyBle_Hal_pairing_rand_handler(void *param CYBLE_UNUSED_ATTR)
 622:Generated_Source\PSoC4/BLE_HAL_PVT.c ****     {
 1329              		.loc 1 622 0
 1330              		.cfi_startproc
 1331              		@ args = 0, pretend = 0, frame = 8
 1332              		@ frame_needed = 1, uses_anonymous_args = 0
 1333 0000 80B5     		push	{r7, lr}
 1334              		.cfi_def_cfa_offset 8
 1335              		.cfi_offset 7, -8
 1336              		.cfi_offset 14, -4
 1337 0002 82B0     		sub	sp, sp, #8
 1338              		.cfi_def_cfa_offset 16
 1339 0004 00AF     		add	r7, sp, #0
 1340              		.cfi_def_cfa_register 7
 1341 0006 7860     		str	r0, [r7, #4]
 623:Generated_Source\PSoC4/BLE_HAL_PVT.c ****         return (CYBLE_ERROR_UNSUPPORTED_FEATURE_OR_PARAMETER_VALUE);
 1342              		.loc 1 623 0
 1343 0008 2B23     		movs	r3, #43
 624:Generated_Source\PSoC4/BLE_HAL_PVT.c ****     }
 1344              		.loc 1 624 0
 1345 000a 1800     		movs	r0, r3
 1346 000c BD46     		mov	sp, r7
 1347 000e 02B0     		add	sp, sp, #8
 1348              		@ sp needed
 1349 0010 80BD     		pop	{r7, pc}
 1350              		.cfi_endproc
 1351              	.LFE21:
 1352              		.size	CyBle_Hal_pairing_rand_handler, .-CyBle_Hal_pairing_rand_handler
 1353 0012 C046     		.section	.text.CyBle_Hal_pairing_confirm_handler,"ax",%progbits
 1354              		.align	2
 1355              		.global	CyBle_Hal_pairing_confirm_handler
 1356              		.code	16
 1357              		.thumb_func
 1358              		.type	CyBle_Hal_pairing_confirm_handler, %function
 1359              	CyBle_Hal_pairing_confirm_handler:
 1360              	.LFB22:
 625:Generated_Source\PSoC4/BLE_HAL_PVT.c ****     
 626:Generated_Source\PSoC4/BLE_HAL_PVT.c ****     CYBLE_API_RESULT_T CyBle_Hal_pairing_confirm_handler(void *param CYBLE_UNUSED_ATTR)
ARM GAS  C:\Users\User\AppData\Local\Temp\ccMCuqWG.s 			page 36


 627:Generated_Source\PSoC4/BLE_HAL_PVT.c ****     {
 1361              		.loc 1 627 0
 1362              		.cfi_startproc
 1363              		@ args = 0, pretend = 0, frame = 8
 1364              		@ frame_needed = 1, uses_anonymous_args = 0
 1365 0000 80B5     		push	{r7, lr}
 1366              		.cfi_def_cfa_offset 8
 1367              		.cfi_offset 7, -8
 1368              		.cfi_offset 14, -4
 1369 0002 82B0     		sub	sp, sp, #8
 1370              		.cfi_def_cfa_offset 16
 1371 0004 00AF     		add	r7, sp, #0
 1372              		.cfi_def_cfa_register 7
 1373 0006 7860     		str	r0, [r7, #4]
 628:Generated_Source\PSoC4/BLE_HAL_PVT.c ****         return (CYBLE_ERROR_UNSUPPORTED_FEATURE_OR_PARAMETER_VALUE);
 1374              		.loc 1 628 0
 1375 0008 2B23     		movs	r3, #43
 629:Generated_Source\PSoC4/BLE_HAL_PVT.c ****     }
 1376              		.loc 1 629 0
 1377 000a 1800     		movs	r0, r3
 1378 000c BD46     		mov	sp, r7
 1379 000e 02B0     		add	sp, sp, #8
 1380              		@ sp needed
 1381 0010 80BD     		pop	{r7, pc}
 1382              		.cfi_endproc
 1383              	.LFE22:
 1384              		.size	CyBle_Hal_pairing_confirm_handler, .-CyBle_Hal_pairing_confirm_handler
 1385 0012 C046     		.section	.text.CyBle_Hal_pairing_lr_confirming_handler,"ax",%progbits
 1386              		.align	2
 1387              		.global	CyBle_Hal_pairing_lr_confirming_handler
 1388              		.code	16
 1389              		.thumb_func
 1390              		.type	CyBle_Hal_pairing_lr_confirming_handler, %function
 1391              	CyBle_Hal_pairing_lr_confirming_handler:
 1392              	.LFB23:
 630:Generated_Source\PSoC4/BLE_HAL_PVT.c **** 
 631:Generated_Source\PSoC4/BLE_HAL_PVT.c ****     CYBLE_API_RESULT_T CyBle_Hal_pairing_lr_confirming_handler(void *param CYBLE_UNUSED_ATTR)
 632:Generated_Source\PSoC4/BLE_HAL_PVT.c ****     {
 1393              		.loc 1 632 0
 1394              		.cfi_startproc
 1395              		@ args = 0, pretend = 0, frame = 8
 1396              		@ frame_needed = 1, uses_anonymous_args = 0
 1397 0000 80B5     		push	{r7, lr}
 1398              		.cfi_def_cfa_offset 8
 1399              		.cfi_offset 7, -8
 1400              		.cfi_offset 14, -4
 1401 0002 82B0     		sub	sp, sp, #8
 1402              		.cfi_def_cfa_offset 16
 1403 0004 00AF     		add	r7, sp, #0
 1404              		.cfi_def_cfa_register 7
 1405 0006 7860     		str	r0, [r7, #4]
 633:Generated_Source\PSoC4/BLE_HAL_PVT.c ****         return (CYBLE_ERROR_UNSUPPORTED_FEATURE_OR_PARAMETER_VALUE);
 1406              		.loc 1 633 0
 1407 0008 2B23     		movs	r3, #43
 634:Generated_Source\PSoC4/BLE_HAL_PVT.c ****     }
 1408              		.loc 1 634 0
 1409 000a 1800     		movs	r0, r3
ARM GAS  C:\Users\User\AppData\Local\Temp\ccMCuqWG.s 			page 37


 1410 000c BD46     		mov	sp, r7
 1411 000e 02B0     		add	sp, sp, #8
 1412              		@ sp needed
 1413 0010 80BD     		pop	{r7, pc}
 1414              		.cfi_endproc
 1415              	.LFE23:
 1416              		.size	CyBle_Hal_pairing_lr_confirming_handler, .-CyBle_Hal_pairing_lr_confirming_handler
 1417 0012 C046     		.section	.text.CyBle_Hal_pairing_sc_tbx_dhkey_generate_complete,"ax",%progbits
 1418              		.align	2
 1419              		.global	CyBle_Hal_pairing_sc_tbx_dhkey_generate_complete
 1420              		.code	16
 1421              		.thumb_func
 1422              		.type	CyBle_Hal_pairing_sc_tbx_dhkey_generate_complete, %function
 1423              	CyBle_Hal_pairing_sc_tbx_dhkey_generate_complete:
 1424              	.LFB24:
 635:Generated_Source\PSoC4/BLE_HAL_PVT.c ****     
 636:Generated_Source\PSoC4/BLE_HAL_PVT.c ****     CYBLE_API_RESULT_T CyBle_Hal_pairing_sc_tbx_dhkey_generate_complete(void* param CYBLE_UNUSED_AT
 637:Generated_Source\PSoC4/BLE_HAL_PVT.c ****     {
 1425              		.loc 1 637 0
 1426              		.cfi_startproc
 1427              		@ args = 0, pretend = 0, frame = 8
 1428              		@ frame_needed = 1, uses_anonymous_args = 0
 1429 0000 80B5     		push	{r7, lr}
 1430              		.cfi_def_cfa_offset 8
 1431              		.cfi_offset 7, -8
 1432              		.cfi_offset 14, -4
 1433 0002 82B0     		sub	sp, sp, #8
 1434              		.cfi_def_cfa_offset 16
 1435 0004 00AF     		add	r7, sp, #0
 1436              		.cfi_def_cfa_register 7
 1437 0006 7860     		str	r0, [r7, #4]
 638:Generated_Source\PSoC4/BLE_HAL_PVT.c ****         return (CYBLE_ERROR_UNSUPPORTED_FEATURE_OR_PARAMETER_VALUE);
 1438              		.loc 1 638 0
 1439 0008 2B23     		movs	r3, #43
 639:Generated_Source\PSoC4/BLE_HAL_PVT.c ****     }
 1440              		.loc 1 639 0
 1441 000a 1800     		movs	r0, r3
 1442 000c BD46     		mov	sp, r7
 1443 000e 02B0     		add	sp, sp, #8
 1444              		@ sp needed
 1445 0010 80BD     		pop	{r7, pc}
 1446              		.cfi_endproc
 1447              	.LFE24:
 1448              		.size	CyBle_Hal_pairing_sc_tbx_dhkey_generate_complete, .-CyBle_Hal_pairing_sc_tbx_dhkey_generate_
 1449 0012 C046     		.section	.text.CyBle_Hal_pairing_sc_tbx_local_pubkey_generate_complete,"ax",%progbits
 1450              		.align	2
 1451              		.global	CyBle_Hal_pairing_sc_tbx_local_pubkey_generate_complete
 1452              		.code	16
 1453              		.thumb_func
 1454              		.type	CyBle_Hal_pairing_sc_tbx_local_pubkey_generate_complete, %function
 1455              	CyBle_Hal_pairing_sc_tbx_local_pubkey_generate_complete:
 1456              	.LFB25:
 640:Generated_Source\PSoC4/BLE_HAL_PVT.c **** 
 641:Generated_Source\PSoC4/BLE_HAL_PVT.c ****     CYBLE_API_RESULT_T CyBle_Hal_pairing_sc_tbx_local_pubkey_generate_complete(void)
 642:Generated_Source\PSoC4/BLE_HAL_PVT.c ****     {
 1457              		.loc 1 642 0
 1458              		.cfi_startproc
ARM GAS  C:\Users\User\AppData\Local\Temp\ccMCuqWG.s 			page 38


 1459              		@ args = 0, pretend = 0, frame = 0
 1460              		@ frame_needed = 1, uses_anonymous_args = 0
 1461 0000 80B5     		push	{r7, lr}
 1462              		.cfi_def_cfa_offset 8
 1463              		.cfi_offset 7, -8
 1464              		.cfi_offset 14, -4
 1465 0002 00AF     		add	r7, sp, #0
 1466              		.cfi_def_cfa_register 7
 643:Generated_Source\PSoC4/BLE_HAL_PVT.c ****         return (CYBLE_ERROR_UNSUPPORTED_FEATURE_OR_PARAMETER_VALUE);
 1467              		.loc 1 643 0
 1468 0004 2B23     		movs	r3, #43
 644:Generated_Source\PSoC4/BLE_HAL_PVT.c ****     }
 1469              		.loc 1 644 0
 1470 0006 1800     		movs	r0, r3
 1471 0008 BD46     		mov	sp, r7
 1472              		@ sp needed
 1473 000a 80BD     		pop	{r7, pc}
 1474              		.cfi_endproc
 1475              	.LFE25:
 1476              		.size	CyBle_Hal_pairing_sc_tbx_local_pubkey_generate_complete, .-CyBle_Hal_pairing_sc_tbx_local_pu
 1477              		.section	.text.CyBle_Hal_pairing_sc_generate_local_P256_public_key,"ax",%progbits
 1478              		.align	2
 1479              		.global	CyBle_Hal_pairing_sc_generate_local_P256_public_key
 1480              		.code	16
 1481              		.thumb_func
 1482              		.type	CyBle_Hal_pairing_sc_generate_local_P256_public_key, %function
 1483              	CyBle_Hal_pairing_sc_generate_local_P256_public_key:
 1484              	.LFB26:
 645:Generated_Source\PSoC4/BLE_HAL_PVT.c **** 
 646:Generated_Source\PSoC4/BLE_HAL_PVT.c ****     CYBLE_API_RESULT_T CyBle_Hal_pairing_sc_generate_local_P256_public_key(uint8 param CYBLE_UNUSED
 647:Generated_Source\PSoC4/BLE_HAL_PVT.c ****     {
 1485              		.loc 1 647 0
 1486              		.cfi_startproc
 1487              		@ args = 0, pretend = 0, frame = 8
 1488              		@ frame_needed = 1, uses_anonymous_args = 0
 1489 0000 80B5     		push	{r7, lr}
 1490              		.cfi_def_cfa_offset 8
 1491              		.cfi_offset 7, -8
 1492              		.cfi_offset 14, -4
 1493 0002 82B0     		sub	sp, sp, #8
 1494              		.cfi_def_cfa_offset 16
 1495 0004 00AF     		add	r7, sp, #0
 1496              		.cfi_def_cfa_register 7
 1497 0006 0200     		movs	r2, r0
 1498 0008 FB1D     		adds	r3, r7, #7
 1499 000a 1A70     		strb	r2, [r3]
 648:Generated_Source\PSoC4/BLE_HAL_PVT.c ****         return (CYBLE_ERROR_UNSUPPORTED_FEATURE_OR_PARAMETER_VALUE);
 1500              		.loc 1 648 0
 1501 000c 2B23     		movs	r3, #43
 649:Generated_Source\PSoC4/BLE_HAL_PVT.c ****     }
 1502              		.loc 1 649 0
 1503 000e 1800     		movs	r0, r3
 1504 0010 BD46     		mov	sp, r7
 1505 0012 02B0     		add	sp, sp, #8
 1506              		@ sp needed
 1507 0014 80BD     		pop	{r7, pc}
 1508              		.cfi_endproc
ARM GAS  C:\Users\User\AppData\Local\Temp\ccMCuqWG.s 			page 39


 1509              	.LFE26:
 1510              		.size	CyBle_Hal_pairing_sc_generate_local_P256_public_key, .-CyBle_Hal_pairing_sc_generate_local_P
 1511 0016 C046     		.section	.text.CyBle_Hal_pairing_sc_generate_DHkey,"ax",%progbits
 1512              		.align	2
 1513              		.global	CyBle_Hal_pairing_sc_generate_DHkey
 1514              		.code	16
 1515              		.thumb_func
 1516              		.type	CyBle_Hal_pairing_sc_generate_DHkey, %function
 1517              	CyBle_Hal_pairing_sc_generate_DHkey:
 1518              	.LFB27:
 650:Generated_Source\PSoC4/BLE_HAL_PVT.c **** 
 651:Generated_Source\PSoC4/BLE_HAL_PVT.c ****     CYBLE_API_RESULT_T CyBle_Hal_pairing_sc_generate_DHkey(void  * param1 CYBLE_UNUSED_ATTR,
 652:Generated_Source\PSoC4/BLE_HAL_PVT.c ****                                                                void  * param2 CYBLE_UNUSED_ATTR)
 653:Generated_Source\PSoC4/BLE_HAL_PVT.c ****     {
 1519              		.loc 1 653 0
 1520              		.cfi_startproc
 1521              		@ args = 0, pretend = 0, frame = 8
 1522              		@ frame_needed = 1, uses_anonymous_args = 0
 1523 0000 80B5     		push	{r7, lr}
 1524              		.cfi_def_cfa_offset 8
 1525              		.cfi_offset 7, -8
 1526              		.cfi_offset 14, -4
 1527 0002 82B0     		sub	sp, sp, #8
 1528              		.cfi_def_cfa_offset 16
 1529 0004 00AF     		add	r7, sp, #0
 1530              		.cfi_def_cfa_register 7
 1531 0006 7860     		str	r0, [r7, #4]
 1532 0008 3960     		str	r1, [r7]
 654:Generated_Source\PSoC4/BLE_HAL_PVT.c ****         return (CYBLE_ERROR_UNSUPPORTED_FEATURE_OR_PARAMETER_VALUE);
 1533              		.loc 1 654 0
 1534 000a 2B23     		movs	r3, #43
 655:Generated_Source\PSoC4/BLE_HAL_PVT.c ****     }
 1535              		.loc 1 655 0
 1536 000c 1800     		movs	r0, r3
 1537 000e BD46     		mov	sp, r7
 1538 0010 02B0     		add	sp, sp, #8
 1539              		@ sp needed
 1540 0012 80BD     		pop	{r7, pc}
 1541              		.cfi_endproc
 1542              	.LFE27:
 1543              		.size	CyBle_Hal_pairing_sc_generate_DHkey, .-CyBle_Hal_pairing_sc_generate_DHkey
 1544              		.section	.text.CyBle_Hal_smp_sc_cmac_complete,"ax",%progbits
 1545              		.align	2
 1546              		.global	CyBle_Hal_smp_sc_cmac_complete
 1547              		.code	16
 1548              		.thumb_func
 1549              		.type	CyBle_Hal_smp_sc_cmac_complete, %function
 1550              	CyBle_Hal_smp_sc_cmac_complete:
 1551              	.LFB28:
 656:Generated_Source\PSoC4/BLE_HAL_PVT.c **** 
 657:Generated_Source\PSoC4/BLE_HAL_PVT.c ****     void CyBle_Hal_smp_sc_cmac_complete(void)
 658:Generated_Source\PSoC4/BLE_HAL_PVT.c ****     {
 1552              		.loc 1 658 0
 1553              		.cfi_startproc
 1554              		@ args = 0, pretend = 0, frame = 0
 1555              		@ frame_needed = 1, uses_anonymous_args = 0
 1556 0000 80B5     		push	{r7, lr}
ARM GAS  C:\Users\User\AppData\Local\Temp\ccMCuqWG.s 			page 40


 1557              		.cfi_def_cfa_offset 8
 1558              		.cfi_offset 7, -8
 1559              		.cfi_offset 14, -4
 1560 0002 00AF     		add	r7, sp, #0
 1561              		.cfi_def_cfa_register 7
 659:Generated_Source\PSoC4/BLE_HAL_PVT.c ****     }
 1562              		.loc 1 659 0
 1563 0004 C046     		nop
 1564 0006 BD46     		mov	sp, r7
 1565              		@ sp needed
 1566 0008 80BD     		pop	{r7, pc}
 1567              		.cfi_endproc
 1568              	.LFE28:
 1569              		.size	CyBle_Hal_smp_sc_cmac_complete, .-CyBle_Hal_smp_sc_cmac_complete
 1570              		.section	.text.CyBle_Hal_se_smp_sc_user_passkey_handler,"ax",%progbits
 1571              		.align	2
 1572              		.global	CyBle_Hal_se_smp_sc_user_passkey_handler
 1573              		.code	16
 1574              		.thumb_func
 1575              		.type	CyBle_Hal_se_smp_sc_user_passkey_handler, %function
 1576              	CyBle_Hal_se_smp_sc_user_passkey_handler:
 1577              	.LFB29:
 660:Generated_Source\PSoC4/BLE_HAL_PVT.c **** 
 661:Generated_Source\PSoC4/BLE_HAL_PVT.c ****     CYBLE_API_RESULT_T CyBle_Hal_se_smp_sc_user_passkey_handler(void  * param1 CYBLE_UNUSED_ATTR,
 662:Generated_Source\PSoC4/BLE_HAL_PVT.c ****                                                                 void  * param2 CYBLE_UNUSED_ATTR)
 663:Generated_Source\PSoC4/BLE_HAL_PVT.c ****     {
 1578              		.loc 1 663 0
 1579              		.cfi_startproc
 1580              		@ args = 0, pretend = 0, frame = 8
 1581              		@ frame_needed = 1, uses_anonymous_args = 0
 1582 0000 80B5     		push	{r7, lr}
 1583              		.cfi_def_cfa_offset 8
 1584              		.cfi_offset 7, -8
 1585              		.cfi_offset 14, -4
 1586 0002 82B0     		sub	sp, sp, #8
 1587              		.cfi_def_cfa_offset 16
 1588 0004 00AF     		add	r7, sp, #0
 1589              		.cfi_def_cfa_register 7
 1590 0006 7860     		str	r0, [r7, #4]
 1591 0008 3960     		str	r1, [r7]
 664:Generated_Source\PSoC4/BLE_HAL_PVT.c ****         return (CYBLE_ERROR_UNSUPPORTED_FEATURE_OR_PARAMETER_VALUE);
 1592              		.loc 1 664 0
 1593 000a 2B23     		movs	r3, #43
 665:Generated_Source\PSoC4/BLE_HAL_PVT.c ****     }
 1594              		.loc 1 665 0
 1595 000c 1800     		movs	r0, r3
 1596 000e BD46     		mov	sp, r7
 1597 0010 02B0     		add	sp, sp, #8
 1598              		@ sp needed
 1599 0012 80BD     		pop	{r7, pc}
 1600              		.cfi_endproc
 1601              	.LFE29:
 1602              		.size	CyBle_Hal_se_smp_sc_user_passkey_handler, .-CyBle_Hal_se_smp_sc_user_passkey_handler
 1603              		.section	.text.CyBle_Hal_EccPointMult,"ax",%progbits
 1604              		.align	2
 1605              		.global	CyBle_Hal_EccPointMult
 1606              		.code	16
ARM GAS  C:\Users\User\AppData\Local\Temp\ccMCuqWG.s 			page 41


 1607              		.thumb_func
 1608              		.type	CyBle_Hal_EccPointMult, %function
 1609              	CyBle_Hal_EccPointMult:
 1610              	.LFB30:
 666:Generated_Source\PSoC4/BLE_HAL_PVT.c **** 
 667:Generated_Source\PSoC4/BLE_HAL_PVT.c ****     void CyBle_Hal_EccPointMult(void)
 668:Generated_Source\PSoC4/BLE_HAL_PVT.c ****     {
 1611              		.loc 1 668 0
 1612              		.cfi_startproc
 1613              		@ args = 0, pretend = 0, frame = 0
 1614              		@ frame_needed = 1, uses_anonymous_args = 0
 1615 0000 80B5     		push	{r7, lr}
 1616              		.cfi_def_cfa_offset 8
 1617              		.cfi_offset 7, -8
 1618              		.cfi_offset 14, -4
 1619 0002 00AF     		add	r7, sp, #0
 1620              		.cfi_def_cfa_register 7
 669:Generated_Source\PSoC4/BLE_HAL_PVT.c ****     }
 1621              		.loc 1 669 0
 1622 0004 C046     		nop
 1623 0006 BD46     		mov	sp, r7
 1624              		@ sp needed
 1625 0008 80BD     		pop	{r7, pc}
 1626              		.cfi_endproc
 1627              	.LFE30:
 1628              		.size	CyBle_Hal_EccPointMult, .-CyBle_Hal_EccPointMult
 1629              		.section	.text.CyBle_Hal_pairing_sc_validate_p256_pub_key_pair,"ax",%progbits
 1630              		.align	2
 1631              		.global	CyBle_Hal_pairing_sc_validate_p256_pub_key_pair
 1632              		.code	16
 1633              		.thumb_func
 1634              		.type	CyBle_Hal_pairing_sc_validate_p256_pub_key_pair, %function
 1635              	CyBle_Hal_pairing_sc_validate_p256_pub_key_pair:
 1636              	.LFB31:
 670:Generated_Source\PSoC4/BLE_HAL_PVT.c ****     
 671:Generated_Source\PSoC4/BLE_HAL_PVT.c ****     CYBLE_API_RESULT_T CyBle_Hal_pairing_sc_validate_p256_pub_key_pair (void *param1 CYBLE_UNUSED_A
 672:Generated_Source\PSoC4/BLE_HAL_PVT.c ****     {
 1637              		.loc 1 672 0
 1638              		.cfi_startproc
 1639              		@ args = 0, pretend = 0, frame = 8
 1640              		@ frame_needed = 1, uses_anonymous_args = 0
 1641 0000 80B5     		push	{r7, lr}
 1642              		.cfi_def_cfa_offset 8
 1643              		.cfi_offset 7, -8
 1644              		.cfi_offset 14, -4
 1645 0002 82B0     		sub	sp, sp, #8
 1646              		.cfi_def_cfa_offset 16
 1647 0004 00AF     		add	r7, sp, #0
 1648              		.cfi_def_cfa_register 7
 1649 0006 7860     		str	r0, [r7, #4]
 673:Generated_Source\PSoC4/BLE_HAL_PVT.c ****         return (CYBLE_ERROR_UNSUPPORTED_FEATURE_OR_PARAMETER_VALUE);
 1650              		.loc 1 673 0
 1651 0008 2B23     		movs	r3, #43
 674:Generated_Source\PSoC4/BLE_HAL_PVT.c ****     }
 1652              		.loc 1 674 0
 1653 000a 1800     		movs	r0, r3
 1654 000c BD46     		mov	sp, r7
ARM GAS  C:\Users\User\AppData\Local\Temp\ccMCuqWG.s 			page 42


 1655 000e 02B0     		add	sp, sp, #8
 1656              		@ sp needed
 1657 0010 80BD     		pop	{r7, pc}
 1658              		.cfi_endproc
 1659              	.LFE31:
 1660              		.size	CyBle_Hal_pairing_sc_validate_p256_pub_key_pair, .-CyBle_Hal_pairing_sc_validate_p256_pub_ke
 1661 0012 C046     		.section	.text.BLE_CMP_FTR_API_lec_hci_handle_read_local_P256_public_key_command,"ax",%progbits
 1662              		.align	2
 1663              		.global	BLE_CMP_FTR_API_lec_hci_handle_read_local_P256_public_key_command
 1664              		.code	16
 1665              		.thumb_func
 1666              		.type	BLE_CMP_FTR_API_lec_hci_handle_read_local_P256_public_key_command, %function
 1667              	BLE_CMP_FTR_API_lec_hci_handle_read_local_P256_public_key_command:
 1668              	.LFB32:
 675:Generated_Source\PSoC4/BLE_HAL_PVT.c ****     
 676:Generated_Source\PSoC4/BLE_HAL_PVT.c **** #endif /* (CYBLE_SECURE_CONN_FEATURE_ENABLED) */
 677:Generated_Source\PSoC4/BLE_HAL_PVT.c **** 
 678:Generated_Source\PSoC4/BLE_HAL_PVT.c **** #endif /* CYBLE_MODE_PROFILE */
 679:Generated_Source\PSoC4/BLE_HAL_PVT.c **** 
 680:Generated_Source\PSoC4/BLE_HAL_PVT.c **** #if(CYBLE_SECURE_CONN_FEATURE_ENABLED)
 681:Generated_Source\PSoC4/BLE_HAL_PVT.c ****     
 682:Generated_Source\PSoC4/BLE_HAL_PVT.c ****     uint16 BLE_CMP_FTR_API_lec_hci_handle_read_local_P256_public_key_command(void *param)
 683:Generated_Source\PSoC4/BLE_HAL_PVT.c ****     {
 684:Generated_Source\PSoC4/BLE_HAL_PVT.c ****         return (BLE_STK_FTR_API_lec_hci_handle_read_local_P256_public_key_command(param));
 685:Generated_Source\PSoC4/BLE_HAL_PVT.c ****     }
 686:Generated_Source\PSoC4/BLE_HAL_PVT.c ****     
 687:Generated_Source\PSoC4/BLE_HAL_PVT.c ****     uint16 BLE_CMP_FTR_API_lec_hci_handle_generate_DHkey_command(void *param)
 688:Generated_Source\PSoC4/BLE_HAL_PVT.c ****     {
 689:Generated_Source\PSoC4/BLE_HAL_PVT.c ****         return (BLE_STK_FTR_API_lec_hci_handle_generate_DHkey_command(param));
 690:Generated_Source\PSoC4/BLE_HAL_PVT.c ****     }
 691:Generated_Source\PSoC4/BLE_HAL_PVT.c **** 
 692:Generated_Source\PSoC4/BLE_HAL_PVT.c **** #else     /* If feature is not required, return error. */
 693:Generated_Source\PSoC4/BLE_HAL_PVT.c ****     
 694:Generated_Source\PSoC4/BLE_HAL_PVT.c ****     uint16 BLE_CMP_FTR_API_lec_hci_handle_read_local_P256_public_key_command(void *param CYBLE_UNUS
 695:Generated_Source\PSoC4/BLE_HAL_PVT.c ****     {
 1669              		.loc 1 695 0
 1670              		.cfi_startproc
 1671              		@ args = 0, pretend = 0, frame = 8
 1672              		@ frame_needed = 1, uses_anonymous_args = 0
 1673 0000 80B5     		push	{r7, lr}
 1674              		.cfi_def_cfa_offset 8
 1675              		.cfi_offset 7, -8
 1676              		.cfi_offset 14, -4
 1677 0002 82B0     		sub	sp, sp, #8
 1678              		.cfi_def_cfa_offset 16
 1679 0004 00AF     		add	r7, sp, #0
 1680              		.cfi_def_cfa_register 7
 1681 0006 7860     		str	r0, [r7, #4]
 696:Generated_Source\PSoC4/BLE_HAL_PVT.c ****         return (CYBLE_UNKNOWN_HCI_COMMAND_ERROR);
 1682              		.loc 1 696 0
 1683 0008 0123     		movs	r3, #1
 697:Generated_Source\PSoC4/BLE_HAL_PVT.c ****     }
 1684              		.loc 1 697 0
 1685 000a 1800     		movs	r0, r3
 1686 000c BD46     		mov	sp, r7
 1687 000e 02B0     		add	sp, sp, #8
 1688              		@ sp needed
ARM GAS  C:\Users\User\AppData\Local\Temp\ccMCuqWG.s 			page 43


 1689 0010 80BD     		pop	{r7, pc}
 1690              		.cfi_endproc
 1691              	.LFE32:
 1692              		.size	BLE_CMP_FTR_API_lec_hci_handle_read_local_P256_public_key_command, .-BLE_CMP_FTR_API_lec_hci
 1693 0012 C046     		.section	.text.BLE_CMP_FTR_API_lec_hci_handle_generate_DHkey_command,"ax",%progbits
 1694              		.align	2
 1695              		.global	BLE_CMP_FTR_API_lec_hci_handle_generate_DHkey_command
 1696              		.code	16
 1697              		.thumb_func
 1698              		.type	BLE_CMP_FTR_API_lec_hci_handle_generate_DHkey_command, %function
 1699              	BLE_CMP_FTR_API_lec_hci_handle_generate_DHkey_command:
 1700              	.LFB33:
 698:Generated_Source\PSoC4/BLE_HAL_PVT.c ****     
 699:Generated_Source\PSoC4/BLE_HAL_PVT.c ****     uint16 BLE_CMP_FTR_API_lec_hci_handle_generate_DHkey_command(void *param CYBLE_UNUSED_ATTR)
 700:Generated_Source\PSoC4/BLE_HAL_PVT.c ****     {
 1701              		.loc 1 700 0
 1702              		.cfi_startproc
 1703              		@ args = 0, pretend = 0, frame = 8
 1704              		@ frame_needed = 1, uses_anonymous_args = 0
 1705 0000 80B5     		push	{r7, lr}
 1706              		.cfi_def_cfa_offset 8
 1707              		.cfi_offset 7, -8
 1708              		.cfi_offset 14, -4
 1709 0002 82B0     		sub	sp, sp, #8
 1710              		.cfi_def_cfa_offset 16
 1711 0004 00AF     		add	r7, sp, #0
 1712              		.cfi_def_cfa_register 7
 1713 0006 7860     		str	r0, [r7, #4]
 701:Generated_Source\PSoC4/BLE_HAL_PVT.c ****         return (CYBLE_UNKNOWN_HCI_COMMAND_ERROR);
 1714              		.loc 1 701 0
 1715 0008 0123     		movs	r3, #1
 702:Generated_Source\PSoC4/BLE_HAL_PVT.c ****     }
 1716              		.loc 1 702 0
 1717 000a 1800     		movs	r0, r3
 1718 000c BD46     		mov	sp, r7
 1719 000e 02B0     		add	sp, sp, #8
 1720              		@ sp needed
 1721 0010 80BD     		pop	{r7, pc}
 1722              		.cfi_endproc
 1723              	.LFE33:
 1724              		.size	BLE_CMP_FTR_API_lec_hci_handle_generate_DHkey_command, .-BLE_CMP_FTR_API_lec_hci_handle_gene
 1725 0012 C046     		.text
 1726              	.Letext0:
 1727              		.file 2 "Generated_Source\\PSoC4\\cytypes.h"
 1728              		.file 3 "Generated_Source\\PSoC4\\BLE_Stack.h"