ARM GAS  C:\Users\User\AppData\Local\Temp\cc96DgHN.s 			page 1


   1              		.syntax unified
   2              		.cpu cortex-m0
   3              		.fpu softvfp
   4              		.eabi_attribute 20, 1
   5              		.eabi_attribute 21, 1
   6              		.eabi_attribute 23, 3
   7              		.eabi_attribute 24, 1
   8              		.eabi_attribute 25, 1
   9              		.eabi_attribute 26, 1
  10              		.eabi_attribute 30, 6
  11              		.eabi_attribute 34, 0
  12              		.eabi_attribute 18, 4
  13              		.thumb
  14              		.syntax unified
  15              		.file	"ble_process.c"
  16              		.text
  17              	.Ltext0:
  18              		.cfi_sections	.debug_frame
  19              		.comm	OneWire_Sensor,32,4
  20              		.comm	OneWire_DataReady,1,1
  21              		.data
  22              		.type	flag_Timer, %object
  23              		.size	flag_Timer, 1
  24              	flag_Timer:
  25 0000 01       		.byte	1
  26              		.comm	current_watchdog_counter,2,2
  27              		.comm	TemperatureStorage,16,4
  28              		.global	deviceIndex
  29              		.section	.rodata
  30              		.align	2
  31              		.type	deviceIndex, %object
  32              		.size	deviceIndex, 4
  33              	deviceIndex:
  34 0000 00000000 		.space	4
  35              		.global	dataADVCounter
  36              		.data
  37              		.type	dataADVCounter, %object
  38              		.size	dataADVCounter, 1
  39              	dataADVCounter:
  40 0001 01       		.byte	1
  41              		.global	switch_Role
  42              		.bss
  43              		.type	switch_Role, %object
  44              		.size	switch_Role, 1
  45              	switch_Role:
  46 0000 00       		.space	1
  47              		.global	scan_tag
  48              		.data
  49 0002 0000     		.align	2
  50              		.type	scan_tag, %object
  51              		.size	scan_tag, 20
  52              	scan_tag:
  53 0004 13       		.byte	19
  54 0005 21       		.byte	33
  55 0006 31       		.byte	49
  56 0007 01       		.byte	1
  57 0008 9B       		.byte	-101
ARM GAS  C:\Users\User\AppData\Local\Temp\cc96DgHN.s 			page 2


  58 0009 5F       		.byte	95
  59 000a 80       		.byte	-128
  60 000b 00       		.byte	0
  61 000c 00       		.byte	0
  62 000d 80       		.byte	-128
  63 000e 00       		.byte	0
  64 000f 10       		.byte	16
  65 0010 00       		.byte	0
  66 0011 00       		.byte	0
  67 0012 BB       		.byte	-69
  68 0013 CB       		.byte	-53
  69 0014 03       		.byte	3
  70 0015 00       		.byte	0
  71 0016 BB       		.byte	-69
  72 0017 CB       		.byte	-53
  73              		.comm	peripAddr,7,4
  74              		.global	clientConnectToDevice
  75              		.bss
  76              		.type	clientConnectToDevice, %object
  77              		.size	clientConnectToDevice, 1
  78              	clientConnectToDevice:
  79 0001 00       		.space	1
  80              		.global	ble_gap_state
  81              		.data
  82              		.type	ble_gap_state, %object
  83              		.size	ble_gap_state, 1
  84              	ble_gap_state:
  85 0018 01       		.byte	1
  86              		.global	deviceConnected
  87              		.bss
  88              		.type	deviceConnected, %object
  89              		.size	deviceConnected, 1
  90              	deviceConnected:
  91 0002 00       		.space	1
  92              		.global	restartScanning
  93              		.type	restartScanning, %object
  94              		.size	restartScanning, 1
  95              	restartScanning:
  96 0003 00       		.space	1
  97              		.global	centralStartedTime
  98              		.align	1
  99              		.type	centralStartedTime, %object
 100              		.size	centralStartedTime, 2
 101              	centralStartedTime:
 102 0004 0000     		.space	2
 103              		.section	.rodata
 104              		.align	2
 105              	.LC0:
 106 0004 2A2A2A20 		.ascii	"*** Peripheral Advertisement START/STOP\000"
 106      50657269 
 106      70686572 
 106      616C2041 
 106      64766572 
 107              		.align	2
 108              	.LC4:
 109 002c 2A2A2A20 		.ascii	"*** Restart Advertisement\000"
 109      52657374 
ARM GAS  C:\Users\User\AppData\Local\Temp\cc96DgHN.s 			page 3


 109      61727420 
 109      41647665 
 109      72746973 
 110 0046 0000     		.align	2
 111              	.LC6:
 112 0048 2A2A2A20 		.ascii	"*** Central device is SCANNING\000"
 112      43656E74 
 112      72616C20 
 112      64657669 
 112      63652069 
 113 0067 00       		.align	2
 114              	.LC8:
 115 0068 2A2A2A20 		.ascii	"*** Device is CONNECTED\000"
 115      44657669 
 115      63652069 
 115      7320434F 
 115      4E4E4543 
 116              		.align	2
 117              	.LC10:
 118 0080 2A2A2A20 		.ascii	"*** Device is DISCONNECTED\000"
 118      44657669 
 118      63652069 
 118      73204449 
 118      53434F4E 
 119 009b 00       		.align	2
 120              	.LC12:
 121 009c 2A2A2A20 		.ascii	"*** WRITING TEMPERATURE...\000"
 121      57524954 
 121      494E4720 
 121      54454D50 
 121      45524154 
 122 00b7 00       		.align	2
 123              	.LC18:
 124 00b8 2A2A2A20 		.ascii	"*** Switch Role to CENTRAL\000"
 124      53776974 
 124      63682052 
 124      6F6C6520 
 124      746F2043 
 125              		.global	__aeabi_f2uiz
 126 00d3 00       		.align	2
 127              	.LC21:
 128 00d4 2A2A2A20 		.ascii	"*** Progress result of SCAN\000"
 128      50726F67 
 128      72657373 
 128      20726573 
 128      756C7420 
 129              		.align	2
 130              	.LC23:
 131 00f0 2A2A2A20 		.ascii	"*** Device is FOUND. Stop SCANNING\000"
 131      44657669 
 131      63652069 
 131      7320464F 
 131      554E442E 
 132              		.global	__aeabi_f2d
 133              		.global	__aeabi_dsub
 134              		.global	__aeabi_d2f
 135 0113 00       		.align	2
ARM GAS  C:\Users\User\AppData\Local\Temp\cc96DgHN.s 			page 4


 136              	.LC29:
 137 0114 2A2A2A20 		.ascii	"*** Data is WRITTEN\000"
 137      44617461 
 137      20697320 
 137      57524954 
 137      54454E00 
 138              		.section	.text.GenericEventHandler,"ax",%progbits
 139              		.align	2
 140              		.global	GenericEventHandler
 141              		.code	16
 142              		.thumb_func
 143              		.type	GenericEventHandler, %function
 144              	GenericEventHandler:
 145              	.LFB36:
 146              		.file 1 "..\\..\\..\\PSoC-4-BLE-master\\100_Projects_in_100_Days\\Day049_BLE_Mesh_Flood\\Mesh_Floo
   1:..\..\..\PSoC-4-BLE-master\100_Projects_in_100_Days\Day049_BLE_Mesh_Flood\Mesh_Flood\Mesh_Flood_PSoC4BLE.cydsn/ble_process.c **** /*******************************************************************************
   2:..\..\..\PSoC-4-BLE-master\100_Projects_in_100_Days\Day049_BLE_Mesh_Flood\Mesh_Flood\Mesh_Flood_PSoC4BLE.cydsn/ble_process.c **** * File Name: ble_process.c
   3:..\..\..\PSoC-4-BLE-master\100_Projects_in_100_Days\Day049_BLE_Mesh_Flood\Mesh_Flood\Mesh_Flood_PSoC4BLE.cydsn/ble_process.c **** *
   4:..\..\..\PSoC-4-BLE-master\100_Projects_in_100_Days\Day049_BLE_Mesh_Flood\Mesh_Flood\Mesh_Flood_PSoC4BLE.cydsn/ble_process.c **** * Version: 1.0
   5:..\..\..\PSoC-4-BLE-master\100_Projects_in_100_Days\Day049_BLE_Mesh_Flood\Mesh_Flood\Mesh_Flood_PSoC4BLE.cydsn/ble_process.c **** *
   6:..\..\..\PSoC-4-BLE-master\100_Projects_in_100_Days\Day049_BLE_Mesh_Flood\Mesh_Flood\Mesh_Flood_PSoC4BLE.cydsn/ble_process.c **** * Description:
   7:..\..\..\PSoC-4-BLE-master\100_Projects_in_100_Days\Day049_BLE_Mesh_Flood\Mesh_Flood\Mesh_Flood_PSoC4BLE.cydsn/ble_process.c **** * This file contains the definiton for BLE related functions, such as event handler,
   8:..\..\..\PSoC-4-BLE-master\100_Projects_in_100_Days\Day049_BLE_Mesh_Flood\Mesh_Flood\Mesh_Flood_PSoC4BLE.cydsn/ble_process.c **** * GAP role switching, central scanning and connection to peripherals.
   9:..\..\..\PSoC-4-BLE-master\100_Projects_in_100_Days\Day049_BLE_Mesh_Flood\Mesh_Flood\Mesh_Flood_PSoC4BLE.cydsn/ble_process.c **** *
  10:..\..\..\PSoC-4-BLE-master\100_Projects_in_100_Days\Day049_BLE_Mesh_Flood\Mesh_Flood\Mesh_Flood_PSoC4BLE.cydsn/ble_process.c **** ********************************************************************************
  11:..\..\..\PSoC-4-BLE-master\100_Projects_in_100_Days\Day049_BLE_Mesh_Flood\Mesh_Flood\Mesh_Flood_PSoC4BLE.cydsn/ble_process.c **** * Copyright 2015, Cypress Semiconductor Corporation.  All rights reserved.
  12:..\..\..\PSoC-4-BLE-master\100_Projects_in_100_Days\Day049_BLE_Mesh_Flood\Mesh_Flood\Mesh_Flood_PSoC4BLE.cydsn/ble_process.c **** * You may use this file only in accordance with the license, terms, conditions,
  13:..\..\..\PSoC-4-BLE-master\100_Projects_in_100_Days\Day049_BLE_Mesh_Flood\Mesh_Flood\Mesh_Flood_PSoC4BLE.cydsn/ble_process.c **** * disclaimers, and limitations in the end user license agreement accompanying
  14:..\..\..\PSoC-4-BLE-master\100_Projects_in_100_Days\Day049_BLE_Mesh_Flood\Mesh_Flood\Mesh_Flood_PSoC4BLE.cydsn/ble_process.c **** * the software package with which this file was provided.
  15:..\..\..\PSoC-4-BLE-master\100_Projects_in_100_Days\Day049_BLE_Mesh_Flood\Mesh_Flood\Mesh_Flood_PSoC4BLE.cydsn/ble_process.c **** *******************************************************************************/
  16:..\..\..\PSoC-4-BLE-master\100_Projects_in_100_Days\Day049_BLE_Mesh_Flood\Mesh_Flood\Mesh_Flood_PSoC4BLE.cydsn/ble_process.c **** #include "main.h"
  17:..\..\..\PSoC-4-BLE-master\100_Projects_in_100_Days\Day049_BLE_Mesh_Flood\Mesh_Flood\Mesh_Flood_PSoC4BLE.cydsn/ble_process.c **** 
  18:..\..\..\PSoC-4-BLE-master\100_Projects_in_100_Days\Day049_BLE_Mesh_Flood\Mesh_Flood\Mesh_Flood_PSoC4BLE.cydsn/ble_process.c **** uint8 dataADVCounter = 1;
  19:..\..\..\PSoC-4-BLE-master\100_Projects_in_100_Days\Day049_BLE_Mesh_Flood\Mesh_Flood\Mesh_Flood_PSoC4BLE.cydsn/ble_process.c **** uint8 switch_Role = FALSE;
  20:..\..\..\PSoC-4-BLE-master\100_Projects_in_100_Days\Day049_BLE_Mesh_Flood\Mesh_Flood\Mesh_Flood_PSoC4BLE.cydsn/ble_process.c **** 
  21:..\..\..\PSoC-4-BLE-master\100_Projects_in_100_Days\Day049_BLE_Mesh_Flood\Mesh_Flood\Mesh_Flood_PSoC4BLE.cydsn/ble_process.c **** 
  22:..\..\..\PSoC-4-BLE-master\100_Projects_in_100_Days\Day049_BLE_Mesh_Flood\Mesh_Flood\Mesh_Flood_PSoC4BLE.cydsn/ble_process.c **** 
  23:..\..\..\PSoC-4-BLE-master\100_Projects_in_100_Days\Day049_BLE_Mesh_Flood\Mesh_Flood\Mesh_Flood_PSoC4BLE.cydsn/ble_process.c **** #ifdef ENABLE_ADV_DATA_COUNTER
  24:..\..\..\PSoC-4-BLE-master\100_Projects_in_100_Days\Day049_BLE_Mesh_Flood\Mesh_Flood\Mesh_Flood_PSoC4BLE.cydsn/ble_process.c **** CYBLE_GAPP_DISC_DATA_T  new_advData;
  25:..\..\..\PSoC-4-BLE-master\100_Projects_in_100_Days\Day049_BLE_Mesh_Flood\Mesh_Flood\Mesh_Flood_PSoC4BLE.cydsn/ble_process.c **** uint8 potential_node_found = 0;
  26:..\..\..\PSoC-4-BLE-master\100_Projects_in_100_Days\Day049_BLE_Mesh_Flood\Mesh_Flood\Mesh_Flood_PSoC4BLE.cydsn/ble_process.c **** uint8 potential_node_bdAddr[6];
  27:..\..\..\PSoC-4-BLE-master\100_Projects_in_100_Days\Day049_BLE_Mesh_Flood\Mesh_Flood\Mesh_Flood_PSoC4BLE.cydsn/ble_process.c **** uint8 potential_node_bdAddrType = 0;
  28:..\..\..\PSoC-4-BLE-master\100_Projects_in_100_Days\Day049_BLE_Mesh_Flood\Mesh_Flood\Mesh_Flood_PSoC4BLE.cydsn/ble_process.c **** #endif
  29:..\..\..\PSoC-4-BLE-master\100_Projects_in_100_Days\Day049_BLE_Mesh_Flood\Mesh_Flood\Mesh_Flood_PSoC4BLE.cydsn/ble_process.c **** 
  30:..\..\..\PSoC-4-BLE-master\100_Projects_in_100_Days\Day049_BLE_Mesh_Flood\Mesh_Flood\Mesh_Flood_PSoC4BLE.cydsn/ble_process.c **** uint8 scan_tag[SCAN_TAG_DATA_LEN] = {0x13, 0x21, 0x31, 0x01, 0x9B, 0x5F, 0x80, 0x00,
  31:..\..\..\PSoC-4-BLE-master\100_Projects_in_100_Days\Day049_BLE_Mesh_Flood\Mesh_Flood\Mesh_Flood_PSoC4BLE.cydsn/ble_process.c **** 									0x00, 0x80, 0x00, 0x10, 0x00, 0x00, 0xBB, 0xCB, 
  32:..\..\..\PSoC-4-BLE-master\100_Projects_in_100_Days\Day049_BLE_Mesh_Flood\Mesh_Flood\Mesh_Flood_PSoC4BLE.cydsn/ble_process.c **** 									0x03, 0x00, 0xBB, 0xCB};
  33:..\..\..\PSoC-4-BLE-master\100_Projects_in_100_Days\Day049_BLE_Mesh_Flood\Mesh_Flood\Mesh_Flood_PSoC4BLE.cydsn/ble_process.c **** 
  34:..\..\..\PSoC-4-BLE-master\100_Projects_in_100_Days\Day049_BLE_Mesh_Flood\Mesh_Flood\Mesh_Flood_PSoC4BLE.cydsn/ble_process.c **** CYBLE_GAP_BD_ADDR_T				peripAddr;
  35:..\..\..\PSoC-4-BLE-master\100_Projects_in_100_Days\Day049_BLE_Mesh_Flood\Mesh_Flood\Mesh_Flood_PSoC4BLE.cydsn/ble_process.c **** uint8 clientConnectToDevice = FALSE;
  36:..\..\..\PSoC-4-BLE-master\100_Projects_in_100_Days\Day049_BLE_Mesh_Flood\Mesh_Flood\Mesh_Flood_PSoC4BLE.cydsn/ble_process.c **** uint8 ble_gap_state = BLE_PERIPHERAL;
  37:..\..\..\PSoC-4-BLE-master\100_Projects_in_100_Days\Day049_BLE_Mesh_Flood\Mesh_Flood\Mesh_Flood_PSoC4BLE.cydsn/ble_process.c **** 
  38:..\..\..\PSoC-4-BLE-master\100_Projects_in_100_Days\Day049_BLE_Mesh_Flood\Mesh_Flood\Mesh_Flood_PSoC4BLE.cydsn/ble_process.c **** uint8 deviceConnected = FALSE;
  39:..\..\..\PSoC-4-BLE-master\100_Projects_in_100_Days\Day049_BLE_Mesh_Flood\Mesh_Flood\Mesh_Flood_PSoC4BLE.cydsn/ble_process.c **** uint8 restartScanning = FALSE;
  40:..\..\..\PSoC-4-BLE-master\100_Projects_in_100_Days\Day049_BLE_Mesh_Flood\Mesh_Flood\Mesh_Flood_PSoC4BLE.cydsn/ble_process.c **** volatile uint16 centralStartedTime = 0;
  41:..\..\..\PSoC-4-BLE-master\100_Projects_in_100_Days\Day049_BLE_Mesh_Flood\Mesh_Flood\Mesh_Flood_PSoC4BLE.cydsn/ble_process.c **** 
  42:..\..\..\PSoC-4-BLE-master\100_Projects_in_100_Days\Day049_BLE_Mesh_Flood\Mesh_Flood\Mesh_Flood_PSoC4BLE.cydsn/ble_process.c **** /*******************************************************************************
ARM GAS  C:\Users\User\AppData\Local\Temp\cc96DgHN.s 			page 5


  43:..\..\..\PSoC-4-BLE-master\100_Projects_in_100_Days\Day049_BLE_Mesh_Flood\Mesh_Flood\Mesh_Flood_PSoC4BLE.cydsn/ble_process.c **** * Function Name: GenericEventHandler
  44:..\..\..\PSoC-4-BLE-master\100_Projects_in_100_Days\Day049_BLE_Mesh_Flood\Mesh_Flood\Mesh_Flood_PSoC4BLE.cydsn/ble_process.c **** ********************************************************************************
  45:..\..\..\PSoC-4-BLE-master\100_Projects_in_100_Days\Day049_BLE_Mesh_Flood\Mesh_Flood\Mesh_Flood_PSoC4BLE.cydsn/ble_process.c **** * Summary:
  46:..\..\..\PSoC-4-BLE-master\100_Projects_in_100_Days\Day049_BLE_Mesh_Flood\Mesh_Flood\Mesh_Flood_PSoC4BLE.cydsn/ble_process.c **** *        Event handler function for the BLE stack. All the events by BLE stack
  47:..\..\..\PSoC-4-BLE-master\100_Projects_in_100_Days\Day049_BLE_Mesh_Flood\Mesh_Flood\Mesh_Flood_PSoC4BLE.cydsn/ble_process.c **** * are received by application through this function. For this, CyBle_ProcessEvents()
  48:..\..\..\PSoC-4-BLE-master\100_Projects_in_100_Days\Day049_BLE_Mesh_Flood\Mesh_Flood\Mesh_Flood_PSoC4BLE.cydsn/ble_process.c **** * should be called continuously in main loop.
  49:..\..\..\PSoC-4-BLE-master\100_Projects_in_100_Days\Day049_BLE_Mesh_Flood\Mesh_Flood\Mesh_Flood_PSoC4BLE.cydsn/ble_process.c **** *
  50:..\..\..\PSoC-4-BLE-master\100_Projects_in_100_Days\Day049_BLE_Mesh_Flood\Mesh_Flood\Mesh_Flood_PSoC4BLE.cydsn/ble_process.c **** * Parameters:
  51:..\..\..\PSoC-4-BLE-master\100_Projects_in_100_Days\Day049_BLE_Mesh_Flood\Mesh_Flood\Mesh_Flood_PSoC4BLE.cydsn/ble_process.c **** *  event: 		event value
  52:..\..\..\PSoC-4-BLE-master\100_Projects_in_100_Days\Day049_BLE_Mesh_Flood\Mesh_Flood\Mesh_Flood_PSoC4BLE.cydsn/ble_process.c **** *  eventParame: pointer to the location where relevant event data is stored
  53:..\..\..\PSoC-4-BLE-master\100_Projects_in_100_Days\Day049_BLE_Mesh_Flood\Mesh_Flood\Mesh_Flood_PSoC4BLE.cydsn/ble_process.c **** *
  54:..\..\..\PSoC-4-BLE-master\100_Projects_in_100_Days\Day049_BLE_Mesh_Flood\Mesh_Flood\Mesh_Flood_PSoC4BLE.cydsn/ble_process.c **** * Return:
  55:..\..\..\PSoC-4-BLE-master\100_Projects_in_100_Days\Day049_BLE_Mesh_Flood\Mesh_Flood\Mesh_Flood_PSoC4BLE.cydsn/ble_process.c **** *  void
  56:..\..\..\PSoC-4-BLE-master\100_Projects_in_100_Days\Day049_BLE_Mesh_Flood\Mesh_Flood\Mesh_Flood_PSoC4BLE.cydsn/ble_process.c **** *
  57:..\..\..\PSoC-4-BLE-master\100_Projects_in_100_Days\Day049_BLE_Mesh_Flood\Mesh_Flood\Mesh_Flood_PSoC4BLE.cydsn/ble_process.c **** *******************************************************************************/
  58:..\..\..\PSoC-4-BLE-master\100_Projects_in_100_Days\Day049_BLE_Mesh_Flood\Mesh_Flood\Mesh_Flood_PSoC4BLE.cydsn/ble_process.c **** void GenericEventHandler(uint32 event, void * eventParam)
  59:..\..\..\PSoC-4-BLE-master\100_Projects_in_100_Days\Day049_BLE_Mesh_Flood\Mesh_Flood\Mesh_Flood_PSoC4BLE.cydsn/ble_process.c **** {
 147              		.loc 1 59 0
 148              		.cfi_startproc
 149              		@ args = 0, pretend = 0, frame = 88
 150              		@ frame_needed = 1, uses_anonymous_args = 0
 151 0000 90B5     		push	{r4, r7, lr}
 152              		.cfi_def_cfa_offset 12
 153              		.cfi_offset 4, -12
 154              		.cfi_offset 7, -8
 155              		.cfi_offset 14, -4
 156 0002 97B0     		sub	sp, sp, #92
 157              		.cfi_def_cfa_offset 104
 158 0004 00AF     		add	r7, sp, #0
 159              		.cfi_def_cfa_register 7
 160 0006 7860     		str	r0, [r7, #4]
 161 0008 3960     		str	r1, [r7]
  60:..\..\..\PSoC-4-BLE-master\100_Projects_in_100_Days\Day049_BLE_Mesh_Flood\Mesh_Flood\Mesh_Flood_PSoC4BLE.cydsn/ble_process.c **** 	/* Local variables and data structures*/
  61:..\..\..\PSoC-4-BLE-master\100_Projects_in_100_Days\Day049_BLE_Mesh_Flood\Mesh_Flood\Mesh_Flood_PSoC4BLE.cydsn/ble_process.c **** 	CYBLE_GATTS_WRITE_REQ_PARAM_T 		writeReqData;
  62:..\..\..\PSoC-4-BLE-master\100_Projects_in_100_Days\Day049_BLE_Mesh_Flood\Mesh_Flood\Mesh_Flood_PSoC4BLE.cydsn/ble_process.c **** 	CYBLE_GATTC_WRITE_REQ_T				writeADVcounterdata;
  63:..\..\..\PSoC-4-BLE-master\100_Projects_in_100_Days\Day049_BLE_Mesh_Flood\Mesh_Flood\Mesh_Flood_PSoC4BLE.cydsn/ble_process.c **** 	CYBLE_GAPC_ADV_REPORT_T				scan_report;
  64:..\..\..\PSoC-4-BLE-master\100_Projects_in_100_Days\Day049_BLE_Mesh_Flood\Mesh_Flood\Mesh_Flood_PSoC4BLE.cydsn/ble_process.c **** 	CYBLE_GATTS_WRITE_CMD_REQ_PARAM_T	writeCmdData;
  65:..\..\..\PSoC-4-BLE-master\100_Projects_in_100_Days\Day049_BLE_Mesh_Flood\Mesh_Flood\Mesh_Flood_PSoC4BLE.cydsn/ble_process.c **** 	CYBLE_API_RESULT_T					apiResult;
  66:..\..\..\PSoC-4-BLE-master\100_Projects_in_100_Days\Day049_BLE_Mesh_Flood\Mesh_Flood\Mesh_Flood_PSoC4BLE.cydsn/ble_process.c **** 	CYBLE_GATTC_WRITE_REQ_T 			writeRGBdata;
  67:..\..\..\PSoC-4-BLE-master\100_Projects_in_100_Days\Day049_BLE_Mesh_Flood\Mesh_Flood\Mesh_Flood_PSoC4BLE.cydsn/ble_process.c ****     
  68:..\..\..\PSoC-4-BLE-master\100_Projects_in_100_Days\Day049_BLE_Mesh_Flood\Mesh_Flood\Mesh_Flood_PSoC4BLE.cydsn/ble_process.c **** 	switch(event)
 162              		.loc 1 68 0
 163 000a 7B68     		ldr	r3, [r7, #4]
 164 000c 2B2B     		cmp	r3, #43
 165 000e 49D0     		beq	.L3
 166 0010 0FD8     		bhi	.L4
 167 0012 262B     		cmp	r3, #38
 168 0014 24D0     		beq	.L5
 169 0016 05D8     		bhi	.L6
 170 0018 012B     		cmp	r3, #1
 171 001a 1DD0     		beq	.L7
 172 001c 202B     		cmp	r3, #32
 173 001e 00D1     		bne	.LCB27
 174 0020 D0E0     		b	.L8	@long jump
 175              	.LCB27:
  69:..\..\..\PSoC-4-BLE-master\100_Projects_in_100_Days\Day049_BLE_Mesh_Flood\Mesh_Flood\Mesh_Flood_PSoC4BLE.cydsn/ble_process.c **** 	{
  70:..\..\..\PSoC-4-BLE-master\100_Projects_in_100_Days\Day049_BLE_Mesh_Flood\Mesh_Flood\Mesh_Flood_PSoC4BLE.cydsn/ble_process.c **** 		case CYBLE_EVT_STACK_ON:		
ARM GAS  C:\Users\User\AppData\Local\Temp\cc96DgHN.s 			page 6


  71:..\..\..\PSoC-4-BLE-master\100_Projects_in_100_Days\Day049_BLE_Mesh_Flood\Mesh_Flood\Mesh_Flood_PSoC4BLE.cydsn/ble_process.c ****             #ifdef DEBUG_ENABLED
  72:..\..\..\PSoC-4-BLE-master\100_Projects_in_100_Days\Day049_BLE_Mesh_Flood\Mesh_Flood\Mesh_Flood_PSoC4BLE.cydsn/ble_process.c **** 			UART_UartPutString("CYBLE_EVT_STACK_ON ");
  73:..\..\..\PSoC-4-BLE-master\100_Projects_in_100_Days\Day049_BLE_Mesh_Flood\Mesh_Flood\Mesh_Flood_PSoC4BLE.cydsn/ble_process.c **** 			UART_UartPutCRLF(' ');
  74:..\..\..\PSoC-4-BLE-master\100_Projects_in_100_Days\Day049_BLE_Mesh_Flood\Mesh_Flood\Mesh_Flood_PSoC4BLE.cydsn/ble_process.c ****             #endif
  75:..\..\..\PSoC-4-BLE-master\100_Projects_in_100_Days\Day049_BLE_Mesh_Flood\Mesh_Flood\Mesh_Flood_PSoC4BLE.cydsn/ble_process.c **** 			
  76:..\..\..\PSoC-4-BLE-master\100_Projects_in_100_Days\Day049_BLE_Mesh_Flood\Mesh_Flood\Mesh_Flood_PSoC4BLE.cydsn/ble_process.c **** 			/* At the start of the BLE stack, start advertisement */
  77:..\..\..\PSoC-4-BLE-master\100_Projects_in_100_Days\Day049_BLE_Mesh_Flood\Mesh_Flood\Mesh_Flood_PSoC4BLE.cydsn/ble_process.c **** 			CyBle_GappStartAdvertisement(CYBLE_ADVERTISING_FAST);
  78:..\..\..\PSoC-4-BLE-master\100_Projects_in_100_Days\Day049_BLE_Mesh_Flood\Mesh_Flood\Mesh_Flood_PSoC4BLE.cydsn/ble_process.c **** 		break;
  79:..\..\..\PSoC-4-BLE-master\100_Projects_in_100_Days\Day049_BLE_Mesh_Flood\Mesh_Flood\Mesh_Flood_PSoC4BLE.cydsn/ble_process.c **** 			
  80:..\..\..\PSoC-4-BLE-master\100_Projects_in_100_Days\Day049_BLE_Mesh_Flood\Mesh_Flood\Mesh_Flood_PSoC4BLE.cydsn/ble_process.c **** 		case CYBLE_EVT_GAPP_ADVERTISEMENT_START_STOP:
  81:..\..\..\PSoC-4-BLE-master\100_Projects_in_100_Days\Day049_BLE_Mesh_Flood\Mesh_Flood\Mesh_Flood_PSoC4BLE.cydsn/ble_process.c **** 			/* This event is received at every start or stop of peripheral advertisement*/
  82:..\..\..\PSoC-4-BLE-master\100_Projects_in_100_Days\Day049_BLE_Mesh_Flood\Mesh_Flood\Mesh_Flood_PSoC4BLE.cydsn/ble_process.c ****             
  83:..\..\..\PSoC-4-BLE-master\100_Projects_in_100_Days\Day049_BLE_Mesh_Flood\Mesh_Flood\Mesh_Flood_PSoC4BLE.cydsn/ble_process.c ****             #ifdef TEMPERATURE_OUTPUT_ENABLED
  84:..\..\..\PSoC-4-BLE-master\100_Projects_in_100_Days\Day049_BLE_Mesh_Flood\Mesh_Flood\Mesh_Flood_PSoC4BLE.cydsn/ble_process.c ****             UART_UartPutString("*** Peripheral Advertisement START/STOP");
  85:..\..\..\PSoC-4-BLE-master\100_Projects_in_100_Days\Day049_BLE_Mesh_Flood\Mesh_Flood\Mesh_Flood_PSoC4BLE.cydsn/ble_process.c **** 			UART_UartPutCRLF(' ');
  86:..\..\..\PSoC-4-BLE-master\100_Projects_in_100_Days\Day049_BLE_Mesh_Flood\Mesh_Flood\Mesh_Flood_PSoC4BLE.cydsn/ble_process.c ****             #endif
  87:..\..\..\PSoC-4-BLE-master\100_Projects_in_100_Days\Day049_BLE_Mesh_Flood\Mesh_Flood\Mesh_Flood_PSoC4BLE.cydsn/ble_process.c **** 			
  88:..\..\..\PSoC-4-BLE-master\100_Projects_in_100_Days\Day049_BLE_Mesh_Flood\Mesh_Flood\Mesh_Flood_PSoC4BLE.cydsn/ble_process.c ****             #ifdef DEBUG_ENABLED
  89:..\..\..\PSoC-4-BLE-master\100_Projects_in_100_Days\Day049_BLE_Mesh_Flood\Mesh_Flood\Mesh_Flood_PSoC4BLE.cydsn/ble_process.c **** 			UART_UartPutString("CYBLE_EVT_GAPP_ADVERTISEMENT_START_STOP ");
  90:..\..\..\PSoC-4-BLE-master\100_Projects_in_100_Days\Day049_BLE_Mesh_Flood\Mesh_Flood\Mesh_Flood_PSoC4BLE.cydsn/ble_process.c **** 			SendBLEStatetoUART(CyBle_GetState());
  91:..\..\..\PSoC-4-BLE-master\100_Projects_in_100_Days\Day049_BLE_Mesh_Flood\Mesh_Flood\Mesh_Flood_PSoC4BLE.cydsn/ble_process.c **** 			UART_UartPutCRLF(' ');
  92:..\..\..\PSoC-4-BLE-master\100_Projects_in_100_Days\Day049_BLE_Mesh_Flood\Mesh_Flood\Mesh_Flood_PSoC4BLE.cydsn/ble_process.c ****             #endif
  93:..\..\..\PSoC-4-BLE-master\100_Projects_in_100_Days\Day049_BLE_Mesh_Flood\Mesh_Flood\Mesh_Flood_PSoC4BLE.cydsn/ble_process.c **** 			
  94:..\..\..\PSoC-4-BLE-master\100_Projects_in_100_Days\Day049_BLE_Mesh_Flood\Mesh_Flood\Mesh_Flood_PSoC4BLE.cydsn/ble_process.c **** 			
  95:..\..\..\PSoC-4-BLE-master\100_Projects_in_100_Days\Day049_BLE_Mesh_Flood\Mesh_Flood\Mesh_Flood_PSoC4BLE.cydsn/ble_process.c **** 			if((CYBLE_STATE_DISCONNECTED == CyBle_GetState()) && (switch_Role == FALSE))
  96:..\..\..\PSoC-4-BLE-master\100_Projects_in_100_Days\Day049_BLE_Mesh_Flood\Mesh_Flood\Mesh_Flood_PSoC4BLE.cydsn/ble_process.c **** 			{
  97:..\..\..\PSoC-4-BLE-master\100_Projects_in_100_Days\Day049_BLE_Mesh_Flood\Mesh_Flood\Mesh_Flood_PSoC4BLE.cydsn/ble_process.c **** 				/* If the current state of the BLE is Disconnected, then restart advertisement.
  98:..\..\..\PSoC-4-BLE-master\100_Projects_in_100_Days\Day049_BLE_Mesh_Flood\Mesh_Flood\Mesh_Flood_PSoC4BLE.cydsn/ble_process.c **** 				* Note that the advertisement should only be restarted if the switch flag is not
  99:..\..\..\PSoC-4-BLE-master\100_Projects_in_100_Days\Day049_BLE_Mesh_Flood\Mesh_Flood\Mesh_Flood_PSoC4BLE.cydsn/ble_process.c **** 				* TRUE. If switch role flag is TRUE, then there is no need to start advertisement
 100:..\..\..\PSoC-4-BLE-master\100_Projects_in_100_Days\Day049_BLE_Mesh_Flood\Mesh_Flood\Mesh_Flood_PSoC4BLE.cydsn/ble_process.c **** 				* as the GAP role has to be switched*/
 101:..\..\..\PSoC-4-BLE-master\100_Projects_in_100_Days\Day049_BLE_Mesh_Flood\Mesh_Flood\Mesh_Flood_PSoC4BLE.cydsn/ble_process.c **** 				CyBle_GappStartAdvertisement(CYBLE_ADVERTISING_FAST);	
 102:..\..\..\PSoC-4-BLE-master\100_Projects_in_100_Days\Day049_BLE_Mesh_Flood\Mesh_Flood\Mesh_Flood_PSoC4BLE.cydsn/ble_process.c **** 				
 103:..\..\..\PSoC-4-BLE-master\100_Projects_in_100_Days\Day049_BLE_Mesh_Flood\Mesh_Flood\Mesh_Flood_PSoC4BLE.cydsn/ble_process.c **** 				if(apiResult == CYBLE_ERROR_OK)
 104:..\..\..\PSoC-4-BLE-master\100_Projects_in_100_Days\Day049_BLE_Mesh_Flood\Mesh_Flood\Mesh_Flood_PSoC4BLE.cydsn/ble_process.c **** 				{
 105:..\..\..\PSoC-4-BLE-master\100_Projects_in_100_Days\Day049_BLE_Mesh_Flood\Mesh_Flood\Mesh_Flood_PSoC4BLE.cydsn/ble_process.c ****                     #ifdef TEMPERATURE_OUTPUT_ENABLED
 106:..\..\..\PSoC-4-BLE-master\100_Projects_in_100_Days\Day049_BLE_Mesh_Flood\Mesh_Flood\Mesh_Flood_PSoC4BLE.cydsn/ble_process.c ****                     UART_UartPutString("*** Restart Advertisement");
 107:..\..\..\PSoC-4-BLE-master\100_Projects_in_100_Days\Day049_BLE_Mesh_Flood\Mesh_Flood\Mesh_Flood_PSoC4BLE.cydsn/ble_process.c ****         			UART_UartPutCRLF(' ');
 108:..\..\..\PSoC-4-BLE-master\100_Projects_in_100_Days\Day049_BLE_Mesh_Flood\Mesh_Flood\Mesh_Flood_PSoC4BLE.cydsn/ble_process.c ****                     #endif
 109:..\..\..\PSoC-4-BLE-master\100_Projects_in_100_Days\Day049_BLE_Mesh_Flood\Mesh_Flood\Mesh_Flood_PSoC4BLE.cydsn/ble_process.c ****                     
 110:..\..\..\PSoC-4-BLE-master\100_Projects_in_100_Days\Day049_BLE_Mesh_Flood\Mesh_Flood\Mesh_Flood_PSoC4BLE.cydsn/ble_process.c **** 					#ifdef DEBUG_ENABLED
 111:..\..\..\PSoC-4-BLE-master\100_Projects_in_100_Days\Day049_BLE_Mesh_Flood\Mesh_Flood\Mesh_Flood_PSoC4BLE.cydsn/ble_process.c **** 					UART_UartPutString("Restart Advertisement ");
 112:..\..\..\PSoC-4-BLE-master\100_Projects_in_100_Days\Day049_BLE_Mesh_Flood\Mesh_Flood\Mesh_Flood_PSoC4BLE.cydsn/ble_process.c **** 					SendBLEStatetoUART(CyBle_GetState());
 113:..\..\..\PSoC-4-BLE-master\100_Projects_in_100_Days\Day049_BLE_Mesh_Flood\Mesh_Flood\Mesh_Flood_PSoC4BLE.cydsn/ble_process.c **** 					UART_UartPutCRLF(' ');
 114:..\..\..\PSoC-4-BLE-master\100_Projects_in_100_Days\Day049_BLE_Mesh_Flood\Mesh_Flood\Mesh_Flood_PSoC4BLE.cydsn/ble_process.c ****                     #endif
 115:..\..\..\PSoC-4-BLE-master\100_Projects_in_100_Days\Day049_BLE_Mesh_Flood\Mesh_Flood\Mesh_Flood_PSoC4BLE.cydsn/ble_process.c **** 				}
 116:..\..\..\PSoC-4-BLE-master\100_Projects_in_100_Days\Day049_BLE_Mesh_Flood\Mesh_Flood\Mesh_Flood_PSoC4BLE.cydsn/ble_process.c **** 			}
 117:..\..\..\PSoC-4-BLE-master\100_Projects_in_100_Days\Day049_BLE_Mesh_Flood\Mesh_Flood\Mesh_Flood_PSoC4BLE.cydsn/ble_process.c **** 		break;
 118:..\..\..\PSoC-4-BLE-master\100_Projects_in_100_Days\Day049_BLE_Mesh_Flood\Mesh_Flood\Mesh_Flood_PSoC4BLE.cydsn/ble_process.c **** 			
 119:..\..\..\PSoC-4-BLE-master\100_Projects_in_100_Days\Day049_BLE_Mesh_Flood\Mesh_Flood\Mesh_Flood_PSoC4BLE.cydsn/ble_process.c **** 		case CYBLE_EVT_GAPC_SCAN_START_STOP:
 120:..\..\..\PSoC-4-BLE-master\100_Projects_in_100_Days\Day049_BLE_Mesh_Flood\Mesh_Flood\Mesh_Flood_PSoC4BLE.cydsn/ble_process.c **** 			/* This event is received at every start or stop of central scanning*/
 121:..\..\..\PSoC-4-BLE-master\100_Projects_in_100_Days\Day049_BLE_Mesh_Flood\Mesh_Flood\Mesh_Flood_PSoC4BLE.cydsn/ble_process.c ****             #ifdef TEMPERATURE_OUTPUT_ENABLED
 122:..\..\..\PSoC-4-BLE-master\100_Projects_in_100_Days\Day049_BLE_Mesh_Flood\Mesh_Flood\Mesh_Flood_PSoC4BLE.cydsn/ble_process.c ****             UART_UartPutString("*** Central device is SCANNING");
 123:..\..\..\PSoC-4-BLE-master\100_Projects_in_100_Days\Day049_BLE_Mesh_Flood\Mesh_Flood\Mesh_Flood_PSoC4BLE.cydsn/ble_process.c **** 			UART_UartPutCRLF(' ');
 124:..\..\..\PSoC-4-BLE-master\100_Projects_in_100_Days\Day049_BLE_Mesh_Flood\Mesh_Flood\Mesh_Flood_PSoC4BLE.cydsn/ble_process.c ****             #endif
 125:..\..\..\PSoC-4-BLE-master\100_Projects_in_100_Days\Day049_BLE_Mesh_Flood\Mesh_Flood\Mesh_Flood_PSoC4BLE.cydsn/ble_process.c **** 			
 126:..\..\..\PSoC-4-BLE-master\100_Projects_in_100_Days\Day049_BLE_Mesh_Flood\Mesh_Flood\Mesh_Flood_PSoC4BLE.cydsn/ble_process.c ****             #ifdef DEBUG_ENABLED
 127:..\..\..\PSoC-4-BLE-master\100_Projects_in_100_Days\Day049_BLE_Mesh_Flood\Mesh_Flood\Mesh_Flood_PSoC4BLE.cydsn/ble_process.c **** 			UART_UartPutString("CYBLE_EVT_GAPC_SCAN_START_STOP ");
ARM GAS  C:\Users\User\AppData\Local\Temp\cc96DgHN.s 			page 7


 128:..\..\..\PSoC-4-BLE-master\100_Projects_in_100_Days\Day049_BLE_Mesh_Flood\Mesh_Flood\Mesh_Flood_PSoC4BLE.cydsn/ble_process.c **** 			SendBLEStatetoUART(CyBle_GetState());
 129:..\..\..\PSoC-4-BLE-master\100_Projects_in_100_Days\Day049_BLE_Mesh_Flood\Mesh_Flood\Mesh_Flood_PSoC4BLE.cydsn/ble_process.c **** 			UART_UartPutCRLF(' ');
 130:..\..\..\PSoC-4-BLE-master\100_Projects_in_100_Days\Day049_BLE_Mesh_Flood\Mesh_Flood\Mesh_Flood_PSoC4BLE.cydsn/ble_process.c ****             #endif
 131:..\..\..\PSoC-4-BLE-master\100_Projects_in_100_Days\Day049_BLE_Mesh_Flood\Mesh_Flood\Mesh_Flood_PSoC4BLE.cydsn/ble_process.c **** 			
 132:..\..\..\PSoC-4-BLE-master\100_Projects_in_100_Days\Day049_BLE_Mesh_Flood\Mesh_Flood\Mesh_Flood_PSoC4BLE.cydsn/ble_process.c **** 		break;
 133:..\..\..\PSoC-4-BLE-master\100_Projects_in_100_Days\Day049_BLE_Mesh_Flood\Mesh_Flood\Mesh_Flood_PSoC4BLE.cydsn/ble_process.c **** 			
 134:..\..\..\PSoC-4-BLE-master\100_Projects_in_100_Days\Day049_BLE_Mesh_Flood\Mesh_Flood\Mesh_Flood_PSoC4BLE.cydsn/ble_process.c **** 		case CYBLE_EVT_GATT_CONNECT_IND:
 135:..\..\..\PSoC-4-BLE-master\100_Projects_in_100_Days\Day049_BLE_Mesh_Flood\Mesh_Flood\Mesh_Flood_PSoC4BLE.cydsn/ble_process.c **** 			/* This event is received at GATT connection with a device. This event
 136:..\..\..\PSoC-4-BLE-master\100_Projects_in_100_Days\Day049_BLE_Mesh_Flood\Mesh_Flood\Mesh_Flood_PSoC4BLE.cydsn/ble_process.c **** 			* is received for both Client or Server role */
 137:..\..\..\PSoC-4-BLE-master\100_Projects_in_100_Days\Day049_BLE_Mesh_Flood\Mesh_Flood\Mesh_Flood_PSoC4BLE.cydsn/ble_process.c ****             #ifdef TEMPERATURE_OUTPUT_ENABLED
 138:..\..\..\PSoC-4-BLE-master\100_Projects_in_100_Days\Day049_BLE_Mesh_Flood\Mesh_Flood\Mesh_Flood_PSoC4BLE.cydsn/ble_process.c ****             UART_UartPutString("*** Device is CONNECTED");
 139:..\..\..\PSoC-4-BLE-master\100_Projects_in_100_Days\Day049_BLE_Mesh_Flood\Mesh_Flood\Mesh_Flood_PSoC4BLE.cydsn/ble_process.c **** 			UART_UartPutCRLF(' ');
 140:..\..\..\PSoC-4-BLE-master\100_Projects_in_100_Days\Day049_BLE_Mesh_Flood\Mesh_Flood\Mesh_Flood_PSoC4BLE.cydsn/ble_process.c ****             #endif
 141:..\..\..\PSoC-4-BLE-master\100_Projects_in_100_Days\Day049_BLE_Mesh_Flood\Mesh_Flood\Mesh_Flood_PSoC4BLE.cydsn/ble_process.c ****             
 142:..\..\..\PSoC-4-BLE-master\100_Projects_in_100_Days\Day049_BLE_Mesh_Flood\Mesh_Flood\Mesh_Flood_PSoC4BLE.cydsn/ble_process.c **** 			#ifdef DEBUG_ENABLED
 143:..\..\..\PSoC-4-BLE-master\100_Projects_in_100_Days\Day049_BLE_Mesh_Flood\Mesh_Flood\Mesh_Flood_PSoC4BLE.cydsn/ble_process.c **** 			UART_UartPutString("CYBLE_EVT_GATT_CONNECT_IND ");
 144:..\..\..\PSoC-4-BLE-master\100_Projects_in_100_Days\Day049_BLE_Mesh_Flood\Mesh_Flood\Mesh_Flood_PSoC4BLE.cydsn/ble_process.c **** 			UART_UartPutCRLF(' ');
 145:..\..\..\PSoC-4-BLE-master\100_Projects_in_100_Days\Day049_BLE_Mesh_Flood\Mesh_Flood\Mesh_Flood_PSoC4BLE.cydsn/ble_process.c **** 			#endif
 146:..\..\..\PSoC-4-BLE-master\100_Projects_in_100_Days\Day049_BLE_Mesh_Flood\Mesh_Flood\Mesh_Flood_PSoC4BLE.cydsn/ble_process.c **** 		break;
 147:..\..\..\PSoC-4-BLE-master\100_Projects_in_100_Days\Day049_BLE_Mesh_Flood\Mesh_Flood\Mesh_Flood_PSoC4BLE.cydsn/ble_process.c **** 		
 148:..\..\..\PSoC-4-BLE-master\100_Projects_in_100_Days\Day049_BLE_Mesh_Flood\Mesh_Flood\Mesh_Flood_PSoC4BLE.cydsn/ble_process.c **** 		case CYBLE_EVT_GATT_DISCONNECT_IND:
 149:..\..\..\PSoC-4-BLE-master\100_Projects_in_100_Days\Day049_BLE_Mesh_Flood\Mesh_Flood\Mesh_Flood_PSoC4BLE.cydsn/ble_process.c **** 			/* This event is received at GATT disconnection with a device. This event
 150:..\..\..\PSoC-4-BLE-master\100_Projects_in_100_Days\Day049_BLE_Mesh_Flood\Mesh_Flood\Mesh_Flood_PSoC4BLE.cydsn/ble_process.c **** 			* is received for both Client or Server role */
 151:..\..\..\PSoC-4-BLE-master\100_Projects_in_100_Days\Day049_BLE_Mesh_Flood\Mesh_Flood\Mesh_Flood_PSoC4BLE.cydsn/ble_process.c ****             #ifdef TEMPERATURE_OUTPUT_ENABLED
 152:..\..\..\PSoC-4-BLE-master\100_Projects_in_100_Days\Day049_BLE_Mesh_Flood\Mesh_Flood\Mesh_Flood_PSoC4BLE.cydsn/ble_process.c ****             UART_UartPutString("*** Device is DISCONNECTED");
 153:..\..\..\PSoC-4-BLE-master\100_Projects_in_100_Days\Day049_BLE_Mesh_Flood\Mesh_Flood\Mesh_Flood_PSoC4BLE.cydsn/ble_process.c **** 			UART_UartPutCRLF(' ');
 154:..\..\..\PSoC-4-BLE-master\100_Projects_in_100_Days\Day049_BLE_Mesh_Flood\Mesh_Flood\Mesh_Flood_PSoC4BLE.cydsn/ble_process.c ****             #endif
 155:..\..\..\PSoC-4-BLE-master\100_Projects_in_100_Days\Day049_BLE_Mesh_Flood\Mesh_Flood\Mesh_Flood_PSoC4BLE.cydsn/ble_process.c ****             
 156:..\..\..\PSoC-4-BLE-master\100_Projects_in_100_Days\Day049_BLE_Mesh_Flood\Mesh_Flood\Mesh_Flood_PSoC4BLE.cydsn/ble_process.c **** 			#ifdef DEBUG_ENABLED
 157:..\..\..\PSoC-4-BLE-master\100_Projects_in_100_Days\Day049_BLE_Mesh_Flood\Mesh_Flood\Mesh_Flood_PSoC4BLE.cydsn/ble_process.c **** 			UART_UartPutString("CYBLE_EVT_GATT_DISCONNECT_IND ");
 158:..\..\..\PSoC-4-BLE-master\100_Projects_in_100_Days\Day049_BLE_Mesh_Flood\Mesh_Flood\Mesh_Flood_PSoC4BLE.cydsn/ble_process.c **** 			UART_UartPutCRLF(' ');
 159:..\..\..\PSoC-4-BLE-master\100_Projects_in_100_Days\Day049_BLE_Mesh_Flood\Mesh_Flood\Mesh_Flood_PSoC4BLE.cydsn/ble_process.c **** 			#endif
 160:..\..\..\PSoC-4-BLE-master\100_Projects_in_100_Days\Day049_BLE_Mesh_Flood\Mesh_Flood\Mesh_Flood_PSoC4BLE.cydsn/ble_process.c **** 		break;
 161:..\..\..\PSoC-4-BLE-master\100_Projects_in_100_Days\Day049_BLE_Mesh_Flood\Mesh_Flood\Mesh_Flood_PSoC4BLE.cydsn/ble_process.c **** 			
 162:..\..\..\PSoC-4-BLE-master\100_Projects_in_100_Days\Day049_BLE_Mesh_Flood\Mesh_Flood\Mesh_Flood_PSoC4BLE.cydsn/ble_process.c ****         // THIS IS THE FUNCTION TO EDIT!!!
 163:..\..\..\PSoC-4-BLE-master\100_Projects_in_100_Days\Day049_BLE_Mesh_Flood\Mesh_Flood\Mesh_Flood_PSoC4BLE.cydsn/ble_process.c **** 		case CYBLE_EVT_GATTS_WRITE_REQ:
 164:..\..\..\PSoC-4-BLE-master\100_Projects_in_100_Days\Day049_BLE_Mesh_Flood\Mesh_Flood\Mesh_Flood_PSoC4BLE.cydsn/ble_process.c **** 			/* This event is received at when Server receives a Write request from
 165:..\..\..\PSoC-4-BLE-master\100_Projects_in_100_Days\Day049_BLE_Mesh_Flood\Mesh_Flood\Mesh_Flood_PSoC4BLE.cydsn/ble_process.c **** 			* connected Client device */
 166:..\..\..\PSoC-4-BLE-master\100_Projects_in_100_Days\Day049_BLE_Mesh_Flood\Mesh_Flood\Mesh_Flood_PSoC4BLE.cydsn/ble_process.c **** 			/* Save the associated event parameter in local variable */
 167:..\..\..\PSoC-4-BLE-master\100_Projects_in_100_Days\Day049_BLE_Mesh_Flood\Mesh_Flood\Mesh_Flood_PSoC4BLE.cydsn/ble_process.c **** 			writeReqData = *(CYBLE_GATTS_WRITE_REQ_PARAM_T*)eventParam;
 168:..\..\..\PSoC-4-BLE-master\100_Projects_in_100_Days\Day049_BLE_Mesh_Flood\Mesh_Flood\Mesh_Flood_PSoC4BLE.cydsn/ble_process.c ****             
 169:..\..\..\PSoC-4-BLE-master\100_Projects_in_100_Days\Day049_BLE_Mesh_Flood\Mesh_Flood\Mesh_Flood_PSoC4BLE.cydsn/ble_process.c ****             #ifdef TEMPERATURE_OUTPUT_ENABLED
 170:..\..\..\PSoC-4-BLE-master\100_Projects_in_100_Days\Day049_BLE_Mesh_Flood\Mesh_Flood\Mesh_Flood_PSoC4BLE.cydsn/ble_process.c ****             UART_UartPutString("*** WRITING TEMPERATURE...");
 171:..\..\..\PSoC-4-BLE-master\100_Projects_in_100_Days\Day049_BLE_Mesh_Flood\Mesh_Flood\Mesh_Flood_PSoC4BLE.cydsn/ble_process.c **** 			UART_UartPutCRLF(' ');
 172:..\..\..\PSoC-4-BLE-master\100_Projects_in_100_Days\Day049_BLE_Mesh_Flood\Mesh_Flood\Mesh_Flood_PSoC4BLE.cydsn/ble_process.c ****             #endif
 173:..\..\..\PSoC-4-BLE-master\100_Projects_in_100_Days\Day049_BLE_Mesh_Flood\Mesh_Flood\Mesh_Flood_PSoC4BLE.cydsn/ble_process.c **** 
 174:..\..\..\PSoC-4-BLE-master\100_Projects_in_100_Days\Day049_BLE_Mesh_Flood\Mesh_Flood\Mesh_Flood_PSoC4BLE.cydsn/ble_process.c **** 		    #ifdef DEBUG_ENABLED
 175:..\..\..\PSoC-4-BLE-master\100_Projects_in_100_Days\Day049_BLE_Mesh_Flood\Mesh_Flood\Mesh_Flood_PSoC4BLE.cydsn/ble_process.c **** 			    UART_UartPutString("*** WRITING TEMPERATURE...");
 176:..\..\..\PSoC-4-BLE-master\100_Projects_in_100_Days\Day049_BLE_Mesh_Flood\Mesh_Flood\Mesh_Flood_PSoC4BLE.cydsn/ble_process.c **** 			    UART_UartPutCRLF(' ');
 177:..\..\..\PSoC-4-BLE-master\100_Projects_in_100_Days\Day049_BLE_Mesh_Flood\Mesh_Flood\Mesh_Flood_PSoC4BLE.cydsn/ble_process.c ****             #endif
 178:..\..\..\PSoC-4-BLE-master\100_Projects_in_100_Days\Day049_BLE_Mesh_Flood\Mesh_Flood\Mesh_Flood_PSoC4BLE.cydsn/ble_process.c **** 			
 179:..\..\..\PSoC-4-BLE-master\100_Projects_in_100_Days\Day049_BLE_Mesh_Flood\Mesh_Flood\Mesh_Flood_PSoC4BLE.cydsn/ble_process.c **** 			/* Extract temperature value and store it */
 180:..\..\..\PSoC-4-BLE-master\100_Projects_in_100_Days\Day049_BLE_Mesh_Flood\Mesh_Flood\Mesh_Flood_PSoC4BLE.cydsn/ble_process.c ****             TemperatureStorage.handleValPair.value.val[deviceIndex] = GetTemperature(flag_Timer);
 181:..\..\..\PSoC-4-BLE-master\100_Projects_in_100_Days\Day049_BLE_Mesh_Flood\Mesh_Flood\Mesh_Flood_PSoC4BLE.cydsn/ble_process.c ****             GREEN_LED_Pin_Write(0);
 182:..\..\..\PSoC-4-BLE-master\100_Projects_in_100_Days\Day049_BLE_Mesh_Flood\Mesh_Flood\Mesh_Flood_PSoC4BLE.cydsn/ble_process.c ****             
 183:..\..\..\PSoC-4-BLE-master\100_Projects_in_100_Days\Day049_BLE_Mesh_Flood\Mesh_Flood\Mesh_Flood_PSoC4BLE.cydsn/ble_process.c ****             #ifdef TEMPERATURE_OUTPUT_ENABLED
 184:..\..\..\PSoC-4-BLE-master\100_Projects_in_100_Days\Day049_BLE_Mesh_Flood\Mesh_Flood\Mesh_Flood_PSoC4BLE.cydsn/ble_process.c ****                 SendTemperarureToUart(TemperatureStorage.handleValPair.value.val[deviceIndex]);
ARM GAS  C:\Users\User\AppData\Local\Temp\cc96DgHN.s 			page 8


 185:..\..\..\PSoC-4-BLE-master\100_Projects_in_100_Days\Day049_BLE_Mesh_Flood\Mesh_Flood\Mesh_Flood_PSoC4BLE.cydsn/ble_process.c ****             #endif
 186:..\..\..\PSoC-4-BLE-master\100_Projects_in_100_Days\Day049_BLE_Mesh_Flood\Mesh_Flood\Mesh_Flood_PSoC4BLE.cydsn/ble_process.c ****             
 187:..\..\..\PSoC-4-BLE-master\100_Projects_in_100_Days\Day049_BLE_Mesh_Flood\Mesh_Flood\Mesh_Flood_PSoC4BLE.cydsn/ble_process.c **** 			/* Update the RGB LED Control characteristic in GATT DB  to allow
 188:..\..\..\PSoC-4-BLE-master\100_Projects_in_100_Days\Day049_BLE_Mesh_Flood\Mesh_Flood\Mesh_Flood_PSoC4BLE.cydsn/ble_process.c **** 			* Client to read the latest RGB LED color value set */
 189:..\..\..\PSoC-4-BLE-master\100_Projects_in_100_Days\Day049_BLE_Mesh_Flood\Mesh_Flood\Mesh_Flood_PSoC4BLE.cydsn/ble_process.c **** 			CyBle_GattsWriteAttributeValue(&TemperatureStorage.handleValPair,0,&cyBle_connHandle,CYBLE_GATT_
 190:..\..\..\PSoC-4-BLE-master\100_Projects_in_100_Days\Day049_BLE_Mesh_Flood\Mesh_Flood\Mesh_Flood_PSoC4BLE.cydsn/ble_process.c ****             
 191:..\..\..\PSoC-4-BLE-master\100_Projects_in_100_Days\Day049_BLE_Mesh_Flood\Mesh_Flood\Mesh_Flood_PSoC4BLE.cydsn/ble_process.c ****             SendTempArrayToUart(TemperatureStorage.handleValPair.value.val);
 192:..\..\..\PSoC-4-BLE-master\100_Projects_in_100_Days\Day049_BLE_Mesh_Flood\Mesh_Flood\Mesh_Flood_PSoC4BLE.cydsn/ble_process.c **** 					
 193:..\..\..\PSoC-4-BLE-master\100_Projects_in_100_Days\Day049_BLE_Mesh_Flood\Mesh_Flood\Mesh_Flood_PSoC4BLE.cydsn/ble_process.c **** 			#ifdef ENABLE_ADV_DATA_COUNTER
 194:..\..\..\PSoC-4-BLE-master\100_Projects_in_100_Days\Day049_BLE_Mesh_Flood\Mesh_Flood\Mesh_Flood_PSoC4BLE.cydsn/ble_process.c ****     			/* Increment the ADV data counter so that scanning Central device knows
 195:..\..\..\PSoC-4-BLE-master\100_Projects_in_100_Days\Day049_BLE_Mesh_Flood\Mesh_Flood\Mesh_Flood_PSoC4BLE.cydsn/ble_process.c ****     			* if this device has updated RGB LED data or not */
 196:..\..\..\PSoC-4-BLE-master\100_Projects_in_100_Days\Day049_BLE_Mesh_Flood\Mesh_Flood\Mesh_Flood_PSoC4BLE.cydsn/ble_process.c ****     			dataADVCounter++;
 197:..\..\..\PSoC-4-BLE-master\100_Projects_in_100_Days\Day049_BLE_Mesh_Flood\Mesh_Flood\Mesh_Flood_PSoC4BLE.cydsn/ble_process.c **** 			#endif
 198:..\..\..\PSoC-4-BLE-master\100_Projects_in_100_Days\Day049_BLE_Mesh_Flood\Mesh_Flood\Mesh_Flood_PSoC4BLE.cydsn/ble_process.c **** 			
 199:..\..\..\PSoC-4-BLE-master\100_Projects_in_100_Days\Day049_BLE_Mesh_Flood\Mesh_Flood\Mesh_Flood_PSoC4BLE.cydsn/ble_process.c **** 			#ifdef DEBUG_ENABLED
 200:..\..\..\PSoC-4-BLE-master\100_Projects_in_100_Days\Day049_BLE_Mesh_Flood\Mesh_Flood\Mesh_Flood_PSoC4BLE.cydsn/ble_process.c ****     			UART_UartPutString("incremented dataADVCounter value in CYBLE_EVT_GATTS_WRITE_REQ= ");
 201:..\..\..\PSoC-4-BLE-master\100_Projects_in_100_Days\Day049_BLE_Mesh_Flood\Mesh_Flood\Mesh_Flood_PSoC4BLE.cydsn/ble_process.c ****     			PrintNum(dataADVCounter);
 202:..\..\..\PSoC-4-BLE-master\100_Projects_in_100_Days\Day049_BLE_Mesh_Flood\Mesh_Flood\Mesh_Flood_PSoC4BLE.cydsn/ble_process.c ****     			UART_UartPutCRLF(' ');
 203:..\..\..\PSoC-4-BLE-master\100_Projects_in_100_Days\Day049_BLE_Mesh_Flood\Mesh_Flood\Mesh_Flood_PSoC4BLE.cydsn/ble_process.c **** 			#endif
 204:..\..\..\PSoC-4-BLE-master\100_Projects_in_100_Days\Day049_BLE_Mesh_Flood\Mesh_Flood\Mesh_Flood_PSoC4BLE.cydsn/ble_process.c **** 			
 205:..\..\..\PSoC-4-BLE-master\100_Projects_in_100_Days\Day049_BLE_Mesh_Flood\Mesh_Flood\Mesh_Flood_PSoC4BLE.cydsn/ble_process.c **** 			/* After receiveing the temperature, set the switch role flag to allow the system
 206:..\..\..\PSoC-4-BLE-master\100_Projects_in_100_Days\Day049_BLE_Mesh_Flood\Mesh_Flood\Mesh_Flood_PSoC4BLE.cydsn/ble_process.c **** 			* to switch role to Central role */
 207:..\..\..\PSoC-4-BLE-master\100_Projects_in_100_Days\Day049_BLE_Mesh_Flood\Mesh_Flood\Mesh_Flood_PSoC4BLE.cydsn/ble_process.c **** 			switch_Role = TRUE;
 208:..\..\..\PSoC-4-BLE-master\100_Projects_in_100_Days\Day049_BLE_Mesh_Flood\Mesh_Flood\Mesh_Flood_PSoC4BLE.cydsn/ble_process.c ****             
 209:..\..\..\PSoC-4-BLE-master\100_Projects_in_100_Days\Day049_BLE_Mesh_Flood\Mesh_Flood\Mesh_Flood_PSoC4BLE.cydsn/ble_process.c ****             #ifdef TEMPERATURE_OUTPUT_ENABLED
 210:..\..\..\PSoC-4-BLE-master\100_Projects_in_100_Days\Day049_BLE_Mesh_Flood\Mesh_Flood\Mesh_Flood_PSoC4BLE.cydsn/ble_process.c ****             UART_UartPutString("*** Switch Role to CENTRAL");
 211:..\..\..\PSoC-4-BLE-master\100_Projects_in_100_Days\Day049_BLE_Mesh_Flood\Mesh_Flood\Mesh_Flood_PSoC4BLE.cydsn/ble_process.c **** 			UART_UartPutCRLF(' ');
 212:..\..\..\PSoC-4-BLE-master\100_Projects_in_100_Days\Day049_BLE_Mesh_Flood\Mesh_Flood\Mesh_Flood_PSoC4BLE.cydsn/ble_process.c ****             #endif
 213:..\..\..\PSoC-4-BLE-master\100_Projects_in_100_Days\Day049_BLE_Mesh_Flood\Mesh_Flood\Mesh_Flood_PSoC4BLE.cydsn/ble_process.c **** 			
 214:..\..\..\PSoC-4-BLE-master\100_Projects_in_100_Days\Day049_BLE_Mesh_Flood\Mesh_Flood\Mesh_Flood_PSoC4BLE.cydsn/ble_process.c **** 			#ifdef DEBUG_ENABLED
 215:..\..\..\PSoC-4-BLE-master\100_Projects_in_100_Days\Day049_BLE_Mesh_Flood\Mesh_Flood\Mesh_Flood_PSoC4BLE.cydsn/ble_process.c ****     			UART_UartPutString("Switch Role to Central");
 216:..\..\..\PSoC-4-BLE-master\100_Projects_in_100_Days\Day049_BLE_Mesh_Flood\Mesh_Flood\Mesh_Flood_PSoC4BLE.cydsn/ble_process.c ****     			UART_UartPutCRLF(' ');
 217:..\..\..\PSoC-4-BLE-master\100_Projects_in_100_Days\Day049_BLE_Mesh_Flood\Mesh_Flood\Mesh_Flood_PSoC4BLE.cydsn/ble_process.c **** 			#endif
 218:..\..\..\PSoC-4-BLE-master\100_Projects_in_100_Days\Day049_BLE_Mesh_Flood\Mesh_Flood\Mesh_Flood_PSoC4BLE.cydsn/ble_process.c **** 
 219:..\..\..\PSoC-4-BLE-master\100_Projects_in_100_Days\Day049_BLE_Mesh_Flood\Mesh_Flood\Mesh_Flood_PSoC4BLE.cydsn/ble_process.c **** 			/* As part of every write request, the server needs to send a write response. Note
 220:..\..\..\PSoC-4-BLE-master\100_Projects_in_100_Days\Day049_BLE_Mesh_Flood\Mesh_Flood\Mesh_Flood_PSoC4BLE.cydsn/ble_process.c **** 			* that this will be sent only if all the application layer conditions are met on a 
 221:..\..\..\PSoC-4-BLE-master\100_Projects_in_100_Days\Day049_BLE_Mesh_Flood\Mesh_Flood\Mesh_Flood_PSoC4BLE.cydsn/ble_process.c **** 			* write request. Else, an appropriate error code is sent. */
 222:..\..\..\PSoC-4-BLE-master\100_Projects_in_100_Days\Day049_BLE_Mesh_Flood\Mesh_Flood\Mesh_Flood_PSoC4BLE.cydsn/ble_process.c **** 	        CyBle_GattsWriteRsp(cyBle_connHandle);
 223:..\..\..\PSoC-4-BLE-master\100_Projects_in_100_Days\Day049_BLE_Mesh_Flood\Mesh_Flood\Mesh_Flood_PSoC4BLE.cydsn/ble_process.c **** 		break;
 224:..\..\..\PSoC-4-BLE-master\100_Projects_in_100_Days\Day049_BLE_Mesh_Flood\Mesh_Flood\Mesh_Flood_PSoC4BLE.cydsn/ble_process.c **** 			
 225:..\..\..\PSoC-4-BLE-master\100_Projects_in_100_Days\Day049_BLE_Mesh_Flood\Mesh_Flood\Mesh_Flood_PSoC4BLE.cydsn/ble_process.c **** 		case CYBLE_EVT_GATTS_WRITE_CMD_REQ:
 226:..\..\..\PSoC-4-BLE-master\100_Projects_in_100_Days\Day049_BLE_Mesh_Flood\Mesh_Flood\Mesh_Flood_PSoC4BLE.cydsn/ble_process.c **** 			/* This event is generated whenever a Client device sends a Write Command (Write 
 227:..\..\..\PSoC-4-BLE-master\100_Projects_in_100_Days\Day049_BLE_Mesh_Flood\Mesh_Flood\Mesh_Flood_PSoC4BLE.cydsn/ble_process.c **** 			* without response) to a connected Server. Save the associated event parameter in
 228:..\..\..\PSoC-4-BLE-master\100_Projects_in_100_Days\Day049_BLE_Mesh_Flood\Mesh_Flood\Mesh_Flood_PSoC4BLE.cydsn/ble_process.c **** 			* local variable. */
 229:..\..\..\PSoC-4-BLE-master\100_Projects_in_100_Days\Day049_BLE_Mesh_Flood\Mesh_Flood\Mesh_Flood_PSoC4BLE.cydsn/ble_process.c **** 			writeCmdData = *(CYBLE_GATTS_WRITE_CMD_REQ_PARAM_T*)eventParam;
 230:..\..\..\PSoC-4-BLE-master\100_Projects_in_100_Days\Day049_BLE_Mesh_Flood\Mesh_Flood\Mesh_Flood_PSoC4BLE.cydsn/ble_process.c **** 			
 231:..\..\..\PSoC-4-BLE-master\100_Projects_in_100_Days\Day049_BLE_Mesh_Flood\Mesh_Flood\Mesh_Flood_PSoC4BLE.cydsn/ble_process.c **** 			/* Check if the Write command is for ADV Data counter characteristic */
 232:..\..\..\PSoC-4-BLE-master\100_Projects_in_100_Days\Day049_BLE_Mesh_Flood\Mesh_Flood\Mesh_Flood_PSoC4BLE.cydsn/ble_process.c **** 			if(writeCmdData.handleValPair.attrHandle == CYBLE_CUSTOM_SERVICE_CUSTOM_CHARACTERISTIC_CHAR_HAND
 233:..\..\..\PSoC-4-BLE-master\100_Projects_in_100_Days\Day049_BLE_Mesh_Flood\Mesh_Flood\Mesh_Flood_PSoC4BLE.cydsn/ble_process.c **** 			{
 234:..\..\..\PSoC-4-BLE-master\100_Projects_in_100_Days\Day049_BLE_Mesh_Flood\Mesh_Flood\Mesh_Flood_PSoC4BLE.cydsn/ble_process.c **** 				/* If the data sent is of one byte, then proceed. */
 235:..\..\..\PSoC-4-BLE-master\100_Projects_in_100_Days\Day049_BLE_Mesh_Flood\Mesh_Flood\Mesh_Flood_PSoC4BLE.cydsn/ble_process.c **** 				if(writeCmdData.handleValPair.value.len == 1)
 236:..\..\..\PSoC-4-BLE-master\100_Projects_in_100_Days\Day049_BLE_Mesh_Flood\Mesh_Flood\Mesh_Flood_PSoC4BLE.cydsn/ble_process.c **** 				{
 237:..\..\..\PSoC-4-BLE-master\100_Projects_in_100_Days\Day049_BLE_Mesh_Flood\Mesh_Flood\Mesh_Flood_PSoC4BLE.cydsn/ble_process.c **** 					/* Extract and save the set ADV data counter value */
 238:..\..\..\PSoC-4-BLE-master\100_Projects_in_100_Days\Day049_BLE_Mesh_Flood\Mesh_Flood\Mesh_Flood_PSoC4BLE.cydsn/ble_process.c **** 					dataADVCounter = *(writeCmdData.handleValPair.value.val);	
 239:..\..\..\PSoC-4-BLE-master\100_Projects_in_100_Days\Day049_BLE_Mesh_Flood\Mesh_Flood\Mesh_Flood_PSoC4BLE.cydsn/ble_process.c **** 					
 240:..\..\..\PSoC-4-BLE-master\100_Projects_in_100_Days\Day049_BLE_Mesh_Flood\Mesh_Flood\Mesh_Flood_PSoC4BLE.cydsn/ble_process.c **** 					/* This increment is done to balance the ++ done as part of CYBLE_EVT_GATTS_WRITE_REQ */
 241:..\..\..\PSoC-4-BLE-master\100_Projects_in_100_Days\Day049_BLE_Mesh_Flood\Mesh_Flood\Mesh_Flood_PSoC4BLE.cydsn/ble_process.c **** 					dataADVCounter--;
ARM GAS  C:\Users\User\AppData\Local\Temp\cc96DgHN.s 			page 9


 242:..\..\..\PSoC-4-BLE-master\100_Projects_in_100_Days\Day049_BLE_Mesh_Flood\Mesh_Flood\Mesh_Flood_PSoC4BLE.cydsn/ble_process.c **** 					
 243:..\..\..\PSoC-4-BLE-master\100_Projects_in_100_Days\Day049_BLE_Mesh_Flood\Mesh_Flood\Mesh_Flood_PSoC4BLE.cydsn/ble_process.c **** 					/* Update the ADV data counter characteristic in GATT DB  to allow
 244:..\..\..\PSoC-4-BLE-master\100_Projects_in_100_Days\Day049_BLE_Mesh_Flood\Mesh_Flood\Mesh_Flood_PSoC4BLE.cydsn/ble_process.c **** 					* Client to read the latest ADV data counter value */
 245:..\..\..\PSoC-4-BLE-master\100_Projects_in_100_Days\Day049_BLE_Mesh_Flood\Mesh_Flood\Mesh_Flood_PSoC4BLE.cydsn/ble_process.c **** 					CyBle_GattsWriteAttributeValue(&writeCmdData.handleValPair,
 246:..\..\..\PSoC-4-BLE-master\100_Projects_in_100_Days\Day049_BLE_Mesh_Flood\Mesh_Flood\Mesh_Flood_PSoC4BLE.cydsn/ble_process.c **** 													0,
 247:..\..\..\PSoC-4-BLE-master\100_Projects_in_100_Days\Day049_BLE_Mesh_Flood\Mesh_Flood\Mesh_Flood_PSoC4BLE.cydsn/ble_process.c **** 													&cyBle_connHandle,
 248:..\..\..\PSoC-4-BLE-master\100_Projects_in_100_Days\Day049_BLE_Mesh_Flood\Mesh_Flood\Mesh_Flood_PSoC4BLE.cydsn/ble_process.c **** 													CYBLE_GATT_DB_LOCALLY_INITIATED);
 249:..\..\..\PSoC-4-BLE-master\100_Projects_in_100_Days\Day049_BLE_Mesh_Flood\Mesh_Flood\Mesh_Flood_PSoC4BLE.cydsn/ble_process.c **** 
 250:..\..\..\PSoC-4-BLE-master\100_Projects_in_100_Days\Day049_BLE_Mesh_Flood\Mesh_Flood\Mesh_Flood_PSoC4BLE.cydsn/ble_process.c **** 					#ifdef DEBUG_ENABLED
 251:..\..\..\PSoC-4-BLE-master\100_Projects_in_100_Days\Day049_BLE_Mesh_Flood\Mesh_Flood\Mesh_Flood_PSoC4BLE.cydsn/ble_process.c **** 					UART_UartPutString("dataADVCounter from CYBLE_EVT_GATTS_WRITE_CMD_REQ = ");
 252:..\..\..\PSoC-4-BLE-master\100_Projects_in_100_Days\Day049_BLE_Mesh_Flood\Mesh_Flood\Mesh_Flood_PSoC4BLE.cydsn/ble_process.c **** 					PrintNum(dataADVCounter);
 253:..\..\..\PSoC-4-BLE-master\100_Projects_in_100_Days\Day049_BLE_Mesh_Flood\Mesh_Flood\Mesh_Flood_PSoC4BLE.cydsn/ble_process.c **** 					UART_UartPutCRLF(' ');
 254:..\..\..\PSoC-4-BLE-master\100_Projects_in_100_Days\Day049_BLE_Mesh_Flood\Mesh_Flood\Mesh_Flood_PSoC4BLE.cydsn/ble_process.c **** 					#endif
 255:..\..\..\PSoC-4-BLE-master\100_Projects_in_100_Days\Day049_BLE_Mesh_Flood\Mesh_Flood\Mesh_Flood_PSoC4BLE.cydsn/ble_process.c **** 				}	/* if(writeCmdData.handleValPair.value.len == 1) */
 256:..\..\..\PSoC-4-BLE-master\100_Projects_in_100_Days\Day049_BLE_Mesh_Flood\Mesh_Flood\Mesh_Flood_PSoC4BLE.cydsn/ble_process.c **** 			}
 257:..\..\..\PSoC-4-BLE-master\100_Projects_in_100_Days\Day049_BLE_Mesh_Flood\Mesh_Flood\Mesh_Flood_PSoC4BLE.cydsn/ble_process.c **** 			break;
 258:..\..\..\PSoC-4-BLE-master\100_Projects_in_100_Days\Day049_BLE_Mesh_Flood\Mesh_Flood\Mesh_Flood_PSoC4BLE.cydsn/ble_process.c **** 		
 259:..\..\..\PSoC-4-BLE-master\100_Projects_in_100_Days\Day049_BLE_Mesh_Flood\Mesh_Flood\Mesh_Flood_PSoC4BLE.cydsn/ble_process.c **** 		case CYBLE_EVT_GAPC_SCAN_PROGRESS_RESULT:
 260:..\..\..\PSoC-4-BLE-master\100_Projects_in_100_Days\Day049_BLE_Mesh_Flood\Mesh_Flood\Mesh_Flood_PSoC4BLE.cydsn/ble_process.c **** 			/* This event is generated whenever there is a peripheral device found by 
 261:..\..\..\PSoC-4-BLE-master\100_Projects_in_100_Days\Day049_BLE_Mesh_Flood\Mesh_Flood\Mesh_Flood_PSoC4BLE.cydsn/ble_process.c **** 			* while scanning */
 262:..\..\..\PSoC-4-BLE-master\100_Projects_in_100_Days\Day049_BLE_Mesh_Flood\Mesh_Flood\Mesh_Flood_PSoC4BLE.cydsn/ble_process.c **** 			if(CYBLE_STATE_CONNECTED != CyBle_GetState())	
 263:..\..\..\PSoC-4-BLE-master\100_Projects_in_100_Days\Day049_BLE_Mesh_Flood\Mesh_Flood\Mesh_Flood_PSoC4BLE.cydsn/ble_process.c **** 			{
 264:..\..\..\PSoC-4-BLE-master\100_Projects_in_100_Days\Day049_BLE_Mesh_Flood\Mesh_Flood\Mesh_Flood_PSoC4BLE.cydsn/ble_process.c **** 				/* If we are not connected to any peripheral device, then save the new device  
 265:..\..\..\PSoC-4-BLE-master\100_Projects_in_100_Days\Day049_BLE_Mesh_Flood\Mesh_Flood\Mesh_Flood_PSoC4BLE.cydsn/ble_process.c **** 				* information so to add it to our list */
 266:..\..\..\PSoC-4-BLE-master\100_Projects_in_100_Days\Day049_BLE_Mesh_Flood\Mesh_Flood\Mesh_Flood_PSoC4BLE.cydsn/ble_process.c **** 				scan_report = *(CYBLE_GAPC_ADV_REPORT_T*)eventParam;
 267:..\..\..\PSoC-4-BLE-master\100_Projects_in_100_Days\Day049_BLE_Mesh_Flood\Mesh_Flood\Mesh_Flood_PSoC4BLE.cydsn/ble_process.c ****                 
 268:..\..\..\PSoC-4-BLE-master\100_Projects_in_100_Days\Day049_BLE_Mesh_Flood\Mesh_Flood\Mesh_Flood_PSoC4BLE.cydsn/ble_process.c ****                 #ifdef TEMPERATURE_OUTPUT_ENABLED
 269:..\..\..\PSoC-4-BLE-master\100_Projects_in_100_Days\Day049_BLE_Mesh_Flood\Mesh_Flood\Mesh_Flood_PSoC4BLE.cydsn/ble_process.c ****                 UART_UartPutString("*** Progress result of SCAN");
 270:..\..\..\PSoC-4-BLE-master\100_Projects_in_100_Days\Day049_BLE_Mesh_Flood\Mesh_Flood\Mesh_Flood_PSoC4BLE.cydsn/ble_process.c ****     			UART_UartPutCRLF(' ');
 271:..\..\..\PSoC-4-BLE-master\100_Projects_in_100_Days\Day049_BLE_Mesh_Flood\Mesh_Flood\Mesh_Flood_PSoC4BLE.cydsn/ble_process.c ****                 #endif
 272:..\..\..\PSoC-4-BLE-master\100_Projects_in_100_Days\Day049_BLE_Mesh_Flood\Mesh_Flood\Mesh_Flood_PSoC4BLE.cydsn/ble_process.c **** 				
 273:..\..\..\PSoC-4-BLE-master\100_Projects_in_100_Days\Day049_BLE_Mesh_Flood\Mesh_Flood\Mesh_Flood_PSoC4BLE.cydsn/ble_process.c ****                 
 274:..\..\..\PSoC-4-BLE-master\100_Projects_in_100_Days\Day049_BLE_Mesh_Flood\Mesh_Flood\Mesh_Flood_PSoC4BLE.cydsn/ble_process.c **** 				#ifdef DEBUG_ENABLED
 275:..\..\..\PSoC-4-BLE-master\100_Projects_in_100_Days\Day049_BLE_Mesh_Flood\Mesh_Flood\Mesh_Flood_PSoC4BLE.cydsn/ble_process.c **** 					UART_UartPutString("CYBLE_EVT_GAPC_SCAN_PROGRESS_RESULT ");
 276:..\..\..\PSoC-4-BLE-master\100_Projects_in_100_Days\Day049_BLE_Mesh_Flood\Mesh_Flood\Mesh_Flood_PSoC4BLE.cydsn/ble_process.c **** 					UART_UartPutCRLF(' ');
 277:..\..\..\PSoC-4-BLE-master\100_Projects_in_100_Days\Day049_BLE_Mesh_Flood\Mesh_Flood\Mesh_Flood_PSoC4BLE.cydsn/ble_process.c **** 				#endif
 278:..\..\..\PSoC-4-BLE-master\100_Projects_in_100_Days\Day049_BLE_Mesh_Flood\Mesh_Flood\Mesh_Flood_PSoC4BLE.cydsn/ble_process.c **** 				{
 279:..\..\..\PSoC-4-BLE-master\100_Projects_in_100_Days\Day049_BLE_Mesh_Flood\Mesh_Flood\Mesh_Flood_PSoC4BLE.cydsn/ble_process.c **** 				#ifdef ENABLE_ADV_DATA_COUNTER
 280:..\..\..\PSoC-4-BLE-master\100_Projects_in_100_Days\Day049_BLE_Mesh_Flood\Mesh_Flood\Mesh_Flood_PSoC4BLE.cydsn/ble_process.c **** 				/* If ADV DATA COUNTER is enabled, then the central device would check
 281:..\..\..\PSoC-4-BLE-master\100_Projects_in_100_Days\Day049_BLE_Mesh_Flood\Mesh_Flood\Mesh_Flood_PSoC4BLE.cydsn/ble_process.c **** 				* if the counter in ADV packet of peripheral is less than its own counter
 282:..\..\..\PSoC-4-BLE-master\100_Projects_in_100_Days\Day049_BLE_Mesh_Flood\Mesh_Flood\Mesh_Flood_PSoC4BLE.cydsn/ble_process.c **** 				* or not. If yes, then it will consider the peripheral as a potential 
 283:..\..\..\PSoC-4-BLE-master\100_Projects_in_100_Days\Day049_BLE_Mesh_Flood\Mesh_Flood\Mesh_Flood_PSoC4BLE.cydsn/ble_process.c **** 				* device to connect to.*/
 284:..\..\..\PSoC-4-BLE-master\100_Projects_in_100_Days\Day049_BLE_Mesh_Flood\Mesh_Flood\Mesh_Flood_PSoC4BLE.cydsn/ble_process.c **** 				if(scan_report.eventType == CYBLE_GAPC_CONN_UNDIRECTED_ADV)
 285:..\..\..\PSoC-4-BLE-master\100_Projects_in_100_Days\Day049_BLE_Mesh_Flood\Mesh_Flood\Mesh_Flood_PSoC4BLE.cydsn/ble_process.c **** 				{
 286:..\..\..\PSoC-4-BLE-master\100_Projects_in_100_Days\Day049_BLE_Mesh_Flood\Mesh_Flood\Mesh_Flood_PSoC4BLE.cydsn/ble_process.c **** 					/* If the scan report received is of advertising nature and the data 
 287:..\..\..\PSoC-4-BLE-master\100_Projects_in_100_Days\Day049_BLE_Mesh_Flood\Mesh_Flood\Mesh_Flood_PSoC4BLE.cydsn/ble_process.c **** 					* length is as expected... */
 288:..\..\..\PSoC-4-BLE-master\100_Projects_in_100_Days\Day049_BLE_Mesh_Flood\Mesh_Flood\Mesh_Flood_PSoC4BLE.cydsn/ble_process.c **** 					if(scan_report.dataLen == new_advData.advDataLen)
 289:..\..\..\PSoC-4-BLE-master\100_Projects_in_100_Days\Day049_BLE_Mesh_Flood\Mesh_Flood\Mesh_Flood_PSoC4BLE.cydsn/ble_process.c **** 					{
 290:..\..\..\PSoC-4-BLE-master\100_Projects_in_100_Days\Day049_BLE_Mesh_Flood\Mesh_Flood\Mesh_Flood_PSoC4BLE.cydsn/ble_process.c **** 						/* If the second last value of the advertising data matches the custom 
 291:..\..\..\PSoC-4-BLE-master\100_Projects_in_100_Days\Day049_BLE_Mesh_Flood\Mesh_Flood\Mesh_Flood_PSoC4BLE.cydsn/ble_process.c **** 						* marker, then the peripheral is a node of the network */
 292:..\..\..\PSoC-4-BLE-master\100_Projects_in_100_Days\Day049_BLE_Mesh_Flood\Mesh_Flood\Mesh_Flood_PSoC4BLE.cydsn/ble_process.c **** 						if(scan_report.data[scan_report.dataLen-2] == CUSTOM_ADV_DATA_MARKER)
 293:..\..\..\PSoC-4-BLE-master\100_Projects_in_100_Days\Day049_BLE_Mesh_Flood\Mesh_Flood\Mesh_Flood_PSoC4BLE.cydsn/ble_process.c **** 						{
 294:..\..\..\PSoC-4-BLE-master\100_Projects_in_100_Days\Day049_BLE_Mesh_Flood\Mesh_Flood\Mesh_Flood_PSoC4BLE.cydsn/ble_process.c **** 							/* If the ADV counter data in Advertising data is less than that of
 295:..\..\..\PSoC-4-BLE-master\100_Projects_in_100_Days\Day049_BLE_Mesh_Flood\Mesh_Flood\Mesh_Flood_PSoC4BLE.cydsn/ble_process.c **** 							* the value in this scanning device, then the node is a potential node 
 296:..\..\..\PSoC-4-BLE-master\100_Projects_in_100_Days\Day049_BLE_Mesh_Flood\Mesh_Flood\Mesh_Flood_PSoC4BLE.cydsn/ble_process.c **** 							* whose color has to be updated. */
 297:..\..\..\PSoC-4-BLE-master\100_Projects_in_100_Days\Day049_BLE_Mesh_Flood\Mesh_Flood\Mesh_Flood_PSoC4BLE.cydsn/ble_process.c **** 							if((scan_report.data[scan_report.dataLen-1] < dataADVCounter) ||
 298:..\..\..\PSoC-4-BLE-master\100_Projects_in_100_Days\Day049_BLE_Mesh_Flood\Mesh_Flood\Mesh_Flood_PSoC4BLE.cydsn/ble_process.c **** 							((scan_report.data[scan_report.dataLen-1] == 255) && (dataADVCounter == 0)))
ARM GAS  C:\Users\User\AppData\Local\Temp\cc96DgHN.s 			page 10


 299:..\..\..\PSoC-4-BLE-master\100_Projects_in_100_Days\Day049_BLE_Mesh_Flood\Mesh_Flood\Mesh_Flood_PSoC4BLE.cydsn/ble_process.c **** 							{
 300:..\..\..\PSoC-4-BLE-master\100_Projects_in_100_Days\Day049_BLE_Mesh_Flood\Mesh_Flood\Mesh_Flood_PSoC4BLE.cydsn/ble_process.c **** 								/* Potential node found*/
 301:..\..\..\PSoC-4-BLE-master\100_Projects_in_100_Days\Day049_BLE_Mesh_Flood\Mesh_Flood\Mesh_Flood_PSoC4BLE.cydsn/ble_process.c **** 								potential_node_found = TRUE;
 302:..\..\..\PSoC-4-BLE-master\100_Projects_in_100_Days\Day049_BLE_Mesh_Flood\Mesh_Flood\Mesh_Flood_PSoC4BLE.cydsn/ble_process.c **** 								/* Save the advertising peripheral address and type*/
 303:..\..\..\PSoC-4-BLE-master\100_Projects_in_100_Days\Day049_BLE_Mesh_Flood\Mesh_Flood\Mesh_Flood_PSoC4BLE.cydsn/ble_process.c **** 								memcpy(potential_node_bdAddr, scan_report.peerBdAddr, 6);
 304:..\..\..\PSoC-4-BLE-master\100_Projects_in_100_Days\Day049_BLE_Mesh_Flood\Mesh_Flood\Mesh_Flood_PSoC4BLE.cydsn/ble_process.c **** 								potential_node_bdAddrType = scan_report.peerAddrType;
 305:..\..\..\PSoC-4-BLE-master\100_Projects_in_100_Days\Day049_BLE_Mesh_Flood\Mesh_Flood\Mesh_Flood_PSoC4BLE.cydsn/ble_process.c **** 								
 306:..\..\..\PSoC-4-BLE-master\100_Projects_in_100_Days\Day049_BLE_Mesh_Flood\Mesh_Flood\Mesh_Flood_PSoC4BLE.cydsn/ble_process.c **** 								#ifdef DEBUG_ENABLED
 307:..\..\..\PSoC-4-BLE-master\100_Projects_in_100_Days\Day049_BLE_Mesh_Flood\Mesh_Flood\Mesh_Flood_PSoC4BLE.cydsn/ble_process.c **** 								UART_UartPutString("potential_node_found ");
 308:..\..\..\PSoC-4-BLE-master\100_Projects_in_100_Days\Day049_BLE_Mesh_Flood\Mesh_Flood\Mesh_Flood_PSoC4BLE.cydsn/ble_process.c **** 								UART_UartPutCRLF(' ');
 309:..\..\..\PSoC-4-BLE-master\100_Projects_in_100_Days\Day049_BLE_Mesh_Flood\Mesh_Flood\Mesh_Flood_PSoC4BLE.cydsn/ble_process.c **** 								#endif
 310:..\..\..\PSoC-4-BLE-master\100_Projects_in_100_Days\Day049_BLE_Mesh_Flood\Mesh_Flood\Mesh_Flood_PSoC4BLE.cydsn/ble_process.c **** 							}
 311:..\..\..\PSoC-4-BLE-master\100_Projects_in_100_Days\Day049_BLE_Mesh_Flood\Mesh_Flood\Mesh_Flood_PSoC4BLE.cydsn/ble_process.c **** 							else
 312:..\..\..\PSoC-4-BLE-master\100_Projects_in_100_Days\Day049_BLE_Mesh_Flood\Mesh_Flood\Mesh_Flood_PSoC4BLE.cydsn/ble_process.c **** 							{
 313:..\..\..\PSoC-4-BLE-master\100_Projects_in_100_Days\Day049_BLE_Mesh_Flood\Mesh_Flood\Mesh_Flood_PSoC4BLE.cydsn/ble_process.c **** 								/* If the ADV data counter is equal or more than the data counter
 314:..\..\..\PSoC-4-BLE-master\100_Projects_in_100_Days\Day049_BLE_Mesh_Flood\Mesh_Flood\Mesh_Flood_PSoC4BLE.cydsn/ble_process.c **** 								* in this scanning device, then the node has latest RGB LED data
 315:..\..\..\PSoC-4-BLE-master\100_Projects_in_100_Days\Day049_BLE_Mesh_Flood\Mesh_Flood\Mesh_Flood_PSoC4BLE.cydsn/ble_process.c **** 								* and does not need to be connected to. Reset the potential node 
 316:..\..\..\PSoC-4-BLE-master\100_Projects_in_100_Days\Day049_BLE_Mesh_Flood\Mesh_Flood\Mesh_Flood_PSoC4BLE.cydsn/ble_process.c **** 								* address */
 317:..\..\..\PSoC-4-BLE-master\100_Projects_in_100_Days\Day049_BLE_Mesh_Flood\Mesh_Flood\Mesh_Flood_PSoC4BLE.cydsn/ble_process.c **** 								potential_node_found = FALSE;
 318:..\..\..\PSoC-4-BLE-master\100_Projects_in_100_Days\Day049_BLE_Mesh_Flood\Mesh_Flood\Mesh_Flood_PSoC4BLE.cydsn/ble_process.c **** 								
 319:..\..\..\PSoC-4-BLE-master\100_Projects_in_100_Days\Day049_BLE_Mesh_Flood\Mesh_Flood\Mesh_Flood_PSoC4BLE.cydsn/ble_process.c **** 								potential_node_bdAddrType = 0;
 320:..\..\..\PSoC-4-BLE-master\100_Projects_in_100_Days\Day049_BLE_Mesh_Flood\Mesh_Flood\Mesh_Flood_PSoC4BLE.cydsn/ble_process.c **** 								
 321:..\..\..\PSoC-4-BLE-master\100_Projects_in_100_Days\Day049_BLE_Mesh_Flood\Mesh_Flood\Mesh_Flood_PSoC4BLE.cydsn/ble_process.c **** 								potential_node_bdAddr[0] = 0x00;
 322:..\..\..\PSoC-4-BLE-master\100_Projects_in_100_Days\Day049_BLE_Mesh_Flood\Mesh_Flood\Mesh_Flood_PSoC4BLE.cydsn/ble_process.c **** 								potential_node_bdAddr[1] = 0x00;
 323:..\..\..\PSoC-4-BLE-master\100_Projects_in_100_Days\Day049_BLE_Mesh_Flood\Mesh_Flood\Mesh_Flood_PSoC4BLE.cydsn/ble_process.c **** 								potential_node_bdAddr[2] = 0x00;
 324:..\..\..\PSoC-4-BLE-master\100_Projects_in_100_Days\Day049_BLE_Mesh_Flood\Mesh_Flood\Mesh_Flood_PSoC4BLE.cydsn/ble_process.c **** 								potential_node_bdAddr[3] = 0x00;
 325:..\..\..\PSoC-4-BLE-master\100_Projects_in_100_Days\Day049_BLE_Mesh_Flood\Mesh_Flood\Mesh_Flood_PSoC4BLE.cydsn/ble_process.c **** 								potential_node_bdAddr[4] = 0x00;
 326:..\..\..\PSoC-4-BLE-master\100_Projects_in_100_Days\Day049_BLE_Mesh_Flood\Mesh_Flood\Mesh_Flood_PSoC4BLE.cydsn/ble_process.c **** 								potential_node_bdAddr[5] = 0x00;
 327:..\..\..\PSoC-4-BLE-master\100_Projects_in_100_Days\Day049_BLE_Mesh_Flood\Mesh_Flood\Mesh_Flood_PSoC4BLE.cydsn/ble_process.c **** 							}
 328:..\..\..\PSoC-4-BLE-master\100_Projects_in_100_Days\Day049_BLE_Mesh_Flood\Mesh_Flood\Mesh_Flood_PSoC4BLE.cydsn/ble_process.c **** 						}
 329:..\..\..\PSoC-4-BLE-master\100_Projects_in_100_Days\Day049_BLE_Mesh_Flood\Mesh_Flood\Mesh_Flood_PSoC4BLE.cydsn/ble_process.c **** 					}
 330:..\..\..\PSoC-4-BLE-master\100_Projects_in_100_Days\Day049_BLE_Mesh_Flood\Mesh_Flood\Mesh_Flood_PSoC4BLE.cydsn/ble_process.c **** 				}
 331:..\..\..\PSoC-4-BLE-master\100_Projects_in_100_Days\Day049_BLE_Mesh_Flood\Mesh_Flood\Mesh_Flood_PSoC4BLE.cydsn/ble_process.c **** 				#endif
 332:..\..\..\PSoC-4-BLE-master\100_Projects_in_100_Days\Day049_BLE_Mesh_Flood\Mesh_Flood\Mesh_Flood_PSoC4BLE.cydsn/ble_process.c ****                 }
 333:..\..\..\PSoC-4-BLE-master\100_Projects_in_100_Days\Day049_BLE_Mesh_Flood\Mesh_Flood\Mesh_Flood_PSoC4BLE.cydsn/ble_process.c **** 				
 334:..\..\..\PSoC-4-BLE-master\100_Projects_in_100_Days\Day049_BLE_Mesh_Flood\Mesh_Flood\Mesh_Flood_PSoC4BLE.cydsn/ble_process.c ****                 scan_report.eventType = CYBLE_GAPC_SCAN_RSP;
 335:..\..\..\PSoC-4-BLE-master\100_Projects_in_100_Days\Day049_BLE_Mesh_Flood\Mesh_Flood\Mesh_Flood_PSoC4BLE.cydsn/ble_process.c **** 				/* If the received scan data is part of scan response from a peripheral... */
 336:..\..\..\PSoC-4-BLE-master\100_Projects_in_100_Days\Day049_BLE_Mesh_Flood\Mesh_Flood\Mesh_Flood_PSoC4BLE.cydsn/ble_process.c **** 				if(scan_report.eventType == CYBLE_GAPC_SCAN_RSP)
 337:..\..\..\PSoC-4-BLE-master\100_Projects_in_100_Days\Day049_BLE_Mesh_Flood\Mesh_Flood\Mesh_Flood_PSoC4BLE.cydsn/ble_process.c **** 				{
 338:..\..\..\PSoC-4-BLE-master\100_Projects_in_100_Days\Day049_BLE_Mesh_Flood\Mesh_Flood\Mesh_Flood_PSoC4BLE.cydsn/ble_process.c **** 					/* If the data lenght of the scan reponse packet is equal to expected
 339:..\..\..\PSoC-4-BLE-master\100_Projects_in_100_Days\Day049_BLE_Mesh_Flood\Mesh_Flood\Mesh_Flood_PSoC4BLE.cydsn/ble_process.c **** 					* scan response data lenght...*/
 340:..\..\..\PSoC-4-BLE-master\100_Projects_in_100_Days\Day049_BLE_Mesh_Flood\Mesh_Flood\Mesh_Flood_PSoC4BLE.cydsn/ble_process.c **** 					//if(scan_report.dataLen == SCAN_TAG_DATA_LEN) {
 341:..\..\..\PSoC-4-BLE-master\100_Projects_in_100_Days\Day049_BLE_Mesh_Flood\Mesh_Flood\Mesh_Flood_PSoC4BLE.cydsn/ble_process.c **** 						/* If the scan report data matches the expected data (scan_tag),
 342:..\..\..\PSoC-4-BLE-master\100_Projects_in_100_Days\Day049_BLE_Mesh_Flood\Mesh_Flood\Mesh_Flood_PSoC4BLE.cydsn/ble_process.c **** 						* then it is our desired node */
 343:..\..\..\PSoC-4-BLE-master\100_Projects_in_100_Days\Day049_BLE_Mesh_Flood\Mesh_Flood\Mesh_Flood_PSoC4BLE.cydsn/ble_process.c **** 						//if(!memcmp(scan_report.data, scan_tag, scan_report.dataLen))
 344:..\..\..\PSoC-4-BLE-master\100_Projects_in_100_Days\Day049_BLE_Mesh_Flood\Mesh_Flood\Mesh_Flood_PSoC4BLE.cydsn/ble_process.c **** 						{
 345:..\..\..\PSoC-4-BLE-master\100_Projects_in_100_Days\Day049_BLE_Mesh_Flood\Mesh_Flood\Mesh_Flood_PSoC4BLE.cydsn/ble_process.c ****                             #ifdef TEMPERATURE_OUTPUT_ENABLED
 346:..\..\..\PSoC-4-BLE-master\100_Projects_in_100_Days\Day049_BLE_Mesh_Flood\Mesh_Flood\Mesh_Flood_PSoC4BLE.cydsn/ble_process.c ****                             UART_UartPutString("*** Device is FOUND. Stop SCANNING");
 347:..\..\..\PSoC-4-BLE-master\100_Projects_in_100_Days\Day049_BLE_Mesh_Flood\Mesh_Flood\Mesh_Flood_PSoC4BLE.cydsn/ble_process.c ****                 			UART_UartPutCRLF(' ');
 348:..\..\..\PSoC-4-BLE-master\100_Projects_in_100_Days\Day049_BLE_Mesh_Flood\Mesh_Flood\Mesh_Flood_PSoC4BLE.cydsn/ble_process.c ****                             #endif
 349:..\..\..\PSoC-4-BLE-master\100_Projects_in_100_Days\Day049_BLE_Mesh_Flood\Mesh_Flood\Mesh_Flood_PSoC4BLE.cydsn/ble_process.c ****                             
 350:..\..\..\PSoC-4-BLE-master\100_Projects_in_100_Days\Day049_BLE_Mesh_Flood\Mesh_Flood\Mesh_Flood_PSoC4BLE.cydsn/ble_process.c **** 							#ifdef DEBUG_ENABLED
 351:..\..\..\PSoC-4-BLE-master\100_Projects_in_100_Days\Day049_BLE_Mesh_Flood\Mesh_Flood\Mesh_Flood_PSoC4BLE.cydsn/ble_process.c **** 							UART_UartPutString("Titan Found ");
 352:..\..\..\PSoC-4-BLE-master\100_Projects_in_100_Days\Day049_BLE_Mesh_Flood\Mesh_Flood\Mesh_Flood_PSoC4BLE.cydsn/ble_process.c **** 							UART_UartPutCRLF(' ');
 353:..\..\..\PSoC-4-BLE-master\100_Projects_in_100_Days\Day049_BLE_Mesh_Flood\Mesh_Flood\Mesh_Flood_PSoC4BLE.cydsn/ble_process.c **** 							#endif
 354:..\..\..\PSoC-4-BLE-master\100_Projects_in_100_Days\Day049_BLE_Mesh_Flood\Mesh_Flood\Mesh_Flood_PSoC4BLE.cydsn/ble_process.c **** 							/* Stop existing scan */
 355:..\..\..\PSoC-4-BLE-master\100_Projects_in_100_Days\Day049_BLE_Mesh_Flood\Mesh_Flood\Mesh_Flood_PSoC4BLE.cydsn/ble_process.c **** 							CyBle_GapcStopScan();
ARM GAS  C:\Users\User\AppData\Local\Temp\cc96DgHN.s 			page 11


 356:..\..\..\PSoC-4-BLE-master\100_Projects_in_100_Days\Day049_BLE_Mesh_Flood\Mesh_Flood\Mesh_Flood_PSoC4BLE.cydsn/ble_process.c **** 							#ifdef DEBUG_ENABLED
 357:..\..\..\PSoC-4-BLE-master\100_Projects_in_100_Days\Day049_BLE_Mesh_Flood\Mesh_Flood\Mesh_Flood_PSoC4BLE.cydsn/ble_process.c **** 							UART_UartPutString("Stop Scan called ");
 358:..\..\..\PSoC-4-BLE-master\100_Projects_in_100_Days\Day049_BLE_Mesh_Flood\Mesh_Flood\Mesh_Flood_PSoC4BLE.cydsn/ble_process.c **** 							UART_UartPutCRLF(' ');
 359:..\..\..\PSoC-4-BLE-master\100_Projects_in_100_Days\Day049_BLE_Mesh_Flood\Mesh_Flood\Mesh_Flood_PSoC4BLE.cydsn/ble_process.c **** 							#endif
 360:..\..\..\PSoC-4-BLE-master\100_Projects_in_100_Days\Day049_BLE_Mesh_Flood\Mesh_Flood\Mesh_Flood_PSoC4BLE.cydsn/ble_process.c **** 							
 361:..\..\..\PSoC-4-BLE-master\100_Projects_in_100_Days\Day049_BLE_Mesh_Flood\Mesh_Flood\Mesh_Flood_PSoC4BLE.cydsn/ble_process.c **** 							/* Save the peripheral BD address and type*/
 362:..\..\..\PSoC-4-BLE-master\100_Projects_in_100_Days\Day049_BLE_Mesh_Flood\Mesh_Flood\Mesh_Flood_PSoC4BLE.cydsn/ble_process.c **** 							peripAddr.type = scan_report.peerAddrType;
 363:..\..\..\PSoC-4-BLE-master\100_Projects_in_100_Days\Day049_BLE_Mesh_Flood\Mesh_Flood\Mesh_Flood_PSoC4BLE.cydsn/ble_process.c **** 							peripAddr.bdAddr[0] = scan_report.peerBdAddr[0];
 364:..\..\..\PSoC-4-BLE-master\100_Projects_in_100_Days\Day049_BLE_Mesh_Flood\Mesh_Flood\Mesh_Flood_PSoC4BLE.cydsn/ble_process.c **** 							peripAddr.bdAddr[1] = scan_report.peerBdAddr[1];
 365:..\..\..\PSoC-4-BLE-master\100_Projects_in_100_Days\Day049_BLE_Mesh_Flood\Mesh_Flood\Mesh_Flood_PSoC4BLE.cydsn/ble_process.c **** 							peripAddr.bdAddr[2] = scan_report.peerBdAddr[2];
 366:..\..\..\PSoC-4-BLE-master\100_Projects_in_100_Days\Day049_BLE_Mesh_Flood\Mesh_Flood\Mesh_Flood_PSoC4BLE.cydsn/ble_process.c ****                             peripAddr.bdAddr[3] = scan_report.peerBdAddr[3];
 367:..\..\..\PSoC-4-BLE-master\100_Projects_in_100_Days\Day049_BLE_Mesh_Flood\Mesh_Flood\Mesh_Flood_PSoC4BLE.cydsn/ble_process.c **** 							peripAddr.bdAddr[4] = scan_report.peerBdAddr[4];
 368:..\..\..\PSoC-4-BLE-master\100_Projects_in_100_Days\Day049_BLE_Mesh_Flood\Mesh_Flood\Mesh_Flood_PSoC4BLE.cydsn/ble_process.c **** 							peripAddr.bdAddr[5] = scan_report.peerBdAddr[5];
 369:..\..\..\PSoC-4-BLE-master\100_Projects_in_100_Days\Day049_BLE_Mesh_Flood\Mesh_Flood\Mesh_Flood_PSoC4BLE.cydsn/ble_process.c **** 
 370:..\..\..\PSoC-4-BLE-master\100_Projects_in_100_Days\Day049_BLE_Mesh_Flood\Mesh_Flood\Mesh_Flood_PSoC4BLE.cydsn/ble_process.c **** 							/* Set the flag to allow application to connect to the
 371:..\..\..\PSoC-4-BLE-master\100_Projects_in_100_Days\Day049_BLE_Mesh_Flood\Mesh_Flood\Mesh_Flood_PSoC4BLE.cydsn/ble_process.c **** 							* peripheral found */
 372:..\..\..\PSoC-4-BLE-master\100_Projects_in_100_Days\Day049_BLE_Mesh_Flood\Mesh_Flood\Mesh_Flood_PSoC4BLE.cydsn/ble_process.c **** 							clientConnectToDevice = TRUE;
 373:..\..\..\PSoC-4-BLE-master\100_Projects_in_100_Days\Day049_BLE_Mesh_Flood\Mesh_Flood\Mesh_Flood_PSoC4BLE.cydsn/ble_process.c **** 						}
 374:..\..\..\PSoC-4-BLE-master\100_Projects_in_100_Days\Day049_BLE_Mesh_Flood\Mesh_Flood\Mesh_Flood_PSoC4BLE.cydsn/ble_process.c **** 					//} else {
 375:..\..\..\PSoC-4-BLE-master\100_Projects_in_100_Days\Day049_BLE_Mesh_Flood\Mesh_Flood\Mesh_Flood_PSoC4BLE.cydsn/ble_process.c ****                     //    UART_UartPutString("111111111111111f");
 376:..\..\..\PSoC-4-BLE-master\100_Projects_in_100_Days\Day049_BLE_Mesh_Flood\Mesh_Flood\Mesh_Flood_PSoC4BLE.cydsn/ble_process.c ****                     //}
 377:..\..\..\PSoC-4-BLE-master\100_Projects_in_100_Days\Day049_BLE_Mesh_Flood\Mesh_Flood\Mesh_Flood_PSoC4BLE.cydsn/ble_process.c **** 				} 
 378:..\..\..\PSoC-4-BLE-master\100_Projects_in_100_Days\Day049_BLE_Mesh_Flood\Mesh_Flood\Mesh_Flood_PSoC4BLE.cydsn/ble_process.c **** 			}
 379:..\..\..\PSoC-4-BLE-master\100_Projects_in_100_Days\Day049_BLE_Mesh_Flood\Mesh_Flood\Mesh_Flood_PSoC4BLE.cydsn/ble_process.c **** 		break;
 380:..\..\..\PSoC-4-BLE-master\100_Projects_in_100_Days\Day049_BLE_Mesh_Flood\Mesh_Flood\Mesh_Flood_PSoC4BLE.cydsn/ble_process.c **** 			
 381:..\..\..\PSoC-4-BLE-master\100_Projects_in_100_Days\Day049_BLE_Mesh_Flood\Mesh_Flood\Mesh_Flood_PSoC4BLE.cydsn/ble_process.c **** 		case CYBLE_EVT_GAP_DEVICE_CONNECTED:
 382:..\..\..\PSoC-4-BLE-master\100_Projects_in_100_Days\Day049_BLE_Mesh_Flood\Mesh_Flood\Mesh_Flood_PSoC4BLE.cydsn/ble_process.c **** 			/* This event is received whenever the device connect on GAP layer */
 383:..\..\..\PSoC-4-BLE-master\100_Projects_in_100_Days\Day049_BLE_Mesh_Flood\Mesh_Flood\Mesh_Flood_PSoC4BLE.cydsn/ble_process.c **** 			if(ble_gap_state == BLE_CENTRAL)
 384:..\..\..\PSoC-4-BLE-master\100_Projects_in_100_Days\Day049_BLE_Mesh_Flood\Mesh_Flood\Mesh_Flood_PSoC4BLE.cydsn/ble_process.c **** 			{
 385:..\..\..\PSoC-4-BLE-master\100_Projects_in_100_Days\Day049_BLE_Mesh_Flood\Mesh_Flood\Mesh_Flood_PSoC4BLE.cydsn/ble_process.c ****         		/* If this system is currently acting in Central role and has connected
 386:..\..\..\PSoC-4-BLE-master\100_Projects_in_100_Days\Day049_BLE_Mesh_Flood\Mesh_Flood\Mesh_Flood_PSoC4BLE.cydsn/ble_process.c ****         		* to a peripheral device, then write directly the ADV counter data and
 387:..\..\..\PSoC-4-BLE-master\100_Projects_in_100_Days\Day049_BLE_Mesh_Flood\Mesh_Flood\Mesh_Flood_PSoC4BLE.cydsn/ble_process.c ****         		* RGB LED control data using attribute handles */
 388:..\..\..\PSoC-4-BLE-master\100_Projects_in_100_Days\Day049_BLE_Mesh_Flood\Mesh_Flood\Mesh_Flood_PSoC4BLE.cydsn/ble_process.c ****         		
 389:..\..\..\PSoC-4-BLE-master\100_Projects_in_100_Days\Day049_BLE_Mesh_Flood\Mesh_Flood\Mesh_Flood_PSoC4BLE.cydsn/ble_process.c ****         		/* Set the device connected flag */
 390:..\..\..\PSoC-4-BLE-master\100_Projects_in_100_Days\Day049_BLE_Mesh_Flood\Mesh_Flood\Mesh_Flood_PSoC4BLE.cydsn/ble_process.c ****         		deviceConnected = TRUE;
 391:..\..\..\PSoC-4-BLE-master\100_Projects_in_100_Days\Day049_BLE_Mesh_Flood\Mesh_Flood\Mesh_Flood_PSoC4BLE.cydsn/ble_process.c ****                 
 392:..\..\..\PSoC-4-BLE-master\100_Projects_in_100_Days\Day049_BLE_Mesh_Flood\Mesh_Flood\Mesh_Flood_PSoC4BLE.cydsn/ble_process.c ****                 #ifdef TEMPERATURE_OUTPUT_ENABLED
 393:..\..\..\PSoC-4-BLE-master\100_Projects_in_100_Days\Day049_BLE_Mesh_Flood\Mesh_Flood\Mesh_Flood_PSoC4BLE.cydsn/ble_process.c ****                 UART_UartPutString("*** WRITING TEMPERATURE...");
 394:..\..\..\PSoC-4-BLE-master\100_Projects_in_100_Days\Day049_BLE_Mesh_Flood\Mesh_Flood\Mesh_Flood_PSoC4BLE.cydsn/ble_process.c ****     			UART_UartPutCRLF(' ');
 395:..\..\..\PSoC-4-BLE-master\100_Projects_in_100_Days\Day049_BLE_Mesh_Flood\Mesh_Flood\Mesh_Flood_PSoC4BLE.cydsn/ble_process.c ****                 #endif
 396:..\..\..\PSoC-4-BLE-master\100_Projects_in_100_Days\Day049_BLE_Mesh_Flood\Mesh_Flood\Mesh_Flood_PSoC4BLE.cydsn/ble_process.c **** 
 397:..\..\..\PSoC-4-BLE-master\100_Projects_in_100_Days\Day049_BLE_Mesh_Flood\Mesh_Flood\Mesh_Flood_PSoC4BLE.cydsn/ble_process.c ****     			/* Extract temperature value and store it */
 398:..\..\..\PSoC-4-BLE-master\100_Projects_in_100_Days\Day049_BLE_Mesh_Flood\Mesh_Flood\Mesh_Flood_PSoC4BLE.cydsn/ble_process.c ****                 TemperatureStorage.handleValPair.value.val[1] = GetTemperature(flag_Timer) - 0.12;
 399:..\..\..\PSoC-4-BLE-master\100_Projects_in_100_Days\Day049_BLE_Mesh_Flood\Mesh_Flood\Mesh_Flood_PSoC4BLE.cydsn/ble_process.c ****                 
 400:..\..\..\PSoC-4-BLE-master\100_Projects_in_100_Days\Day049_BLE_Mesh_Flood\Mesh_Flood\Mesh_Flood_PSoC4BLE.cydsn/ble_process.c ****                 #ifdef TEMPERATURE_OUTPUT_ENABLED
 401:..\..\..\PSoC-4-BLE-master\100_Projects_in_100_Days\Day049_BLE_Mesh_Flood\Mesh_Flood\Mesh_Flood_PSoC4BLE.cydsn/ble_process.c ****                     SendTemperarureToUart(TemperatureStorage.handleValPair.value.val[deviceIndex]);
 402:..\..\..\PSoC-4-BLE-master\100_Projects_in_100_Days\Day049_BLE_Mesh_Flood\Mesh_Flood\Mesh_Flood_PSoC4BLE.cydsn/ble_process.c ****                 #endif
 403:..\..\..\PSoC-4-BLE-master\100_Projects_in_100_Days\Day049_BLE_Mesh_Flood\Mesh_Flood\Mesh_Flood_PSoC4BLE.cydsn/ble_process.c ****         		
 404:..\..\..\PSoC-4-BLE-master\100_Projects_in_100_Days\Day049_BLE_Mesh_Flood\Mesh_Flood\Mesh_Flood_PSoC4BLE.cydsn/ble_process.c ****         		#ifdef DEBUG_ENABLED
 405:..\..\..\PSoC-4-BLE-master\100_Projects_in_100_Days\Day049_BLE_Mesh_Flood\Mesh_Flood\Mesh_Flood_PSoC4BLE.cydsn/ble_process.c ****         			UART_UartPutString("Directly write RGB using Attr handle ");
 406:..\..\..\PSoC-4-BLE-master\100_Projects_in_100_Days\Day049_BLE_Mesh_Flood\Mesh_Flood\Mesh_Flood_PSoC4BLE.cydsn/ble_process.c ****         			SendBLEStatetoUART(CyBle_GetState());
 407:..\..\..\PSoC-4-BLE-master\100_Projects_in_100_Days\Day049_BLE_Mesh_Flood\Mesh_Flood\Mesh_Flood_PSoC4BLE.cydsn/ble_process.c ****         			UART_UartPutCRLF(' ');
 408:..\..\..\PSoC-4-BLE-master\100_Projects_in_100_Days\Day049_BLE_Mesh_Flood\Mesh_Flood\Mesh_Flood_PSoC4BLE.cydsn/ble_process.c ****         		#endif
 409:..\..\..\PSoC-4-BLE-master\100_Projects_in_100_Days\Day049_BLE_Mesh_Flood\Mesh_Flood\Mesh_Flood_PSoC4BLE.cydsn/ble_process.c ****         		
 410:..\..\..\PSoC-4-BLE-master\100_Projects_in_100_Days\Day049_BLE_Mesh_Flood\Mesh_Flood\Mesh_Flood_PSoC4BLE.cydsn/ble_process.c ****         		/* Write the Data Counter value */
 411:..\..\..\PSoC-4-BLE-master\100_Projects_in_100_Days\Day049_BLE_Mesh_Flood\Mesh_Flood\Mesh_Flood_PSoC4BLE.cydsn/ble_process.c ****         		//writeADVcounterdata.attrHandle = CYBLE_RGB_DATA_COUNT_CHAR_HANDLE;
 412:..\..\..\PSoC-4-BLE-master\100_Projects_in_100_Days\Day049_BLE_Mesh_Flood\Mesh_Flood\Mesh_Flood_PSoC4BLE.cydsn/ble_process.c ****         		writeADVcounterdata.value.val = &dataADVCounter;
ARM GAS  C:\Users\User\AppData\Local\Temp\cc96DgHN.s 			page 12


 413:..\..\..\PSoC-4-BLE-master\100_Projects_in_100_Days\Day049_BLE_Mesh_Flood\Mesh_Flood\Mesh_Flood_PSoC4BLE.cydsn/ble_process.c ****         		writeADVcounterdata.value.len = 1;
 414:..\..\..\PSoC-4-BLE-master\100_Projects_in_100_Days\Day049_BLE_Mesh_Flood\Mesh_Flood\Mesh_Flood_PSoC4BLE.cydsn/ble_process.c ****         		CyBle_GattcWriteWithoutResponse(cyBle_connHandle, &writeADVcounterdata);
 415:..\..\..\PSoC-4-BLE-master\100_Projects_in_100_Days\Day049_BLE_Mesh_Flood\Mesh_Flood\Mesh_Flood_PSoC4BLE.cydsn/ble_process.c ****         	
 416:..\..\..\PSoC-4-BLE-master\100_Projects_in_100_Days\Day049_BLE_Mesh_Flood\Mesh_Flood\Mesh_Flood_PSoC4BLE.cydsn/ble_process.c ****         		/* Write the RGB LED Value */
 417:..\..\..\PSoC-4-BLE-master\100_Projects_in_100_Days\Day049_BLE_Mesh_Flood\Mesh_Flood\Mesh_Flood_PSoC4BLE.cydsn/ble_process.c ****         		writeRGBdata.attrHandle = writeReqData.handleValPair.attrHandle;
 418:..\..\..\PSoC-4-BLE-master\100_Projects_in_100_Days\Day049_BLE_Mesh_Flood\Mesh_Flood\Mesh_Flood_PSoC4BLE.cydsn/ble_process.c ****         		writeRGBdata.value.val = TemperatureStorage.handleValPair.value.val;
 419:..\..\..\PSoC-4-BLE-master\100_Projects_in_100_Days\Day049_BLE_Mesh_Flood\Mesh_Flood\Mesh_Flood_PSoC4BLE.cydsn/ble_process.c ****         		writeRGBdata.value.len = 4;
 420:..\..\..\PSoC-4-BLE-master\100_Projects_in_100_Days\Day049_BLE_Mesh_Flood\Mesh_Flood\Mesh_Flood_PSoC4BLE.cydsn/ble_process.c ****         		CyBle_GattcWriteCharacteristicValue(cyBle_connHandle, &writeRGBdata);
 421:..\..\..\PSoC-4-BLE-master\100_Projects_in_100_Days\Day049_BLE_Mesh_Flood\Mesh_Flood\Mesh_Flood_PSoC4BLE.cydsn/ble_process.c ****                 GREEN_LED_Pin_Write(0);
 422:..\..\..\PSoC-4-BLE-master\100_Projects_in_100_Days\Day049_BLE_Mesh_Flood\Mesh_Flood\Mesh_Flood_PSoC4BLE.cydsn/ble_process.c ****                 
 423:..\..\..\PSoC-4-BLE-master\100_Projects_in_100_Days\Day049_BLE_Mesh_Flood\Mesh_Flood\Mesh_Flood_PSoC4BLE.cydsn/ble_process.c ****                 #ifdef TEMPERATURE_OUTPUT_ENABLED
 424:..\..\..\PSoC-4-BLE-master\100_Projects_in_100_Days\Day049_BLE_Mesh_Flood\Mesh_Flood\Mesh_Flood_PSoC4BLE.cydsn/ble_process.c ****                 UART_UartPutString("*** Data is WRITTEN");
 425:..\..\..\PSoC-4-BLE-master\100_Projects_in_100_Days\Day049_BLE_Mesh_Flood\Mesh_Flood\Mesh_Flood_PSoC4BLE.cydsn/ble_process.c ****     			UART_UartPutCRLF(' ');
 426:..\..\..\PSoC-4-BLE-master\100_Projects_in_100_Days\Day049_BLE_Mesh_Flood\Mesh_Flood\Mesh_Flood_PSoC4BLE.cydsn/ble_process.c ****                 
 427:..\..\..\PSoC-4-BLE-master\100_Projects_in_100_Days\Day049_BLE_Mesh_Flood\Mesh_Flood\Mesh_Flood_PSoC4BLE.cydsn/ble_process.c ****                 SendTempArrayToUart(TemperatureStorage.handleValPair.value.val);
 428:..\..\..\PSoC-4-BLE-master\100_Projects_in_100_Days\Day049_BLE_Mesh_Flood\Mesh_Flood\Mesh_Flood_PSoC4BLE.cydsn/ble_process.c ****                 
 429:..\..\..\PSoC-4-BLE-master\100_Projects_in_100_Days\Day049_BLE_Mesh_Flood\Mesh_Flood\Mesh_Flood_PSoC4BLE.cydsn/ble_process.c ****                 #endif
 430:..\..\..\PSoC-4-BLE-master\100_Projects_in_100_Days\Day049_BLE_Mesh_Flood\Mesh_Flood\Mesh_Flood_PSoC4BLE.cydsn/ble_process.c **** 				
 431:..\..\..\PSoC-4-BLE-master\100_Projects_in_100_Days\Day049_BLE_Mesh_Flood\Mesh_Flood\Mesh_Flood_PSoC4BLE.cydsn/ble_process.c **** 			}	
 432:..\..\..\PSoC-4-BLE-master\100_Projects_in_100_Days\Day049_BLE_Mesh_Flood\Mesh_Flood\Mesh_Flood_PSoC4BLE.cydsn/ble_process.c ****         break;
 433:..\..\..\PSoC-4-BLE-master\100_Projects_in_100_Days\Day049_BLE_Mesh_Flood\Mesh_Flood\Mesh_Flood_PSoC4BLE.cydsn/ble_process.c **** 			
 434:..\..\..\PSoC-4-BLE-master\100_Projects_in_100_Days\Day049_BLE_Mesh_Flood\Mesh_Flood\Mesh_Flood_PSoC4BLE.cydsn/ble_process.c **** 		case CYBLE_EVT_GATTC_DISCOVERY_COMPLETE:
 435:..\..\..\PSoC-4-BLE-master\100_Projects_in_100_Days\Day049_BLE_Mesh_Flood\Mesh_Flood\Mesh_Flood_PSoC4BLE.cydsn/ble_process.c **** 			/* This event is generated whenever the discovery procedure is complete*/
 436:..\..\..\PSoC-4-BLE-master\100_Projects_in_100_Days\Day049_BLE_Mesh_Flood\Mesh_Flood\Mesh_Flood_PSoC4BLE.cydsn/ble_process.c **** 		break;
 437:..\..\..\PSoC-4-BLE-master\100_Projects_in_100_Days\Day049_BLE_Mesh_Flood\Mesh_Flood\Mesh_Flood_PSoC4BLE.cydsn/ble_process.c **** 			
 438:..\..\..\PSoC-4-BLE-master\100_Projects_in_100_Days\Day049_BLE_Mesh_Flood\Mesh_Flood\Mesh_Flood_PSoC4BLE.cydsn/ble_process.c **** 		case CYBLE_EVT_GATTC_WRITE_RSP:
 439:..\..\..\PSoC-4-BLE-master\100_Projects_in_100_Days\Day049_BLE_Mesh_Flood\Mesh_Flood\Mesh_Flood_PSoC4BLE.cydsn/ble_process.c ****             {
 440:..\..\..\PSoC-4-BLE-master\100_Projects_in_100_Days\Day049_BLE_Mesh_Flood\Mesh_Flood\Mesh_Flood_PSoC4BLE.cydsn/ble_process.c **** 			/* This event is generated when the Client device receives a response
 441:..\..\..\PSoC-4-BLE-master\100_Projects_in_100_Days\Day049_BLE_Mesh_Flood\Mesh_Flood\Mesh_Flood_PSoC4BLE.cydsn/ble_process.c **** 			* as part of the Write request sent earlier. This indicates that
 442:..\..\..\PSoC-4-BLE-master\100_Projects_in_100_Days\Day049_BLE_Mesh_Flood\Mesh_Flood\Mesh_Flood_PSoC4BLE.cydsn/ble_process.c **** 			* the RGB LED data was written successfully */
 443:..\..\..\PSoC-4-BLE-master\100_Projects_in_100_Days\Day049_BLE_Mesh_Flood\Mesh_Flood\Mesh_Flood_PSoC4BLE.cydsn/ble_process.c **** 			#ifdef DEBUG_ENABLED
 444:..\..\..\PSoC-4-BLE-master\100_Projects_in_100_Days\Day049_BLE_Mesh_Flood\Mesh_Flood\Mesh_Flood_PSoC4BLE.cydsn/ble_process.c **** 				UART_UartPutString("CYBLE_EVT_GATTC_WRITE_RSP ");
 445:..\..\..\PSoC-4-BLE-master\100_Projects_in_100_Days\Day049_BLE_Mesh_Flood\Mesh_Flood\Mesh_Flood_PSoC4BLE.cydsn/ble_process.c **** 				SendBLEStatetoUART(CyBle_GetState());
 446:..\..\..\PSoC-4-BLE-master\100_Projects_in_100_Days\Day049_BLE_Mesh_Flood\Mesh_Flood\Mesh_Flood_PSoC4BLE.cydsn/ble_process.c **** 				UART_UartPutCRLF(' ');
 447:..\..\..\PSoC-4-BLE-master\100_Projects_in_100_Days\Day049_BLE_Mesh_Flood\Mesh_Flood\Mesh_Flood_PSoC4BLE.cydsn/ble_process.c **** 			#endif
 448:..\..\..\PSoC-4-BLE-master\100_Projects_in_100_Days\Day049_BLE_Mesh_Flood\Mesh_Flood\Mesh_Flood_PSoC4BLE.cydsn/ble_process.c **** 			
 449:..\..\..\PSoC-4-BLE-master\100_Projects_in_100_Days\Day049_BLE_Mesh_Flood\Mesh_Flood\Mesh_Flood_PSoC4BLE.cydsn/ble_process.c **** 			/* Disconnect the existing connection and restart scanning */
 450:..\..\..\PSoC-4-BLE-master\100_Projects_in_100_Days\Day049_BLE_Mesh_Flood\Mesh_Flood\Mesh_Flood_PSoC4BLE.cydsn/ble_process.c **** 			if((cyBle_connHandle.bdHandle != 0))
 451:..\..\..\PSoC-4-BLE-master\100_Projects_in_100_Days\Day049_BLE_Mesh_Flood\Mesh_Flood\Mesh_Flood_PSoC4BLE.cydsn/ble_process.c **** 			{
 452:..\..\..\PSoC-4-BLE-master\100_Projects_in_100_Days\Day049_BLE_Mesh_Flood\Mesh_Flood\Mesh_Flood_PSoC4BLE.cydsn/ble_process.c **** 				CyBle_GapDisconnect(cyBle_connHandle.bdHandle);
 453:..\..\..\PSoC-4-BLE-master\100_Projects_in_100_Days\Day049_BLE_Mesh_Flood\Mesh_Flood\Mesh_Flood_PSoC4BLE.cydsn/ble_process.c **** 				
 454:..\..\..\PSoC-4-BLE-master\100_Projects_in_100_Days\Day049_BLE_Mesh_Flood\Mesh_Flood\Mesh_Flood_PSoC4BLE.cydsn/ble_process.c **** 				restartScanning = TRUE;
 455:..\..\..\PSoC-4-BLE-master\100_Projects_in_100_Days\Day049_BLE_Mesh_Flood\Mesh_Flood\Mesh_Flood_PSoC4BLE.cydsn/ble_process.c **** 				#ifdef DEBUG_ENABLED
 456:..\..\..\PSoC-4-BLE-master\100_Projects_in_100_Days\Day049_BLE_Mesh_Flood\Mesh_Flood\Mesh_Flood_PSoC4BLE.cydsn/ble_process.c **** 				UART_UartPutString("Disconnect from CYBLE_EVT_GATTC_WRITE_RSP ");
 457:..\..\..\PSoC-4-BLE-master\100_Projects_in_100_Days\Day049_BLE_Mesh_Flood\Mesh_Flood\Mesh_Flood_PSoC4BLE.cydsn/ble_process.c **** 				SendBLEStatetoUART(CyBle_GetState());
 458:..\..\..\PSoC-4-BLE-master\100_Projects_in_100_Days\Day049_BLE_Mesh_Flood\Mesh_Flood\Mesh_Flood_PSoC4BLE.cydsn/ble_process.c **** 				UART_UartPutCRLF(' ');
 459:..\..\..\PSoC-4-BLE-master\100_Projects_in_100_Days\Day049_BLE_Mesh_Flood\Mesh_Flood\Mesh_Flood_PSoC4BLE.cydsn/ble_process.c **** 				#endif
 460:..\..\..\PSoC-4-BLE-master\100_Projects_in_100_Days\Day049_BLE_Mesh_Flood\Mesh_Flood\Mesh_Flood_PSoC4BLE.cydsn/ble_process.c **** 			}
 461:..\..\..\PSoC-4-BLE-master\100_Projects_in_100_Days\Day049_BLE_Mesh_Flood\Mesh_Flood\Mesh_Flood_PSoC4BLE.cydsn/ble_process.c ****             }
 462:..\..\..\PSoC-4-BLE-master\100_Projects_in_100_Days\Day049_BLE_Mesh_Flood\Mesh_Flood\Mesh_Flood_PSoC4BLE.cydsn/ble_process.c **** 		break;
 463:..\..\..\PSoC-4-BLE-master\100_Projects_in_100_Days\Day049_BLE_Mesh_Flood\Mesh_Flood\Mesh_Flood_PSoC4BLE.cydsn/ble_process.c **** 
 464:..\..\..\PSoC-4-BLE-master\100_Projects_in_100_Days\Day049_BLE_Mesh_Flood\Mesh_Flood\Mesh_Flood_PSoC4BLE.cydsn/ble_process.c **** 		case CYBLE_EVT_GAP_DEVICE_DISCONNECTED:
 465:..\..\..\PSoC-4-BLE-master\100_Projects_in_100_Days\Day049_BLE_Mesh_Flood\Mesh_Flood\Mesh_Flood_PSoC4BLE.cydsn/ble_process.c ****             {
 466:..\..\..\PSoC-4-BLE-master\100_Projects_in_100_Days\Day049_BLE_Mesh_Flood\Mesh_Flood\Mesh_Flood_PSoC4BLE.cydsn/ble_process.c **** 			/* This event is generated when the device disconnects from an 
 467:..\..\..\PSoC-4-BLE-master\100_Projects_in_100_Days\Day049_BLE_Mesh_Flood\Mesh_Flood\Mesh_Flood_PSoC4BLE.cydsn/ble_process.c **** 			* existing connection */
 468:..\..\..\PSoC-4-BLE-master\100_Projects_in_100_Days\Day049_BLE_Mesh_Flood\Mesh_Flood\Mesh_Flood_PSoC4BLE.cydsn/ble_process.c **** 			deviceConnected = FALSE;
 469:..\..\..\PSoC-4-BLE-master\100_Projects_in_100_Days\Day049_BLE_Mesh_Flood\Mesh_Flood\Mesh_Flood_PSoC4BLE.cydsn/ble_process.c **** 			
ARM GAS  C:\Users\User\AppData\Local\Temp\cc96DgHN.s 			page 13


 470:..\..\..\PSoC-4-BLE-master\100_Projects_in_100_Days\Day049_BLE_Mesh_Flood\Mesh_Flood\Mesh_Flood_PSoC4BLE.cydsn/ble_process.c **** 			#ifdef DEBUG_ENABLED
 471:..\..\..\PSoC-4-BLE-master\100_Projects_in_100_Days\Day049_BLE_Mesh_Flood\Mesh_Flood\Mesh_Flood_PSoC4BLE.cydsn/ble_process.c **** 				UART_UartPutString("CYBLE_EVT_GAP_DEVICE_DISCONNECTED ");
 472:..\..\..\PSoC-4-BLE-master\100_Projects_in_100_Days\Day049_BLE_Mesh_Flood\Mesh_Flood\Mesh_Flood_PSoC4BLE.cydsn/ble_process.c **** 				SendBLEStatetoUART(CyBle_GetState());
 473:..\..\..\PSoC-4-BLE-master\100_Projects_in_100_Days\Day049_BLE_Mesh_Flood\Mesh_Flood\Mesh_Flood_PSoC4BLE.cydsn/ble_process.c **** 				UART_UartPutCRLF(' ');
 474:..\..\..\PSoC-4-BLE-master\100_Projects_in_100_Days\Day049_BLE_Mesh_Flood\Mesh_Flood\Mesh_Flood_PSoC4BLE.cydsn/ble_process.c **** 			#endif
 475:..\..\..\PSoC-4-BLE-master\100_Projects_in_100_Days\Day049_BLE_Mesh_Flood\Mesh_Flood\Mesh_Flood_PSoC4BLE.cydsn/ble_process.c **** 			
 476:..\..\..\PSoC-4-BLE-master\100_Projects_in_100_Days\Day049_BLE_Mesh_Flood\Mesh_Flood\Mesh_Flood_PSoC4BLE.cydsn/ble_process.c **** 			if((ble_gap_state == BLE_PERIPHERAL) && (switch_Role != TRUE))
 477:..\..\..\PSoC-4-BLE-master\100_Projects_in_100_Days\Day049_BLE_Mesh_Flood\Mesh_Flood\Mesh_Flood_PSoC4BLE.cydsn/ble_process.c **** 			{
 478:..\..\..\PSoC-4-BLE-master\100_Projects_in_100_Days\Day049_BLE_Mesh_Flood\Mesh_Flood\Mesh_Flood_PSoC4BLE.cydsn/ble_process.c **** 				/* If the current role of this system was Peripheral and the role
 479:..\..\..\PSoC-4-BLE-master\100_Projects_in_100_Days\Day049_BLE_Mesh_Flood\Mesh_Flood\Mesh_Flood_PSoC4BLE.cydsn/ble_process.c **** 				* is not to be switched, then restart advertisement */
 480:..\..\..\PSoC-4-BLE-master\100_Projects_in_100_Days\Day049_BLE_Mesh_Flood\Mesh_Flood\Mesh_Flood_PSoC4BLE.cydsn/ble_process.c **** 				if(CYBLE_STATE_DISCONNECTED == CyBle_GetState())
 481:..\..\..\PSoC-4-BLE-master\100_Projects_in_100_Days\Day049_BLE_Mesh_Flood\Mesh_Flood\Mesh_Flood_PSoC4BLE.cydsn/ble_process.c **** 				{
 482:..\..\..\PSoC-4-BLE-master\100_Projects_in_100_Days\Day049_BLE_Mesh_Flood\Mesh_Flood\Mesh_Flood_PSoC4BLE.cydsn/ble_process.c **** 					CyBle_GappStartAdvertisement(CYBLE_ADVERTISING_FAST);	
 483:..\..\..\PSoC-4-BLE-master\100_Projects_in_100_Days\Day049_BLE_Mesh_Flood\Mesh_Flood\Mesh_Flood_PSoC4BLE.cydsn/ble_process.c **** 					#ifdef DEBUG_ENABLED
 484:..\..\..\PSoC-4-BLE-master\100_Projects_in_100_Days\Day049_BLE_Mesh_Flood\Mesh_Flood\Mesh_Flood_PSoC4BLE.cydsn/ble_process.c **** 					UART_UartPutString("Restart Advertisement ");
 485:..\..\..\PSoC-4-BLE-master\100_Projects_in_100_Days\Day049_BLE_Mesh_Flood\Mesh_Flood\Mesh_Flood_PSoC4BLE.cydsn/ble_process.c **** 					SendBLEStatetoUART(CyBle_GetState());
 486:..\..\..\PSoC-4-BLE-master\100_Projects_in_100_Days\Day049_BLE_Mesh_Flood\Mesh_Flood\Mesh_Flood_PSoC4BLE.cydsn/ble_process.c **** 					UART_UartPutCRLF(' ');
 487:..\..\..\PSoC-4-BLE-master\100_Projects_in_100_Days\Day049_BLE_Mesh_Flood\Mesh_Flood\Mesh_Flood_PSoC4BLE.cydsn/ble_process.c **** 					#endif
 488:..\..\..\PSoC-4-BLE-master\100_Projects_in_100_Days\Day049_BLE_Mesh_Flood\Mesh_Flood\Mesh_Flood_PSoC4BLE.cydsn/ble_process.c **** 				}
 489:..\..\..\PSoC-4-BLE-master\100_Projects_in_100_Days\Day049_BLE_Mesh_Flood\Mesh_Flood\Mesh_Flood_PSoC4BLE.cydsn/ble_process.c **** 			}
 490:..\..\..\PSoC-4-BLE-master\100_Projects_in_100_Days\Day049_BLE_Mesh_Flood\Mesh_Flood\Mesh_Flood_PSoC4BLE.cydsn/ble_process.c **** 			else if((ble_gap_state == BLE_CENTRAL) && (switch_Role != TRUE))
 491:..\..\..\PSoC-4-BLE-master\100_Projects_in_100_Days\Day049_BLE_Mesh_Flood\Mesh_Flood\Mesh_Flood_PSoC4BLE.cydsn/ble_process.c **** 			{
 492:..\..\..\PSoC-4-BLE-master\100_Projects_in_100_Days\Day049_BLE_Mesh_Flood\Mesh_Flood\Mesh_Flood_PSoC4BLE.cydsn/ble_process.c **** 				/* If the current role of this system was Central and the role
 493:..\..\..\PSoC-4-BLE-master\100_Projects_in_100_Days\Day049_BLE_Mesh_Flood\Mesh_Flood\Mesh_Flood_PSoC4BLE.cydsn/ble_process.c **** 				* is not to be switched, then restart scanning */
 494:..\..\..\PSoC-4-BLE-master\100_Projects_in_100_Days\Day049_BLE_Mesh_Flood\Mesh_Flood\Mesh_Flood_PSoC4BLE.cydsn/ble_process.c **** 				if(CYBLE_STATE_DISCONNECTED == CyBle_GetState())
 495:..\..\..\PSoC-4-BLE-master\100_Projects_in_100_Days\Day049_BLE_Mesh_Flood\Mesh_Flood\Mesh_Flood_PSoC4BLE.cydsn/ble_process.c **** 				{
 496:..\..\..\PSoC-4-BLE-master\100_Projects_in_100_Days\Day049_BLE_Mesh_Flood\Mesh_Flood\Mesh_Flood_PSoC4BLE.cydsn/ble_process.c **** 					CyBle_GapcStartScan(CYBLE_SCANNING_FAST);	
 497:..\..\..\PSoC-4-BLE-master\100_Projects_in_100_Days\Day049_BLE_Mesh_Flood\Mesh_Flood\Mesh_Flood_PSoC4BLE.cydsn/ble_process.c **** 					#ifdef DEBUG_ENABLED
 498:..\..\..\PSoC-4-BLE-master\100_Projects_in_100_Days\Day049_BLE_Mesh_Flood\Mesh_Flood\Mesh_Flood_PSoC4BLE.cydsn/ble_process.c **** 					UART_UartPutString("Restart Scanning ");
 499:..\..\..\PSoC-4-BLE-master\100_Projects_in_100_Days\Day049_BLE_Mesh_Flood\Mesh_Flood\Mesh_Flood_PSoC4BLE.cydsn/ble_process.c **** 					SendBLEStatetoUART(CyBle_GetState());
 500:..\..\..\PSoC-4-BLE-master\100_Projects_in_100_Days\Day049_BLE_Mesh_Flood\Mesh_Flood\Mesh_Flood_PSoC4BLE.cydsn/ble_process.c **** 					UART_UartPutCRLF(' ');
 501:..\..\..\PSoC-4-BLE-master\100_Projects_in_100_Days\Day049_BLE_Mesh_Flood\Mesh_Flood\Mesh_Flood_PSoC4BLE.cydsn/ble_process.c **** 					#endif
 502:..\..\..\PSoC-4-BLE-master\100_Projects_in_100_Days\Day049_BLE_Mesh_Flood\Mesh_Flood\Mesh_Flood_PSoC4BLE.cydsn/ble_process.c **** 				}	
 503:..\..\..\PSoC-4-BLE-master\100_Projects_in_100_Days\Day049_BLE_Mesh_Flood\Mesh_Flood\Mesh_Flood_PSoC4BLE.cydsn/ble_process.c **** 			}
 504:..\..\..\PSoC-4-BLE-master\100_Projects_in_100_Days\Day049_BLE_Mesh_Flood\Mesh_Flood\Mesh_Flood_PSoC4BLE.cydsn/ble_process.c ****         }
 505:..\..\..\PSoC-4-BLE-master\100_Projects_in_100_Days\Day049_BLE_Mesh_Flood\Mesh_Flood\Mesh_Flood_PSoC4BLE.cydsn/ble_process.c **** 		break;
 506:..\..\..\PSoC-4-BLE-master\100_Projects_in_100_Days\Day049_BLE_Mesh_Flood\Mesh_Flood\Mesh_Flood_PSoC4BLE.cydsn/ble_process.c **** 			
 507:..\..\..\PSoC-4-BLE-master\100_Projects_in_100_Days\Day049_BLE_Mesh_Flood\Mesh_Flood\Mesh_Flood_PSoC4BLE.cydsn/ble_process.c **** 		default:
 508:..\..\..\PSoC-4-BLE-master\100_Projects_in_100_Days\Day049_BLE_Mesh_Flood\Mesh_Flood\Mesh_Flood_PSoC4BLE.cydsn/ble_process.c **** 			eventParam = eventParam;
 509:..\..\..\PSoC-4-BLE-master\100_Projects_in_100_Days\Day049_BLE_Mesh_Flood\Mesh_Flood\Mesh_Flood_PSoC4BLE.cydsn/ble_process.c **** 		break;
 176              		.loc 1 509 0
 177 0022 08E2     		b	.L18
 178              	.L6:
  68:..\..\..\PSoC-4-BLE-master\100_Projects_in_100_Days\Day049_BLE_Mesh_Flood\Mesh_Flood\Mesh_Flood_PSoC4BLE.cydsn/ble_process.c **** 	{
 179              		.loc 1 68 0
 180 0024 272B     		cmp	r3, #39
 181 0026 00D1     		bne	.LCB33
 182 0028 1FE1     		b	.L9	@long jump
 183              	.LCB33:
 184 002a 282B     		cmp	r3, #40
 185 002c 00D1     		bne	.LCB35
 186 002e A1E1     		b	.L10	@long jump
 187              	.LCB35:
 188              		.loc 1 509 0
 189 0030 01E2     		b	.L18
 190              	.L4:
  68:..\..\..\PSoC-4-BLE-master\100_Projects_in_100_Days\Day049_BLE_Mesh_Flood\Mesh_Flood\Mesh_Flood_PSoC4BLE.cydsn/ble_process.c **** 	{
ARM GAS  C:\Users\User\AppData\Local\Temp\cc96DgHN.s 			page 14


 191              		.loc 1 68 0
 192 0032 4C2B     		cmp	r3, #76
 193 0034 4ED0     		beq	.L11
 194 0036 04D8     		bhi	.L12
 195 0038 412B     		cmp	r3, #65
 196 003a 3BD0     		beq	.L13
 197 003c 422B     		cmp	r3, #66
 198 003e 41D0     		beq	.L14
 199              		.loc 1 509 0
 200 0040 F9E1     		b	.L18
 201              	.L12:
  68:..\..\..\PSoC-4-BLE-master\100_Projects_in_100_Days\Day049_BLE_Mesh_Flood\Mesh_Flood\Mesh_Flood_PSoC4BLE.cydsn/ble_process.c **** 	{
 202              		.loc 1 68 0
 203 0042 4E2B     		cmp	r3, #78
 204 0044 00D1     		bne	.LCB53
 205 0046 90E0     		b	.L15	@long jump
 206              	.LCB53:
 207 0048 00D2     		bcs	.LCB55
 208 004a 86E1     		b	.L16	@long jump
 209              	.LCB55:
 210 004c 8922     		movs	r2, #137
 211 004e 5200     		lsls	r2, r2, #1
 212 0050 9342     		cmp	r3, r2
 213 0052 00D1     		bne	.LCB59
 214 0054 B2E1     		b	.L27	@long jump
 215              	.LCB59:
 216              		.loc 1 509 0
 217 0056 EEE1     		b	.L18
 218              	.L7:
  77:..\..\..\PSoC-4-BLE-master\100_Projects_in_100_Days\Day049_BLE_Mesh_Flood\Mesh_Flood\Mesh_Flood_PSoC4BLE.cydsn/ble_process.c **** 		break;
 219              		.loc 1 77 0
 220 0058 0020     		movs	r0, #0
 221 005a FFF7FEFF 		bl	CyBle_GappStartAdvertisement
  78:..\..\..\PSoC-4-BLE-master\100_Projects_in_100_Days\Day049_BLE_Mesh_Flood\Mesh_Flood\Mesh_Flood_PSoC4BLE.cydsn/ble_process.c **** 			
 222              		.loc 1 78 0
 223 005e EAE1     		b	.L18
 224              	.L5:
  84:..\..\..\PSoC-4-BLE-master\100_Projects_in_100_Days\Day049_BLE_Mesh_Flood\Mesh_Flood\Mesh_Flood_PSoC4BLE.cydsn/ble_process.c **** 			UART_UartPutCRLF(' ');
 225              		.loc 1 84 0
 226 0060 DC4B     		ldr	r3, .L34
 227 0062 1800     		movs	r0, r3
 228 0064 FFF7FEFF 		bl	UART_UartPutString
  85:..\..\..\PSoC-4-BLE-master\100_Projects_in_100_Days\Day049_BLE_Mesh_Flood\Mesh_Flood\Mesh_Flood_PSoC4BLE.cydsn/ble_process.c ****             #endif
 229              		.loc 1 85 0
 230 0068 2020     		movs	r0, #32
 231 006a FFF7FEFF 		bl	UART_UartPutCRLF
  95:..\..\..\PSoC-4-BLE-master\100_Projects_in_100_Days\Day049_BLE_Mesh_Flood\Mesh_Flood\Mesh_Flood_PSoC4BLE.cydsn/ble_process.c **** 			{
 232              		.loc 1 95 0
 233 006e DA4B     		ldr	r3, .L34+4
 234 0070 1B78     		ldrb	r3, [r3]
 235 0072 062B     		cmp	r3, #6
 236 0074 00D0     		beq	.LCB78
 237 0076 A3E1     		b	.L28	@long jump
 238              	.LCB78:
  95:..\..\..\PSoC-4-BLE-master\100_Projects_in_100_Days\Day049_BLE_Mesh_Flood\Mesh_Flood\Mesh_Flood_PSoC4BLE.cydsn/ble_process.c **** 			{
 239              		.loc 1 95 0 is_stmt 0 discriminator 1
 240 0078 D84B     		ldr	r3, .L34+8
ARM GAS  C:\Users\User\AppData\Local\Temp\cc96DgHN.s 			page 15


 241 007a 1B78     		ldrb	r3, [r3]
 242 007c 002B     		cmp	r3, #0
 243 007e 00D0     		beq	.LCB82
 244 0080 9EE1     		b	.L28	@long jump
 245              	.LCB82:
 101:..\..\..\PSoC-4-BLE-master\100_Projects_in_100_Days\Day049_BLE_Mesh_Flood\Mesh_Flood\Mesh_Flood_PSoC4BLE.cydsn/ble_process.c **** 				
 246              		.loc 1 101 0 is_stmt 1
 247 0082 0020     		movs	r0, #0
 248 0084 FFF7FEFF 		bl	CyBle_GappStartAdvertisement
 103:..\..\..\PSoC-4-BLE-master\100_Projects_in_100_Days\Day049_BLE_Mesh_Flood\Mesh_Flood\Mesh_Flood_PSoC4BLE.cydsn/ble_process.c **** 				{
 249              		.loc 1 103 0
 250 0088 5623     		movs	r3, #86
 251 008a FB18     		adds	r3, r7, r3
 252 008c 1B88     		ldrh	r3, [r3]
 253 008e 002B     		cmp	r3, #0
 254 0090 00D0     		beq	.LCB89
 255 0092 95E1     		b	.L28	@long jump
 256              	.LCB89:
 106:..\..\..\PSoC-4-BLE-master\100_Projects_in_100_Days\Day049_BLE_Mesh_Flood\Mesh_Flood\Mesh_Flood_PSoC4BLE.cydsn/ble_process.c ****         			UART_UartPutCRLF(' ');
 257              		.loc 1 106 0
 258 0094 D24B     		ldr	r3, .L34+12
 259 0096 1800     		movs	r0, r3
 260 0098 FFF7FEFF 		bl	UART_UartPutString
 107:..\..\..\PSoC-4-BLE-master\100_Projects_in_100_Days\Day049_BLE_Mesh_Flood\Mesh_Flood\Mesh_Flood_PSoC4BLE.cydsn/ble_process.c ****                     #endif
 261              		.loc 1 107 0
 262 009c 2020     		movs	r0, #32
 263 009e FFF7FEFF 		bl	UART_UartPutCRLF
 117:..\..\..\PSoC-4-BLE-master\100_Projects_in_100_Days\Day049_BLE_Mesh_Flood\Mesh_Flood\Mesh_Flood_PSoC4BLE.cydsn/ble_process.c **** 			
 264              		.loc 1 117 0
 265 00a2 8DE1     		b	.L28
 266              	.L3:
 122:..\..\..\PSoC-4-BLE-master\100_Projects_in_100_Days\Day049_BLE_Mesh_Flood\Mesh_Flood\Mesh_Flood_PSoC4BLE.cydsn/ble_process.c **** 			UART_UartPutCRLF(' ');
 267              		.loc 1 122 0
 268 00a4 CF4B     		ldr	r3, .L34+16
 269 00a6 1800     		movs	r0, r3
 270 00a8 FFF7FEFF 		bl	UART_UartPutString
 123:..\..\..\PSoC-4-BLE-master\100_Projects_in_100_Days\Day049_BLE_Mesh_Flood\Mesh_Flood\Mesh_Flood_PSoC4BLE.cydsn/ble_process.c ****             #endif
 271              		.loc 1 123 0
 272 00ac 2020     		movs	r0, #32
 273 00ae FFF7FEFF 		bl	UART_UartPutCRLF
 132:..\..\..\PSoC-4-BLE-master\100_Projects_in_100_Days\Day049_BLE_Mesh_Flood\Mesh_Flood\Mesh_Flood_PSoC4BLE.cydsn/ble_process.c **** 			
 274              		.loc 1 132 0
 275 00b2 C0E1     		b	.L18
 276              	.L13:
 138:..\..\..\PSoC-4-BLE-master\100_Projects_in_100_Days\Day049_BLE_Mesh_Flood\Mesh_Flood\Mesh_Flood_PSoC4BLE.cydsn/ble_process.c **** 			UART_UartPutCRLF(' ');
 277              		.loc 1 138 0
 278 00b4 CC4B     		ldr	r3, .L34+20
 279 00b6 1800     		movs	r0, r3
 280 00b8 FFF7FEFF 		bl	UART_UartPutString
 139:..\..\..\PSoC-4-BLE-master\100_Projects_in_100_Days\Day049_BLE_Mesh_Flood\Mesh_Flood\Mesh_Flood_PSoC4BLE.cydsn/ble_process.c ****             #endif
 281              		.loc 1 139 0
 282 00bc 2020     		movs	r0, #32
 283 00be FFF7FEFF 		bl	UART_UartPutCRLF
 146:..\..\..\PSoC-4-BLE-master\100_Projects_in_100_Days\Day049_BLE_Mesh_Flood\Mesh_Flood\Mesh_Flood_PSoC4BLE.cydsn/ble_process.c **** 		
 284              		.loc 1 146 0
 285 00c2 B8E1     		b	.L18
 286              	.L14:
ARM GAS  C:\Users\User\AppData\Local\Temp\cc96DgHN.s 			page 16


 152:..\..\..\PSoC-4-BLE-master\100_Projects_in_100_Days\Day049_BLE_Mesh_Flood\Mesh_Flood\Mesh_Flood_PSoC4BLE.cydsn/ble_process.c **** 			UART_UartPutCRLF(' ');
 287              		.loc 1 152 0
 288 00c4 C94B     		ldr	r3, .L34+24
 289 00c6 1800     		movs	r0, r3
 290 00c8 FFF7FEFF 		bl	UART_UartPutString
 153:..\..\..\PSoC-4-BLE-master\100_Projects_in_100_Days\Day049_BLE_Mesh_Flood\Mesh_Flood\Mesh_Flood_PSoC4BLE.cydsn/ble_process.c ****             #endif
 291              		.loc 1 153 0
 292 00cc 2020     		movs	r0, #32
 293 00ce FFF7FEFF 		bl	UART_UartPutCRLF
 160:..\..\..\PSoC-4-BLE-master\100_Projects_in_100_Days\Day049_BLE_Mesh_Flood\Mesh_Flood\Mesh_Flood_PSoC4BLE.cydsn/ble_process.c **** 			
 294              		.loc 1 160 0
 295 00d2 B0E1     		b	.L18
 296              	.L11:
 167:..\..\..\PSoC-4-BLE-master\100_Projects_in_100_Days\Day049_BLE_Mesh_Flood\Mesh_Flood\Mesh_Flood_PSoC4BLE.cydsn/ble_process.c ****             
 297              		.loc 1 167 0
 298 00d4 4423     		movs	r3, #68
 299 00d6 FB18     		adds	r3, r7, r3
 300 00d8 3A68     		ldr	r2, [r7]
 301 00da 13CA     		ldmia	r2!, {r0, r1, r4}
 302 00dc 13C3     		stmia	r3!, {r0, r1, r4}
 303 00de 1268     		ldr	r2, [r2]
 304 00e0 1A60     		str	r2, [r3]
 170:..\..\..\PSoC-4-BLE-master\100_Projects_in_100_Days\Day049_BLE_Mesh_Flood\Mesh_Flood\Mesh_Flood_PSoC4BLE.cydsn/ble_process.c **** 			UART_UartPutCRLF(' ');
 305              		.loc 1 170 0
 306 00e2 C34B     		ldr	r3, .L34+28
 307 00e4 1800     		movs	r0, r3
 308 00e6 FFF7FEFF 		bl	UART_UartPutString
 171:..\..\..\PSoC-4-BLE-master\100_Projects_in_100_Days\Day049_BLE_Mesh_Flood\Mesh_Flood\Mesh_Flood_PSoC4BLE.cydsn/ble_process.c ****             #endif
 309              		.loc 1 171 0
 310 00ea 2020     		movs	r0, #32
 311 00ec FFF7FEFF 		bl	UART_UartPutCRLF
 180:..\..\..\PSoC-4-BLE-master\100_Projects_in_100_Days\Day049_BLE_Mesh_Flood\Mesh_Flood\Mesh_Flood_PSoC4BLE.cydsn/ble_process.c ****             GREEN_LED_Pin_Write(0);
 312              		.loc 1 180 0
 313 00f0 C04B     		ldr	r3, .L34+32
 314 00f2 5A68     		ldr	r2, [r3, #4]
 315 00f4 0023     		movs	r3, #0
 316 00f6 9B00     		lsls	r3, r3, #2
 317 00f8 D418     		adds	r4, r2, r3
 318 00fa BF4B     		ldr	r3, .L34+36
 319 00fc 1B78     		ldrb	r3, [r3]
 320 00fe DBB2     		uxtb	r3, r3
 321 0100 1800     		movs	r0, r3
 322 0102 FFF7FEFF 		bl	GetTemperature
 323 0106 031C     		adds	r3, r0, #0
 324 0108 2360     		str	r3, [r4]
 181:..\..\..\PSoC-4-BLE-master\100_Projects_in_100_Days\Day049_BLE_Mesh_Flood\Mesh_Flood\Mesh_Flood_PSoC4BLE.cydsn/ble_process.c ****             
 325              		.loc 1 181 0
 326 010a 0020     		movs	r0, #0
 327 010c FFF7FEFF 		bl	GREEN_LED_Pin_Write
 184:..\..\..\PSoC-4-BLE-master\100_Projects_in_100_Days\Day049_BLE_Mesh_Flood\Mesh_Flood\Mesh_Flood_PSoC4BLE.cydsn/ble_process.c ****             #endif
 328              		.loc 1 184 0
 329 0110 B84B     		ldr	r3, .L34+32
 330 0112 5A68     		ldr	r2, [r3, #4]
 331 0114 0023     		movs	r3, #0
 332 0116 9B00     		lsls	r3, r3, #2
 333 0118 D318     		adds	r3, r2, r3
 334 011a 1B68     		ldr	r3, [r3]
ARM GAS  C:\Users\User\AppData\Local\Temp\cc96DgHN.s 			page 17


 335 011c 181C     		adds	r0, r3, #0
 336 011e FFF7FEFF 		bl	SendTemperarureToUart
 189:..\..\..\PSoC-4-BLE-master\100_Projects_in_100_Days\Day049_BLE_Mesh_Flood\Mesh_Flood\Mesh_Flood_PSoC4BLE.cydsn/ble_process.c ****             
 337              		.loc 1 189 0
 338 0122 B64A     		ldr	r2, .L34+40
 339 0124 B648     		ldr	r0, .L34+44
 340 0126 0023     		movs	r3, #0
 341 0128 0021     		movs	r1, #0
 342 012a FFF7FEFF 		bl	CyBle_GattsWriteAttributeValue
 191:..\..\..\PSoC-4-BLE-master\100_Projects_in_100_Days\Day049_BLE_Mesh_Flood\Mesh_Flood\Mesh_Flood_PSoC4BLE.cydsn/ble_process.c **** 					
 343              		.loc 1 191 0
 344 012e B14B     		ldr	r3, .L34+32
 345 0130 5B68     		ldr	r3, [r3, #4]
 346 0132 1800     		movs	r0, r3
 347 0134 FFF7FEFF 		bl	SendTempArrayToUart
 207:..\..\..\PSoC-4-BLE-master\100_Projects_in_100_Days\Day049_BLE_Mesh_Flood\Mesh_Flood\Mesh_Flood_PSoC4BLE.cydsn/ble_process.c ****             
 348              		.loc 1 207 0
 349 0138 A84B     		ldr	r3, .L34+8
 350 013a 0122     		movs	r2, #1
 351 013c 1A70     		strb	r2, [r3]
 210:..\..\..\PSoC-4-BLE-master\100_Projects_in_100_Days\Day049_BLE_Mesh_Flood\Mesh_Flood\Mesh_Flood_PSoC4BLE.cydsn/ble_process.c **** 			UART_UartPutCRLF(' ');
 352              		.loc 1 210 0
 353 013e B14B     		ldr	r3, .L34+48
 354 0140 1800     		movs	r0, r3
 355 0142 FFF7FEFF 		bl	UART_UartPutString
 211:..\..\..\PSoC-4-BLE-master\100_Projects_in_100_Days\Day049_BLE_Mesh_Flood\Mesh_Flood\Mesh_Flood_PSoC4BLE.cydsn/ble_process.c ****             #endif
 356              		.loc 1 211 0
 357 0146 2020     		movs	r0, #32
 358 0148 FFF7FEFF 		bl	UART_UartPutCRLF
 222:..\..\..\PSoC-4-BLE-master\100_Projects_in_100_Days\Day049_BLE_Mesh_Flood\Mesh_Flood\Mesh_Flood_PSoC4BLE.cydsn/ble_process.c **** 		break;
 359              		.loc 1 222 0
 360 014c AB4B     		ldr	r3, .L34+40
 361 014e 1A78     		ldrb	r2, [r3]
 362 0150 5B78     		ldrb	r3, [r3, #1]
 363 0152 1B02     		lsls	r3, r3, #8
 364 0154 1A43     		orrs	r2, r3
 365 0156 0023     		movs	r3, #0
 366 0158 1204     		lsls	r2, r2, #16
 367 015a 120C     		lsrs	r2, r2, #16
 368 015c 1B0C     		lsrs	r3, r3, #16
 369 015e 1B04     		lsls	r3, r3, #16
 370 0160 1343     		orrs	r3, r2
 371 0162 1800     		movs	r0, r3
 372 0164 FFF7FEFF 		bl	CyBle_GattsWriteRsp
 223:..\..\..\PSoC-4-BLE-master\100_Projects_in_100_Days\Day049_BLE_Mesh_Flood\Mesh_Flood\Mesh_Flood_PSoC4BLE.cydsn/ble_process.c **** 			
 373              		.loc 1 223 0
 374 0168 65E1     		b	.L18
 375              	.L15:
 229:..\..\..\PSoC-4-BLE-master\100_Projects_in_100_Days\Day049_BLE_Mesh_Flood\Mesh_Flood\Mesh_Flood_PSoC4BLE.cydsn/ble_process.c **** 			
 376              		.loc 1 229 0
 377 016a 1423     		movs	r3, #20
 378 016c FB18     		adds	r3, r7, r3
 379 016e 3A68     		ldr	r2, [r7]
 380 0170 13CA     		ldmia	r2!, {r0, r1, r4}
 381 0172 13C3     		stmia	r3!, {r0, r1, r4}
 382 0174 1268     		ldr	r2, [r2]
 383 0176 1A60     		str	r2, [r3]
ARM GAS  C:\Users\User\AppData\Local\Temp\cc96DgHN.s 			page 18


 232:..\..\..\PSoC-4-BLE-master\100_Projects_in_100_Days\Day049_BLE_Mesh_Flood\Mesh_Flood\Mesh_Flood_PSoC4BLE.cydsn/ble_process.c **** 			{
 384              		.loc 1 232 0
 385 0178 1423     		movs	r3, #20
 386 017a FB18     		adds	r3, r7, r3
 387 017c 9B89     		ldrh	r3, [r3, #12]
 388 017e 122B     		cmp	r3, #18
 389 0180 00D0     		beq	.LCB203
 390 0182 1FE1     		b	.L29	@long jump
 391              	.LCB203:
 235:..\..\..\PSoC-4-BLE-master\100_Projects_in_100_Days\Day049_BLE_Mesh_Flood\Mesh_Flood\Mesh_Flood_PSoC4BLE.cydsn/ble_process.c **** 				{
 392              		.loc 1 235 0
 393 0184 1423     		movs	r3, #20
 394 0186 FB18     		adds	r3, r7, r3
 395 0188 1B89     		ldrh	r3, [r3, #8]
 396 018a 012B     		cmp	r3, #1
 397 018c 00D0     		beq	.LCB208
 398 018e 19E1     		b	.L29	@long jump
 399              	.LCB208:
 238:..\..\..\PSoC-4-BLE-master\100_Projects_in_100_Days\Day049_BLE_Mesh_Flood\Mesh_Flood\Mesh_Flood_PSoC4BLE.cydsn/ble_process.c **** 					
 400              		.loc 1 238 0
 401 0190 1423     		movs	r3, #20
 402 0192 FB18     		adds	r3, r7, r3
 403 0194 5B68     		ldr	r3, [r3, #4]
 404 0196 1B68     		ldr	r3, [r3]
 405 0198 181C     		adds	r0, r3, #0
 406 019a FFF7FEFF 		bl	__aeabi_f2uiz
 407 019e 0300     		movs	r3, r0
 408 01a0 DAB2     		uxtb	r2, r3
 409 01a2 994B     		ldr	r3, .L34+52
 410 01a4 1A70     		strb	r2, [r3]
 241:..\..\..\PSoC-4-BLE-master\100_Projects_in_100_Days\Day049_BLE_Mesh_Flood\Mesh_Flood\Mesh_Flood_PSoC4BLE.cydsn/ble_process.c **** 					
 411              		.loc 1 241 0
 412 01a6 984B     		ldr	r3, .L34+52
 413 01a8 1B78     		ldrb	r3, [r3]
 414 01aa 013B     		subs	r3, r3, #1
 415 01ac DAB2     		uxtb	r2, r3
 416 01ae 964B     		ldr	r3, .L34+52
 417 01b0 1A70     		strb	r2, [r3]
 245:..\..\..\PSoC-4-BLE-master\100_Projects_in_100_Days\Day049_BLE_Mesh_Flood\Mesh_Flood\Mesh_Flood_PSoC4BLE.cydsn/ble_process.c **** 													0,
 418              		.loc 1 245 0
 419 01b2 924A     		ldr	r2, .L34+40
 420 01b4 1423     		movs	r3, #20
 421 01b6 FB18     		adds	r3, r7, r3
 422 01b8 181D     		adds	r0, r3, #4
 423 01ba 0023     		movs	r3, #0
 424 01bc 0021     		movs	r1, #0
 425 01be FFF7FEFF 		bl	CyBle_GattsWriteAttributeValue
 257:..\..\..\PSoC-4-BLE-master\100_Projects_in_100_Days\Day049_BLE_Mesh_Flood\Mesh_Flood\Mesh_Flood_PSoC4BLE.cydsn/ble_process.c **** 		
 426              		.loc 1 257 0
 427 01c2 FFE0     		b	.L29
 428              	.L8:
 262:..\..\..\PSoC-4-BLE-master\100_Projects_in_100_Days\Day049_BLE_Mesh_Flood\Mesh_Flood\Mesh_Flood_PSoC4BLE.cydsn/ble_process.c **** 			{
 429              		.loc 1 262 0
 430 01c4 844B     		ldr	r3, .L34+4
 431 01c6 1B78     		ldrb	r3, [r3]
 432 01c8 022B     		cmp	r3, #2
 433 01ca 00D1     		bne	.LCB239
ARM GAS  C:\Users\User\AppData\Local\Temp\cc96DgHN.s 			page 19


 434 01cc FCE0     		b	.L30	@long jump
 435              	.LCB239:
 266:..\..\..\PSoC-4-BLE-master\100_Projects_in_100_Days\Day049_BLE_Mesh_Flood\Mesh_Flood\Mesh_Flood_PSoC4BLE.cydsn/ble_process.c ****                 
 436              		.loc 1 266 0
 437 01ce 2423     		movs	r3, #36
 438 01d0 FB18     		adds	r3, r7, r3
 439 01d2 3A68     		ldr	r2, [r7]
 440 01d4 13CA     		ldmia	r2!, {r0, r1, r4}
 441 01d6 13C3     		stmia	r3!, {r0, r1, r4}
 442 01d8 03CA     		ldmia	r2!, {r0, r1}
 443 01da 03C3     		stmia	r3!, {r0, r1}
 269:..\..\..\PSoC-4-BLE-master\100_Projects_in_100_Days\Day049_BLE_Mesh_Flood\Mesh_Flood\Mesh_Flood_PSoC4BLE.cydsn/ble_process.c ****     			UART_UartPutCRLF(' ');
 444              		.loc 1 269 0
 445 01dc 8B4B     		ldr	r3, .L34+56
 446 01de 1800     		movs	r0, r3
 447 01e0 FFF7FEFF 		bl	UART_UartPutString
 270:..\..\..\PSoC-4-BLE-master\100_Projects_in_100_Days\Day049_BLE_Mesh_Flood\Mesh_Flood\Mesh_Flood_PSoC4BLE.cydsn/ble_process.c ****                 #endif
 448              		.loc 1 270 0
 449 01e4 2020     		movs	r0, #32
 450 01e6 FFF7FEFF 		bl	UART_UartPutCRLF
 334:..\..\..\PSoC-4-BLE-master\100_Projects_in_100_Days\Day049_BLE_Mesh_Flood\Mesh_Flood\Mesh_Flood_PSoC4BLE.cydsn/ble_process.c **** 				/* If the received scan data is part of scan response from a peripheral... */
 451              		.loc 1 334 0
 452 01ea 2423     		movs	r3, #36
 453 01ec FB18     		adds	r3, r7, r3
 454 01ee 0422     		movs	r2, #4
 455 01f0 1A70     		strb	r2, [r3]
 336:..\..\..\PSoC-4-BLE-master\100_Projects_in_100_Days\Day049_BLE_Mesh_Flood\Mesh_Flood\Mesh_Flood_PSoC4BLE.cydsn/ble_process.c **** 				{
 456              		.loc 1 336 0
 457 01f2 2423     		movs	r3, #36
 458 01f4 FB18     		adds	r3, r7, r3
 459 01f6 1B78     		ldrb	r3, [r3]
 460 01f8 042B     		cmp	r3, #4
 461 01fa 00D0     		beq	.LCB258
 462 01fc E4E0     		b	.L30	@long jump
 463              	.LCB258:
 346:..\..\..\PSoC-4-BLE-master\100_Projects_in_100_Days\Day049_BLE_Mesh_Flood\Mesh_Flood\Mesh_Flood_PSoC4BLE.cydsn/ble_process.c ****                 			UART_UartPutCRLF(' ');
 464              		.loc 1 346 0
 465 01fe 844B     		ldr	r3, .L34+60
 466 0200 1800     		movs	r0, r3
 467 0202 FFF7FEFF 		bl	UART_UartPutString
 347:..\..\..\PSoC-4-BLE-master\100_Projects_in_100_Days\Day049_BLE_Mesh_Flood\Mesh_Flood\Mesh_Flood_PSoC4BLE.cydsn/ble_process.c ****                             #endif
 468              		.loc 1 347 0
 469 0206 2020     		movs	r0, #32
 470 0208 FFF7FEFF 		bl	UART_UartPutCRLF
 355:..\..\..\PSoC-4-BLE-master\100_Projects_in_100_Days\Day049_BLE_Mesh_Flood\Mesh_Flood\Mesh_Flood_PSoC4BLE.cydsn/ble_process.c **** 							#ifdef DEBUG_ENABLED
 471              		.loc 1 355 0
 472 020c FFF7FEFF 		bl	CyBle_GapcStopScan
 362:..\..\..\PSoC-4-BLE-master\100_Projects_in_100_Days\Day049_BLE_Mesh_Flood\Mesh_Flood\Mesh_Flood_PSoC4BLE.cydsn/ble_process.c **** 							peripAddr.bdAddr[0] = scan_report.peerBdAddr[0];
 473              		.loc 1 362 0
 474 0210 2423     		movs	r3, #36
 475 0212 FB18     		adds	r3, r7, r3
 476 0214 5A78     		ldrb	r2, [r3, #1]
 477 0216 7F4B     		ldr	r3, .L34+64
 478 0218 9A71     		strb	r2, [r3, #6]
 363:..\..\..\PSoC-4-BLE-master\100_Projects_in_100_Days\Day049_BLE_Mesh_Flood\Mesh_Flood\Mesh_Flood_PSoC4BLE.cydsn/ble_process.c **** 							peripAddr.bdAddr[1] = scan_report.peerBdAddr[1];
 479              		.loc 1 363 0
 480 021a 2423     		movs	r3, #36
ARM GAS  C:\Users\User\AppData\Local\Temp\cc96DgHN.s 			page 20


 481 021c FB18     		adds	r3, r7, r3
 482 021e 5B68     		ldr	r3, [r3, #4]
 483 0220 1A78     		ldrb	r2, [r3]
 484 0222 7C4B     		ldr	r3, .L34+64
 485 0224 1A70     		strb	r2, [r3]
 364:..\..\..\PSoC-4-BLE-master\100_Projects_in_100_Days\Day049_BLE_Mesh_Flood\Mesh_Flood\Mesh_Flood_PSoC4BLE.cydsn/ble_process.c **** 							peripAddr.bdAddr[2] = scan_report.peerBdAddr[2];
 486              		.loc 1 364 0
 487 0226 2423     		movs	r3, #36
 488 0228 FB18     		adds	r3, r7, r3
 489 022a 5B68     		ldr	r3, [r3, #4]
 490 022c 5A78     		ldrb	r2, [r3, #1]
 491 022e 794B     		ldr	r3, .L34+64
 492 0230 5A70     		strb	r2, [r3, #1]
 365:..\..\..\PSoC-4-BLE-master\100_Projects_in_100_Days\Day049_BLE_Mesh_Flood\Mesh_Flood\Mesh_Flood_PSoC4BLE.cydsn/ble_process.c ****                             peripAddr.bdAddr[3] = scan_report.peerBdAddr[3];
 493              		.loc 1 365 0
 494 0232 2423     		movs	r3, #36
 495 0234 FB18     		adds	r3, r7, r3
 496 0236 5B68     		ldr	r3, [r3, #4]
 497 0238 9A78     		ldrb	r2, [r3, #2]
 498 023a 764B     		ldr	r3, .L34+64
 499 023c 9A70     		strb	r2, [r3, #2]
 366:..\..\..\PSoC-4-BLE-master\100_Projects_in_100_Days\Day049_BLE_Mesh_Flood\Mesh_Flood\Mesh_Flood_PSoC4BLE.cydsn/ble_process.c **** 							peripAddr.bdAddr[4] = scan_report.peerBdAddr[4];
 500              		.loc 1 366 0
 501 023e 2423     		movs	r3, #36
 502 0240 FB18     		adds	r3, r7, r3
 503 0242 5B68     		ldr	r3, [r3, #4]
 504 0244 DA78     		ldrb	r2, [r3, #3]
 505 0246 734B     		ldr	r3, .L34+64
 506 0248 DA70     		strb	r2, [r3, #3]
 367:..\..\..\PSoC-4-BLE-master\100_Projects_in_100_Days\Day049_BLE_Mesh_Flood\Mesh_Flood\Mesh_Flood_PSoC4BLE.cydsn/ble_process.c **** 							peripAddr.bdAddr[5] = scan_report.peerBdAddr[5];
 507              		.loc 1 367 0
 508 024a 2423     		movs	r3, #36
 509 024c FB18     		adds	r3, r7, r3
 510 024e 5B68     		ldr	r3, [r3, #4]
 511 0250 1A79     		ldrb	r2, [r3, #4]
 512 0252 704B     		ldr	r3, .L34+64
 513 0254 1A71     		strb	r2, [r3, #4]
 368:..\..\..\PSoC-4-BLE-master\100_Projects_in_100_Days\Day049_BLE_Mesh_Flood\Mesh_Flood\Mesh_Flood_PSoC4BLE.cydsn/ble_process.c **** 
 514              		.loc 1 368 0
 515 0256 2423     		movs	r3, #36
 516 0258 FB18     		adds	r3, r7, r3
 517 025a 5B68     		ldr	r3, [r3, #4]
 518 025c 5A79     		ldrb	r2, [r3, #5]
 519 025e 6D4B     		ldr	r3, .L34+64
 520 0260 5A71     		strb	r2, [r3, #5]
 372:..\..\..\PSoC-4-BLE-master\100_Projects_in_100_Days\Day049_BLE_Mesh_Flood\Mesh_Flood\Mesh_Flood_PSoC4BLE.cydsn/ble_process.c **** 						}
 521              		.loc 1 372 0
 522 0262 6D4B     		ldr	r3, .L34+68
 523 0264 0122     		movs	r2, #1
 524 0266 1A70     		strb	r2, [r3]
 379:..\..\..\PSoC-4-BLE-master\100_Projects_in_100_Days\Day049_BLE_Mesh_Flood\Mesh_Flood\Mesh_Flood_PSoC4BLE.cydsn/ble_process.c **** 			
 525              		.loc 1 379 0
 526 0268 AEE0     		b	.L30
 527              	.L9:
 383:..\..\..\PSoC-4-BLE-master\100_Projects_in_100_Days\Day049_BLE_Mesh_Flood\Mesh_Flood\Mesh_Flood_PSoC4BLE.cydsn/ble_process.c **** 			{
 528              		.loc 1 383 0
 529 026a 6C4B     		ldr	r3, .L34+72
ARM GAS  C:\Users\User\AppData\Local\Temp\cc96DgHN.s 			page 21


 530 026c 1B78     		ldrb	r3, [r3]
 531 026e 022B     		cmp	r3, #2
 532 0270 00D0     		beq	.LCB316
 533 0272 ABE0     		b	.L31	@long jump
 534              	.LCB316:
 390:..\..\..\PSoC-4-BLE-master\100_Projects_in_100_Days\Day049_BLE_Mesh_Flood\Mesh_Flood\Mesh_Flood_PSoC4BLE.cydsn/ble_process.c ****                 
 535              		.loc 1 390 0
 536 0274 6A4B     		ldr	r3, .L34+76
 537 0276 0122     		movs	r2, #1
 538 0278 1A70     		strb	r2, [r3]
 393:..\..\..\PSoC-4-BLE-master\100_Projects_in_100_Days\Day049_BLE_Mesh_Flood\Mesh_Flood\Mesh_Flood_PSoC4BLE.cydsn/ble_process.c ****     			UART_UartPutCRLF(' ');
 539              		.loc 1 393 0
 540 027a 5D4B     		ldr	r3, .L34+28
 541 027c 1800     		movs	r0, r3
 542 027e FFF7FEFF 		bl	UART_UartPutString
 394:..\..\..\PSoC-4-BLE-master\100_Projects_in_100_Days\Day049_BLE_Mesh_Flood\Mesh_Flood\Mesh_Flood_PSoC4BLE.cydsn/ble_process.c ****                 #endif
 543              		.loc 1 394 0
 544 0282 2020     		movs	r0, #32
 545 0284 FFF7FEFF 		bl	UART_UartPutCRLF
 398:..\..\..\PSoC-4-BLE-master\100_Projects_in_100_Days\Day049_BLE_Mesh_Flood\Mesh_Flood\Mesh_Flood_PSoC4BLE.cydsn/ble_process.c ****                 
 546              		.loc 1 398 0
 547 0288 5A4B     		ldr	r3, .L34+32
 548 028a 5B68     		ldr	r3, [r3, #4]
 549 028c 1C1D     		adds	r4, r3, #4
 550 028e 5A4B     		ldr	r3, .L34+36
 551 0290 1B78     		ldrb	r3, [r3]
 552 0292 DBB2     		uxtb	r3, r3
 553 0294 1800     		movs	r0, r3
 554 0296 FFF7FEFF 		bl	GetTemperature
 555 029a 031C     		adds	r3, r0, #0
 556 029c 181C     		adds	r0, r3, #0
 557 029e FFF7FEFF 		bl	__aeabi_f2d
 558 02a2 604A     		ldr	r2, .L34+80
 559 02a4 604B     		ldr	r3, .L34+84
 560 02a6 FFF7FEFF 		bl	__aeabi_dsub
 561 02aa 0200     		movs	r2, r0
 562 02ac 0B00     		movs	r3, r1
 563 02ae 1000     		movs	r0, r2
 564 02b0 1900     		movs	r1, r3
 565 02b2 FFF7FEFF 		bl	__aeabi_d2f
 566 02b6 031C     		adds	r3, r0, #0
 567 02b8 2360     		str	r3, [r4]
 401:..\..\..\PSoC-4-BLE-master\100_Projects_in_100_Days\Day049_BLE_Mesh_Flood\Mesh_Flood\Mesh_Flood_PSoC4BLE.cydsn/ble_process.c ****                 #endif
 568              		.loc 1 401 0
 569 02ba 4E4B     		ldr	r3, .L34+32
 570 02bc 5A68     		ldr	r2, [r3, #4]
 571 02be 0023     		movs	r3, #0
 572 02c0 9B00     		lsls	r3, r3, #2
 573 02c2 D318     		adds	r3, r2, r3
 574 02c4 1B68     		ldr	r3, [r3]
 575 02c6 181C     		adds	r0, r3, #0
 576 02c8 FFF7FEFF 		bl	SendTemperarureToUart
 412:..\..\..\PSoC-4-BLE-master\100_Projects_in_100_Days\Day049_BLE_Mesh_Flood\Mesh_Flood\Mesh_Flood_PSoC4BLE.cydsn/ble_process.c ****         		writeADVcounterdata.value.len = 1;
 577              		.loc 1 412 0
 578 02cc 3823     		movs	r3, #56
 579 02ce FB18     		adds	r3, r7, r3
 580 02d0 4D4A     		ldr	r2, .L34+52
ARM GAS  C:\Users\User\AppData\Local\Temp\cc96DgHN.s 			page 22


 581 02d2 1A60     		str	r2, [r3]
 413:..\..\..\PSoC-4-BLE-master\100_Projects_in_100_Days\Day049_BLE_Mesh_Flood\Mesh_Flood\Mesh_Flood_PSoC4BLE.cydsn/ble_process.c ****         		CyBle_GattcWriteWithoutResponse(cyBle_connHandle, &writeADVcounterdata);
 582              		.loc 1 413 0
 583 02d4 3823     		movs	r3, #56
 584 02d6 FB18     		adds	r3, r7, r3
 585 02d8 0122     		movs	r2, #1
 586 02da 9A80     		strh	r2, [r3, #4]
 414:..\..\..\PSoC-4-BLE-master\100_Projects_in_100_Days\Day049_BLE_Mesh_Flood\Mesh_Flood\Mesh_Flood_PSoC4BLE.cydsn/ble_process.c ****         	
 587              		.loc 1 414 0
 588 02dc 3823     		movs	r3, #56
 589 02de F918     		adds	r1, r7, r3
 590 02e0 464B     		ldr	r3, .L34+40
 591 02e2 1A78     		ldrb	r2, [r3]
 592 02e4 5B78     		ldrb	r3, [r3, #1]
 593 02e6 1B02     		lsls	r3, r3, #8
 594 02e8 1A43     		orrs	r2, r3
 595 02ea 0023     		movs	r3, #0
 596 02ec 1204     		lsls	r2, r2, #16
 597 02ee 120C     		lsrs	r2, r2, #16
 598 02f0 1B0C     		lsrs	r3, r3, #16
 599 02f2 1B04     		lsls	r3, r3, #16
 600 02f4 1343     		orrs	r3, r2
 601 02f6 1800     		movs	r0, r3
 602 02f8 FFF7FEFF 		bl	CyBle_GattcWriteWithoutResponse
 417:..\..\..\PSoC-4-BLE-master\100_Projects_in_100_Days\Day049_BLE_Mesh_Flood\Mesh_Flood\Mesh_Flood_PSoC4BLE.cydsn/ble_process.c ****         		writeRGBdata.value.val = TemperatureStorage.handleValPair.value.val;
 603              		.loc 1 417 0
 604 02fc 4423     		movs	r3, #68
 605 02fe FB18     		adds	r3, r7, r3
 606 0300 9A89     		ldrh	r2, [r3, #12]
 607 0302 0823     		movs	r3, #8
 608 0304 FB18     		adds	r3, r7, r3
 609 0306 1A81     		strh	r2, [r3, #8]
 418:..\..\..\PSoC-4-BLE-master\100_Projects_in_100_Days\Day049_BLE_Mesh_Flood\Mesh_Flood\Mesh_Flood_PSoC4BLE.cydsn/ble_process.c ****         		writeRGBdata.value.len = 4;
 610              		.loc 1 418 0
 611 0308 3A4B     		ldr	r3, .L34+32
 612 030a 5A68     		ldr	r2, [r3, #4]
 613 030c 0823     		movs	r3, #8
 614 030e FB18     		adds	r3, r7, r3
 615 0310 1A60     		str	r2, [r3]
 419:..\..\..\PSoC-4-BLE-master\100_Projects_in_100_Days\Day049_BLE_Mesh_Flood\Mesh_Flood\Mesh_Flood_PSoC4BLE.cydsn/ble_process.c ****         		CyBle_GattcWriteCharacteristicValue(cyBle_connHandle, &writeRGBdata);
 616              		.loc 1 419 0
 617 0312 0823     		movs	r3, #8
 618 0314 FB18     		adds	r3, r7, r3
 619 0316 0422     		movs	r2, #4
 620 0318 9A80     		strh	r2, [r3, #4]
 420:..\..\..\PSoC-4-BLE-master\100_Projects_in_100_Days\Day049_BLE_Mesh_Flood\Mesh_Flood\Mesh_Flood_PSoC4BLE.cydsn/ble_process.c ****                 GREEN_LED_Pin_Write(0);
 621              		.loc 1 420 0
 622 031a 0823     		movs	r3, #8
 623 031c F918     		adds	r1, r7, r3
 624 031e 374B     		ldr	r3, .L34+40
 625 0320 1A78     		ldrb	r2, [r3]
 626 0322 5B78     		ldrb	r3, [r3, #1]
 627 0324 1B02     		lsls	r3, r3, #8
 628 0326 1A43     		orrs	r2, r3
 629 0328 0023     		movs	r3, #0
 630 032a 1204     		lsls	r2, r2, #16
 631 032c 120C     		lsrs	r2, r2, #16
ARM GAS  C:\Users\User\AppData\Local\Temp\cc96DgHN.s 			page 23


 632 032e 1B0C     		lsrs	r3, r3, #16
 633 0330 1B04     		lsls	r3, r3, #16
 634 0332 1343     		orrs	r3, r2
 635 0334 1800     		movs	r0, r3
 636 0336 FFF7FEFF 		bl	CyBle_GattcWriteCharacteristicValue
 421:..\..\..\PSoC-4-BLE-master\100_Projects_in_100_Days\Day049_BLE_Mesh_Flood\Mesh_Flood\Mesh_Flood_PSoC4BLE.cydsn/ble_process.c ****                 
 637              		.loc 1 421 0
 638 033a 0020     		movs	r0, #0
 639 033c FFF7FEFF 		bl	GREEN_LED_Pin_Write
 424:..\..\..\PSoC-4-BLE-master\100_Projects_in_100_Days\Day049_BLE_Mesh_Flood\Mesh_Flood\Mesh_Flood_PSoC4BLE.cydsn/ble_process.c ****     			UART_UartPutCRLF(' ');
 640              		.loc 1 424 0
 641 0340 3A4B     		ldr	r3, .L34+88
 642 0342 1800     		movs	r0, r3
 643 0344 FFF7FEFF 		bl	UART_UartPutString
 425:..\..\..\PSoC-4-BLE-master\100_Projects_in_100_Days\Day049_BLE_Mesh_Flood\Mesh_Flood\Mesh_Flood_PSoC4BLE.cydsn/ble_process.c ****                 
 644              		.loc 1 425 0
 645 0348 2020     		movs	r0, #32
 646 034a FFF7FEFF 		bl	UART_UartPutCRLF
 427:..\..\..\PSoC-4-BLE-master\100_Projects_in_100_Days\Day049_BLE_Mesh_Flood\Mesh_Flood\Mesh_Flood_PSoC4BLE.cydsn/ble_process.c ****                 
 647              		.loc 1 427 0
 648 034e 294B     		ldr	r3, .L34+32
 649 0350 5B68     		ldr	r3, [r3, #4]
 650 0352 1800     		movs	r0, r3
 651 0354 FFF7FEFF 		bl	SendTempArrayToUart
 432:..\..\..\PSoC-4-BLE-master\100_Projects_in_100_Days\Day049_BLE_Mesh_Flood\Mesh_Flood\Mesh_Flood_PSoC4BLE.cydsn/ble_process.c **** 			
 652              		.loc 1 432 0
 653 0358 38E0     		b	.L31
 654              	.L16:
 450:..\..\..\PSoC-4-BLE-master\100_Projects_in_100_Days\Day049_BLE_Mesh_Flood\Mesh_Flood\Mesh_Flood_PSoC4BLE.cydsn/ble_process.c **** 			{
 655              		.loc 1 450 0
 656 035a 284B     		ldr	r3, .L34+40
 657 035c 1B78     		ldrb	r3, [r3]
 658 035e 002B     		cmp	r3, #0
 659 0360 36D0     		beq	.L32
 452:..\..\..\PSoC-4-BLE-master\100_Projects_in_100_Days\Day049_BLE_Mesh_Flood\Mesh_Flood\Mesh_Flood_PSoC4BLE.cydsn/ble_process.c **** 				
 660              		.loc 1 452 0
 661 0362 264B     		ldr	r3, .L34+40
 662 0364 1B78     		ldrb	r3, [r3]
 663 0366 1800     		movs	r0, r3
 664 0368 FFF7FEFF 		bl	CyBle_GapDisconnect
 454:..\..\..\PSoC-4-BLE-master\100_Projects_in_100_Days\Day049_BLE_Mesh_Flood\Mesh_Flood\Mesh_Flood_PSoC4BLE.cydsn/ble_process.c **** 				#ifdef DEBUG_ENABLED
 665              		.loc 1 454 0
 666 036c 304B     		ldr	r3, .L34+92
 667 036e 0122     		movs	r2, #1
 668 0370 1A70     		strb	r2, [r3]
 462:..\..\..\PSoC-4-BLE-master\100_Projects_in_100_Days\Day049_BLE_Mesh_Flood\Mesh_Flood\Mesh_Flood_PSoC4BLE.cydsn/ble_process.c **** 
 669              		.loc 1 462 0
 670 0372 2DE0     		b	.L32
 671              	.L10:
 468:..\..\..\PSoC-4-BLE-master\100_Projects_in_100_Days\Day049_BLE_Mesh_Flood\Mesh_Flood\Mesh_Flood_PSoC4BLE.cydsn/ble_process.c **** 			
 672              		.loc 1 468 0
 673 0374 2A4B     		ldr	r3, .L34+76
 674 0376 0022     		movs	r2, #0
 675 0378 1A70     		strb	r2, [r3]
 476:..\..\..\PSoC-4-BLE-master\100_Projects_in_100_Days\Day049_BLE_Mesh_Flood\Mesh_Flood\Mesh_Flood_PSoC4BLE.cydsn/ble_process.c **** 			{
 676              		.loc 1 476 0
 677 037a 284B     		ldr	r3, .L34+72
ARM GAS  C:\Users\User\AppData\Local\Temp\cc96DgHN.s 			page 24


 678 037c 1B78     		ldrb	r3, [r3]
 679 037e 012B     		cmp	r3, #1
 680 0380 0BD1     		bne	.L24
 476:..\..\..\PSoC-4-BLE-master\100_Projects_in_100_Days\Day049_BLE_Mesh_Flood\Mesh_Flood\Mesh_Flood_PSoC4BLE.cydsn/ble_process.c **** 			{
 681              		.loc 1 476 0 is_stmt 0 discriminator 1
 682 0382 164B     		ldr	r3, .L34+8
 683 0384 1B78     		ldrb	r3, [r3]
 684 0386 012B     		cmp	r3, #1
 685 0388 07D0     		beq	.L24
 480:..\..\..\PSoC-4-BLE-master\100_Projects_in_100_Days\Day049_BLE_Mesh_Flood\Mesh_Flood\Mesh_Flood_PSoC4BLE.cydsn/ble_process.c **** 				{
 686              		.loc 1 480 0 is_stmt 1
 687 038a 134B     		ldr	r3, .L34+4
 688 038c 1B78     		ldrb	r3, [r3]
 689 038e 062B     		cmp	r3, #6
 690 0390 13D1     		bne	.L26
 482:..\..\..\PSoC-4-BLE-master\100_Projects_in_100_Days\Day049_BLE_Mesh_Flood\Mesh_Flood\Mesh_Flood_PSoC4BLE.cydsn/ble_process.c **** 					#ifdef DEBUG_ENABLED
 691              		.loc 1 482 0
 692 0392 0020     		movs	r0, #0
 693 0394 FFF7FEFF 		bl	CyBle_GappStartAdvertisement
 480:..\..\..\PSoC-4-BLE-master\100_Projects_in_100_Days\Day049_BLE_Mesh_Flood\Mesh_Flood\Mesh_Flood_PSoC4BLE.cydsn/ble_process.c **** 				{
 694              		.loc 1 480 0
 695 0398 0FE0     		b	.L26
 696              	.L24:
 490:..\..\..\PSoC-4-BLE-master\100_Projects_in_100_Days\Day049_BLE_Mesh_Flood\Mesh_Flood\Mesh_Flood_PSoC4BLE.cydsn/ble_process.c **** 			{
 697              		.loc 1 490 0
 698 039a 204B     		ldr	r3, .L34+72
 699 039c 1B78     		ldrb	r3, [r3]
 700 039e 022B     		cmp	r3, #2
 701 03a0 48D1     		bne	.L33
 490:..\..\..\PSoC-4-BLE-master\100_Projects_in_100_Days\Day049_BLE_Mesh_Flood\Mesh_Flood\Mesh_Flood_PSoC4BLE.cydsn/ble_process.c **** 			{
 702              		.loc 1 490 0 is_stmt 0 discriminator 1
 703 03a2 0E4B     		ldr	r3, .L34+8
 704 03a4 1B78     		ldrb	r3, [r3]
 705 03a6 012B     		cmp	r3, #1
 706 03a8 44D0     		beq	.L33
 494:..\..\..\PSoC-4-BLE-master\100_Projects_in_100_Days\Day049_BLE_Mesh_Flood\Mesh_Flood\Mesh_Flood_PSoC4BLE.cydsn/ble_process.c **** 				{
 707              		.loc 1 494 0 is_stmt 1
 708 03aa 0B4B     		ldr	r3, .L34+4
 709 03ac 1B78     		ldrb	r3, [r3]
 710 03ae 062B     		cmp	r3, #6
 711 03b0 40D1     		bne	.L33
 496:..\..\..\PSoC-4-BLE-master\100_Projects_in_100_Days\Day049_BLE_Mesh_Flood\Mesh_Flood\Mesh_Flood_PSoC4BLE.cydsn/ble_process.c **** 					#ifdef DEBUG_ENABLED
 712              		.loc 1 496 0
 713 03b2 0020     		movs	r0, #0
 714 03b4 FFF7FEFF 		bl	CyBle_GapcStartScan
 505:..\..\..\PSoC-4-BLE-master\100_Projects_in_100_Days\Day049_BLE_Mesh_Flood\Mesh_Flood\Mesh_Flood_PSoC4BLE.cydsn/ble_process.c **** 			
 715              		.loc 1 505 0
 716 03b8 3CE0     		b	.L33
 717              	.L26:
 505:..\..\..\PSoC-4-BLE-master\100_Projects_in_100_Days\Day049_BLE_Mesh_Flood\Mesh_Flood\Mesh_Flood_PSoC4BLE.cydsn/ble_process.c **** 			
 718              		.loc 1 505 0 is_stmt 0 discriminator 7
 719 03ba 3BE0     		b	.L33
 720              	.L27:
 436:..\..\..\PSoC-4-BLE-master\100_Projects_in_100_Days\Day049_BLE_Mesh_Flood\Mesh_Flood\Mesh_Flood_PSoC4BLE.cydsn/ble_process.c **** 			
 721              		.loc 1 436 0 is_stmt 1
 722 03bc C046     		nop
 723 03be 3AE0     		b	.L18
ARM GAS  C:\Users\User\AppData\Local\Temp\cc96DgHN.s 			page 25


 724              	.L28:
 117:..\..\..\PSoC-4-BLE-master\100_Projects_in_100_Days\Day049_BLE_Mesh_Flood\Mesh_Flood\Mesh_Flood_PSoC4BLE.cydsn/ble_process.c **** 			
 725              		.loc 1 117 0
 726 03c0 C046     		nop
 727 03c2 38E0     		b	.L18
 728              	.L29:
 257:..\..\..\PSoC-4-BLE-master\100_Projects_in_100_Days\Day049_BLE_Mesh_Flood\Mesh_Flood\Mesh_Flood_PSoC4BLE.cydsn/ble_process.c **** 		
 729              		.loc 1 257 0
 730 03c4 C046     		nop
 731 03c6 36E0     		b	.L18
 732              	.L30:
 379:..\..\..\PSoC-4-BLE-master\100_Projects_in_100_Days\Day049_BLE_Mesh_Flood\Mesh_Flood\Mesh_Flood_PSoC4BLE.cydsn/ble_process.c **** 			
 733              		.loc 1 379 0
 734 03c8 C046     		nop
 735 03ca 34E0     		b	.L18
 736              	.L31:
 432:..\..\..\PSoC-4-BLE-master\100_Projects_in_100_Days\Day049_BLE_Mesh_Flood\Mesh_Flood\Mesh_Flood_PSoC4BLE.cydsn/ble_process.c **** 			
 737              		.loc 1 432 0
 738 03cc C046     		nop
 739 03ce 32E0     		b	.L18
 740              	.L32:
 462:..\..\..\PSoC-4-BLE-master\100_Projects_in_100_Days\Day049_BLE_Mesh_Flood\Mesh_Flood\Mesh_Flood_PSoC4BLE.cydsn/ble_process.c **** 
 741              		.loc 1 462 0
 742 03d0 C046     		nop
 743 03d2 30E0     		b	.L18
 744              	.L35:
 745              		.align	2
 746              	.L34:
 747 03d4 04000000 		.word	.LC0
 748 03d8 00000000 		.word	cyBle_state
 749 03dc 00000000 		.word	switch_Role
 750 03e0 2C000000 		.word	.LC4
 751 03e4 48000000 		.word	.LC6
 752 03e8 68000000 		.word	.LC8
 753 03ec 80000000 		.word	.LC10
 754 03f0 9C000000 		.word	.LC12
 755 03f4 00000000 		.word	TemperatureStorage
 756 03f8 00000000 		.word	flag_Timer
 757 03fc 00000000 		.word	cyBle_connHandle
 758 0400 04000000 		.word	TemperatureStorage+4
 759 0404 B8000000 		.word	.LC18
 760 0408 00000000 		.word	dataADVCounter
 761 040c D4000000 		.word	.LC21
 762 0410 F0000000 		.word	.LC23
 763 0414 00000000 		.word	peripAddr
 764 0418 00000000 		.word	clientConnectToDevice
 765 041c 00000000 		.word	ble_gap_state
 766 0420 00000000 		.word	deviceConnected
 767 0424 B81E85EB 		.word	-343597384
 768 0428 51B8BE3F 		.word	1069463633
 769 042c 14010000 		.word	.LC29
 770 0430 00000000 		.word	restartScanning
 771              	.L33:
 505:..\..\..\PSoC-4-BLE-master\100_Projects_in_100_Days\Day049_BLE_Mesh_Flood\Mesh_Flood\Mesh_Flood_PSoC4BLE.cydsn/ble_process.c **** 			
 772              		.loc 1 505 0
 773 0434 C046     		nop
 774              	.L18:
ARM GAS  C:\Users\User\AppData\Local\Temp\cc96DgHN.s 			page 26


 510:..\..\..\PSoC-4-BLE-master\100_Projects_in_100_Days\Day049_BLE_Mesh_Flood\Mesh_Flood\Mesh_Flood_PSoC4BLE.cydsn/ble_process.c **** 	}
 511:..\..\..\PSoC-4-BLE-master\100_Projects_in_100_Days\Day049_BLE_Mesh_Flood\Mesh_Flood\Mesh_Flood_PSoC4BLE.cydsn/ble_process.c **** }
 775              		.loc 1 511 0 discriminator 8
 776 0436 C046     		nop
 777 0438 BD46     		mov	sp, r7
 778 043a 17B0     		add	sp, sp, #92
 779              		@ sp needed
 780 043c 90BD     		pop	{r4, r7, pc}
 781              		.cfi_endproc
 782              	.LFE36:
 783              		.size	GenericEventHandler, .-GenericEventHandler
 784 043e C046     		.section	.text.SwitchRole,"ax",%progbits
 785              		.align	2
 786              		.global	SwitchRole
 787              		.code	16
 788              		.thumb_func
 789              		.type	SwitchRole, %function
 790              	SwitchRole:
 791              	.LFB37:
 512:..\..\..\PSoC-4-BLE-master\100_Projects_in_100_Days\Day049_BLE_Mesh_Flood\Mesh_Flood\Mesh_Flood_PSoC4BLE.cydsn/ble_process.c **** 
 513:..\..\..\PSoC-4-BLE-master\100_Projects_in_100_Days\Day049_BLE_Mesh_Flood\Mesh_Flood\Mesh_Flood_PSoC4BLE.cydsn/ble_process.c **** /*******************************************************************************
 514:..\..\..\PSoC-4-BLE-master\100_Projects_in_100_Days\Day049_BLE_Mesh_Flood\Mesh_Flood\Mesh_Flood_PSoC4BLE.cydsn/ble_process.c **** * Function Name: SwitchRole
 515:..\..\..\PSoC-4-BLE-master\100_Projects_in_100_Days\Day049_BLE_Mesh_Flood\Mesh_Flood\Mesh_Flood_PSoC4BLE.cydsn/ble_process.c **** ********************************************************************************
 516:..\..\..\PSoC-4-BLE-master\100_Projects_in_100_Days\Day049_BLE_Mesh_Flood\Mesh_Flood\Mesh_Flood_PSoC4BLE.cydsn/ble_process.c **** * Summary:
 517:..\..\..\PSoC-4-BLE-master\100_Projects_in_100_Days\Day049_BLE_Mesh_Flood\Mesh_Flood\Mesh_Flood_PSoC4BLE.cydsn/ble_process.c **** *        This function switches the role between Central and Peripheral. If device 
 518:..\..\..\PSoC-4-BLE-master\100_Projects_in_100_Days\Day049_BLE_Mesh_Flood\Mesh_Flood\Mesh_Flood_PSoC4BLE.cydsn/ble_process.c **** * is connected while switching role, then it is first disconnected.
 519:..\..\..\PSoC-4-BLE-master\100_Projects_in_100_Days\Day049_BLE_Mesh_Flood\Mesh_Flood\Mesh_Flood_PSoC4BLE.cydsn/ble_process.c **** *
 520:..\..\..\PSoC-4-BLE-master\100_Projects_in_100_Days\Day049_BLE_Mesh_Flood\Mesh_Flood\Mesh_Flood_PSoC4BLE.cydsn/ble_process.c **** * Parameters:
 521:..\..\..\PSoC-4-BLE-master\100_Projects_in_100_Days\Day049_BLE_Mesh_Flood\Mesh_Flood\Mesh_Flood_PSoC4BLE.cydsn/ble_process.c **** *  void
 522:..\..\..\PSoC-4-BLE-master\100_Projects_in_100_Days\Day049_BLE_Mesh_Flood\Mesh_Flood\Mesh_Flood_PSoC4BLE.cydsn/ble_process.c **** *
 523:..\..\..\PSoC-4-BLE-master\100_Projects_in_100_Days\Day049_BLE_Mesh_Flood\Mesh_Flood\Mesh_Flood_PSoC4BLE.cydsn/ble_process.c **** * Return:
 524:..\..\..\PSoC-4-BLE-master\100_Projects_in_100_Days\Day049_BLE_Mesh_Flood\Mesh_Flood\Mesh_Flood_PSoC4BLE.cydsn/ble_process.c **** *  void
 525:..\..\..\PSoC-4-BLE-master\100_Projects_in_100_Days\Day049_BLE_Mesh_Flood\Mesh_Flood\Mesh_Flood_PSoC4BLE.cydsn/ble_process.c **** *
 526:..\..\..\PSoC-4-BLE-master\100_Projects_in_100_Days\Day049_BLE_Mesh_Flood\Mesh_Flood\Mesh_Flood_PSoC4BLE.cydsn/ble_process.c **** *******************************************************************************/
 527:..\..\..\PSoC-4-BLE-master\100_Projects_in_100_Days\Day049_BLE_Mesh_Flood\Mesh_Flood\Mesh_Flood_PSoC4BLE.cydsn/ble_process.c **** void SwitchRole(void)
 528:..\..\..\PSoC-4-BLE-master\100_Projects_in_100_Days\Day049_BLE_Mesh_Flood\Mesh_Flood\Mesh_Flood_PSoC4BLE.cydsn/ble_process.c **** {
 792              		.loc 1 528 0
 793              		.cfi_startproc
 794              		@ args = 0, pretend = 0, frame = 8
 795              		@ frame_needed = 1, uses_anonymous_args = 0
 796 0000 90B5     		push	{r4, r7, lr}
 797              		.cfi_def_cfa_offset 12
 798              		.cfi_offset 4, -12
 799              		.cfi_offset 7, -8
 800              		.cfi_offset 14, -4
 801 0002 83B0     		sub	sp, sp, #12
 802              		.cfi_def_cfa_offset 24
 803 0004 00AF     		add	r7, sp, #0
 804              		.cfi_def_cfa_register 7
 529:..\..\..\PSoC-4-BLE-master\100_Projects_in_100_Days\Day049_BLE_Mesh_Flood\Mesh_Flood\Mesh_Flood_PSoC4BLE.cydsn/ble_process.c **** 	CYBLE_API_RESULT_T  apiResult;
 530:..\..\..\PSoC-4-BLE-master\100_Projects_in_100_Days\Day049_BLE_Mesh_Flood\Mesh_Flood\Mesh_Flood_PSoC4BLE.cydsn/ble_process.c **** 	
 531:..\..\..\PSoC-4-BLE-master\100_Projects_in_100_Days\Day049_BLE_Mesh_Flood\Mesh_Flood\Mesh_Flood_PSoC4BLE.cydsn/ble_process.c **** 	/* if the switch role flag is set... */
 532:..\..\..\PSoC-4-BLE-master\100_Projects_in_100_Days\Day049_BLE_Mesh_Flood\Mesh_Flood\Mesh_Flood_PSoC4BLE.cydsn/ble_process.c **** 	if(switch_Role == TRUE)
 805              		.loc 1 532 0
 806 0006 354B     		ldr	r3, .L49
 807 0008 1B78     		ldrb	r3, [r3]
 808 000a 012B     		cmp	r3, #1
ARM GAS  C:\Users\User\AppData\Local\Temp\cc96DgHN.s 			page 27


 809 000c 61D1     		bne	.L48
 533:..\..\..\PSoC-4-BLE-master\100_Projects_in_100_Days\Day049_BLE_Mesh_Flood\Mesh_Flood\Mesh_Flood_PSoC4BLE.cydsn/ble_process.c **** 	{	
 534:..\..\..\PSoC-4-BLE-master\100_Projects_in_100_Days\Day049_BLE_Mesh_Flood\Mesh_Flood\Mesh_Flood_PSoC4BLE.cydsn/ble_process.c **** 		/* Process pending BLE events */
 535:..\..\..\PSoC-4-BLE-master\100_Projects_in_100_Days\Day049_BLE_Mesh_Flood\Mesh_Flood\Mesh_Flood_PSoC4BLE.cydsn/ble_process.c **** 		CyBle_ProcessEvents();
 810              		.loc 1 535 0
 811 000e FFF7FEFF 		bl	CyBle_ProcessEvents
 536:..\..\..\PSoC-4-BLE-master\100_Projects_in_100_Days\Day049_BLE_Mesh_Flood\Mesh_Flood\Mesh_Flood_PSoC4BLE.cydsn/ble_process.c **** 		
 537:..\..\..\PSoC-4-BLE-master\100_Projects_in_100_Days\Day049_BLE_Mesh_Flood\Mesh_Flood\Mesh_Flood_PSoC4BLE.cydsn/ble_process.c **** 		/* If there is an existing connection, then disconnect before switching
 538:..\..\..\PSoC-4-BLE-master\100_Projects_in_100_Days\Day049_BLE_Mesh_Flood\Mesh_Flood\Mesh_Flood_PSoC4BLE.cydsn/ble_process.c **** 		* role. */
 539:..\..\..\PSoC-4-BLE-master\100_Projects_in_100_Days\Day049_BLE_Mesh_Flood\Mesh_Flood\Mesh_Flood_PSoC4BLE.cydsn/ble_process.c **** 		if((cyBle_connHandle.bdHandle != 0))
 812              		.loc 1 539 0
 813 0012 334B     		ldr	r3, .L49+4
 814 0014 1B78     		ldrb	r3, [r3]
 815 0016 002B     		cmp	r3, #0
 816 0018 06D0     		beq	.L38
 540:..\..\..\PSoC-4-BLE-master\100_Projects_in_100_Days\Day049_BLE_Mesh_Flood\Mesh_Flood\Mesh_Flood_PSoC4BLE.cydsn/ble_process.c **** 		{
 541:..\..\..\PSoC-4-BLE-master\100_Projects_in_100_Days\Day049_BLE_Mesh_Flood\Mesh_Flood\Mesh_Flood_PSoC4BLE.cydsn/ble_process.c **** 			/* Disconnect the device and process the event */
 542:..\..\..\PSoC-4-BLE-master\100_Projects_in_100_Days\Day049_BLE_Mesh_Flood\Mesh_Flood\Mesh_Flood_PSoC4BLE.cydsn/ble_process.c **** 			CyBle_GapDisconnect(cyBle_connHandle.bdHandle);
 817              		.loc 1 542 0
 818 001a 314B     		ldr	r3, .L49+4
 819 001c 1B78     		ldrb	r3, [r3]
 820 001e 1800     		movs	r0, r3
 821 0020 FFF7FEFF 		bl	CyBle_GapDisconnect
 543:..\..\..\PSoC-4-BLE-master\100_Projects_in_100_Days\Day049_BLE_Mesh_Flood\Mesh_Flood\Mesh_Flood_PSoC4BLE.cydsn/ble_process.c **** 			CyBle_ProcessEvents();
 822              		.loc 1 543 0
 823 0024 FFF7FEFF 		bl	CyBle_ProcessEvents
 824              	.L38:
 544:..\..\..\PSoC-4-BLE-master\100_Projects_in_100_Days\Day049_BLE_Mesh_Flood\Mesh_Flood\Mesh_Flood_PSoC4BLE.cydsn/ble_process.c **** 			#ifdef DEBUG_ENABLED
 545:..\..\..\PSoC-4-BLE-master\100_Projects_in_100_Days\Day049_BLE_Mesh_Flood\Mesh_Flood\Mesh_Flood_PSoC4BLE.cydsn/ble_process.c **** 			UART_UartPutString("Peripheral closed connection ");
 546:..\..\..\PSoC-4-BLE-master\100_Projects_in_100_Days\Day049_BLE_Mesh_Flood\Mesh_Flood\Mesh_Flood_PSoC4BLE.cydsn/ble_process.c **** 			SendBLEStatetoUART(CyBle_GetState());
 547:..\..\..\PSoC-4-BLE-master\100_Projects_in_100_Days\Day049_BLE_Mesh_Flood\Mesh_Flood\Mesh_Flood_PSoC4BLE.cydsn/ble_process.c **** 			UART_UartPutCRLF(' ');
 548:..\..\..\PSoC-4-BLE-master\100_Projects_in_100_Days\Day049_BLE_Mesh_Flood\Mesh_Flood\Mesh_Flood_PSoC4BLE.cydsn/ble_process.c **** 			#endif
 549:..\..\..\PSoC-4-BLE-master\100_Projects_in_100_Days\Day049_BLE_Mesh_Flood\Mesh_Flood\Mesh_Flood_PSoC4BLE.cydsn/ble_process.c **** 		}		
 550:..\..\..\PSoC-4-BLE-master\100_Projects_in_100_Days\Day049_BLE_Mesh_Flood\Mesh_Flood\Mesh_Flood_PSoC4BLE.cydsn/ble_process.c **** 		
 551:..\..\..\PSoC-4-BLE-master\100_Projects_in_100_Days\Day049_BLE_Mesh_Flood\Mesh_Flood\Mesh_Flood_PSoC4BLE.cydsn/ble_process.c **** 		switch(ble_gap_state)
 825              		.loc 1 551 0
 826 0028 2E4B     		ldr	r3, .L49+8
 827 002a 1B78     		ldrb	r3, [r3]
 828 002c 012B     		cmp	r3, #1
 829 002e 02D0     		beq	.L40
 830 0030 022B     		cmp	r3, #2
 831 0032 28D0     		beq	.L41
 552:..\..\..\PSoC-4-BLE-master\100_Projects_in_100_Days\Day049_BLE_Mesh_Flood\Mesh_Flood\Mesh_Flood_PSoC4BLE.cydsn/ble_process.c **** 		{
 553:..\..\..\PSoC-4-BLE-master\100_Projects_in_100_Days\Day049_BLE_Mesh_Flood\Mesh_Flood\Mesh_Flood_PSoC4BLE.cydsn/ble_process.c **** 			case BLE_PERIPHERAL:
 554:..\..\..\PSoC-4-BLE-master\100_Projects_in_100_Days\Day049_BLE_Mesh_Flood\Mesh_Flood\Mesh_Flood_PSoC4BLE.cydsn/ble_process.c **** 				/* If the current role is Peripheral and system is advertising,
 555:..\..\..\PSoC-4-BLE-master\100_Projects_in_100_Days\Day049_BLE_Mesh_Flood\Mesh_Flood\Mesh_Flood_PSoC4BLE.cydsn/ble_process.c **** 				* then stop advertisement before switching role */
 556:..\..\..\PSoC-4-BLE-master\100_Projects_in_100_Days\Day049_BLE_Mesh_Flood\Mesh_Flood\Mesh_Flood_PSoC4BLE.cydsn/ble_process.c **** 				if(CyBle_GetState() == CYBLE_STATE_ADVERTISING)
 557:..\..\..\PSoC-4-BLE-master\100_Projects_in_100_Days\Day049_BLE_Mesh_Flood\Mesh_Flood\Mesh_Flood_PSoC4BLE.cydsn/ble_process.c **** 				{
 558:..\..\..\PSoC-4-BLE-master\100_Projects_in_100_Days\Day049_BLE_Mesh_Flood\Mesh_Flood\Mesh_Flood_PSoC4BLE.cydsn/ble_process.c **** 					CyBle_GappStopAdvertisement();
 559:..\..\..\PSoC-4-BLE-master\100_Projects_in_100_Days\Day049_BLE_Mesh_Flood\Mesh_Flood\Mesh_Flood_PSoC4BLE.cydsn/ble_process.c **** 					CyBle_ProcessEvents();
 560:..\..\..\PSoC-4-BLE-master\100_Projects_in_100_Days\Day049_BLE_Mesh_Flood\Mesh_Flood\Mesh_Flood_PSoC4BLE.cydsn/ble_process.c **** 
 561:..\..\..\PSoC-4-BLE-master\100_Projects_in_100_Days\Day049_BLE_Mesh_Flood\Mesh_Flood\Mesh_Flood_PSoC4BLE.cydsn/ble_process.c **** 					#ifdef DEBUG_ENABLED
 562:..\..\..\PSoC-4-BLE-master\100_Projects_in_100_Days\Day049_BLE_Mesh_Flood\Mesh_Flood\Mesh_Flood_PSoC4BLE.cydsn/ble_process.c **** 						UART_UartPutString("Peripheral Advertisment Stopped ");
 563:..\..\..\PSoC-4-BLE-master\100_Projects_in_100_Days\Day049_BLE_Mesh_Flood\Mesh_Flood\Mesh_Flood_PSoC4BLE.cydsn/ble_process.c **** 						SendBLEStatetoUART(CyBle_GetState());
 564:..\..\..\PSoC-4-BLE-master\100_Projects_in_100_Days\Day049_BLE_Mesh_Flood\Mesh_Flood\Mesh_Flood_PSoC4BLE.cydsn/ble_process.c **** 						UART_UartPutCRLF(' ');
 565:..\..\..\PSoC-4-BLE-master\100_Projects_in_100_Days\Day049_BLE_Mesh_Flood\Mesh_Flood\Mesh_Flood_PSoC4BLE.cydsn/ble_process.c **** 					#endif
 566:..\..\..\PSoC-4-BLE-master\100_Projects_in_100_Days\Day049_BLE_Mesh_Flood\Mesh_Flood\Mesh_Flood_PSoC4BLE.cydsn/ble_process.c **** 				}
ARM GAS  C:\Users\User\AppData\Local\Temp\cc96DgHN.s 			page 28


 567:..\..\..\PSoC-4-BLE-master\100_Projects_in_100_Days\Day049_BLE_Mesh_Flood\Mesh_Flood\Mesh_Flood_PSoC4BLE.cydsn/ble_process.c **** 				
 568:..\..\..\PSoC-4-BLE-master\100_Projects_in_100_Days\Day049_BLE_Mesh_Flood\Mesh_Flood\Mesh_Flood_PSoC4BLE.cydsn/ble_process.c **** 				if(CyBle_GetState() == CYBLE_STATE_DISCONNECTED)
 569:..\..\..\PSoC-4-BLE-master\100_Projects_in_100_Days\Day049_BLE_Mesh_Flood\Mesh_Flood\Mesh_Flood_PSoC4BLE.cydsn/ble_process.c **** 				{
 570:..\..\..\PSoC-4-BLE-master\100_Projects_in_100_Days\Day049_BLE_Mesh_Flood\Mesh_Flood\Mesh_Flood_PSoC4BLE.cydsn/ble_process.c **** 					/* Switch BLE role by starting scan. This way, the system is set
 571:..\..\..\PSoC-4-BLE-master\100_Projects_in_100_Days\Day049_BLE_Mesh_Flood\Mesh_Flood\Mesh_Flood_PSoC4BLE.cydsn/ble_process.c **** 					* to Central role */
 572:..\..\..\PSoC-4-BLE-master\100_Projects_in_100_Days\Day049_BLE_Mesh_Flood\Mesh_Flood\Mesh_Flood_PSoC4BLE.cydsn/ble_process.c **** 					apiResult = CyBle_GapcStartScan(CYBLE_SCANNING_FAST);
 573:..\..\..\PSoC-4-BLE-master\100_Projects_in_100_Days\Day049_BLE_Mesh_Flood\Mesh_Flood\Mesh_Flood_PSoC4BLE.cydsn/ble_process.c **** 					
 574:..\..\..\PSoC-4-BLE-master\100_Projects_in_100_Days\Day049_BLE_Mesh_Flood\Mesh_Flood\Mesh_Flood_PSoC4BLE.cydsn/ble_process.c **** 					if(CYBLE_ERROR_OK == apiResult)
 575:..\..\..\PSoC-4-BLE-master\100_Projects_in_100_Days\Day049_BLE_Mesh_Flood\Mesh_Flood\Mesh_Flood_PSoC4BLE.cydsn/ble_process.c **** 					{
 576:..\..\..\PSoC-4-BLE-master\100_Projects_in_100_Days\Day049_BLE_Mesh_Flood\Mesh_Flood\Mesh_Flood_PSoC4BLE.cydsn/ble_process.c **** 						#ifdef DEBUG_ENABLED
 577:..\..\..\PSoC-4-BLE-master\100_Projects_in_100_Days\Day049_BLE_Mesh_Flood\Mesh_Flood\Mesh_Flood_PSoC4BLE.cydsn/ble_process.c **** 						UART_UartPutString("Start Scan API called ");
 578:..\..\..\PSoC-4-BLE-master\100_Projects_in_100_Days\Day049_BLE_Mesh_Flood\Mesh_Flood\Mesh_Flood_PSoC4BLE.cydsn/ble_process.c **** 						SendBLEStatetoUART(CyBle_GetState());
 579:..\..\..\PSoC-4-BLE-master\100_Projects_in_100_Days\Day049_BLE_Mesh_Flood\Mesh_Flood\Mesh_Flood_PSoC4BLE.cydsn/ble_process.c **** 						UART_UartPutCRLF(' ');
 580:..\..\..\PSoC-4-BLE-master\100_Projects_in_100_Days\Day049_BLE_Mesh_Flood\Mesh_Flood\Mesh_Flood_PSoC4BLE.cydsn/ble_process.c **** 						#endif
 581:..\..\..\PSoC-4-BLE-master\100_Projects_in_100_Days\Day049_BLE_Mesh_Flood\Mesh_Flood\Mesh_Flood_PSoC4BLE.cydsn/ble_process.c **** 						
 582:..\..\..\PSoC-4-BLE-master\100_Projects_in_100_Days\Day049_BLE_Mesh_Flood\Mesh_Flood\Mesh_Flood_PSoC4BLE.cydsn/ble_process.c **** 						/* Record the time at which Central role was started. This will be 
 583:..\..\..\PSoC-4-BLE-master\100_Projects_in_100_Days\Day049_BLE_Mesh_Flood\Mesh_Flood\Mesh_Flood_PSoC4BLE.cydsn/ble_process.c **** 						* used for timeout and switching to Peripheral operation*/
 584:..\..\..\PSoC-4-BLE-master\100_Projects_in_100_Days\Day049_BLE_Mesh_Flood\Mesh_Flood\Mesh_Flood_PSoC4BLE.cydsn/ble_process.c **** 						centralStartedTime = WatchDog_CurrentCount();
 585:..\..\..\PSoC-4-BLE-master\100_Projects_in_100_Days\Day049_BLE_Mesh_Flood\Mesh_Flood\Mesh_Flood_PSoC4BLE.cydsn/ble_process.c **** 						
 586:..\..\..\PSoC-4-BLE-master\100_Projects_in_100_Days\Day049_BLE_Mesh_Flood\Mesh_Flood\Mesh_Flood_PSoC4BLE.cydsn/ble_process.c **** 						/* Update the current BLE role to Central */
 587:..\..\..\PSoC-4-BLE-master\100_Projects_in_100_Days\Day049_BLE_Mesh_Flood\Mesh_Flood\Mesh_Flood_PSoC4BLE.cydsn/ble_process.c **** 						ble_gap_state = BLE_CENTRAL;
 588:..\..\..\PSoC-4-BLE-master\100_Projects_in_100_Days\Day049_BLE_Mesh_Flood\Mesh_Flood\Mesh_Flood_PSoC4BLE.cydsn/ble_process.c **** 						
 589:..\..\..\PSoC-4-BLE-master\100_Projects_in_100_Days\Day049_BLE_Mesh_Flood\Mesh_Flood\Mesh_Flood_PSoC4BLE.cydsn/ble_process.c **** 						/* Reset the switch role flag*/
 590:..\..\..\PSoC-4-BLE-master\100_Projects_in_100_Days\Day049_BLE_Mesh_Flood\Mesh_Flood\Mesh_Flood_PSoC4BLE.cydsn/ble_process.c **** 						switch_Role = FALSE;
 591:..\..\..\PSoC-4-BLE-master\100_Projects_in_100_Days\Day049_BLE_Mesh_Flood\Mesh_Flood\Mesh_Flood_PSoC4BLE.cydsn/ble_process.c **** 					}
 592:..\..\..\PSoC-4-BLE-master\100_Projects_in_100_Days\Day049_BLE_Mesh_Flood\Mesh_Flood\Mesh_Flood_PSoC4BLE.cydsn/ble_process.c **** 					else
 593:..\..\..\PSoC-4-BLE-master\100_Projects_in_100_Days\Day049_BLE_Mesh_Flood\Mesh_Flood\Mesh_Flood_PSoC4BLE.cydsn/ble_process.c **** 					{
 594:..\..\..\PSoC-4-BLE-master\100_Projects_in_100_Days\Day049_BLE_Mesh_Flood\Mesh_Flood\Mesh_Flood_PSoC4BLE.cydsn/ble_process.c **** 						/* If scanning did not start, maintain the current role and retry later */
 595:..\..\..\PSoC-4-BLE-master\100_Projects_in_100_Days\Day049_BLE_Mesh_Flood\Mesh_Flood\Mesh_Flood_PSoC4BLE.cydsn/ble_process.c **** 						ble_gap_state = BLE_PERIPHERAL;
 596:..\..\..\PSoC-4-BLE-master\100_Projects_in_100_Days\Day049_BLE_Mesh_Flood\Mesh_Flood\Mesh_Flood_PSoC4BLE.cydsn/ble_process.c **** 						
 597:..\..\..\PSoC-4-BLE-master\100_Projects_in_100_Days\Day049_BLE_Mesh_Flood\Mesh_Flood\Mesh_Flood_PSoC4BLE.cydsn/ble_process.c **** 						#ifdef DEBUG_ENABLED
 598:..\..\..\PSoC-4-BLE-master\100_Projects_in_100_Days\Day049_BLE_Mesh_Flood\Mesh_Flood\Mesh_Flood_PSoC4BLE.cydsn/ble_process.c **** 						UART_UartPutString("Start Scan API failed ");
 599:..\..\..\PSoC-4-BLE-master\100_Projects_in_100_Days\Day049_BLE_Mesh_Flood\Mesh_Flood\Mesh_Flood_PSoC4BLE.cydsn/ble_process.c **** 						SendBLEStatetoUART(CyBle_GetState());
 600:..\..\..\PSoC-4-BLE-master\100_Projects_in_100_Days\Day049_BLE_Mesh_Flood\Mesh_Flood\Mesh_Flood_PSoC4BLE.cydsn/ble_process.c **** 						UART_UartPutCRLF(' ');
 601:..\..\..\PSoC-4-BLE-master\100_Projects_in_100_Days\Day049_BLE_Mesh_Flood\Mesh_Flood\Mesh_Flood_PSoC4BLE.cydsn/ble_process.c **** 						#endif
 602:..\..\..\PSoC-4-BLE-master\100_Projects_in_100_Days\Day049_BLE_Mesh_Flood\Mesh_Flood\Mesh_Flood_PSoC4BLE.cydsn/ble_process.c **** 					}
 603:..\..\..\PSoC-4-BLE-master\100_Projects_in_100_Days\Day049_BLE_Mesh_Flood\Mesh_Flood\Mesh_Flood_PSoC4BLE.cydsn/ble_process.c **** 				}
 604:..\..\..\PSoC-4-BLE-master\100_Projects_in_100_Days\Day049_BLE_Mesh_Flood\Mesh_Flood\Mesh_Flood_PSoC4BLE.cydsn/ble_process.c **** 				
 605:..\..\..\PSoC-4-BLE-master\100_Projects_in_100_Days\Day049_BLE_Mesh_Flood\Mesh_Flood\Mesh_Flood_PSoC4BLE.cydsn/ble_process.c **** 				/* Process Pending BLE Events */
 606:..\..\..\PSoC-4-BLE-master\100_Projects_in_100_Days\Day049_BLE_Mesh_Flood\Mesh_Flood\Mesh_Flood_PSoC4BLE.cydsn/ble_process.c **** 				CyBle_ProcessEvents();
 607:..\..\..\PSoC-4-BLE-master\100_Projects_in_100_Days\Day049_BLE_Mesh_Flood\Mesh_Flood\Mesh_Flood_PSoC4BLE.cydsn/ble_process.c **** 				
 608:..\..\..\PSoC-4-BLE-master\100_Projects_in_100_Days\Day049_BLE_Mesh_Flood\Mesh_Flood\Mesh_Flood_PSoC4BLE.cydsn/ble_process.c **** 			break;
 609:..\..\..\PSoC-4-BLE-master\100_Projects_in_100_Days\Day049_BLE_Mesh_Flood\Mesh_Flood\Mesh_Flood_PSoC4BLE.cydsn/ble_process.c **** 			
 610:..\..\..\PSoC-4-BLE-master\100_Projects_in_100_Days\Day049_BLE_Mesh_Flood\Mesh_Flood\Mesh_Flood_PSoC4BLE.cydsn/ble_process.c **** 			case BLE_CENTRAL:
 611:..\..\..\PSoC-4-BLE-master\100_Projects_in_100_Days\Day049_BLE_Mesh_Flood\Mesh_Flood\Mesh_Flood_PSoC4BLE.cydsn/ble_process.c **** 				/* If the current role is Central and system is scanning,
 612:..\..\..\PSoC-4-BLE-master\100_Projects_in_100_Days\Day049_BLE_Mesh_Flood\Mesh_Flood\Mesh_Flood_PSoC4BLE.cydsn/ble_process.c **** 				* then stop scanning before switching role */
 613:..\..\..\PSoC-4-BLE-master\100_Projects_in_100_Days\Day049_BLE_Mesh_Flood\Mesh_Flood\Mesh_Flood_PSoC4BLE.cydsn/ble_process.c **** 				if(CyBle_GetState() == CYBLE_STATE_SCANNING)
 614:..\..\..\PSoC-4-BLE-master\100_Projects_in_100_Days\Day049_BLE_Mesh_Flood\Mesh_Flood\Mesh_Flood_PSoC4BLE.cydsn/ble_process.c **** 				{
 615:..\..\..\PSoC-4-BLE-master\100_Projects_in_100_Days\Day049_BLE_Mesh_Flood\Mesh_Flood\Mesh_Flood_PSoC4BLE.cydsn/ble_process.c **** 					CyBle_GapcStopScan();
 616:..\..\..\PSoC-4-BLE-master\100_Projects_in_100_Days\Day049_BLE_Mesh_Flood\Mesh_Flood\Mesh_Flood_PSoC4BLE.cydsn/ble_process.c **** 					CyBle_ProcessEvents();
 617:..\..\..\PSoC-4-BLE-master\100_Projects_in_100_Days\Day049_BLE_Mesh_Flood\Mesh_Flood\Mesh_Flood_PSoC4BLE.cydsn/ble_process.c **** 					
 618:..\..\..\PSoC-4-BLE-master\100_Projects_in_100_Days\Day049_BLE_Mesh_Flood\Mesh_Flood\Mesh_Flood_PSoC4BLE.cydsn/ble_process.c **** 					#ifdef DEBUG_ENABLED
 619:..\..\..\PSoC-4-BLE-master\100_Projects_in_100_Days\Day049_BLE_Mesh_Flood\Mesh_Flood\Mesh_Flood_PSoC4BLE.cydsn/ble_process.c **** 						UART_UartPutString("Central Scan stopped ");
 620:..\..\..\PSoC-4-BLE-master\100_Projects_in_100_Days\Day049_BLE_Mesh_Flood\Mesh_Flood\Mesh_Flood_PSoC4BLE.cydsn/ble_process.c **** 						UART_UartPutCRLF(' ');
 621:..\..\..\PSoC-4-BLE-master\100_Projects_in_100_Days\Day049_BLE_Mesh_Flood\Mesh_Flood\Mesh_Flood_PSoC4BLE.cydsn/ble_process.c **** 					#endif
 622:..\..\..\PSoC-4-BLE-master\100_Projects_in_100_Days\Day049_BLE_Mesh_Flood\Mesh_Flood\Mesh_Flood_PSoC4BLE.cydsn/ble_process.c **** 				}
 623:..\..\..\PSoC-4-BLE-master\100_Projects_in_100_Days\Day049_BLE_Mesh_Flood\Mesh_Flood\Mesh_Flood_PSoC4BLE.cydsn/ble_process.c **** 				
ARM GAS  C:\Users\User\AppData\Local\Temp\cc96DgHN.s 			page 29


 624:..\..\..\PSoC-4-BLE-master\100_Projects_in_100_Days\Day049_BLE_Mesh_Flood\Mesh_Flood\Mesh_Flood_PSoC4BLE.cydsn/ble_process.c **** 				if(CyBle_GetState() == CYBLE_STATE_DISCONNECTED)
 625:..\..\..\PSoC-4-BLE-master\100_Projects_in_100_Days\Day049_BLE_Mesh_Flood\Mesh_Flood\Mesh_Flood_PSoC4BLE.cydsn/ble_process.c **** 				{
 626:..\..\..\PSoC-4-BLE-master\100_Projects_in_100_Days\Day049_BLE_Mesh_Flood\Mesh_Flood\Mesh_Flood_PSoC4BLE.cydsn/ble_process.c **** 					#ifdef ENABLE_ADV_DATA_COUNTER
 627:..\..\..\PSoC-4-BLE-master\100_Projects_in_100_Days\Day049_BLE_Mesh_Flood\Mesh_Flood\Mesh_Flood_PSoC4BLE.cydsn/ble_process.c **** 					/* Increment data counter */
 628:..\..\..\PSoC-4-BLE-master\100_Projects_in_100_Days\Day049_BLE_Mesh_Flood\Mesh_Flood\Mesh_Flood_PSoC4BLE.cydsn/ble_process.c **** 					new_advData.advData[new_advData.advDataLen - 1] = dataADVCounter;
 629:..\..\..\PSoC-4-BLE-master\100_Projects_in_100_Days\Day049_BLE_Mesh_Flood\Mesh_Flood\Mesh_Flood_PSoC4BLE.cydsn/ble_process.c **** 					
 630:..\..\..\PSoC-4-BLE-master\100_Projects_in_100_Days\Day049_BLE_Mesh_Flood\Mesh_Flood\Mesh_Flood_PSoC4BLE.cydsn/ble_process.c **** 					cyBle_discoveryModeInfo.advData = &new_advData;
 631:..\..\..\PSoC-4-BLE-master\100_Projects_in_100_Days\Day049_BLE_Mesh_Flood\Mesh_Flood\Mesh_Flood_PSoC4BLE.cydsn/ble_process.c **** 					
 632:..\..\..\PSoC-4-BLE-master\100_Projects_in_100_Days\Day049_BLE_Mesh_Flood\Mesh_Flood\Mesh_Flood_PSoC4BLE.cydsn/ble_process.c **** 					#ifdef DEBUG_ENABLED
 633:..\..\..\PSoC-4-BLE-master\100_Projects_in_100_Days\Day049_BLE_Mesh_Flood\Mesh_Flood\Mesh_Flood_PSoC4BLE.cydsn/ble_process.c **** 						UART_UartPutString("Updated ADV data = ");
 634:..\..\..\PSoC-4-BLE-master\100_Projects_in_100_Days\Day049_BLE_Mesh_Flood\Mesh_Flood\Mesh_Flood_PSoC4BLE.cydsn/ble_process.c **** 						PrintNum(dataADVCounter);
 635:..\..\..\PSoC-4-BLE-master\100_Projects_in_100_Days\Day049_BLE_Mesh_Flood\Mesh_Flood\Mesh_Flood_PSoC4BLE.cydsn/ble_process.c **** 						UART_UartPutCRLF(' ');
 636:..\..\..\PSoC-4-BLE-master\100_Projects_in_100_Days\Day049_BLE_Mesh_Flood\Mesh_Flood\Mesh_Flood_PSoC4BLE.cydsn/ble_process.c **** 					#endif
 637:..\..\..\PSoC-4-BLE-master\100_Projects_in_100_Days\Day049_BLE_Mesh_Flood\Mesh_Flood\Mesh_Flood_PSoC4BLE.cydsn/ble_process.c **** 					#endif
 638:..\..\..\PSoC-4-BLE-master\100_Projects_in_100_Days\Day049_BLE_Mesh_Flood\Mesh_Flood\Mesh_Flood_PSoC4BLE.cydsn/ble_process.c **** 					
 639:..\..\..\PSoC-4-BLE-master\100_Projects_in_100_Days\Day049_BLE_Mesh_Flood\Mesh_Flood\Mesh_Flood_PSoC4BLE.cydsn/ble_process.c **** 					/* Switch BLE role by starting advertisement. This way, the system is 
 640:..\..\..\PSoC-4-BLE-master\100_Projects_in_100_Days\Day049_BLE_Mesh_Flood\Mesh_Flood\Mesh_Flood_PSoC4BLE.cydsn/ble_process.c **** 					* set to Peripheral role */
 641:..\..\..\PSoC-4-BLE-master\100_Projects_in_100_Days\Day049_BLE_Mesh_Flood\Mesh_Flood\Mesh_Flood_PSoC4BLE.cydsn/ble_process.c **** 					apiResult = CyBle_GappStartAdvertisement(CYBLE_ADVERTISING_FAST);
 642:..\..\..\PSoC-4-BLE-master\100_Projects_in_100_Days\Day049_BLE_Mesh_Flood\Mesh_Flood\Mesh_Flood_PSoC4BLE.cydsn/ble_process.c **** 					
 643:..\..\..\PSoC-4-BLE-master\100_Projects_in_100_Days\Day049_BLE_Mesh_Flood\Mesh_Flood\Mesh_Flood_PSoC4BLE.cydsn/ble_process.c **** 					if(apiResult == CYBLE_ERROR_OK)
 644:..\..\..\PSoC-4-BLE-master\100_Projects_in_100_Days\Day049_BLE_Mesh_Flood\Mesh_Flood\Mesh_Flood_PSoC4BLE.cydsn/ble_process.c **** 					{
 645:..\..\..\PSoC-4-BLE-master\100_Projects_in_100_Days\Day049_BLE_Mesh_Flood\Mesh_Flood\Mesh_Flood_PSoC4BLE.cydsn/ble_process.c **** 						/* If advertisement started successfully, set the BLE state and
 646:..\..\..\PSoC-4-BLE-master\100_Projects_in_100_Days\Day049_BLE_Mesh_Flood\Mesh_Flood\Mesh_Flood_PSoC4BLE.cydsn/ble_process.c **** 						* reset the switch role flag*/
 647:..\..\..\PSoC-4-BLE-master\100_Projects_in_100_Days\Day049_BLE_Mesh_Flood\Mesh_Flood\Mesh_Flood_PSoC4BLE.cydsn/ble_process.c **** 						ble_gap_state = BLE_PERIPHERAL;
 648:..\..\..\PSoC-4-BLE-master\100_Projects_in_100_Days\Day049_BLE_Mesh_Flood\Mesh_Flood\Mesh_Flood_PSoC4BLE.cydsn/ble_process.c **** 						clientConnectToDevice = FALSE;	
 649:..\..\..\PSoC-4-BLE-master\100_Projects_in_100_Days\Day049_BLE_Mesh_Flood\Mesh_Flood\Mesh_Flood_PSoC4BLE.cydsn/ble_process.c **** 						switch_Role = FALSE;
 650:..\..\..\PSoC-4-BLE-master\100_Projects_in_100_Days\Day049_BLE_Mesh_Flood\Mesh_Flood\Mesh_Flood_PSoC4BLE.cydsn/ble_process.c **** 						
 651:..\..\..\PSoC-4-BLE-master\100_Projects_in_100_Days\Day049_BLE_Mesh_Flood\Mesh_Flood\Mesh_Flood_PSoC4BLE.cydsn/ble_process.c **** 						#ifdef DEBUG_ENABLED
 652:..\..\..\PSoC-4-BLE-master\100_Projects_in_100_Days\Day049_BLE_Mesh_Flood\Mesh_Flood\Mesh_Flood_PSoC4BLE.cydsn/ble_process.c **** 						UART_UartPutString("Peripheral Advertisment called ");
 653:..\..\..\PSoC-4-BLE-master\100_Projects_in_100_Days\Day049_BLE_Mesh_Flood\Mesh_Flood\Mesh_Flood_PSoC4BLE.cydsn/ble_process.c **** 						SendBLEStatetoUART(CyBle_GetState());
 654:..\..\..\PSoC-4-BLE-master\100_Projects_in_100_Days\Day049_BLE_Mesh_Flood\Mesh_Flood\Mesh_Flood_PSoC4BLE.cydsn/ble_process.c **** 						UART_UartPutCRLF(' ');
 655:..\..\..\PSoC-4-BLE-master\100_Projects_in_100_Days\Day049_BLE_Mesh_Flood\Mesh_Flood\Mesh_Flood_PSoC4BLE.cydsn/ble_process.c **** 						#endif
 656:..\..\..\PSoC-4-BLE-master\100_Projects_in_100_Days\Day049_BLE_Mesh_Flood\Mesh_Flood\Mesh_Flood_PSoC4BLE.cydsn/ble_process.c **** 					}
 657:..\..\..\PSoC-4-BLE-master\100_Projects_in_100_Days\Day049_BLE_Mesh_Flood\Mesh_Flood\Mesh_Flood_PSoC4BLE.cydsn/ble_process.c **** 					else
 658:..\..\..\PSoC-4-BLE-master\100_Projects_in_100_Days\Day049_BLE_Mesh_Flood\Mesh_Flood\Mesh_Flood_PSoC4BLE.cydsn/ble_process.c **** 					{
 659:..\..\..\PSoC-4-BLE-master\100_Projects_in_100_Days\Day049_BLE_Mesh_Flood\Mesh_Flood\Mesh_Flood_PSoC4BLE.cydsn/ble_process.c **** 						/* If advertisement did not start, maintain the current role and retry later */
 660:..\..\..\PSoC-4-BLE-master\100_Projects_in_100_Days\Day049_BLE_Mesh_Flood\Mesh_Flood\Mesh_Flood_PSoC4BLE.cydsn/ble_process.c **** 						ble_gap_state = BLE_CENTRAL;
 661:..\..\..\PSoC-4-BLE-master\100_Projects_in_100_Days\Day049_BLE_Mesh_Flood\Mesh_Flood\Mesh_Flood_PSoC4BLE.cydsn/ble_process.c **** 						
 662:..\..\..\PSoC-4-BLE-master\100_Projects_in_100_Days\Day049_BLE_Mesh_Flood\Mesh_Flood\Mesh_Flood_PSoC4BLE.cydsn/ble_process.c **** 						#ifdef DEBUG_ENABLED
 663:..\..\..\PSoC-4-BLE-master\100_Projects_in_100_Days\Day049_BLE_Mesh_Flood\Mesh_Flood\Mesh_Flood_PSoC4BLE.cydsn/ble_process.c **** 						UART_UartPutString("Start Peripheral Advertisment Failed ");
 664:..\..\..\PSoC-4-BLE-master\100_Projects_in_100_Days\Day049_BLE_Mesh_Flood\Mesh_Flood\Mesh_Flood_PSoC4BLE.cydsn/ble_process.c **** 						SendBLEStatetoUART(CyBle_GetState());
 665:..\..\..\PSoC-4-BLE-master\100_Projects_in_100_Days\Day049_BLE_Mesh_Flood\Mesh_Flood\Mesh_Flood_PSoC4BLE.cydsn/ble_process.c **** 						UART_UartPutCRLF(' ');
 666:..\..\..\PSoC-4-BLE-master\100_Projects_in_100_Days\Day049_BLE_Mesh_Flood\Mesh_Flood\Mesh_Flood_PSoC4BLE.cydsn/ble_process.c **** 						#endif					
 667:..\..\..\PSoC-4-BLE-master\100_Projects_in_100_Days\Day049_BLE_Mesh_Flood\Mesh_Flood\Mesh_Flood_PSoC4BLE.cydsn/ble_process.c **** 					}
 668:..\..\..\PSoC-4-BLE-master\100_Projects_in_100_Days\Day049_BLE_Mesh_Flood\Mesh_Flood\Mesh_Flood_PSoC4BLE.cydsn/ble_process.c **** 				}
 669:..\..\..\PSoC-4-BLE-master\100_Projects_in_100_Days\Day049_BLE_Mesh_Flood\Mesh_Flood\Mesh_Flood_PSoC4BLE.cydsn/ble_process.c **** 				
 670:..\..\..\PSoC-4-BLE-master\100_Projects_in_100_Days\Day049_BLE_Mesh_Flood\Mesh_Flood\Mesh_Flood_PSoC4BLE.cydsn/ble_process.c **** 				/* Process Pending BLE Events */
 671:..\..\..\PSoC-4-BLE-master\100_Projects_in_100_Days\Day049_BLE_Mesh_Flood\Mesh_Flood\Mesh_Flood_PSoC4BLE.cydsn/ble_process.c **** 				CyBle_ProcessEvents();
 672:..\..\..\PSoC-4-BLE-master\100_Projects_in_100_Days\Day049_BLE_Mesh_Flood\Mesh_Flood\Mesh_Flood_PSoC4BLE.cydsn/ble_process.c **** 			break;
 673:..\..\..\PSoC-4-BLE-master\100_Projects_in_100_Days\Day049_BLE_Mesh_Flood\Mesh_Flood\Mesh_Flood_PSoC4BLE.cydsn/ble_process.c **** 			
 674:..\..\..\PSoC-4-BLE-master\100_Projects_in_100_Days\Day049_BLE_Mesh_Flood\Mesh_Flood\Mesh_Flood_PSoC4BLE.cydsn/ble_process.c **** 			default:
 675:..\..\..\PSoC-4-BLE-master\100_Projects_in_100_Days\Day049_BLE_Mesh_Flood\Mesh_Flood\Mesh_Flood_PSoC4BLE.cydsn/ble_process.c **** 			
 676:..\..\..\PSoC-4-BLE-master\100_Projects_in_100_Days\Day049_BLE_Mesh_Flood\Mesh_Flood\Mesh_Flood_PSoC4BLE.cydsn/ble_process.c **** 			break;
 832              		.loc 1 676 0
 833 0034 4DE0     		b	.L37
 834              	.L40:
 556:..\..\..\PSoC-4-BLE-master\100_Projects_in_100_Days\Day049_BLE_Mesh_Flood\Mesh_Flood\Mesh_Flood_PSoC4BLE.cydsn/ble_process.c **** 				{
ARM GAS  C:\Users\User\AppData\Local\Temp\cc96DgHN.s 			page 30


 835              		.loc 1 556 0
 836 0036 2C4B     		ldr	r3, .L49+12
 837 0038 1B78     		ldrb	r3, [r3]
 838 003a 032B     		cmp	r3, #3
 839 003c 03D1     		bne	.L42
 558:..\..\..\PSoC-4-BLE-master\100_Projects_in_100_Days\Day049_BLE_Mesh_Flood\Mesh_Flood\Mesh_Flood_PSoC4BLE.cydsn/ble_process.c **** 					CyBle_ProcessEvents();
 840              		.loc 1 558 0
 841 003e FFF7FEFF 		bl	CyBle_GappStopAdvertisement
 559:..\..\..\PSoC-4-BLE-master\100_Projects_in_100_Days\Day049_BLE_Mesh_Flood\Mesh_Flood\Mesh_Flood_PSoC4BLE.cydsn/ble_process.c **** 
 842              		.loc 1 559 0
 843 0042 FFF7FEFF 		bl	CyBle_ProcessEvents
 844              	.L42:
 568:..\..\..\PSoC-4-BLE-master\100_Projects_in_100_Days\Day049_BLE_Mesh_Flood\Mesh_Flood\Mesh_Flood_PSoC4BLE.cydsn/ble_process.c **** 				{
 845              		.loc 1 568 0
 846 0046 284B     		ldr	r3, .L49+12
 847 0048 1B78     		ldrb	r3, [r3]
 848 004a 062B     		cmp	r3, #6
 849 004c 18D1     		bne	.L43
 572:..\..\..\PSoC-4-BLE-master\100_Projects_in_100_Days\Day049_BLE_Mesh_Flood\Mesh_Flood\Mesh_Flood_PSoC4BLE.cydsn/ble_process.c **** 					
 850              		.loc 1 572 0
 851 004e BC1D     		adds	r4, r7, #6
 852 0050 0020     		movs	r0, #0
 853 0052 FFF7FEFF 		bl	CyBle_GapcStartScan
 854 0056 0300     		movs	r3, r0
 855 0058 2380     		strh	r3, [r4]
 574:..\..\..\PSoC-4-BLE-master\100_Projects_in_100_Days\Day049_BLE_Mesh_Flood\Mesh_Flood\Mesh_Flood_PSoC4BLE.cydsn/ble_process.c **** 					{
 856              		.loc 1 574 0
 857 005a BB1D     		adds	r3, r7, #6
 858 005c 1B88     		ldrh	r3, [r3]
 859 005e 002B     		cmp	r3, #0
 860 0060 0BD1     		bne	.L44
 584:..\..\..\PSoC-4-BLE-master\100_Projects_in_100_Days\Day049_BLE_Mesh_Flood\Mesh_Flood\Mesh_Flood_PSoC4BLE.cydsn/ble_process.c **** 						
 861              		.loc 1 584 0
 862 0062 224B     		ldr	r3, .L49+16
 863 0064 1B88     		ldrh	r3, [r3]
 864 0066 9AB2     		uxth	r2, r3
 865 0068 214B     		ldr	r3, .L49+20
 866 006a 1A80     		strh	r2, [r3]
 587:..\..\..\PSoC-4-BLE-master\100_Projects_in_100_Days\Day049_BLE_Mesh_Flood\Mesh_Flood\Mesh_Flood_PSoC4BLE.cydsn/ble_process.c **** 						
 867              		.loc 1 587 0
 868 006c 1D4B     		ldr	r3, .L49+8
 869 006e 0222     		movs	r2, #2
 870 0070 1A70     		strb	r2, [r3]
 590:..\..\..\PSoC-4-BLE-master\100_Projects_in_100_Days\Day049_BLE_Mesh_Flood\Mesh_Flood\Mesh_Flood_PSoC4BLE.cydsn/ble_process.c **** 					}
 871              		.loc 1 590 0
 872 0072 1A4B     		ldr	r3, .L49
 873 0074 0022     		movs	r2, #0
 874 0076 1A70     		strb	r2, [r3]
 875 0078 02E0     		b	.L43
 876              	.L44:
 595:..\..\..\PSoC-4-BLE-master\100_Projects_in_100_Days\Day049_BLE_Mesh_Flood\Mesh_Flood\Mesh_Flood_PSoC4BLE.cydsn/ble_process.c **** 						
 877              		.loc 1 595 0
 878 007a 1A4B     		ldr	r3, .L49+8
 879 007c 0122     		movs	r2, #1
 880 007e 1A70     		strb	r2, [r3]
 881              	.L43:
 606:..\..\..\PSoC-4-BLE-master\100_Projects_in_100_Days\Day049_BLE_Mesh_Flood\Mesh_Flood\Mesh_Flood_PSoC4BLE.cydsn/ble_process.c **** 				
ARM GAS  C:\Users\User\AppData\Local\Temp\cc96DgHN.s 			page 31


 882              		.loc 1 606 0
 883 0080 FFF7FEFF 		bl	CyBle_ProcessEvents
 608:..\..\..\PSoC-4-BLE-master\100_Projects_in_100_Days\Day049_BLE_Mesh_Flood\Mesh_Flood\Mesh_Flood_PSoC4BLE.cydsn/ble_process.c **** 			
 884              		.loc 1 608 0
 885 0084 25E0     		b	.L37
 886              	.L41:
 613:..\..\..\PSoC-4-BLE-master\100_Projects_in_100_Days\Day049_BLE_Mesh_Flood\Mesh_Flood\Mesh_Flood_PSoC4BLE.cydsn/ble_process.c **** 				{
 887              		.loc 1 613 0
 888 0086 184B     		ldr	r3, .L49+12
 889 0088 1B78     		ldrb	r3, [r3]
 890 008a 042B     		cmp	r3, #4
 891 008c 03D1     		bne	.L45
 615:..\..\..\PSoC-4-BLE-master\100_Projects_in_100_Days\Day049_BLE_Mesh_Flood\Mesh_Flood\Mesh_Flood_PSoC4BLE.cydsn/ble_process.c **** 					CyBle_ProcessEvents();
 892              		.loc 1 615 0
 893 008e FFF7FEFF 		bl	CyBle_GapcStopScan
 616:..\..\..\PSoC-4-BLE-master\100_Projects_in_100_Days\Day049_BLE_Mesh_Flood\Mesh_Flood\Mesh_Flood_PSoC4BLE.cydsn/ble_process.c **** 					
 894              		.loc 1 616 0
 895 0092 FFF7FEFF 		bl	CyBle_ProcessEvents
 896              	.L45:
 624:..\..\..\PSoC-4-BLE-master\100_Projects_in_100_Days\Day049_BLE_Mesh_Flood\Mesh_Flood\Mesh_Flood_PSoC4BLE.cydsn/ble_process.c **** 				{
 897              		.loc 1 624 0
 898 0096 144B     		ldr	r3, .L49+12
 899 0098 1B78     		ldrb	r3, [r3]
 900 009a 062B     		cmp	r3, #6
 901 009c 16D1     		bne	.L46
 641:..\..\..\PSoC-4-BLE-master\100_Projects_in_100_Days\Day049_BLE_Mesh_Flood\Mesh_Flood\Mesh_Flood_PSoC4BLE.cydsn/ble_process.c **** 					
 902              		.loc 1 641 0
 903 009e BC1D     		adds	r4, r7, #6
 904 00a0 0020     		movs	r0, #0
 905 00a2 FFF7FEFF 		bl	CyBle_GappStartAdvertisement
 906 00a6 0300     		movs	r3, r0
 907 00a8 2380     		strh	r3, [r4]
 643:..\..\..\PSoC-4-BLE-master\100_Projects_in_100_Days\Day049_BLE_Mesh_Flood\Mesh_Flood\Mesh_Flood_PSoC4BLE.cydsn/ble_process.c **** 					{
 908              		.loc 1 643 0
 909 00aa BB1D     		adds	r3, r7, #6
 910 00ac 1B88     		ldrh	r3, [r3]
 911 00ae 002B     		cmp	r3, #0
 912 00b0 09D1     		bne	.L47
 647:..\..\..\PSoC-4-BLE-master\100_Projects_in_100_Days\Day049_BLE_Mesh_Flood\Mesh_Flood\Mesh_Flood_PSoC4BLE.cydsn/ble_process.c **** 						clientConnectToDevice = FALSE;	
 913              		.loc 1 647 0
 914 00b2 0C4B     		ldr	r3, .L49+8
 915 00b4 0122     		movs	r2, #1
 916 00b6 1A70     		strb	r2, [r3]
 648:..\..\..\PSoC-4-BLE-master\100_Projects_in_100_Days\Day049_BLE_Mesh_Flood\Mesh_Flood\Mesh_Flood_PSoC4BLE.cydsn/ble_process.c **** 						switch_Role = FALSE;
 917              		.loc 1 648 0
 918 00b8 0E4B     		ldr	r3, .L49+24
 919 00ba 0022     		movs	r2, #0
 920 00bc 1A70     		strb	r2, [r3]
 649:..\..\..\PSoC-4-BLE-master\100_Projects_in_100_Days\Day049_BLE_Mesh_Flood\Mesh_Flood\Mesh_Flood_PSoC4BLE.cydsn/ble_process.c **** 						
 921              		.loc 1 649 0
 922 00be 074B     		ldr	r3, .L49
 923 00c0 0022     		movs	r2, #0
 924 00c2 1A70     		strb	r2, [r3]
 925 00c4 02E0     		b	.L46
 926              	.L47:
 660:..\..\..\PSoC-4-BLE-master\100_Projects_in_100_Days\Day049_BLE_Mesh_Flood\Mesh_Flood\Mesh_Flood_PSoC4BLE.cydsn/ble_process.c **** 						
 927              		.loc 1 660 0
ARM GAS  C:\Users\User\AppData\Local\Temp\cc96DgHN.s 			page 32


 928 00c6 074B     		ldr	r3, .L49+8
 929 00c8 0222     		movs	r2, #2
 930 00ca 1A70     		strb	r2, [r3]
 931              	.L46:
 671:..\..\..\PSoC-4-BLE-master\100_Projects_in_100_Days\Day049_BLE_Mesh_Flood\Mesh_Flood\Mesh_Flood_PSoC4BLE.cydsn/ble_process.c **** 			break;
 932              		.loc 1 671 0
 933 00cc FFF7FEFF 		bl	CyBle_ProcessEvents
 672:..\..\..\PSoC-4-BLE-master\100_Projects_in_100_Days\Day049_BLE_Mesh_Flood\Mesh_Flood\Mesh_Flood_PSoC4BLE.cydsn/ble_process.c **** 			
 934              		.loc 1 672 0
 935 00d0 C046     		nop
 936              	.L37:
 937              	.L48:
 677:..\..\..\PSoC-4-BLE-master\100_Projects_in_100_Days\Day049_BLE_Mesh_Flood\Mesh_Flood\Mesh_Flood_PSoC4BLE.cydsn/ble_process.c **** 			
 678:..\..\..\PSoC-4-BLE-master\100_Projects_in_100_Days\Day049_BLE_Mesh_Flood\Mesh_Flood\Mesh_Flood_PSoC4BLE.cydsn/ble_process.c **** 		}
 679:..\..\..\PSoC-4-BLE-master\100_Projects_in_100_Days\Day049_BLE_Mesh_Flood\Mesh_Flood\Mesh_Flood_PSoC4BLE.cydsn/ble_process.c **** 	}
 680:..\..\..\PSoC-4-BLE-master\100_Projects_in_100_Days\Day049_BLE_Mesh_Flood\Mesh_Flood\Mesh_Flood_PSoC4BLE.cydsn/ble_process.c **** }
 938              		.loc 1 680 0
 939 00d2 C046     		nop
 940 00d4 BD46     		mov	sp, r7
 941 00d6 03B0     		add	sp, sp, #12
 942              		@ sp needed
 943 00d8 90BD     		pop	{r4, r7, pc}
 944              	.L50:
 945 00da C046     		.align	2
 946              	.L49:
 947 00dc 00000000 		.word	switch_Role
 948 00e0 00000000 		.word	cyBle_connHandle
 949 00e4 00000000 		.word	ble_gap_state
 950 00e8 00000000 		.word	cyBle_state
 951 00ec 00000000 		.word	current_watchdog_counter
 952 00f0 00000000 		.word	centralStartedTime
 953 00f4 00000000 		.word	clientConnectToDevice
 954              		.cfi_endproc
 955              	.LFE37:
 956              		.size	SwitchRole, .-SwitchRole
 957              		.section	.text.ConnectToPeripheralDevice,"ax",%progbits
 958              		.align	2
 959              		.global	ConnectToPeripheralDevice
 960              		.code	16
 961              		.thumb_func
 962              		.type	ConnectToPeripheralDevice, %function
 963              	ConnectToPeripheralDevice:
 964              	.LFB38:
 681:..\..\..\PSoC-4-BLE-master\100_Projects_in_100_Days\Day049_BLE_Mesh_Flood\Mesh_Flood\Mesh_Flood_PSoC4BLE.cydsn/ble_process.c **** 
 682:..\..\..\PSoC-4-BLE-master\100_Projects_in_100_Days\Day049_BLE_Mesh_Flood\Mesh_Flood\Mesh_Flood_PSoC4BLE.cydsn/ble_process.c **** /*******************************************************************************
 683:..\..\..\PSoC-4-BLE-master\100_Projects_in_100_Days\Day049_BLE_Mesh_Flood\Mesh_Flood\Mesh_Flood_PSoC4BLE.cydsn/ble_process.c **** * Function Name: ConnectToPeripheralDevice
 684:..\..\..\PSoC-4-BLE-master\100_Projects_in_100_Days\Day049_BLE_Mesh_Flood\Mesh_Flood\Mesh_Flood_PSoC4BLE.cydsn/ble_process.c **** ********************************************************************************
 685:..\..\..\PSoC-4-BLE-master\100_Projects_in_100_Days\Day049_BLE_Mesh_Flood\Mesh_Flood\Mesh_Flood_PSoC4BLE.cydsn/ble_process.c **** * Summary:
 686:..\..\..\PSoC-4-BLE-master\100_Projects_in_100_Days\Day049_BLE_Mesh_Flood\Mesh_Flood\Mesh_Flood_PSoC4BLE.cydsn/ble_process.c **** *        Connects to Peripheral device with given BD Address.
 687:..\..\..\PSoC-4-BLE-master\100_Projects_in_100_Days\Day049_BLE_Mesh_Flood\Mesh_Flood\Mesh_Flood_PSoC4BLE.cydsn/ble_process.c **** *
 688:..\..\..\PSoC-4-BLE-master\100_Projects_in_100_Days\Day049_BLE_Mesh_Flood\Mesh_Flood\Mesh_Flood_PSoC4BLE.cydsn/ble_process.c **** * Parameters:
 689:..\..\..\PSoC-4-BLE-master\100_Projects_in_100_Days\Day049_BLE_Mesh_Flood\Mesh_Flood\Mesh_Flood_PSoC4BLE.cydsn/ble_process.c **** *  void
 690:..\..\..\PSoC-4-BLE-master\100_Projects_in_100_Days\Day049_BLE_Mesh_Flood\Mesh_Flood\Mesh_Flood_PSoC4BLE.cydsn/ble_process.c **** *
 691:..\..\..\PSoC-4-BLE-master\100_Projects_in_100_Days\Day049_BLE_Mesh_Flood\Mesh_Flood\Mesh_Flood_PSoC4BLE.cydsn/ble_process.c **** * Return:
 692:..\..\..\PSoC-4-BLE-master\100_Projects_in_100_Days\Day049_BLE_Mesh_Flood\Mesh_Flood\Mesh_Flood_PSoC4BLE.cydsn/ble_process.c **** *  void
 693:..\..\..\PSoC-4-BLE-master\100_Projects_in_100_Days\Day049_BLE_Mesh_Flood\Mesh_Flood\Mesh_Flood_PSoC4BLE.cydsn/ble_process.c **** *
 694:..\..\..\PSoC-4-BLE-master\100_Projects_in_100_Days\Day049_BLE_Mesh_Flood\Mesh_Flood\Mesh_Flood_PSoC4BLE.cydsn/ble_process.c **** *******************************************************************************/
ARM GAS  C:\Users\User\AppData\Local\Temp\cc96DgHN.s 			page 33


 695:..\..\..\PSoC-4-BLE-master\100_Projects_in_100_Days\Day049_BLE_Mesh_Flood\Mesh_Flood\Mesh_Flood_PSoC4BLE.cydsn/ble_process.c **** void ConnectToPeripheralDevice(void)
 696:..\..\..\PSoC-4-BLE-master\100_Projects_in_100_Days\Day049_BLE_Mesh_Flood\Mesh_Flood\Mesh_Flood_PSoC4BLE.cydsn/ble_process.c **** {
 965              		.loc 1 696 0
 966              		.cfi_startproc
 967              		@ args = 0, pretend = 0, frame = 8
 968              		@ frame_needed = 1, uses_anonymous_args = 0
 969 0000 90B5     		push	{r4, r7, lr}
 970              		.cfi_def_cfa_offset 12
 971              		.cfi_offset 4, -12
 972              		.cfi_offset 7, -8
 973              		.cfi_offset 14, -4
 974 0002 83B0     		sub	sp, sp, #12
 975              		.cfi_def_cfa_offset 24
 976 0004 00AF     		add	r7, sp, #0
 977              		.cfi_def_cfa_register 7
 697:..\..\..\PSoC-4-BLE-master\100_Projects_in_100_Days\Day049_BLE_Mesh_Flood\Mesh_Flood\Mesh_Flood_PSoC4BLE.cydsn/ble_process.c **** 	CYBLE_API_RESULT_T  apiResult;
 698:..\..\..\PSoC-4-BLE-master\100_Projects_in_100_Days\Day049_BLE_Mesh_Flood\Mesh_Flood\Mesh_Flood_PSoC4BLE.cydsn/ble_process.c **** 	
 699:..\..\..\PSoC-4-BLE-master\100_Projects_in_100_Days\Day049_BLE_Mesh_Flood\Mesh_Flood\Mesh_Flood_PSoC4BLE.cydsn/ble_process.c **** 	/* If flag has been set to connect to a device... */
 700:..\..\..\PSoC-4-BLE-master\100_Projects_in_100_Days\Day049_BLE_Mesh_Flood\Mesh_Flood\Mesh_Flood_PSoC4BLE.cydsn/ble_process.c **** 	if(clientConnectToDevice)
 978              		.loc 1 700 0
 979 0006 0D4B     		ldr	r3, .L54
 980 0008 1B78     		ldrb	r3, [r3]
 981 000a 002B     		cmp	r3, #0
 982 000c 11D0     		beq	.L53
 701:..\..\..\PSoC-4-BLE-master\100_Projects_in_100_Days\Day049_BLE_Mesh_Flood\Mesh_Flood\Mesh_Flood_PSoC4BLE.cydsn/ble_process.c **** 	{
 702:..\..\..\PSoC-4-BLE-master\100_Projects_in_100_Days\Day049_BLE_Mesh_Flood\Mesh_Flood\Mesh_Flood_PSoC4BLE.cydsn/ble_process.c **** 		/* Process pending BLE events */
 703:..\..\..\PSoC-4-BLE-master\100_Projects_in_100_Days\Day049_BLE_Mesh_Flood\Mesh_Flood\Mesh_Flood_PSoC4BLE.cydsn/ble_process.c **** 		CyBle_ProcessEvents();
 983              		.loc 1 703 0
 984 000e FFF7FEFF 		bl	CyBle_ProcessEvents
 704:..\..\..\PSoC-4-BLE-master\100_Projects_in_100_Days\Day049_BLE_Mesh_Flood\Mesh_Flood\Mesh_Flood_PSoC4BLE.cydsn/ble_process.c **** 			
 705:..\..\..\PSoC-4-BLE-master\100_Projects_in_100_Days\Day049_BLE_Mesh_Flood\Mesh_Flood\Mesh_Flood_PSoC4BLE.cydsn/ble_process.c **** 		#if 0
 706:..\..\..\PSoC-4-BLE-master\100_Projects_in_100_Days\Day049_BLE_Mesh_Flood\Mesh_Flood\Mesh_Flood_PSoC4BLE.cydsn/ble_process.c **** 		if(CYBLE_STATE_SCANNING == CyBle_GetState())
 707:..\..\..\PSoC-4-BLE-master\100_Projects_in_100_Days\Day049_BLE_Mesh_Flood\Mesh_Flood\Mesh_Flood_PSoC4BLE.cydsn/ble_process.c **** 		{
 708:..\..\..\PSoC-4-BLE-master\100_Projects_in_100_Days\Day049_BLE_Mesh_Flood\Mesh_Flood\Mesh_Flood_PSoC4BLE.cydsn/ble_process.c **** 			CyBle_GapcStopScan();
 709:..\..\..\PSoC-4-BLE-master\100_Projects_in_100_Days\Day049_BLE_Mesh_Flood\Mesh_Flood\Mesh_Flood_PSoC4BLE.cydsn/ble_process.c **** 			#ifdef DEBUG_ENABLED
 710:..\..\..\PSoC-4-BLE-master\100_Projects_in_100_Days\Day049_BLE_Mesh_Flood\Mesh_Flood\Mesh_Flood_PSoC4BLE.cydsn/ble_process.c **** 				UART_UartPutString("Stop Scan called from clientConnectToDevice ");
 711:..\..\..\PSoC-4-BLE-master\100_Projects_in_100_Days\Day049_BLE_Mesh_Flood\Mesh_Flood\Mesh_Flood_PSoC4BLE.cydsn/ble_process.c **** 				SendBLEStatetoUART(CyBle_GetState());
 712:..\..\..\PSoC-4-BLE-master\100_Projects_in_100_Days\Day049_BLE_Mesh_Flood\Mesh_Flood\Mesh_Flood_PSoC4BLE.cydsn/ble_process.c **** 				UART_UartPutCRLF(' ');
 713:..\..\..\PSoC-4-BLE-master\100_Projects_in_100_Days\Day049_BLE_Mesh_Flood\Mesh_Flood\Mesh_Flood_PSoC4BLE.cydsn/ble_process.c **** 			#endif
 714:..\..\..\PSoC-4-BLE-master\100_Projects_in_100_Days\Day049_BLE_Mesh_Flood\Mesh_Flood\Mesh_Flood_PSoC4BLE.cydsn/ble_process.c **** 			CyBle_ProcessEvents();
 715:..\..\..\PSoC-4-BLE-master\100_Projects_in_100_Days\Day049_BLE_Mesh_Flood\Mesh_Flood\Mesh_Flood_PSoC4BLE.cydsn/ble_process.c **** 		}
 716:..\..\..\PSoC-4-BLE-master\100_Projects_in_100_Days\Day049_BLE_Mesh_Flood\Mesh_Flood\Mesh_Flood_PSoC4BLE.cydsn/ble_process.c **** 		#endif
 717:..\..\..\PSoC-4-BLE-master\100_Projects_in_100_Days\Day049_BLE_Mesh_Flood\Mesh_Flood\Mesh_Flood_PSoC4BLE.cydsn/ble_process.c **** 			
 718:..\..\..\PSoC-4-BLE-master\100_Projects_in_100_Days\Day049_BLE_Mesh_Flood\Mesh_Flood\Mesh_Flood_PSoC4BLE.cydsn/ble_process.c **** 		if(CYBLE_STATE_DISCONNECTED == CyBle_GetState())
 985              		.loc 1 718 0
 986 0012 0B4B     		ldr	r3, .L54+4
 987 0014 1B78     		ldrb	r3, [r3]
 988 0016 062B     		cmp	r3, #6
 989 0018 0BD1     		bne	.L53
 719:..\..\..\PSoC-4-BLE-master\100_Projects_in_100_Days\Day049_BLE_Mesh_Flood\Mesh_Flood\Mesh_Flood_PSoC4BLE.cydsn/ble_process.c **** 		{
 720:..\..\..\PSoC-4-BLE-master\100_Projects_in_100_Days\Day049_BLE_Mesh_Flood\Mesh_Flood\Mesh_Flood_PSoC4BLE.cydsn/ble_process.c **** 			/* Reset the flag to connect to a device*/
 721:..\..\..\PSoC-4-BLE-master\100_Projects_in_100_Days\Day049_BLE_Mesh_Flood\Mesh_Flood\Mesh_Flood_PSoC4BLE.cydsn/ble_process.c **** 			clientConnectToDevice = FALSE;
 990              		.loc 1 721 0
 991 001a 084B     		ldr	r3, .L54
 992 001c 0022     		movs	r2, #0
 993 001e 1A70     		strb	r2, [r3]
 722:..\..\..\PSoC-4-BLE-master\100_Projects_in_100_Days\Day049_BLE_Mesh_Flood\Mesh_Flood\Mesh_Flood_PSoC4BLE.cydsn/ble_process.c **** 
ARM GAS  C:\Users\User\AppData\Local\Temp\cc96DgHN.s 			page 34


 723:..\..\..\PSoC-4-BLE-master\100_Projects_in_100_Days\Day049_BLE_Mesh_Flood\Mesh_Flood\Mesh_Flood_PSoC4BLE.cydsn/ble_process.c **** 			/* Connect to the device whose address has been saved as part of 
 724:..\..\..\PSoC-4-BLE-master\100_Projects_in_100_Days\Day049_BLE_Mesh_Flood\Mesh_Flood\Mesh_Flood_PSoC4BLE.cydsn/ble_process.c **** 			* potential node search */
 725:..\..\..\PSoC-4-BLE-master\100_Projects_in_100_Days\Day049_BLE_Mesh_Flood\Mesh_Flood\Mesh_Flood_PSoC4BLE.cydsn/ble_process.c **** 			apiResult = CyBle_GapcConnectDevice(&peripAddr);
 994              		.loc 1 725 0
 995 0020 BC1D     		adds	r4, r7, #6
 996 0022 084B     		ldr	r3, .L54+8
 997 0024 1800     		movs	r0, r3
 998 0026 FFF7FEFF 		bl	CyBle_GapcConnectDevice
 999 002a 0300     		movs	r3, r0
 1000 002c 2380     		strh	r3, [r4]
 726:..\..\..\PSoC-4-BLE-master\100_Projects_in_100_Days\Day049_BLE_Mesh_Flood\Mesh_Flood\Mesh_Flood_PSoC4BLE.cydsn/ble_process.c **** 			
 727:..\..\..\PSoC-4-BLE-master\100_Projects_in_100_Days\Day049_BLE_Mesh_Flood\Mesh_Flood\Mesh_Flood_PSoC4BLE.cydsn/ble_process.c **** 			if(apiResult != CYBLE_ERROR_OK)
 728:..\..\..\PSoC-4-BLE-master\100_Projects_in_100_Days\Day049_BLE_Mesh_Flood\Mesh_Flood\Mesh_Flood_PSoC4BLE.cydsn/ble_process.c **** 			{
 729:..\..\..\PSoC-4-BLE-master\100_Projects_in_100_Days\Day049_BLE_Mesh_Flood\Mesh_Flood\Mesh_Flood_PSoC4BLE.cydsn/ble_process.c **** 				#ifdef DEBUG_ENABLED
 730:..\..\..\PSoC-4-BLE-master\100_Projects_in_100_Days\Day049_BLE_Mesh_Flood\Mesh_Flood\Mesh_Flood_PSoC4BLE.cydsn/ble_process.c **** 					UART_UartPutString("Connect Request failed ");
 731:..\..\..\PSoC-4-BLE-master\100_Projects_in_100_Days\Day049_BLE_Mesh_Flood\Mesh_Flood\Mesh_Flood_PSoC4BLE.cydsn/ble_process.c **** 					SendBLEStatetoUART(CyBle_GetState());
 732:..\..\..\PSoC-4-BLE-master\100_Projects_in_100_Days\Day049_BLE_Mesh_Flood\Mesh_Flood\Mesh_Flood_PSoC4BLE.cydsn/ble_process.c **** 					UART_UartPutCRLF(' ');
 733:..\..\..\PSoC-4-BLE-master\100_Projects_in_100_Days\Day049_BLE_Mesh_Flood\Mesh_Flood\Mesh_Flood_PSoC4BLE.cydsn/ble_process.c **** 				#endif
 734:..\..\..\PSoC-4-BLE-master\100_Projects_in_100_Days\Day049_BLE_Mesh_Flood\Mesh_Flood\Mesh_Flood_PSoC4BLE.cydsn/ble_process.c **** 			}
 735:..\..\..\PSoC-4-BLE-master\100_Projects_in_100_Days\Day049_BLE_Mesh_Flood\Mesh_Flood\Mesh_Flood_PSoC4BLE.cydsn/ble_process.c **** 			else
 736:..\..\..\PSoC-4-BLE-master\100_Projects_in_100_Days\Day049_BLE_Mesh_Flood\Mesh_Flood\Mesh_Flood_PSoC4BLE.cydsn/ble_process.c **** 			{
 737:..\..\..\PSoC-4-BLE-master\100_Projects_in_100_Days\Day049_BLE_Mesh_Flood\Mesh_Flood\Mesh_Flood_PSoC4BLE.cydsn/ble_process.c **** 				#ifdef DEBUG_ENABLED
 738:..\..\..\PSoC-4-BLE-master\100_Projects_in_100_Days\Day049_BLE_Mesh_Flood\Mesh_Flood\Mesh_Flood_PSoC4BLE.cydsn/ble_process.c **** 					UART_UartPutString("Connect Request Sent ");
 739:..\..\..\PSoC-4-BLE-master\100_Projects_in_100_Days\Day049_BLE_Mesh_Flood\Mesh_Flood\Mesh_Flood_PSoC4BLE.cydsn/ble_process.c **** 					SendBLEStatetoUART(CyBle_GetState());
 740:..\..\..\PSoC-4-BLE-master\100_Projects_in_100_Days\Day049_BLE_Mesh_Flood\Mesh_Flood\Mesh_Flood_PSoC4BLE.cydsn/ble_process.c **** 					UART_UartPutCRLF(' ');
 741:..\..\..\PSoC-4-BLE-master\100_Projects_in_100_Days\Day049_BLE_Mesh_Flood\Mesh_Flood\Mesh_Flood_PSoC4BLE.cydsn/ble_process.c **** 				#endif	
 742:..\..\..\PSoC-4-BLE-master\100_Projects_in_100_Days\Day049_BLE_Mesh_Flood\Mesh_Flood\Mesh_Flood_PSoC4BLE.cydsn/ble_process.c **** 			}
 743:..\..\..\PSoC-4-BLE-master\100_Projects_in_100_Days\Day049_BLE_Mesh_Flood\Mesh_Flood\Mesh_Flood_PSoC4BLE.cydsn/ble_process.c **** 		
 744:..\..\..\PSoC-4-BLE-master\100_Projects_in_100_Days\Day049_BLE_Mesh_Flood\Mesh_Flood\Mesh_Flood_PSoC4BLE.cydsn/ble_process.c **** 			/* Process pending BLE events */
 745:..\..\..\PSoC-4-BLE-master\100_Projects_in_100_Days\Day049_BLE_Mesh_Flood\Mesh_Flood\Mesh_Flood_PSoC4BLE.cydsn/ble_process.c **** 			CyBle_ProcessEvents();
 1001              		.loc 1 745 0
 1002 002e FFF7FEFF 		bl	CyBle_ProcessEvents
 1003              	.L53:
 746:..\..\..\PSoC-4-BLE-master\100_Projects_in_100_Days\Day049_BLE_Mesh_Flood\Mesh_Flood\Mesh_Flood_PSoC4BLE.cydsn/ble_process.c **** 		}
 747:..\..\..\PSoC-4-BLE-master\100_Projects_in_100_Days\Day049_BLE_Mesh_Flood\Mesh_Flood\Mesh_Flood_PSoC4BLE.cydsn/ble_process.c **** 	}
 748:..\..\..\PSoC-4-BLE-master\100_Projects_in_100_Days\Day049_BLE_Mesh_Flood\Mesh_Flood\Mesh_Flood_PSoC4BLE.cydsn/ble_process.c **** }
 1004              		.loc 1 748 0
 1005 0032 C046     		nop
 1006 0034 BD46     		mov	sp, r7
 1007 0036 03B0     		add	sp, sp, #12
 1008              		@ sp needed
 1009 0038 90BD     		pop	{r4, r7, pc}
 1010              	.L55:
 1011 003a C046     		.align	2
 1012              	.L54:
 1013 003c 00000000 		.word	clientConnectToDevice
 1014 0040 00000000 		.word	cyBle_state
 1015 0044 00000000 		.word	peripAddr
 1016              		.cfi_endproc
 1017              	.LFE38:
 1018              		.size	ConnectToPeripheralDevice, .-ConnectToPeripheralDevice
 1019              		.section	.text.RestartCentralScanning,"ax",%progbits
 1020              		.align	2
 1021              		.global	RestartCentralScanning
 1022              		.code	16
 1023              		.thumb_func
 1024              		.type	RestartCentralScanning, %function
ARM GAS  C:\Users\User\AppData\Local\Temp\cc96DgHN.s 			page 35


 1025              	RestartCentralScanning:
 1026              	.LFB39:
 749:..\..\..\PSoC-4-BLE-master\100_Projects_in_100_Days\Day049_BLE_Mesh_Flood\Mesh_Flood\Mesh_Flood_PSoC4BLE.cydsn/ble_process.c **** 
 750:..\..\..\PSoC-4-BLE-master\100_Projects_in_100_Days\Day049_BLE_Mesh_Flood\Mesh_Flood\Mesh_Flood_PSoC4BLE.cydsn/ble_process.c **** /*******************************************************************************
 751:..\..\..\PSoC-4-BLE-master\100_Projects_in_100_Days\Day049_BLE_Mesh_Flood\Mesh_Flood\Mesh_Flood_PSoC4BLE.cydsn/ble_process.c **** * Function Name: RestartCentralScanning
 752:..\..\..\PSoC-4-BLE-master\100_Projects_in_100_Days\Day049_BLE_Mesh_Flood\Mesh_Flood\Mesh_Flood_PSoC4BLE.cydsn/ble_process.c **** ********************************************************************************
 753:..\..\..\PSoC-4-BLE-master\100_Projects_in_100_Days\Day049_BLE_Mesh_Flood\Mesh_Flood\Mesh_Flood_PSoC4BLE.cydsn/ble_process.c **** * Summary:
 754:..\..\..\PSoC-4-BLE-master\100_Projects_in_100_Days\Day049_BLE_Mesh_Flood\Mesh_Flood\Mesh_Flood_PSoC4BLE.cydsn/ble_process.c **** *        Restarts Central scanning. Also, if the time that the device has remained
 755:..\..\..\PSoC-4-BLE-master\100_Projects_in_100_Days\Day049_BLE_Mesh_Flood\Mesh_Flood\Mesh_Flood_PSoC4BLE.cydsn/ble_process.c **** * in Central role exceeds pre-determined value, then the switch role flag is set.
 756:..\..\..\PSoC-4-BLE-master\100_Projects_in_100_Days\Day049_BLE_Mesh_Flood\Mesh_Flood\Mesh_Flood_PSoC4BLE.cydsn/ble_process.c **** *
 757:..\..\..\PSoC-4-BLE-master\100_Projects_in_100_Days\Day049_BLE_Mesh_Flood\Mesh_Flood\Mesh_Flood_PSoC4BLE.cydsn/ble_process.c **** * Parameters:
 758:..\..\..\PSoC-4-BLE-master\100_Projects_in_100_Days\Day049_BLE_Mesh_Flood\Mesh_Flood\Mesh_Flood_PSoC4BLE.cydsn/ble_process.c **** *  void
 759:..\..\..\PSoC-4-BLE-master\100_Projects_in_100_Days\Day049_BLE_Mesh_Flood\Mesh_Flood\Mesh_Flood_PSoC4BLE.cydsn/ble_process.c **** *
 760:..\..\..\PSoC-4-BLE-master\100_Projects_in_100_Days\Day049_BLE_Mesh_Flood\Mesh_Flood\Mesh_Flood_PSoC4BLE.cydsn/ble_process.c **** * Return:
 761:..\..\..\PSoC-4-BLE-master\100_Projects_in_100_Days\Day049_BLE_Mesh_Flood\Mesh_Flood\Mesh_Flood_PSoC4BLE.cydsn/ble_process.c **** *  void
 762:..\..\..\PSoC-4-BLE-master\100_Projects_in_100_Days\Day049_BLE_Mesh_Flood\Mesh_Flood\Mesh_Flood_PSoC4BLE.cydsn/ble_process.c **** *
 763:..\..\..\PSoC-4-BLE-master\100_Projects_in_100_Days\Day049_BLE_Mesh_Flood\Mesh_Flood\Mesh_Flood_PSoC4BLE.cydsn/ble_process.c **** *******************************************************************************/
 764:..\..\..\PSoC-4-BLE-master\100_Projects_in_100_Days\Day049_BLE_Mesh_Flood\Mesh_Flood\Mesh_Flood_PSoC4BLE.cydsn/ble_process.c **** void RestartCentralScanning(void)
 765:..\..\..\PSoC-4-BLE-master\100_Projects_in_100_Days\Day049_BLE_Mesh_Flood\Mesh_Flood\Mesh_Flood_PSoC4BLE.cydsn/ble_process.c **** {
 1027              		.loc 1 765 0
 1028              		.cfi_startproc
 1029              		@ args = 0, pretend = 0, frame = 0
 1030              		@ frame_needed = 1, uses_anonymous_args = 0
 1031 0000 80B5     		push	{r7, lr}
 1032              		.cfi_def_cfa_offset 8
 1033              		.cfi_offset 7, -8
 1034              		.cfi_offset 14, -4
 1035 0002 00AF     		add	r7, sp, #0
 1036              		.cfi_def_cfa_register 7
 766:..\..\..\PSoC-4-BLE-master\100_Projects_in_100_Days\Day049_BLE_Mesh_Flood\Mesh_Flood\Mesh_Flood_PSoC4BLE.cydsn/ble_process.c **** 	/* If the current role is Central and the Central time has exceeded the preset time,
 767:..\..\..\PSoC-4-BLE-master\100_Projects_in_100_Days\Day049_BLE_Mesh_Flood\Mesh_Flood\Mesh_Flood_PSoC4BLE.cydsn/ble_process.c **** 	* then set the flag to switch role to Peripheral */
 768:..\..\..\PSoC-4-BLE-master\100_Projects_in_100_Days\Day049_BLE_Mesh_Flood\Mesh_Flood\Mesh_Flood_PSoC4BLE.cydsn/ble_process.c **** 	if((BLE_CENTRAL == ble_gap_state) && 
 1037              		.loc 1 768 0
 1038 0004 164B     		ldr	r3, .L60
 1039 0006 1B78     		ldrb	r3, [r3]
 1040 0008 022B     		cmp	r3, #2
 1041 000a 15D1     		bne	.L57
 769:..\..\..\PSoC-4-BLE-master\100_Projects_in_100_Days\Day049_BLE_Mesh_Flood\Mesh_Flood\Mesh_Flood_PSoC4BLE.cydsn/ble_process.c **** 		(WatchDog_CurrentCount() - centralStartedTime > CENTRAL_STATE_SPAN) &&
 1042              		.loc 1 769 0 discriminator 1
 1043 000c 154B     		ldr	r3, .L60+4
 1044 000e 1B88     		ldrh	r3, [r3]
 1045 0010 9BB2     		uxth	r3, r3
 1046 0012 1A00     		movs	r2, r3
 1047 0014 144B     		ldr	r3, .L60+8
 1048 0016 1B88     		ldrh	r3, [r3]
 1049 0018 9BB2     		uxth	r3, r3
 1050 001a D31A     		subs	r3, r2, r3
 768:..\..\..\PSoC-4-BLE-master\100_Projects_in_100_Days\Day049_BLE_Mesh_Flood\Mesh_Flood\Mesh_Flood_PSoC4BLE.cydsn/ble_process.c **** 		(WatchDog_CurrentCount() - centralStartedTime > CENTRAL_STATE_SPAN) &&
 1051              		.loc 1 768 0 discriminator 1
 1052 001c 2D2B     		cmp	r3, #45
 1053 001e 0BDD     		ble	.L57
 770:..\..\..\PSoC-4-BLE-master\100_Projects_in_100_Days\Day049_BLE_Mesh_Flood\Mesh_Flood\Mesh_Flood_PSoC4BLE.cydsn/ble_process.c **** 		((CYBLE_STATE_DISCONNECTED == CyBle_GetState()) || (CYBLE_STATE_SCANNING == CyBle_GetState())))
 1054              		.loc 1 770 0
 1055 0020 124B     		ldr	r3, .L60+12
 1056 0022 1B78     		ldrb	r3, [r3]
 769:..\..\..\PSoC-4-BLE-master\100_Projects_in_100_Days\Day049_BLE_Mesh_Flood\Mesh_Flood\Mesh_Flood_PSoC4BLE.cydsn/ble_process.c **** 		(WatchDog_CurrentCount() - centralStartedTime > CENTRAL_STATE_SPAN) &&
 1057              		.loc 1 769 0
ARM GAS  C:\Users\User\AppData\Local\Temp\cc96DgHN.s 			page 36


 1058 0024 062B     		cmp	r3, #6
 1059 0026 03D0     		beq	.L58
 1060              		.loc 1 770 0
 1061 0028 104B     		ldr	r3, .L60+12
 1062 002a 1B78     		ldrb	r3, [r3]
 1063 002c 042B     		cmp	r3, #4
 1064 002e 03D1     		bne	.L57
 1065              	.L58:
 771:..\..\..\PSoC-4-BLE-master\100_Projects_in_100_Days\Day049_BLE_Mesh_Flood\Mesh_Flood\Mesh_Flood_PSoC4BLE.cydsn/ble_process.c **** 	{
 772:..\..\..\PSoC-4-BLE-master\100_Projects_in_100_Days\Day049_BLE_Mesh_Flood\Mesh_Flood\Mesh_Flood_PSoC4BLE.cydsn/ble_process.c **** 		/* Switch role flag set */
 773:..\..\..\PSoC-4-BLE-master\100_Projects_in_100_Days\Day049_BLE_Mesh_Flood\Mesh_Flood\Mesh_Flood_PSoC4BLE.cydsn/ble_process.c **** 		switch_Role = TRUE;
 1066              		.loc 1 773 0
 1067 0030 0F4B     		ldr	r3, .L60+16
 1068 0032 0122     		movs	r2, #1
 1069 0034 1A70     		strb	r2, [r3]
 774:..\..\..\PSoC-4-BLE-master\100_Projects_in_100_Days\Day049_BLE_Mesh_Flood\Mesh_Flood\Mesh_Flood_PSoC4BLE.cydsn/ble_process.c **** 		#ifdef DEBUG_ENABLED
 775:..\..\..\PSoC-4-BLE-master\100_Projects_in_100_Days\Day049_BLE_Mesh_Flood\Mesh_Flood\Mesh_Flood_PSoC4BLE.cydsn/ble_process.c **** 		UART_UartPutString("switchRole from restartScanning loop ");
 776:..\..\..\PSoC-4-BLE-master\100_Projects_in_100_Days\Day049_BLE_Mesh_Flood\Mesh_Flood\Mesh_Flood_PSoC4BLE.cydsn/ble_process.c **** 		UART_UartPutCRLF(' ');
 777:..\..\..\PSoC-4-BLE-master\100_Projects_in_100_Days\Day049_BLE_Mesh_Flood\Mesh_Flood\Mesh_Flood_PSoC4BLE.cydsn/ble_process.c **** 		#endif
 778:..\..\..\PSoC-4-BLE-master\100_Projects_in_100_Days\Day049_BLE_Mesh_Flood\Mesh_Flood\Mesh_Flood_PSoC4BLE.cydsn/ble_process.c **** 		
 779:..\..\..\PSoC-4-BLE-master\100_Projects_in_100_Days\Day049_BLE_Mesh_Flood\Mesh_Flood\Mesh_Flood_PSoC4BLE.cydsn/ble_process.c **** 		return;
 1070              		.loc 1 779 0
 1071 0036 11E0     		b	.L56
 1072              	.L57:
 780:..\..\..\PSoC-4-BLE-master\100_Projects_in_100_Days\Day049_BLE_Mesh_Flood\Mesh_Flood\Mesh_Flood_PSoC4BLE.cydsn/ble_process.c **** 	}
 781:..\..\..\PSoC-4-BLE-master\100_Projects_in_100_Days\Day049_BLE_Mesh_Flood\Mesh_Flood\Mesh_Flood_PSoC4BLE.cydsn/ble_process.c **** 			
 782:..\..\..\PSoC-4-BLE-master\100_Projects_in_100_Days\Day049_BLE_Mesh_Flood\Mesh_Flood\Mesh_Flood_PSoC4BLE.cydsn/ble_process.c **** 	/* If restart scanning flag is set, the restart the Central scanning */
 783:..\..\..\PSoC-4-BLE-master\100_Projects_in_100_Days\Day049_BLE_Mesh_Flood\Mesh_Flood\Mesh_Flood_PSoC4BLE.cydsn/ble_process.c **** 	if(restartScanning)
 1073              		.loc 1 783 0
 1074 0038 0E4B     		ldr	r3, .L60+20
 1075 003a 1B78     		ldrb	r3, [r3]
 1076 003c 002B     		cmp	r3, #0
 1077 003e 0DD0     		beq	.L56
 784:..\..\..\PSoC-4-BLE-master\100_Projects_in_100_Days\Day049_BLE_Mesh_Flood\Mesh_Flood\Mesh_Flood_PSoC4BLE.cydsn/ble_process.c **** 	{
 785:..\..\..\PSoC-4-BLE-master\100_Projects_in_100_Days\Day049_BLE_Mesh_Flood\Mesh_Flood\Mesh_Flood_PSoC4BLE.cydsn/ble_process.c **** 		/* Process pending BLE events */
 786:..\..\..\PSoC-4-BLE-master\100_Projects_in_100_Days\Day049_BLE_Mesh_Flood\Mesh_Flood\Mesh_Flood_PSoC4BLE.cydsn/ble_process.c **** 		CyBle_ProcessEvents();
 1078              		.loc 1 786 0
 1079 0040 FFF7FEFF 		bl	CyBle_ProcessEvents
 787:..\..\..\PSoC-4-BLE-master\100_Projects_in_100_Days\Day049_BLE_Mesh_Flood\Mesh_Flood\Mesh_Flood_PSoC4BLE.cydsn/ble_process.c **** 		if(CYBLE_STATE_DISCONNECTED == CyBle_GetState())
 1080              		.loc 1 787 0
 1081 0044 094B     		ldr	r3, .L60+12
 1082 0046 1B78     		ldrb	r3, [r3]
 1083 0048 062B     		cmp	r3, #6
 1084 004a 07D1     		bne	.L56
 788:..\..\..\PSoC-4-BLE-master\100_Projects_in_100_Days\Day049_BLE_Mesh_Flood\Mesh_Flood\Mesh_Flood_PSoC4BLE.cydsn/ble_process.c **** 		{
 789:..\..\..\PSoC-4-BLE-master\100_Projects_in_100_Days\Day049_BLE_Mesh_Flood\Mesh_Flood\Mesh_Flood_PSoC4BLE.cydsn/ble_process.c **** 			/* Reset the restart scanning flag */
 790:..\..\..\PSoC-4-BLE-master\100_Projects_in_100_Days\Day049_BLE_Mesh_Flood\Mesh_Flood\Mesh_Flood_PSoC4BLE.cydsn/ble_process.c **** 			restartScanning = FALSE;
 1085              		.loc 1 790 0
 1086 004c 094B     		ldr	r3, .L60+20
 1087 004e 0022     		movs	r2, #0
 1088 0050 1A70     		strb	r2, [r3]
 791:..\..\..\PSoC-4-BLE-master\100_Projects_in_100_Days\Day049_BLE_Mesh_Flood\Mesh_Flood\Mesh_Flood_PSoC4BLE.cydsn/ble_process.c **** 			#ifdef DEBUG_ENABLED
 792:..\..\..\PSoC-4-BLE-master\100_Projects_in_100_Days\Day049_BLE_Mesh_Flood\Mesh_Flood\Mesh_Flood_PSoC4BLE.cydsn/ble_process.c **** 			UART_UartPutString("restartScanning loop ");
 793:..\..\..\PSoC-4-BLE-master\100_Projects_in_100_Days\Day049_BLE_Mesh_Flood\Mesh_Flood\Mesh_Flood_PSoC4BLE.cydsn/ble_process.c **** 			UART_UartPutCRLF(' ');
 794:..\..\..\PSoC-4-BLE-master\100_Projects_in_100_Days\Day049_BLE_Mesh_Flood\Mesh_Flood\Mesh_Flood_PSoC4BLE.cydsn/ble_process.c **** 			#endif
 795:..\..\..\PSoC-4-BLE-master\100_Projects_in_100_Days\Day049_BLE_Mesh_Flood\Mesh_Flood\Mesh_Flood_PSoC4BLE.cydsn/ble_process.c **** 			
 796:..\..\..\PSoC-4-BLE-master\100_Projects_in_100_Days\Day049_BLE_Mesh_Flood\Mesh_Flood\Mesh_Flood_PSoC4BLE.cydsn/ble_process.c **** 			/* Start Central scan and process the event */
ARM GAS  C:\Users\User\AppData\Local\Temp\cc96DgHN.s 			page 37


 797:..\..\..\PSoC-4-BLE-master\100_Projects_in_100_Days\Day049_BLE_Mesh_Flood\Mesh_Flood\Mesh_Flood_PSoC4BLE.cydsn/ble_process.c **** 			CyBle_GapcStartScan(CYBLE_SCANNING_FAST);
 1089              		.loc 1 797 0
 1090 0052 0020     		movs	r0, #0
 1091 0054 FFF7FEFF 		bl	CyBle_GapcStartScan
 798:..\..\..\PSoC-4-BLE-master\100_Projects_in_100_Days\Day049_BLE_Mesh_Flood\Mesh_Flood\Mesh_Flood_PSoC4BLE.cydsn/ble_process.c **** 			CyBle_ProcessEvents();
 1092              		.loc 1 798 0
 1093 0058 FFF7FEFF 		bl	CyBle_ProcessEvents
 1094              	.L56:
 799:..\..\..\PSoC-4-BLE-master\100_Projects_in_100_Days\Day049_BLE_Mesh_Flood\Mesh_Flood\Mesh_Flood_PSoC4BLE.cydsn/ble_process.c **** 			
 800:..\..\..\PSoC-4-BLE-master\100_Projects_in_100_Days\Day049_BLE_Mesh_Flood\Mesh_Flood\Mesh_Flood_PSoC4BLE.cydsn/ble_process.c **** 			#ifdef DEBUG_ENABLED
 801:..\..\..\PSoC-4-BLE-master\100_Projects_in_100_Days\Day049_BLE_Mesh_Flood\Mesh_Flood\Mesh_Flood_PSoC4BLE.cydsn/ble_process.c **** 			UART_UartPutString("Start Scan from restartScanning loop ");
 802:..\..\..\PSoC-4-BLE-master\100_Projects_in_100_Days\Day049_BLE_Mesh_Flood\Mesh_Flood\Mesh_Flood_PSoC4BLE.cydsn/ble_process.c **** 			UART_UartPutCRLF(' ');
 803:..\..\..\PSoC-4-BLE-master\100_Projects_in_100_Days\Day049_BLE_Mesh_Flood\Mesh_Flood\Mesh_Flood_PSoC4BLE.cydsn/ble_process.c **** 			#endif
 804:..\..\..\PSoC-4-BLE-master\100_Projects_in_100_Days\Day049_BLE_Mesh_Flood\Mesh_Flood\Mesh_Flood_PSoC4BLE.cydsn/ble_process.c **** 		}
 805:..\..\..\PSoC-4-BLE-master\100_Projects_in_100_Days\Day049_BLE_Mesh_Flood\Mesh_Flood\Mesh_Flood_PSoC4BLE.cydsn/ble_process.c **** 	}
 806:..\..\..\PSoC-4-BLE-master\100_Projects_in_100_Days\Day049_BLE_Mesh_Flood\Mesh_Flood\Mesh_Flood_PSoC4BLE.cydsn/ble_process.c **** }	
 1095              		.loc 1 806 0
 1096 005c BD46     		mov	sp, r7
 1097              		@ sp needed
 1098 005e 80BD     		pop	{r7, pc}
 1099              	.L61:
 1100              		.align	2
 1101              	.L60:
 1102 0060 00000000 		.word	ble_gap_state
 1103 0064 00000000 		.word	current_watchdog_counter
 1104 0068 00000000 		.word	centralStartedTime
 1105 006c 00000000 		.word	cyBle_state
 1106 0070 00000000 		.word	switch_Role
 1107 0074 00000000 		.word	restartScanning
 1108              		.cfi_endproc
 1109              	.LFE39:
 1110              		.size	RestartCentralScanning, .-RestartCentralScanning
 1111              		.section	.text.SendErrorCode,"ax",%progbits
 1112              		.align	2
 1113              		.global	SendErrorCode
 1114              		.code	16
 1115              		.thumb_func
 1116              		.type	SendErrorCode, %function
 1117              	SendErrorCode:
 1118              	.LFB40:
 807:..\..\..\PSoC-4-BLE-master\100_Projects_in_100_Days\Day049_BLE_Mesh_Flood\Mesh_Flood\Mesh_Flood_PSoC4BLE.cydsn/ble_process.c **** 
 808:..\..\..\PSoC-4-BLE-master\100_Projects_in_100_Days\Day049_BLE_Mesh_Flood\Mesh_Flood\Mesh_Flood_PSoC4BLE.cydsn/ble_process.c **** /*******************************************************************************
 809:..\..\..\PSoC-4-BLE-master\100_Projects_in_100_Days\Day049_BLE_Mesh_Flood\Mesh_Flood\Mesh_Flood_PSoC4BLE.cydsn/ble_process.c **** * Function Name: SendErrorCode
 810:..\..\..\PSoC-4-BLE-master\100_Projects_in_100_Days\Day049_BLE_Mesh_Flood\Mesh_Flood\Mesh_Flood_PSoC4BLE.cydsn/ble_process.c **** ********************************************************************************
 811:..\..\..\PSoC-4-BLE-master\100_Projects_in_100_Days\Day049_BLE_Mesh_Flood\Mesh_Flood\Mesh_Flood_PSoC4BLE.cydsn/ble_process.c **** * Summary:
 812:..\..\..\PSoC-4-BLE-master\100_Projects_in_100_Days\Day049_BLE_Mesh_Flood\Mesh_Flood\Mesh_Flood_PSoC4BLE.cydsn/ble_process.c **** *        Send Error code at GATT Layer
 813:..\..\..\PSoC-4-BLE-master\100_Projects_in_100_Days\Day049_BLE_Mesh_Flood\Mesh_Flood\Mesh_Flood_PSoC4BLE.cydsn/ble_process.c **** *
 814:..\..\..\PSoC-4-BLE-master\100_Projects_in_100_Days\Day049_BLE_Mesh_Flood\Mesh_Flood\Mesh_Flood_PSoC4BLE.cydsn/ble_process.c **** * Parameters:
 815:..\..\..\PSoC-4-BLE-master\100_Projects_in_100_Days\Day049_BLE_Mesh_Flood\Mesh_Flood\Mesh_Flood_PSoC4BLE.cydsn/ble_process.c **** *  uint8 opCode, 
 816:..\..\..\PSoC-4-BLE-master\100_Projects_in_100_Days\Day049_BLE_Mesh_Flood\Mesh_Flood\Mesh_Flood_PSoC4BLE.cydsn/ble_process.c **** *  CYBLE_GATT_DB_ATTR_HANDLE_T  attrHandle, 
 817:..\..\..\PSoC-4-BLE-master\100_Projects_in_100_Days\Day049_BLE_Mesh_Flood\Mesh_Flood\Mesh_Flood_PSoC4BLE.cydsn/ble_process.c **** *  CYBLE_GATT_ERR_CODE_T errorCode
 818:..\..\..\PSoC-4-BLE-master\100_Projects_in_100_Days\Day049_BLE_Mesh_Flood\Mesh_Flood\Mesh_Flood_PSoC4BLE.cydsn/ble_process.c **** *
 819:..\..\..\PSoC-4-BLE-master\100_Projects_in_100_Days\Day049_BLE_Mesh_Flood\Mesh_Flood\Mesh_Flood_PSoC4BLE.cydsn/ble_process.c **** * Return:
 820:..\..\..\PSoC-4-BLE-master\100_Projects_in_100_Days\Day049_BLE_Mesh_Flood\Mesh_Flood\Mesh_Flood_PSoC4BLE.cydsn/ble_process.c **** *  void
 821:..\..\..\PSoC-4-BLE-master\100_Projects_in_100_Days\Day049_BLE_Mesh_Flood\Mesh_Flood\Mesh_Flood_PSoC4BLE.cydsn/ble_process.c **** *
 822:..\..\..\PSoC-4-BLE-master\100_Projects_in_100_Days\Day049_BLE_Mesh_Flood\Mesh_Flood\Mesh_Flood_PSoC4BLE.cydsn/ble_process.c **** *******************************************************************************/
 823:..\..\..\PSoC-4-BLE-master\100_Projects_in_100_Days\Day049_BLE_Mesh_Flood\Mesh_Flood\Mesh_Flood_PSoC4BLE.cydsn/ble_process.c **** void SendErrorCode(uint8 opCode, CYBLE_GATT_DB_ATTR_HANDLE_T  attrHandle, CYBLE_GATT_ERR_CODE_T err
ARM GAS  C:\Users\User\AppData\Local\Temp\cc96DgHN.s 			page 38


 824:..\..\..\PSoC-4-BLE-master\100_Projects_in_100_Days\Day049_BLE_Mesh_Flood\Mesh_Flood\Mesh_Flood_PSoC4BLE.cydsn/ble_process.c **** {
 1119              		.loc 1 824 0
 1120              		.cfi_startproc
 1121              		@ args = 0, pretend = 0, frame = 16
 1122              		@ frame_needed = 1, uses_anonymous_args = 0
 1123 0000 90B5     		push	{r4, r7, lr}
 1124              		.cfi_def_cfa_offset 12
 1125              		.cfi_offset 4, -12
 1126              		.cfi_offset 7, -8
 1127              		.cfi_offset 14, -4
 1128 0002 85B0     		sub	sp, sp, #20
 1129              		.cfi_def_cfa_offset 32
 1130 0004 00AF     		add	r7, sp, #0
 1131              		.cfi_def_cfa_register 7
 1132 0006 0400     		movs	r4, r0
 1133 0008 0800     		movs	r0, r1
 1134 000a 1100     		movs	r1, r2
 1135 000c FB1D     		adds	r3, r7, #7
 1136 000e 221C     		adds	r2, r4, #0
 1137 0010 1A70     		strb	r2, [r3]
 1138 0012 3B1D     		adds	r3, r7, #4
 1139 0014 021C     		adds	r2, r0, #0
 1140 0016 1A80     		strh	r2, [r3]
 1141 0018 BB1D     		adds	r3, r7, #6
 1142 001a 0A1C     		adds	r2, r1, #0
 1143 001c 1A70     		strb	r2, [r3]
 825:..\..\..\PSoC-4-BLE-master\100_Projects_in_100_Days\Day049_BLE_Mesh_Flood\Mesh_Flood\Mesh_Flood_PSoC4BLE.cydsn/ble_process.c **** 	CYBLE_GATTS_ERR_PARAM_T err_param;
 826:..\..\..\PSoC-4-BLE-master\100_Projects_in_100_Days\Day049_BLE_Mesh_Flood\Mesh_Flood\Mesh_Flood_PSoC4BLE.cydsn/ble_process.c **** 		            
 827:..\..\..\PSoC-4-BLE-master\100_Projects_in_100_Days\Day049_BLE_Mesh_Flood\Mesh_Flood\Mesh_Flood_PSoC4BLE.cydsn/ble_process.c ****     err_param.opcode = opCode;
 1144              		.loc 1 827 0
 1145 001e 0C23     		movs	r3, #12
 1146 0020 FB18     		adds	r3, r7, r3
 1147 0022 FA1D     		adds	r2, r7, #7
 1148 0024 1278     		ldrb	r2, [r2]
 1149 0026 9A70     		strb	r2, [r3, #2]
 828:..\..\..\PSoC-4-BLE-master\100_Projects_in_100_Days\Day049_BLE_Mesh_Flood\Mesh_Flood\Mesh_Flood_PSoC4BLE.cydsn/ble_process.c ****     err_param.attrHandle = attrHandle;
 1150              		.loc 1 828 0
 1151 0028 0C23     		movs	r3, #12
 1152 002a FB18     		adds	r3, r7, r3
 1153 002c 3A1D     		adds	r2, r7, #4
 1154 002e 1288     		ldrh	r2, [r2]
 1155 0030 1A80     		strh	r2, [r3]
 829:..\..\..\PSoC-4-BLE-master\100_Projects_in_100_Days\Day049_BLE_Mesh_Flood\Mesh_Flood\Mesh_Flood_PSoC4BLE.cydsn/ble_process.c ****     err_param.errorCode = errorCode;
 1156              		.loc 1 829 0
 1157 0032 0C23     		movs	r3, #12
 1158 0034 FB18     		adds	r3, r7, r3
 1159 0036 BA1D     		adds	r2, r7, #6
 1160 0038 1278     		ldrb	r2, [r2]
 1161 003a DA70     		strb	r2, [r3, #3]
 830:..\..\..\PSoC-4-BLE-master\100_Projects_in_100_Days\Day049_BLE_Mesh_Flood\Mesh_Flood\Mesh_Flood_PSoC4BLE.cydsn/ble_process.c **** 
 831:..\..\..\PSoC-4-BLE-master\100_Projects_in_100_Days\Day049_BLE_Mesh_Flood\Mesh_Flood\Mesh_Flood_PSoC4BLE.cydsn/ble_process.c ****     /* Send Error Response */
 832:..\..\..\PSoC-4-BLE-master\100_Projects_in_100_Days\Day049_BLE_Mesh_Flood\Mesh_Flood\Mesh_Flood_PSoC4BLE.cydsn/ble_process.c ****     (void)CyBle_GattsErrorRsp(cyBle_connHandle, &err_param);
 1162              		.loc 1 832 0
 1163 003c 0C23     		movs	r3, #12
 1164 003e F918     		adds	r1, r7, r3
 1165 0040 084B     		ldr	r3, .L63
 1166 0042 1A78     		ldrb	r2, [r3]
ARM GAS  C:\Users\User\AppData\Local\Temp\cc96DgHN.s 			page 39


 1167 0044 5B78     		ldrb	r3, [r3, #1]
 1168 0046 1B02     		lsls	r3, r3, #8
 1169 0048 1A43     		orrs	r2, r3
 1170 004a 0023     		movs	r3, #0
 1171 004c 1204     		lsls	r2, r2, #16
 1172 004e 120C     		lsrs	r2, r2, #16
 1173 0050 1B0C     		lsrs	r3, r3, #16
 1174 0052 1B04     		lsls	r3, r3, #16
 1175 0054 1343     		orrs	r3, r2
 1176 0056 1800     		movs	r0, r3
 1177 0058 FFF7FEFF 		bl	CyBle_GattsErrorRsp
 833:..\..\..\PSoC-4-BLE-master\100_Projects_in_100_Days\Day049_BLE_Mesh_Flood\Mesh_Flood\Mesh_Flood_PSoC4BLE.cydsn/ble_process.c **** }
 1178              		.loc 1 833 0
 1179 005c C046     		nop
 1180 005e BD46     		mov	sp, r7
 1181 0060 05B0     		add	sp, sp, #20
 1182              		@ sp needed
 1183 0062 90BD     		pop	{r4, r7, pc}
 1184              	.L64:
 1185              		.align	2
 1186              	.L63:
 1187 0064 00000000 		.word	cyBle_connHandle
 1188              		.cfi_endproc
 1189              	.LFE40:
 1190              		.size	SendErrorCode, .-SendErrorCode
 1191              		.text
 1192              	.Letext0:
 1193              		.file 2 "Generated_Source\\PSoC4/cytypes.h"
 1194              		.file 3 "Generated_Source\\PSoC4/OneWire.h"
 1195              		.file 4 "Generated_Source\\PSoC4/BLE_Stack.h"
 1196              		.file 5 "Generated_Source\\PSoC4/BLE_StackGap.h"
 1197              		.file 6 "Generated_Source\\PSoC4/BLE_StackGatt.h"
 1198              		.file 7 "Generated_Source\\PSoC4/BLE_StackGattServer.h"
 1199              		.file 8 "Generated_Source\\PSoC4/BLE_StackGattClient.h"
 1200              		.file 9 "Generated_Source\\PSoC4/BLE_hts.h"
 1201              		.file 10 "Generated_Source\\PSoC4/BLE_eventHandler.h"
 1202              		.file 11 "./Temperature.h"
 1203              		.file 12 "..\\..\\..\\PSoC-4-BLE-master\\100_Projects_in_100_Days\\Day049_BLE_Mesh_Flood\\Mesh_Flo