ARM GAS  C:\Users\User\AppData\Local\Temp\cc96DgHN.s 			page 1


   1              		.syntax unified
   2              		.cpu cortex-m0
   3              		.fpu softvfp
   4              		.eabi_attribute 20, 1
   5              		.eabi_attribute 21, 1
   6              		.eabi_attribute 23, 3
   7              		.eabi_attribute 24, 1
   8              		.eabi_attribute 25, 1
   9              		.eabi_attribute 26, 1
  10              		.eabi_attribute 30, 6
  11              		.eabi_attribute 34, 0
  12              		.eabi_attribute 18, 4
  13              		.thumb
  14              		.syntax unified
  15              		.file	"ble_process.c"
  16              		.text
  17              	.Ltext0:
  18              		.cfi_sections	.debug_frame
  19              		.comm	OneWire_Sensor,32,4
  20              		.comm	OneWire_DataReady,1,1
  21              		.data
  22              		.type	flag_Timer, %object
  23              		.size	flag_Timer, 1
  24              	flag_Timer:
  25 0000 01       		.byte	1
  26              		.comm	current_watchdog_counter,2,2
  27              		.comm	TemperatureStorage,16,4
  28              		.global	deviceIndex
  29              		.section	.rodata
  30              		.align	2
  31              		.type	deviceIndex, %object
  32              		.size	deviceIndex, 4
  33              	deviceIndex:
  34 0000 00000000 		.space	4
  35              		.global	dataADVCounter
  36              		.data
  37              		.type	dataADVCounter, %object
  38              		.size	dataADVCounter, 1
  39              	dataADVCounter:
  40 0001 01       		.byte	1
  41              		.global	switch_Role
  42              		.bss
  43              		.type	switch_Role, %object
  44              		.size	switch_Role, 1
  45              	switch_Role:
  46 0000 00       		.space	1
  47              		.global	scan_tag
  48              		.data
  49 0002 0000     		.align	2
  50              		.type	scan_tag, %object
  51              		.size	scan_tag, 20
  52              	scan_tag:
  53 0004 13       		.byte	19
  54 0005 21       		.byte	33
  55 0006 31       		.byte	49
  56 0007 01       		.byte	1
  57 0008 9B       		.byte	-101
ARM GAS  C:\Users\User\AppData\Local\Temp\cc96DgHN.s 			page 2


  58 0009 5F       		.byte	95
  59 000a 80       		.byte	-128
  60 000b 00       		.byte	0
  61 000c 00       		.byte	0
  62 000d 80       		.byte	-128
  63 000e 00       		.byte	0
  64 000f 10       		.byte	16
  65 0010 00       		.byte	0
  66 0011 00       		.byte	0
  67 0012 BB       		.byte	-69
  68 0013 CB       		.byte	-53
  69 0014 03       		.byte	3
  70 0015 00       		.byte	0
  71 0016 BB       		.byte	-69
  72 0017 CB       		.byte	-53
  73              		.comm	peripAddr,7,4
  74              		.global	clientConnectToDevice
  75              		.bss
  76              		.type	clientConnectToDevice, %object
  77              		.size	clientConnectToDevice, 1
  78              	clientConnectToDevice:
  79 0001 00       		.space	1
  80              		.global	ble_gap_state
  81              		.data
  82              		.type	ble_gap_state, %object
  83              		.size	ble_gap_state, 1
  84              	ble_gap_state:
  85 0018 01       		.byte	1
  86              		.global	deviceConnected
  87              		.bss
  88              		.type	deviceConnected, %object
  89              		.size	deviceConnected, 1
  90              	deviceConnected:
  91 0002 00       		.space	1
  92              		.global	restartScanning
  93              		.type	restartScanning, %object
  94              		.size	restartScanning, 1
  95              	restartScanning:
  96 0003 00       		.space	1
  97              		.global	centralStartedTime
  98              		.align	1
  99              		.type	centralStartedTime, %object
 100              		.size	centralStartedTime, 2
 101              	centralStartedTime:
 102 0004 0000     		.space	2
 103              		.section	.rodata
 104              		.align	2
 105              	.LC0:
 106 0004 2A2A2A20 		.ascii	"*** Peripheral Advertisement START/STOP\000"
 106      50657269 
 106      70686572 
 106      616C2041 
 106      64766572 
 107              		.align	2
 108              	.LC4:
 109 002c 2A2A2A20 		.ascii	"*** Restart Advertisement\000"
 109      52657374 
ARM GAS  C:\Users\User\AppData\Local\Temp\cc96DgHN.s 			page 3


 109      61727420 
 109      41647665 
 109      72746973 
 110 0046 0000     		.align	2
 111              	.LC6:
 112 0048 2A2A2A20 		.ascii	"*** Central device is SCANNING\000"
 112      43656E74 
 112      72616C20 
 112      64657669 
 112      63652069 
 113 0067 00       		.align	2
 114              	.LC8:
 115 0068 2A2A2A20 		.ascii	"*** Device is CONNECTED\000"
 115      44657669 
 115      63652069 
 115      7320434F 
 115      4E4E4543 
 116              		.align	2
 117              	.LC10:
 118 0080 2A2A2A20 		.ascii	"*** Device is DISCONNECTED\000"
 118      44657669 
 118      63652069 
 118      73204449 
 118      53434F4E 
 119 009b 00       		.align	2
 120              	.LC12:
 121 009c 2A2A2A20 		.ascii	"*** WRITING TEMPERATURE...\000"
 121      57524954 
 121      494E4720 
 121      54454D50 
 121      45524154 
 122 00b7 00       		.align	2
 123              	.LC18:
 124 00b8 2A2A2A20 		.ascii	"*** Switch Role to CENTRAL\000"
 124      53776974 
 124      63682052 
 124      6F6C6520 
 124      746F2043 
 125              		.global	__aeabi_f2uiz
 126 00d3 00       		.align	2
 127              	.LC21:
 128 00d4 2A2A2A20 		.ascii	"*** Progress result of SCAN\000"
 128      50726F67 
 128      72657373 
 128      20726573 
 128      756C7420 
 129              		.align	2
 130              	.LC23:
 131 00f0 2A2A2A20 		.ascii	"*** Device is FOUND. Stop SCANNING\000"
 131      44657669 
 131      63652069 
 131      7320464F 
 131      554E442E 
 132              		.global	__aeabi_f2d
 133              		.global	__aeabi_dsub
 134              		.global	__aeabi_d2f
 135 0113 00       		.align	2
ARM GAS  C:\Users\User\AppData\Local\Temp\cc96DgHN.s 			page 4


 136              	.LC29:
 137 0114 2A2A2A20 		.ascii	"*** Data is WRITTEN\000"
 137      44617461 
 137      20697320 
 137      57524954 
 137      54454E00 
 138              		.section	.text.GenericEventHandler,"ax",%progbits
 139              		.align	2
 140              		.global	GenericEventHandler
 141              		.code	16
 142              		.thumb_func
 143              		.type	GenericEventHandler, %function
 144              	GenericEventHandler:
 145              	.LFB36:
 146              		.file 1 "..\\..\\..\\PSoC-4-BLE-master\\100_Projects_in_100_Days\\Day049_BLE_Mesh_Flood\\Mesh_Floo
   1:..\..\..\PSoC-4-BLE-master\100_Projects_in_100_Days\Day049_BLE_Mesh_Flood\Mesh_Flood\Mesh_Flood_PSoC4BLE.cydsn/ble_process.c **** /*******************************************************************************
   2:..\..\..\PSoC-4-BLE-master\100_Projects_in_100_Days\Day049_BLE_Mesh_Flood\Mesh_Flood\Mesh_Flood_PSoC4BLE.cydsn/ble_process.c **** * File Name: ble_process.c
   3:..\..\..\PSoC-4-BLE-master\100_Projects_in_100_Days\Day049_BLE_Mesh_Flood\Mesh_Flood\Mesh_Flood_PSoC4BLE.cydsn/ble_process.c **** *
   4:..\..\..\PSoC-4-BLE-master\100_Projects_in_100_Days\Day049_BLE_Mesh_Flood\Mesh_Flood\Mesh_Flood_PSoC4BLE.cydsn/ble_process.c **** * Version: 1.0
   5:..\..\..\PSoC-4-BLE-master\100_Projects_in_100_Days\Day049_BLE_Mesh_Flood\Mesh_Flood\Mesh_Flood_PSoC4BLE.cydsn/ble_process.c **** *
   6:..\..\..\PSoC-4-BLE-master\100_Projects_in_100_Days\Day049_BLE_Mesh_Flood\Mesh_Flood\Mesh_Flood_PSoC4BLE.cydsn/ble_process.c **** * Description:
   7:..\..\..\PSoC-4-BLE-master\100_Projects_in_100_Days\Day049_BLE_Mesh_Flood\Mesh_Flood\Mesh_Flood_PSoC4BLE.cydsn/ble_process.c **** * This file contains the definiton for BLE related functions, such as event handler,
   8:..\..\..\PSoC-4-BLE-master\100_Projects_in_100_Days\Day049_BLE_Mesh_Flood\Mesh_Flood\Mesh_Flood_PSoC4BLE.cydsn/ble_process.c **** * GAP role switching, central scanning and connection to peripherals.
   9:..\..\..\PSoC-4-BLE-master\100_Projects_in_100_Days\Day049_BLE_Mesh_Flood\Mesh_Flood\Mesh_Flood_PSoC4BLE.cydsn/ble_process.c **** *
  10:..\..\..\PSoC-4-BLE-master\100_Projects_in_100_Days\Day049_BLE_Mesh_Flood\Mesh_Flood\Mesh_Flood_PSoC4BLE.cydsn/ble_process.c **** ********************************************************************************
  11:..\..\..\PSoC-4-BLE-master\100_Projects_in_100_Days\Day049_BLE_Mesh_Flood\Mesh_Flood\Mesh_Flood_PSoC4BLE.cydsn/ble_process.c **** * Copyright 2015, Cypress Semiconductor Corporation.  All rights reserved.
  12:..\..\..\PSoC-4-BLE-master\100_Projects_in_100_Days\Day049_BLE_Mesh_Flood\Mesh_Flood\Mesh_Flood_PSoC4BLE.cydsn/ble_process.c **** * You may use this file only in accordance with the license, terms, conditions,
  13:..\..\..\PSoC-4-BLE-master\100_Projects_in_100_Days\Day049_BLE_Mesh_Flood\Mesh_Flood\Mesh_Flood_PSoC4BLE.cydsn/ble_process.c **** * disclaimers, and limitations in the end user license agreement accompanying
  14:..\..\..\PSoC-4-BLE-master\100_Projects_in_100_Days\Day049_BLE_Mesh_Flood\Mesh_Flood\Mesh_Flood_PSoC4BLE.cydsn/ble_process.c **** * the software package with which this file was provided.
  15:..\..\..\PSoC-4-BLE-master\100_Projects_in_100_Days\Day049_BLE_Mesh_Flood\Mesh_Flood\Mesh_Flood_PSoC4BLE.cydsn/ble_process.c **** *******************************************************************************/
  16:..\..\..\PSoC-4-BLE-master\100_Projects_in_100_Days\Day049_BLE_Mesh_Flood\Mesh_Flood\Mesh_Flood_PSoC4BLE.cydsn/ble_process.c **** #include "main.h"
  17:..\..\..\PSoC-4-BLE-master\100_Projects_in_100_Days\Day049_BLE_Mesh_Flood\Mesh_Flood\Mesh_Flood_PSoC4BLE.cydsn/ble_process.c **** 
  18:..\..\..\PSoC-4-BLE-master\100_Projects_in_100_Days\Day049_BLE_Mesh_Flood\Mesh_Flood\Mesh_Flood_PSoC4BLE.cydsn/ble_process.c **** uint8 dataADVCounter = 1;
  19:..\..\..\PSoC-4-BLE-master\100_Projects_in_100_Days\Day049_BLE_Mesh_Flood\Mesh_Flood\Mesh_Flood_PSoC4BLE.cydsn/ble_process.c **** uint8 switch_Role = FALSE;
  20:..\..\..\PSoC-4-BLE-master\100_Projects_in_100_Days\Day049_BLE_Mesh_Flood\Mesh_Flood\Mesh_Flood_PSoC4BLE.cydsn/ble_process.c **** 
  21:..\..\..\PSoC-4-BLE-master\100_Projects_in_100_Days\Day049_BLE_Mesh_Flood\Mesh_Flood\Mesh_Flood_PSoC4BLE.cydsn/ble_process.c **** 
  22:..\..\..\PSoC-4-BLE-master\100_Projects_in_100_Days\Day049_BLE_Mesh_Flood\Mesh_Flood\Mesh_Flood_PSoC4BLE.cydsn/ble_process.c **** 
  23:..\..\..\PSoC-4-BLE-master\100_Projects_in_100_Days\Day049_BLE_Mesh_Flood\Mesh_Flood\Mesh_Flood_PSoC4BLE.cydsn/ble_process.c **** #ifdef ENABLE_ADV_DATA_COUNTER
  24:..\..\..\PSoC-4-BLE-master\100_Projects_in_100_Days\Day049_BLE_Mesh_Flood\Mesh_Flood\Mesh_Flood_PSoC4BLE.cydsn/ble_process.c **** CYBLE_GAPP_DISC_DATA_T  new_advData;
  25:..\..\..\PSoC-4-BLE-master\100_Projects_in_100_Days\Day049_BLE_Mesh_Flood\Mesh_Flood\Mesh_Flood_PSoC4BLE.cydsn/ble_process.c **** uint8 potential_node_found = 0;
  26:..\..\..\PSoC-4-BLE-master\100_Projects_in_100_Days\Day049_BLE_Mesh_Flood\Mesh_Flood\Mesh_Flood_PSoC4BLE.cydsn/ble_process.c **** uint8 potential_node_bdAddr[6];
  27:..\..\..\PSoC-4-BLE-master\100_Projects_in_100_Days\Day049_BLE_Mesh_Flood\Mesh_Flood\Mesh_Flood_PSoC4BLE.cydsn/ble_process.c **** uint8 potential_node_bdAddrType = 0;
  28:..\..\..\PSoC-4-BLE-master\100_Projects_in_100_Days\Day049_BLE_Mesh_Flood\Mesh_Flood\Mesh_Flood_PSoC4BLE.cydsn/ble_process.c **** #endif
  29:..\..\..\PSoC-4-BLE-master\100_Projects_in_100_Days\Day049_BLE_Mesh_Flood\Mesh_Flood\Mesh_Flood_PSoC4BLE.cydsn/ble_process.c **** 
  30:..\..\..\PSoC-4-BLE-master\100_Projects_in_100_Days\Day049_BLE_Mesh_Flood\Mesh_Flood\Mesh_Flood_PSoC4BLE.cydsn/ble_process.c **** uint8 scan_tag[SCAN_TAG_DATA_LEN] = {0x13, 0x21, 0x31, 0x01, 0x9B, 0x5F, 0x80, 0x00,
  31:..\..\..\PSoC-4-BLE-master\100_Projects_in_100_Days\Day049_BLE_Mesh_Flood\Mesh_Flood\Mesh_Flood_PSoC4BLE.cydsn/ble_process.c **** 									0x00, 0x80, 0x00, 0x10, 0x00, 0x00, 0xBB, 0xCB, 
  32:..\..\..\PSoC-4-BLE-master\100_Projects_in_100_Days\Day049_BLE_Mesh_Flood\Mesh_Flood\Mesh_Flood_PSoC4BLE.cydsn/ble_process.c **** 									0x03, 0x00, 0xBB, 0xCB};
  33:..\..\..\PSoC-4-BLE-master\100_Projects_in_100_Days\Day049_BLE_Mesh_Flood\Mesh_Flood\Mesh_Flood_PSoC4BLE.cydsn/ble_process.c **** 
  34:..\..\..\PSoC-4-BLE-master\100_Projects_in_100_Days\Day049_BLE_Mesh_Flood\Mesh_Flood\Mesh_Flood_PSoC4BLE.cydsn/ble_process.c **** CYBLE_GAP_BD_ADDR_T				peripAddr;
  35:..\..\..\PSoC-4-BLE-master\100_Projects_in_100_Days\Day049_BLE_Mesh_Flood\Mesh_Flood\Mesh_Flood_PSoC4BLE.cydsn/ble_process.c **** uint8 clientConnectToDevice = FALSE;
  36:..\..\..\PSoC-4-BLE-master\100_Projects_in_100_Days\Day049_BLE_Mesh_Flood\Mesh_Flood\Mesh_Flood_PSoC4BLE.cydsn/ble_process.c **** uint8 ble_gap_state = BLE_PERIPHERAL;
  37:..\..\..\PSoC-4-BLE-master\100_Projects_in_100_Days\Day049_BLE_Mesh_Flood\Mesh_Flood\Mesh_Flood_PSoC4BLE.cydsn/ble_process.c **** 
  38:..\..\..\PSoC-4-BLE-master\100_Projects_in_100_Days\Day049_BLE_Mesh_Flood\Mesh_Flood\Mesh_Flood_PSoC4BLE.cydsn/ble_process.c **** uint8 deviceConnected = FALSE;
  39:..\..\..\PSoC-4-BLE-master\100_Projects_in_100_Days\Day049_BLE_Mesh_Flood\Mesh_Flood\Mesh_Flood_PSoC4BLE.cydsn/ble_process.c **** uint8 restartScanning = FALSE;
  40:..\..\..\PSoC-4-BLE-master\100_Projects_in_100_Days\Day049_BLE_Mesh_Flood\Mesh_Flood\Mesh_Flood_PSoC4BLE.cydsn/ble_process.c **** volatile uint16 centralStartedTime = 0;
  41:..\..\..\PSoC-4-BLE-master\100_Projects_in_100_Days\Day049_BLE_Mesh_Flood\Mesh_Flood\Mesh_Flood_PSoC4BLE.cydsn/ble_process.c **** 
  42:..\..\..\PSoC-4-BLE-master\100_Projects_in_100_Days\Day049_BLE_Mesh_Flood\Mesh_Flood\Mesh_Flood_PSoC4BLE.cydsn/ble_process.c **** /*******************************************************************************
ARM GAS  C:\Users\User\AppData\Local\Temp\cc96DgHN.s 			page 5


  43:..\..\..\PSoC-4-BLE-master\100_Projects_in_100_Days\Day049_BLE_Mesh_Flood\Mesh_Flood\Mesh_Flood_PSoC4BLE.cydsn/ble_process.c **** * Function Name: GenericEventHandler
  44:..\..\..\PSoC-4-BLE-master\100_Projects_in_100_Days\Day049_BLE_Mesh_Flood\Mesh_Flood\Mesh_Flood_PSoC4BLE.cydsn/ble_process.c **** ********************************************************************************
  45:..\..\..\PSoC-4-BLE-master\100_Projects_in_100_Days\Day049_BLE_Mesh_Flood\Mesh_Flood\Mesh_Flood_PSoC4BLE.cydsn/ble_process.c **** * Summary:
  46:..\..\..\PSoC-4-BLE-master\100_Projects_in_100_Days\Day049_BLE_Mesh_Flood\Mesh_Flood\Mesh_Flood_PSoC4BLE.cydsn/ble_process.c **** *        Event handler function for the BLE stack. All the events by BLE stack
  47:..\..\..\PSoC-4-BLE-master\100_Projects_in_100_Days\Day049_BLE_Mesh_Flood\Mesh_Flood\Mesh_Flood_PSoC4BLE.cydsn/ble_process.c **** * are received by application through this function. For this, CyBle_ProcessEvents()
  48:..\..\..\PSoC-4-BLE-master\100_Projects_in_100_Days\Day049_BLE_Mesh_Flood\Mesh_Flood\Mesh_Flood_PSoC4BLE.cydsn/ble_process.c **** * should be called continuously in main loop.
  49:..\..\..\PSoC-4-BLE-master\100_Projects_in_100_Days\Day049_BLE_Mesh_Flood\Mesh_Flood\Mesh_Flood_PSoC4BLE.cydsn/ble_process.c **** *
  50:..\..\..\PSoC-4-BLE-master\100_Projects_in_100_Days\Day049_BLE_Mesh_Flood\Mesh_Flood\Mesh_Flood_PSoC4BLE.cydsn/ble_process.c **** * Parameters:
  51:..\..\..\PSoC-4-BLE-master\100_Projects_in_100_Days\Day049_BLE_Mesh_Flood\Mesh_Flood\Mesh_Flood_PSoC4BLE.cydsn/ble_process.c **** *  event: 		event value
  52:..\..\..\PSoC-4-BLE-master\100_Projects_in_100_Days\Day049_BLE_Mesh_Flood\Mesh_Flood\Mesh_Flood_PSoC4BLE.cydsn/ble_process.c **** *  eventParame: pointer to the location where relevant event data is stored
  53:..\..\..\PSoC-4-BLE-master\100_Projects_in_100_Days\Day049_BLE_Mesh_Flood\Mesh_Flood\Mesh_Flood_PSoC4BLE.cydsn/ble_process.c **** *
  54:..\..\..\PSoC-4-BLE-master\100_Projects_in_100_Days\Day049_BLE_Mesh_Flood\Mesh_Flood\Mesh_Flood_PSoC4BLE.cydsn/ble_process.c **** * Return:
  55:..\..\..\PSoC-4-BLE-master\100_Projects_in_100_Days\Day049_BLE_Mesh_Flood\Mesh_Flood\Mesh_Flood_PSoC4BLE.cydsn/ble_process.c **** *  void
  56:..\..\..\PSoC-4-BLE-master\100_Projects_in_100_Days\Day049_BLE_Mesh_Flood\Mesh_Flood\Mesh_Flood_PSoC4BLE.cydsn/ble_process.c **** *
  57:..\..\..\PSoC-4-BLE-master\100_Projects_in_100_Days\Day049_BLE_Mesh_Flood\Mesh_Flood\Mesh_Flood_PSoC4BLE.cydsn/ble_process.c **** *******************************************************************************/
  58:..\..\..\PSoC-4-BLE-master\100_Projects_in_100_Days\Day049_BLE_Mesh_Flood\Mesh_Flood\Mesh_Flood_PSoC4BLE.cydsn/ble_process.c **** void GenericEventHandler(uint32 event, void * eventParam)
  59:..\..\..\PSoC-4-BLE-master\100_Projects_in_100_Days\Day049_BLE_Mesh_Flood\Mesh_Flood\Mesh_Flood_PSoC4BLE.cydsn/ble_process.c **** {
 147              		.loc 1 59 0
 148              		.cfi_startproc
 149              		@ args = 0, pretend = 0, frame = 88
 150              		@ frame_needed = 1, uses_anonymous_args = 0
 151 0000 90B5     		push	{r4, r7, lr}
 152              		.cfi_def_cfa_offset 12
 153              		.cfi_offset 4, -12
 154              		.cfi_offset 7, -8
 155              		.cfi_offset 14, -4
 156 0002 97B0     		sub	sp, sp, #92
 157              		.cfi_def_cfa_offset 104
 158 0004 00AF     		add	r7, sp, #0
 159              		.cfi_def_cfa_register 7
 160 0006 7860     		str	r0, [r7, #4]
 161 0008 3960     		str	r1, [r7]
  60:..\..\..\PSoC-4-BLE-master\100_Projects_in_100_Days\Day049_BLE_Mesh_Flood\Mesh_Flood\Mesh_Flood_PSoC4BLE.cydsn/ble_process.c **** 	/* Local variables and data structures*/
  61:..\..\..\PSoC-4-BLE-master\100_Projects_in_100_Days\Day049_BLE_Mesh_Flood\Mesh_Flood\Mesh_Flood_PSoC4BLE.cydsn/ble_process.c **** 	CYBLE_GATTS_WRITE_REQ_PARAM_T 		writeReqData;
  62:..\..\..\PSoC-4-BLE-master\100_Projects_in_100_Days\Day049_BLE_Mesh_Flood\Mesh_Flood\Mesh_Flood_PSoC4BLE.cydsn/ble_process.c **** 	CYBLE_GATTC_WRITE_REQ_T				writeADVcounterdata;
  63:..\..\..\PSoC-4-BLE-master\100_Projects_in_100_Days\Day049_BLE_Mesh_Flood\Mesh_Flood\Mesh_Flood_PSoC4BLE.cydsn/ble_process.c **** 	CYBLE_GAPC_ADV_REPORT_T				scan_report;
  64:..\..\..\PSoC-4-BLE-master\100_Projects_in_100_Days\Day049_BLE_Mesh_Flood\Mesh_Flood\Mesh_Flood_PSoC4BLE.cydsn/ble_process.c **** 	CYBLE_GATTS_WRITE_CMD_REQ_PARAM_T	writeCmdData;
  65:..\..\..\PSoC-4-BLE-master\100_Projects_in_100_Days\Day049_BLE_Mesh_Flood\Mesh_Flood\Mesh_Flood_PSoC4BLE.cydsn/ble_process.c **** 	CYBLE_API_RESULT_T					apiResult;
  66:..\..\..\PSoC-4-BLE-master\100_Projects_in_100_Days\Day049_BLE_Mesh_Flood\Mesh_Flood\Mesh_Flood_PSoC4BLE.cydsn/ble_process.c **** 	CYBLE_GATTC_WRITE_REQ_T 			writeRGBdata;
  67:..\..\..\PSoC-4-BLE-master\100_Projects_in_100_Days\Day049_BLE_Mesh_Flood\Mesh_Flood\Mesh_Flood_PSoC4BLE.cydsn/ble_process.c ****     
  68:..\..\..\PSoC-4-BLE-master\100_Projects_in_100_Days\Day049_BLE_Mesh_Flood\Mesh_Flood\Mesh_Flood_PSoC4BLE.cydsn/ble_process.c **** 	switch(event)
 162              		.loc 1 68 0
 163 000a 7B68     		ldr	r3, [r7, #4]
 164 000c 2B2B     		cmp	r3, #43
 165 000e 49D0     		beq	.L3
 166 0010 0FD8     		bhi	.L4
 167 0012 262B     		cmp	r3, #38
 168 0014 24D0     		beq	.L5
 169 0016 05D8     		bhi	.L6
 170 0018 012B     		cmp	r3, #1
 171 001a 1DD0     		beq	.L7
 172 001c 202B     		cmp	r3, #32
 173 001e 00D1     		bne	.LCB27
 174 0020 D0E0     		b	.L8	@long jump
 175              	.LCB27:
  69:..\..\..\PSoC-4-BLE-master\100_Projects_in_100_Days\Day049_BLE_Mesh_Flood\Mesh_Flood\Mesh_Flood_PSoC4BLE.cydsn/ble_process.c **** 	{
  70:..\..\..\PSoC-4-BLE-master\100_Projects_in_100_Days\Day049_BLE_Mesh_Flood\Mesh_Flood\Mesh_Flood_PSoC4BLE.cydsn/ble_process.c **** 		case CYBLE_EVT_STACK_ON:		
ARM GAS  C:\Users\User\AppData\Local\Temp\cc96DgHN.s 			page 6


  71:..\..\..\PSoC-4-BLE-master\100_Projects_in_100_Days\Day049_BLE_Mesh_Flood\Mesh_Flood\Mesh_Flood_PSoC4BLE.cydsn/ble_process.c ****             #ifdef DEBUG_ENABLED
  72:..\..\..\PSoC-4-BLE-master\100_Projects_in_100_Days\Day049_BLE_Mesh_Flood\Mesh_Flood\Mesh_Flood_PSoC4BLE.cydsn/ble_process.c **** 			UART_UartPutString("CYBLE_EVT_STACK_ON ");
  73:..\..\..\PSoC-4-BLE-master\100_Projects_in_100_Days\Day049_BLE_Mesh_Flood\Mesh_Flood\Mesh_Flood_PSoC4BLE.cydsn/ble_process.c **** 			UART_UartPutCRLF(' ');
  74:..\..\..\PSoC-4-BLE-master\100_Projects_in_100_Days\Day049_BLE_Mesh_Flood\Mesh_Flood\Mesh_Flood_PSoC4BLE.cydsn/ble_process.c ****             #endif
  75:..\..\..\PSoC-4-BLE-master\100_Projects_in_100_Days\Day049_BLE_Mesh_Flood\Mesh_Flood\Mesh_Flood_PSoC4BLE.cydsn/ble_process.c **** 			
  76:..\..\..\PSoC-4-BLE-master\100_Projects_in_100_Days\Day049_BLE_Mesh_Flood\Mesh_Flood\Mesh_Flood_PSoC4BLE.cydsn/ble_process.c **** 			/* At the start of the BLE stack, start advertisement */
  77:..\..\..\PSoC-4-BLE-master\100_Projects_in_100_Days\Day049_BLE_Mesh_Flood\Mesh_Flood\Mesh_Flood_PSoC4BLE.cydsn/ble_process.c **** 			CyBle_GappStartAdvertisement(CYBLE_ADVERTISING_FAST);
  78:..\..\..\PSoC-4-BLE-master\100_Projects_in_100_Days\Day049_BLE_Mesh_Flood\Mesh_Flood\Mesh_Flood_PSoC4BLE.cydsn/ble_process.c **** 		break;
  79:..\..\..\PSoC-4-BLE-master\100_Projects_in_100_Days\Day049_BLE_Mesh_Flood\Mesh_Flood\Mesh_Flood_PSoC4BLE.cydsn/ble_process.c **** 			
  80:..\..\..\PSoC-4-BLE-master\100_Projects_in_100_Days\Day049_BLE_Mesh_Flood\Mesh_Flood\Mesh_Flood_PSoC4BLE.cydsn/ble_process.c **** 		case CYBLE_EVT_GAPP_ADVERTISEMENT_START_STOP:
  81:..\..\..\PSoC-4-BLE-master\100_Projects_in_100_Days\Day049_BLE_Mesh_Flood\Mesh_Flood\Mesh_Flood_PSoC4BLE.cydsn/ble_process.c **** 			/* This event is received at every start or stop of peripheral advertisement*/
  82:..\..\..\PSoC-4-BLE-master\100_Projects_in_100_Days\Day049_BLE_Mesh_Flood\Mesh_Flood\Mesh_Flood_PSoC4BLE.cydsn/ble_process.c ****             
  83:..\..\..\PSoC-4-BLE-master\100_Projects_in_100_Days\Day049_BLE_Mesh_Flood\Mesh_Flood\Mesh_Flood_PSoC4BLE.cydsn/ble_process.c ****             #ifdef TEMPERATURE_OUTPUT_ENABLED
  84:..\..\..\PSoC-4-BLE-master\100_Projects_in_100_Days\Day049_BLE_Mesh_Flood\Mesh_Flood\Mesh_Flood_PSoC4BLE.cydsn/ble_process.c ****             UART_UartPutString("*** Peripheral Advertisement START/STOP");
  85:..\..\..\PSoC-4-BLE-master\100_Projects_in_100_Days\Day049_BLE_Mesh_Flood\Mesh_Flood\Mesh_Flood_PSoC4BLE.cydsn/ble_process.c **** 			UART_UartPutCRLF(' ');
  86:..\..\..\PSoC-4-BLE-master\100_Projects_in_100_Days\Day049_BLE_Mesh_Flood\Mesh_Flood\Mesh_Flood_PSoC4BLE.cydsn/ble_process.c ****             #endif
  87:..\..\..\PSoC-4-BLE-master\100_Projects_in_100_Days\Day049_BLE_Mesh_Flood\Mesh_Flood\Mesh_Flood_PSoC4BLE.cydsn/ble_process.c **** 			
  88:..\..\..\PSoC-4-BLE-master\100_Projects_in_100_Days\Day049_BLE_Mesh_Flood\Mesh_Flood\Mesh_Flood_PSoC4BLE.cydsn/ble_process.c ****             #ifdef DEBUG_ENABLED
  89:..\..\..\PSoC-4-BLE-master\100_Projects_in_100_Days\Day049_BLE_Mesh_Flood\Mesh_Flood\Mesh_Flood_PSoC4BLE.cydsn/ble_process.c **** 			UART_UartPutString("CYBLE_EVT_GAPP_ADVERTISEMENT_START_STOP ");
  90:..\..\..\PSoC-4-BLE-master\100_Projects_in_100_Days\Day049_BLE_Mesh_Flood\Mesh_Flood\Mesh_Flood_PSoC4BLE.cydsn/ble_process.c **** 			SendBLEStatetoUART(CyBle_GetState());
  91:..\..\..\PSoC-4-BLE-master\100_Projects_in_100_Days\Day049_BLE_Mesh_Flood\Mesh_Flood\Mesh_Flood_PSoC4BLE.cydsn/ble_process.c **** 			UART_UartPutCRLF(' ');
  92:..\..\..\PSoC-4-BLE-master\100_Projects_in_100_Days\Day049_BLE_Mesh_Flood\Mesh_Flood\Mesh_Flood_PSoC4BLE.cydsn/ble_process.c ****             #endif
  93:..\..\..\PSoC-4-BLE-master\100_Projects_in_100_Days\Day049_BLE_Mesh_Flood\Mesh_Flood\Mesh_Flood_PSoC4BLE.cydsn/ble_process.c **** 			
  94:..\..\..\PSoC-4-BLE-master\100_Projects_in_100_Days\Day049_BLE_Mesh_Flood\Mesh_Flood\Mesh_Flood_PSoC4BLE.cydsn/ble_process.c **** 			
  95:..\..\..\PSoC-4-BLE-master\100_Projects_in_100_Days\Day049_BLE_Mesh_Flood\Mesh_Flood\Mesh_Flood_PSoC4BLE.cydsn/ble_process.c **** 			if((CYBLE_STATE_DISCONNECTED == CyBle_GetState()) && (switch_Role == FALSE))
  96:..\..\..\PSoC-4-BLE-master\100_Projects_in_100_Days\Day049_BLE_Mesh_Flood\Mesh_Flood\Mesh_Flood_PSoC4BLE.cydsn/ble_process.c **** 			{
  97:..\..\..\PSoC-4-BLE-master\100_Projects_in_100_Days\Day049_BLE_Mesh_Flood\Mesh_Flood\Mesh_Flood_PSoC4BLE.cydsn/ble_process.c **** 				/* If the current state of the BLE is Disconnected, then restart advertisement.
  98:..\..\..\PSoC-4-BLE-master\100_Projects_in_100_Days\Day049_BLE_Mesh_Flood\Mesh_Flood\Mesh_Flood_PSoC4BLE.cydsn/ble_process.c **** 				* Note that the advertisement should only be restarted if the switch flag is not
  99:..\..\..\PSoC-4-BLE-master\100_Projects_in_100_Days\Day049_BLE_Mesh_Flood\Mesh_Flood\Mesh_Flood_PSoC4BLE.cydsn/ble_process.c **** 				* TRUE. If switch role flag is TRUE, then there is no need to start advertisement
 100:..\..\..\PSoC-4-BLE-master\100_Projects_in_100_Days\Day049_BLE_Mesh_Flood\Mesh_Flood\Mesh_Flood_PSoC4BLE.cydsn/ble_process.c **** 				* as the GAP role has to be switched*/
 101:..\..\..\PSoC-4-BLE-master\100_Projects_in_100_Days\Day049_BLE_Mesh_Flood\Mesh_Flood\Mesh_Flood_PSoC4BLE.cydsn/ble_process.c **** 				CyBle_GappStartAdvertisement(CYBLE_ADVERTISING_FAST);	
 102:..\..\..\PSoC-4-BLE-master\100_Projects_in_100_Days\Day049_BLE_Mesh_Flood\Mesh_Flood\Mesh_Flood_PSoC4BLE.cydsn/ble_process.c **** 				
 103:..\..\..\PSoC-4-BLE-master\100_Projects_in_100_Days\Day049_BLE_Mesh_Flood\Mesh_Flood\Mesh_Flood_PSoC4BLE.cydsn/ble_process.c **** 				if(apiResult == CYBLE_ERROR_OK)
 104:..\..\..\PSoC-4-BLE-master\100_Projects_in_100_Days\Day049_BLE_Mesh_Flood\Mesh_Flood\Mesh_Flood_PSoC4BLE.cydsn/ble_process.c **** 				{
 105:..\..\..\PSoC-4-BLE-master\100_Projects_in_100_Days\Day049_BLE_Mesh_Flood\Mesh_Flood\Mesh_Flood_PSoC4BLE.cydsn/ble_process.c ****                     #ifdef TEMPERATURE_OUTPUT_ENABLED
 106:..\..\..\PSoC-4-BLE-master\100_Projects_in_100_Days\Day049_BLE_Mesh_Flood\Mesh_Flood\Mesh_Flood_PSoC4BLE.cydsn/ble_process.c ****                     UART_UartPutString("*** Restart Advertisement");
 107:..\..\..\PSoC-4-BLE-master\100_Projects_in_100_Days\Day049_BLE_Mesh_Flood\Mesh_Flood\Mesh_Flood_PSoC4BLE.cydsn/ble_process.c ****         			UART_UartPutCRLF(' ');
 108:..\..\..\PSoC-4-BLE-master\100_Projects_in_100_Days\Day049_BLE_Mesh_Flood\Mesh_Flood\Mesh_Flood_PSoC4BLE.cydsn/ble_process.c ****                     #endif
 109:..\..\..\PSoC-4-BLE-master\100_Projects_in_100_Days\Day049_BLE_Mesh_Flood\Mesh_Flood\Mesh_Flood_PSoC4BLE.cydsn/ble_process.c ****                     
 110:..\..\..\PSoC-4-BLE-master\100_Projects_in_100_Days\Day049_BLE_Mesh_Flood\Mesh_Flood\Mesh_Flood_PSoC4BLE.cydsn/ble_process.c **** 					#ifdef DEBUG_ENABLED
 111:..\..\..\PSoC-4-BLE-master\100_Projects_in_100_Days\Day049_BLE_Mesh_Flood\Mesh_Flood\Mesh_Flood_PSoC4BLE.cydsn/ble_process.c **** 					UART_UartPutString("Restart Advertisement ");
 112:..\..\..\PSoC-4-BLE-master\100_Projects_in_100_Days\Day049_BLE_Mesh_Flood\Mesh_Flood\Mesh_Flood_PSoC4BLE.cydsn/ble_process.c **** 					SendBLEStatetoUART(CyBle_GetState());
 113:..\..\..\PSoC-4-BLE-master\100_Projects_in_100_Days\Day049_BLE_Mesh_Flood\Mesh_Flood\Mesh_Flood_PSoC4BLE.cydsn/ble_process.c **** 					UART_UartPutCRLF(' ');
 114:..\..\..\PSoC-4-BLE-master\100_Projects_in_100_Days\Day049_BLE_Mesh_Flood\Mesh_Flood\Mesh_Flood_PSoC4BLE.cydsn/ble_process.c ****                     #endif
 115:..\..\..\PSoC-4-BLE-master\100_Projects_in_100_Days\Day049_BLE_Mesh_Flood\Mesh_Flood\Mesh_Flood_PSoC4BLE.cydsn/ble_process.c **** 				}
 116:..\..\..\PSoC-4-BLE-master\100_Projects_in_100_Days\Day049_BLE_Mesh_Flood\Mesh_Flood\Mesh_Flood_PSoC4BLE.cydsn/ble_process.c **** 			}
 117:..\..\..\PSoC-4-BLE-master\100_Projects_in_100_Days\Day049_BLE_Mesh_Flood\Mesh_Flood\Mesh_Flood_PSoC4BLE.cydsn/ble_process.c **** 		break;
 118:..\..\..\PSoC-4-BLE-master\100_Projects_in_100_Days\Day049_BLE_Mesh_Flood\Mesh_Flood\Mesh_Flood_PSoC4BLE.cydsn/ble_process.c **** 			
 119:..\..\..\PSoC-4-BLE-master\100_Projects_in_100_Days\Day049_BLE_Mesh_Flood\Mesh_Flood\Mesh_Flood_PSoC4BLE.cydsn/ble_process.c **** 		case CYBLE_EVT_GAPC_SCAN_START_STOP:
 120:..\..\..\PSoC-4-BLE-master\100_Projects_in_100_Days\Day049_BLE_Mesh_Flood\Mesh_Flood\Mesh_Flood_PSoC4BLE.cydsn/ble_process.c **** 			/* This event is received at every start or stop of central scanning*/
 121:..\..\..\PSoC-4-BLE-master\100_Projects_in_100_Days\Day049_BLE_Mesh_Flood\Mesh_Flood\Mesh_Flood_PSoC4BLE.cydsn/ble_process.c ****             #ifdef TEMPERATURE_OUTPUT_ENABLED
 122:..\..\..\PSoC-4-BLE-master\100_Projects_in_100_Days\Day049_BLE_Mesh_Flood\Mesh_Flood\Mesh_Flood_PSoC4BLE.cydsn/ble_process.c ****             UART_UartPutString("*** Central device is SCANNING");
 123:..\..\..\PSoC-4-BLE-master\100_Projects_in_100_Days\Day049_BLE_Mesh_Flood\Mesh_Flood\Mesh_Flood_PSoC4BLE.cydsn/ble_process.c **** 			UART_UartPutCRLF(' ');
 124:..\..\..\PSoC-4-BLE-master\100_Projects_in_100_Days\Day049_BLE_Mesh_Flood\Mesh_Flood\Mesh_Flood_PSoC4BLE.cydsn/ble_process.c ****             #endif
 125:..\..\..\PSoC-4-BLE-master\100_Projects_in_100_Days\Day049_BLE_Mesh_Flood\Mesh_Flood\Mesh_Flood_PSoC4BLE.cydsn/ble_process.c **** 			
 126:..\..\..\PSoC-4-BLE-master\100_Projects_in_100_Days\Day049_BLE_Mesh_Flood\Mesh_Flood\Mesh_Flood_PSoC4BLE.cydsn/ble_process.c ****             #ifdef DEBUG_ENABLED
 127:..\..\..\PSoC-4-BLE-master\100_Projects_in_100_Days\Day049_BLE_Mesh_Flood\Mesh_Flood\Mesh_Flood_PSoC4BLE.cydsn/ble_process.c **** 			UART_UartPutString("CYBLE_EVT_GAPC_SCAN_START_STOP ");
ARM GAS  C:\Users\User\AppData\Local\Temp\cc96DgHN.s 			page 7


 128:..\..\..\PSoC-4-BLE-master\100_Projects_in_100_Days\Day049_BLE_Mesh_Flood\Mesh_Flood\Mesh_Flood_PSoC4BLE.cydsn/ble_process.c **** 			SendBLEStatetoUART(CyBle_GetState());
 129:..\..\..\PSoC-4-BLE-master\100_Projects_in_100_Days\Day049_BLE_Mesh_Flood\Mesh_Flood\Mesh_Flood_PSoC4BLE.cydsn/ble_process.c **** 			UART_UartPutCRLF(' ');
 130:..\..\..\PSoC-4-BLE-master\100_Projects_in_100_Days\Day049_BLE_Mesh_Flood\Mesh_Flood\Mesh_Flood_PSoC4BLE.cydsn/ble_process.c ****             #endif
 131:..\..\..\PSoC-4-BLE-master\100_Projects_in_100_Days\Day049_BLE_Mesh_Flood\Mesh_Flood\Mesh_Flood_PSoC4BLE.cydsn/ble_process.c **** 			
 132:..\..\..\PSoC-4-BLE-master\100_Projects_in_100_Days\Day049_BLE_Mesh_Flood\Mesh_Flood\Mesh_Flood_PSoC4BLE.cydsn/ble_process.c **** 		break;
 133:..\..\..\PSoC-4-BLE-master\100_Projects_in_100_Days\Day049_BLE_Mesh_Flood\Mesh_Flood\Mesh_Flood_PSoC4BLE.cydsn/ble_process.c **** 			
 134:..\..\..\PSoC-4-BLE-master\100_Projects_in_100_Days\Day049_BLE_Mesh_Flood\Mesh_Flood\Mesh_Flood_PSoC4BLE.cydsn/ble_process.c **** 		case CYBLE_EVT_GATT_CONNECT_IND:
 135:..\..\..\PSoC-4-BLE-master\100_Projects_in_100_Days\Day049_BLE_Mesh_Flood\Mesh_Flood\Mesh_Flood_PSoC4BLE.cydsn/ble_process.c **** 			/* This event is received at GATT connection with a device. This event
 136:..\..\..\PSoC-4-BLE-master\100_Projects_in_100_Days\Day049_BLE_Mesh_Flood\Mesh_Flood\Mesh_Flood_PSoC4BLE.cydsn/ble_process.c **** 			* is received for both Client or Server role */
 137:..\..\..\PSoC-4-BLE-master\100_Projects_in_100_Days\Day049_BLE_Mesh_Flood\Mesh_Flood\Mesh_Flood_PSoC4BLE.cydsn/ble_process.c ****             #ifdef TEMPERATURE_OUTPUT_ENABLED
 138:..\..\..\PSoC-4-BLE-master\100_Projects_in_100_Days\Day049_BLE_Mesh_Flood\Mesh_Flood\Mesh_Flood_PSoC4BLE.cydsn/ble_process.c ****             UART_UartPutString("*** Device is CONNECTED");
 139:..\..\..\PSoC-4-BLE-master\100_Projects_in_100_Days\Day049_BLE_Mesh_Flood\Mesh_Flood\Mesh_Flood_PSoC4BLE.cydsn/ble_process.c **** 			UART_UartPutCRLF(' ');
 140:..\..\..\PSoC-4-BLE-master\100_Projects_in_100_Days\Day049_BLE_Mesh_Flood\Mesh_Flood\Mesh_Flood_PSoC4BLE.cydsn/ble_process.c ****             #endif
 141:..\..\..\PSoC-4-BLE-master\100_Projects_in_100_Days\Day049_BLE_Mesh_Flood\Mesh_Flood\Mesh_Flood_PSoC4BLE.cydsn/ble_process.c ****             
 142:..\..\..\PSoC-4-BLE-master\100_Projects_in_100_Days\Day049_BLE_Mesh_Flood\Mesh_Flood\Mesh_Flood_PSoC4BLE.cydsn/ble_process.c **** 			#ifdef DEBUG_ENABLED
 143:..\..\..\PSoC-4-BLE-master\100_Projects_in_100_Days\Day049_BLE_Mesh_Flood\Mesh_Flood\Mesh_Flood_PSoC4BLE.cydsn/ble_process.c **** 			UART_UartPutString("CYBLE_EVT_GATT_CONNECT_IND ");
 144:..\..\..\PSoC-4-BLE-master\100_Projects_in_100_Days\Day049_BLE_Mesh_Flood\Mesh_Flood\Mesh_Flood_PSoC4BLE.cydsn/ble_process.c **** 			UART_UartPutCRLF(' ');
 145:..\..\..\PSoC-4-BLE-master\100_Projects_in_100_Days\Day049_BLE_Mesh_Flood\Mesh_Flood\Mesh_Flood_PSoC4BLE.cydsn/ble_process.c **** 			#endif
 146:..\..\..\PSoC-4-BLE-master\100_Projects_in_100_Days\Day049_BLE_Mesh_Flood\Mesh_Flood\Mesh_Flood_PSoC4BLE.cydsn/ble_process.c **** 		break;
 147:..\..\..\PSoC-4-BLE-master\100_Projects_in_100_Days\Day049_BLE_Mesh_Flood\Mesh_Flood\Mesh_Flood_PSoC4BLE.cydsn/ble_process.c **** 		
 148:..\..\..\PSoC-4-BLE-master\100_Projects_in_100_Days\Day049_BLE_Mesh_Flood\Mesh_Flood\Mesh_Flood_PSoC4BLE.cydsn/ble_process.c **** 		case CYBLE_EVT_GATT_DISCONNECT_IND:
 149:..\..\..\PSoC-4-BLE-master\100_Projects_in_100_Days\Day049_BLE_Mesh_Flood\Mesh_Flood\Mesh_Flood_PSoC4BLE.cydsn/ble_process.c **** 			/* This event is received at GATT disconnection with a device. This event
 150:..\..\..\PSoC-4-BLE-master\100_Projects_in_100_Days\Day049_BLE_Mesh_Flood\Mesh_Flood\Mesh_Flood_PSoC4BLE.cydsn/ble_process.c **** 			* is received for both Client or Server role */
 151:..\..\..\PSoC-4-BLE-master\100_Projects_in_100_Days\Day049_BLE_Mesh_Flood\Mesh_Flood\Mesh_Flood_PSoC4BLE.cydsn/ble_process.c ****             #ifdef TEMPERATURE_OUTPUT_ENABLED
 152:..\..\..\PSoC-4-BLE-master\100_Projects_in_100_Days\Day049_BLE_Mesh_Flood\Mesh_Flood\Mesh_Flood_PSoC4BLE.cydsn/ble_process.c ****             UART_UartPutString("*** Device is DISCONNECTED");
 153:..\..\..\PSoC-4-BLE-master\100_Projects_in_100_Days\Day049_BLE_Mesh_Flood\Mesh_Flood\Mesh_Flood_PSoC4BLE.cydsn/ble_process.c **** 			UART_UartPutCRLF(' ');
 154:..\..\..\PSoC-4-BLE-master\100_Projects_in_100_Days\Day049_BLE_Mesh_Flood\Mesh_Flood\Mesh_Flood_PSoC4BLE.cydsn/ble_process.c ****             #endif
 155:..\..\..\PSoC-4-BLE-master\100_Projects_in_100_Days\Day049_BLE_Mesh_Flood\Mesh_Flood\Mesh_Flood_PSoC4BLE.cydsn/ble_process.c ****             
 156:..\..\..\PSoC-4-BLE-master\100_Projects_in_100_Days\Day049_BLE_Mesh_Flood\Mesh_Flood\Mesh_Flood_PSoC4BLE.cydsn/ble_process.c **** 			#ifdef DEBUG_ENABLED
 157:..\..\..\PSoC-4-BLE-master\100_Projects_in_100_Days\Day049_BLE_Mesh_Flood\Mesh_Flood\Mesh_Flood_PSoC4BLE.cydsn/ble_process.c **** 			UART_UartPutString("CYBLE_EVT_GATT_DISCONNECT_IND ");
 158:..\..\..\PSoC-4-BLE-master\100_Projects_in_100_Days\Day049_BLE_Mesh_Flood\Mesh_Flood\Mesh_Flood_PSoC4BLE.cydsn/ble_process.c **** 			UART_UartPutCRLF(' ');
 159:..\..\..\PSoC-4-BLE-master\100_Projects_in_100_Days\Day049_BLE_Mesh_Flood\Mesh_Flood\Mesh_Flood_PSoC4BLE.cydsn/ble_process.c **** 			#endif
 160:..\..\..\PSoC-4-BLE-master\100_Projects_in_100_Days\Day049_BLE_Mesh_Flood\Mesh_Flood\Mesh_Flood_PSoC4BLE.cydsn/ble_process.c **** 		break;
 161:..\..\..\PSoC-4-BLE-master\100_Projects_in_100_Days\Day049_BLE_Mesh_Flood\Mesh_Flood\Mesh_Flood_PSoC4BLE.cydsn/ble_process.c **** 			
 162:..\..\..\PSoC-4-BLE-master\100_Projects_in_100_Days\Day049_BLE_Mesh_Flood\Mesh_Flood\Mesh_Flood_PSoC4BLE.cydsn/ble_process.c ****         // THIS IS THE FUNCTION TO EDIT!!!
 163:..\..\..\PSoC-4-BLE-master\100_Projects_in_100_Days\Day049_BLE_Mesh_Flood\Mesh_Flood\Mesh_Flood_PSoC4BLE.cydsn/ble_process.c **** 		case CYBLE_EVT_GATTS_WRITE_REQ:
 164:..\..\..\PSoC-4-BLE-master\100_Projects_in_100_Days\Day049_BLE_Mesh_Flood\Mesh_Flood\Mesh_Flood_PSoC4BLE.cydsn/ble_process.c **** 			/* This event is received at when Server receives a Write request from
 165:..\..\..\PSoC-4-BLE-master\100_Projects_in_100_Days\Day049_BLE_Mesh_Flood\Mesh_Flood\Mesh_Flood_PSoC4BLE.cydsn/ble_process.c **** 			* connected Client device */
 166:..\..\..\PSoC-4-BLE-master\100_Projects_in_100_Days\Day049_BLE_Mesh_Flood\Mesh_Flood\Mesh_Flood_PSoC4BLE.cydsn/ble_process.c **** 			/* Save the associated event parameter in local variable */
 167:..\..\..\PSoC-4-BLE-master\100_Projects_in_100_Days\Day049_BLE_Mesh_Flood\Mesh_Flood\Mesh_Flood_PSoC4BLE.cydsn/ble_process.c **** 			writeReqData = *(CYBLE_GATTS_WRITE_REQ_PARAM_T*)eventParam;
 168:..\..\..\PSoC-4-BLE-master\100_Projects_in_100_Days\Day049_BLE_Mesh_Flood\Mesh_Flood\Mesh_Flood_PSoC4BLE.cydsn/ble_process.c ****             
 169:..\..\..\PSoC-4-BLE-master\100_Projects_in_100_Days\Day049_BLE_Mesh_Flood\Mesh_Flood\Mesh_Flood_PSoC4BLE.cydsn/ble_process.c ****             #ifdef TEMPERATURE_OUTPUT_ENABLED
 170:..\..\..\PSoC-4-BLE-master\100_Projects_in_100_Days\Day049_BLE_Mesh_Flood\Mesh_Flood\Mesh_Flood_PSoC4BLE.cydsn/ble_process.c ****             UART_UartPutString("*** WRITING TEMPERATURE...");
 171:..\..\..\PSoC-4-BLE-master\100_Projects_in_100_Days\Day049_BLE_Mesh_Flood\Mesh_Flood\Mesh_Flood_PSoC4BLE.cydsn/ble_process.c **** 			UART_UartPutCRLF(' ');
 172:..\..\..\PSoC-4-BLE-master\100_Projects_in_100_Days\Day049_BLE_Mesh_Flood\Mesh_Flood\Mesh_Flood_PSoC4BLE.cydsn/ble_process.c ****             #endif
 173:..\..\..\PSoC-4-BLE-master\100_Projects_in_100_Days\Day049_BLE_Mesh_Flood\Mesh_Flood\Mesh_Flood_PSoC4BLE.cydsn/ble_process.c **** 
 174:..\..\..\PSoC-4-BLE-master\100_Projects_in_100_Days\Day049_BLE_Mesh_Flood\Mesh_Flood\Mesh_Flood_PSoC4BLE.cydsn/ble_process.c **** 		    #ifdef DEBUG_ENABLED
 175:..\..\..\PSoC-4-BLE-master\100_Projects_in_100_Days\Day049_BLE_Mesh_Flood\Mesh_Flood\Mesh_Flood_PSoC4BLE.cydsn/ble_process.c **** 			    UART_UartPutString("*** WRITING TEMPERATURE...");
 176:..\..\..\PSoC-4-BLE-master\100_Projects_in_100_Days\Day049_BLE_Mesh_Flood\Mesh_Flood\Mesh_Flood_PSoC4BLE.cydsn/ble_process.c **** 			    UART_UartPutCRLF(' ');
 177:..\..\..\PSoC-4-BLE-master\100_Projects_in_100_Days\Day049_BLE_Mesh_Flood\Mesh_Flood\Mesh_Flood_PSoC4BLE.cydsn/ble_process.c ****             #endif
 178:..\..\..\PSoC-4-BLE-master\100_Projects_in_100_Days\Day049_BLE_Mesh_Flood\Mesh_Flood\Mesh_Flood_PSoC4BLE.cydsn/ble_process.c **** 			
 179:..\..\..\PSoC-4-BLE-master\100_Projects_in_100_Days\Day049_BLE_Mesh_Flood\Mesh_Flood\Mesh_Flood_PSoC4BLE.cydsn/ble_process.c **** 			/* Extract temperature value and store it */
 180:..\..\..\PSoC-4-BLE-master\100_Projects_in_100_Days\Day049_BLE_Mesh_Flood\Mesh_Flood\Mesh_Flood_PSoC4BLE.cydsn/ble_process.c ****             TemperatureStorage.handleValPair.value.val[deviceIndex] = GetTemperature(flag_Timer);
 181:..\..\..\PSoC-4-BLE-master\100_Projects_in_100_Days\Day049_BLE_Mesh_Flood\Mesh_Flood\Mesh_Flood_PSoC4BLE.cydsn/ble_process.c ****             GREEN_LED_Pin_Write(0);
 182:..\..\..\PSoC-4-BLE-master\100_Projects_in_100_Days\Day049_BLE_Mesh_Flood\Mesh_Flood\Mesh_Flood_PSoC4BLE.cydsn/ble_process.c ****             
 183:..\..\..\PSoC-4-BLE-master\100_Projects_in_100_Days\Day049_BLE_Mesh_Flood\Mesh_Flood\Mesh_Flood_PSoC4BLE.cydsn/ble_process.c ****             #ifdef TEMPERATURE_OUTPUT_ENABLED
 184:..\..\..\PSoC-4-BLE-master\100_Projects_in_100_Days\Day049_BLE_Mesh_Flood\Mesh_Flood\Mesh_Flood_PSoC4BLE.cydsn/ble_process.c ****                 SendTemperarureToUart(TemperatureStorage.handleValPair.value.val[deviceIndex]);
ARM GAS  C:\Users\User\AppData\Local\Temp\cc96DgHN.s 			page 8


 185:..\..\..\PSoC-4-BLE-master\100_Projects_in_100_Days\Day049_BLE_Mesh_Flood\Mesh_Flood\Mesh_Flood_PSoC4BLE.cydsn/ble_process.c ****             #endif
 186:..\..\..\PSoC-4-BLE-master\100_Projects_in_100_Days\Day049_BLE_Mesh_Flood\Mesh_Flood\Mesh_Flood_PSoC4BLE.cydsn/ble_process.c ****             
 187:..\..\..\PSoC-4-BLE-master\100_Projects_in_100_Days\Day049_BLE_Mesh_Flood\Mesh_Flood\Mesh_Flood_PSoC4BLE.cydsn/ble_process.c **** 			/* Update the RGB LED Control characteristic in GATT DB  to allow
 188:..\..\..\PSoC-4-BLE-master\100_Projects_in_100_Days\Day049_BLE_Mesh_Flood\Mesh_Flood\Mesh_Flood_PSoC4BLE.cydsn/ble_process.c **** 			* Client to read the latest RGB LED color value set */
 189:..\..\..\PSoC-4-BLE-master\100_Projects_in_100_Days\Day049_BLE_Mesh_Flood\Mesh_Flood\Mesh_Flood_PSoC4BLE.cydsn/ble_process.c **** 			CyBle_GattsWriteAttributeValue(&TemperatureStorage.handleValPair,0,&cyBle_connHandle,CYBLE_GATT_
 190:..\..\..\PSoC-4-BLE-master\100_Projects_in_100_Days\Day049_BLE_Mesh_Flood\Mesh_Flood\Mesh_Flood_PSoC4BLE.cydsn/ble_process.c ****             
 191:..\..\..\PSoC-4-BLE-master\100_Projects_in_100_Days\Day049_BLE_Mesh_Flood\Mesh_Flood\Mesh_Flood_PSoC4BLE.cydsn/ble_process.c ****             SendTempArrayToUart(TemperatureStorage.handleValPair.value.val);
 192:..\..\..\PSoC-4-BLE-master\100_Projects_in_100_Days\Day049_BLE_Mesh_Flood\Mesh_Flood\Mesh_Flood_PSoC4BLE.cydsn/ble_process.c **** 					
 193:..\..\..\PSoC-4-BLE-master\100_Projects_in_100_Days\Day049_BLE_Mesh_Flood\Mesh_Flood\Mesh_Flood_PSoC4BLE.cydsn/ble_process.c **** 			#ifdef ENABLE_ADV_DATA_COUNTER
 194:..\..\..\PSoC-4-BLE-master\100_Projects_in_100_Days\Day049_BLE_Mesh_Flood\Mesh_Flood\Mesh_Flood_PSoC4BLE.cydsn/ble_process.c ****     			/* Increment the ADV data counter so that scanning Central device knows
 195:..\..\..\PSoC-4-BLE-master\100_Projects_in_100_Days\Day049_BLE_Mesh_Flood\Mesh_Flood\Mesh_Flood_PSoC4BLE.cydsn/ble_process.c ****     			* if this device has updated RGB LED data or not */
 196:..\..\..\PSoC-4-BLE-master\100_Projects_in_100_Days\Day049_BLE_Mesh_Flood\Mesh_Flood\Mesh_Flood_PSoC4BLE.cydsn/ble_process.c ****     			dataADVCounter++;
 197:..\..\..\PSoC-4-BLE-master\100_Projects_in_100_Days\Day049_BLE_Mesh_Flood\Mesh_Flood\Mesh_Flood_PSoC4BLE.cydsn/ble_process.c **** 			#endif
 198:..\..\..\PSoC-4-BLE-master\100_Projects_in_100_Days\Day049_BLE_Mesh_Flood\Mesh_Flood\Mesh_Flood_PSoC4BLE.cydsn/ble_process.c **** 			
 199:..\..\..\PSoC-4-BLE-master\100_Projects_in_100_Days\Day049_BLE_Mesh_Flood\Mesh_Flood\Mesh_Flood_PSoC4BLE.cydsn/ble_process.c **** 			#ifdef DEBUG_ENABLED
 200:..\..\..\PSoC-4-BLE-master\100_Projects_in_100_Days\Day049_BLE_Mesh_Flood\Mesh_Flood\Mesh_Flood_PSoC4BLE.cydsn/ble_process.c ****     			UART_UartPutString("incremented dataADVCounter value in CYBLE_EVT_GATTS_WRITE_REQ= ");
 201:..\..\..\PSoC-4-BLE-master\100_Projects_in_100_Days\Day049_BLE_Mesh_Flood\Mesh_Flood\Mesh_Flood_PSoC4BLE.cydsn/ble_process.c ****     			PrintNum(dataADVCounter);
 202:..\..\..\PSoC-4-BLE-master\100_Projects_in_100_Days\Day049_BLE_Mesh_Flood\Mesh_Flood\Mesh_Flood_PSoC4BLE.cydsn/ble_process.c ****     			UART_UartPutCRLF(' ');
 203:..\..\..\PSoC-4-BLE-master\100_Projects_in_100_Days\Day049_BLE_Mesh_Flood\Mesh_Flood\Mesh_Flood_PSoC4BLE.cydsn/ble_process.c **** 			#endif
 204:..\..\..\PSoC-4-BLE-master\100_Projects_in_100_Days\Day049_BLE_Mesh_Flood\Mesh_Flood\Mesh_Flood_PSoC4BLE.cydsn/ble_process.c **** 			
 205:..\..\..\PSoC-4-BLE-master\100_Projects_in_100_Days\Day049_BLE_Mesh_Flood\Mesh_Flood\Mesh_Flood_PSoC4BLE.cydsn/ble_process.c **** 			/* After receiveing the temperature, set the switch role flag to allow the system
 206:..\..\..\PSoC-4-BLE-master\100_Projects_in_100_Days\Day049_BLE_Mesh_Flood\Mesh_Flood\Mesh_Flood_PSoC4BLE.cydsn/ble_process.c **** 			* to switch role to Central role */
 207:..\..\..\PSoC-4-BLE-master\100_Projects_in_100_Days\Day049_BLE_Mesh_Flood\Mesh_Flood\Mesh_Flood_PSoC4BLE.cydsn/ble_process.c **** 			switch_Role = TRUE;
 208:..\..\..\PSoC-4-BLE-master\100_Projects_in_100_Days\Day049_BLE_Mesh_Flood\Mesh_Flood\Mesh_Flood_PSoC4BLE.cydsn/ble_process.c ****             
 209:..\..\..\PSoC-4-BLE-master\100_Projects_in_100_Days\Day049_BLE_Mesh_Flood\Mesh_Flood\Mesh_Flood_PSoC4BLE.cydsn/ble_process.c ****             #ifdef TEMPERATURE_OUTPUT_ENABLED
 210:..\..\..\PSoC-4-BLE-master\100_Projects_in_100_Days\Day049_BLE_Mesh_Flood\Mesh_Flood\Mesh_Flood_PSoC4BLE.cydsn/ble_process.c ****             UART_UartPutString("*** Switch Role to CENTRAL");
 211:..\..\..\PSoC-4-BLE-master\100_Projects_in_100_Days\Day049_BLE_Mesh_Flood\Mesh_Flood\Mesh_Flood_PSoC4BLE.cydsn/ble_process.c **** 			UART_UartPutCRLF(' ');
 212:..\..\..\PSoC-4-BLE-master\100_Projects_in_100_Days\Day049_BLE_Mesh_Flood\Mesh_Flood\Mesh_Flood_PSoC4BLE.cydsn/ble_process.c ****             #endif
 213:..\..\..\PSoC-4-BLE-master\100_Projects_in_100_Days\Day049_BLE_Mesh_Flood\Mesh_Flood\Mesh_Flood_PSoC4BLE.cydsn/ble_process.c **** 			
 214:..\..\..\PSoC-4-BLE-master\100_Projects_in_100_Days\Day049_BLE_Mesh_Flood\Mesh_Flood\Mesh_Flood_PSoC4BLE.cydsn/ble_process.c **** 			#ifdef DEBUG_ENABLED
 215:..\..\..\PSoC-4-BLE-master\100_Projects_in_100_Days\Day049_BLE_Mesh_Flood\Mesh_Flood\Mesh_Flood_PSoC4BLE.cydsn/ble_process.c ****     			UART_UartPutString("Switch Role to Central");
 216:..\..\..\PSoC-4-BLE-master\100_Projects_in_100_Days\Day049_BLE_Mesh_Flood\Mesh_Flood\Mesh_Flood_PSoC4BLE.cydsn/ble_process.c ****     			UART_UartPutCRLF(' ');
 217:..\..\..\PSoC-4-BLE-master\100_Projects_in_100_Days\Day049_BLE_Mesh_Flood\Mesh_Flood\Mesh_Flood_PSoC4BLE.cydsn/ble_process.c **** 			#endif
 218:..\..\..\PSoC-4-BLE-master\100_Projects_in_100_Days\Day049_BLE_Mesh_Flood\Mesh_Flood\Mesh_Flood_PSoC4BLE.cydsn/ble_process.c **** 
 219:..\..\..\PSoC-4-BLE-master\100_Projects_in_100_Days\Day049_BLE_Mesh_Flood\Mesh_Flood\Mesh_Flood_PSoC4BLE.cydsn/ble_process.c **** 			/* As part of every write request, the server needs to send a write response. Note
 220:..\..\..\PSoC-4-BLE-master\100_Projects_in_100_Days\Day049_BLE_Mesh_Flood\Mesh_Flood\Mesh_Flood_PSoC4BLE.cydsn/ble_process.c **** 			* that this will be sent only if all the application layer conditions are met on a 
 221:..\..\..\PSoC-4-BLE-master\100_Projects_in_100_Days\Day049_BLE_Mesh_Flood\Mesh_Flood\Mesh_Flood_PSoC4BLE.cydsn/ble_process.c **** 			* write request. Else, an appropriate error code is sent. */
 222:..\..\..\PSoC-4-BLE-master\100_Projects_in_100_Days\Day049_BLE_Mesh_Flood\Mesh_Flood\Mesh_Flood_PSoC4BLE.cydsn/ble_process.c **** 	        CyBle_GattsWriteRsp(cyBle_connHandle);
 223:..\..\..\PSoC-4-BLE-master\100_Projects_in_100_Days\Day049_BLE_Mesh_Flood\Mesh_Flood\Mesh_Flood_PSoC4BLE.cydsn/ble_process.c **** 		break;
 224:..\..\..\PSoC-4-BLE-master\100_Projects_in_100_Days\Day049_BLE_Mesh_Flood\Mesh_Flood\Mesh_Flood_PSoC4BLE.cydsn/ble_process.c **** 			
 225:..\..\..\PSoC-4-BLE-master\100_Projects_in_100_Days\Day049_BLE_Mesh_Flood\Mesh_Flood\Mesh_Flood_PSoC4BLE.cydsn/ble_process.c **** 		case CYBLE_EVT_GATTS_WRITE_CMD_REQ:
 226:..\..\..\PSoC-4-BLE-master\100_Projects_in_100_Days\Day049_BLE_Mesh_Flood\Mesh_Flood\Mesh_Flood_PSoC4BLE.cydsn/ble_process.c **** 			/* This event is generated whenever a Client device sends a Write Command (Write 
 227:..\..\..\PSoC-4-BLE-master\100_Projects_in_100_Days\Day049_BLE_Mesh_Flood\Mesh_Flood\Mesh_Flood_PSoC4BLE.cydsn/ble_process.c **** 			* without response) to a connected Server. Save the associated event parameter in
 228:..\..\..\PSoC-4-BLE-master\100_Projects_in_100_Days\Day049_BLE_Mesh_Flood\Mesh_Flood\Mesh_Flood_PSoC4BLE.cydsn/ble_process.c **** 			* local variable. */
 229:..\..\..\PSoC-4-BLE-master\100_Projects_in_100_Days\Day049_BLE_Mesh_Flood\Mesh_Flood\Mesh_Flood_PSoC4BLE.cydsn/ble_process.c **** 			writeCmdData = *(CYBLE_GATTS_WRITE_CMD_REQ_PARAM_T*)eventParam;
 230:..\..\..\PSoC-4-BLE-master\100_Projects_in_100_Days\Day049_BLE_Mesh_Flood\Mesh_Flood\Mesh_Flood_PSoC4BLE.cydsn/ble_process.c **** 			
 231:..\..\..\PSoC-4-BLE-master\100_Projects_in_100_Days\Day049_BLE_Mesh_Flood\Mesh_Flood\Mesh_Flood_PSoC4BLE.cydsn/ble_process.c **** 			/* Check if the Write command is for ADV Data counter characteristic */
 232:..\..\..\PSoC-4-BLE-master\100_Projects_in_100_Days\Day049_BLE_Mesh_Flood\Mesh_Flood\Mesh_Flood_PSoC4BLE.cydsn/ble_process.c **** 			if(writeCmdData.handleValPair.attrHandle == CYBLE_CUSTOM_SERVICE_CUSTOM_CHARACTERISTIC_CHAR_HAND
 233:..\..\..\PSoC-4-BLE-master\100_Projects_in_100_Days\Day049_BLE_Mesh_Flood\Mesh_Flood\Mesh_Flood_PSoC4BLE.cydsn/ble_process.c **** 			{
 234:..\..\..\PSoC-4-BLE-master\100_Projects_in_100_Days\Day049_BLE_Mesh_Flood\Mesh_Flood\Mesh_Flood_PSoC4BLE.cydsn/ble_process.c **** 				/* If the data sent is of one byte, then proceed. */
 235:..\..\..\PSoC-4-BLE-master\100_Projects_in_100_Days\Day049_BLE_Mesh_Flood\Mesh_Flood\Mesh_Flood_PSoC4BLE.cydsn/ble_process.c **** 				if(writeCmdData.handleValPair.value.len == 1)
 236:..\..\..\PSoC-4-BLE-master\100_Projects_in_100_Days\Day049_BLE_Mesh_Flood\Mesh_Flood\Mesh_Flood_PSoC4BLE.cydsn/ble_process.c **** 				{
 237:..\..\..\PSoC-4-BLE-master\100_Projects_in_100_Days\Day049_BLE_Mesh_Flood\Mesh_Flood\Mesh_Flood_PSoC4BLE.cydsn/ble_process.c **** 					/* Extract and save the set ADV data counter value */
 238:..\..\..\PSoC-4-BLE-master\100_Projects_in_100_Days\Day049_BLE_Mesh_Flood\Mesh_Flood\Mesh_Flood_PSoC4BLE.cydsn/ble_process.c **** 					dataADVCounter = *(writeCmdData.handleValPair.value.val);	
 239:..\..\..\PSoC-4-BLE-master\100_Projects_in_100_Days\Day049_BLE_Mesh_Flood\Mesh_Flood\Mesh_Flood_PSoC4BLE.cydsn/ble_process.c **** 					
 240:..\..\..\PSoC-4-BLE-master\100_Projects_in_100_Days\Day049_BLE_Mesh_Flood\Mesh_Flood\Mesh_Flood_PSoC4BLE.cydsn/ble_process.c **** 					/* This increment is done to balance the ++ done as part of CYBLE_EVT_GATTS_WRITE_REQ */
 241:..\..\..\PSoC-4-BLE-master\100_Projects_in_100_Days\Day049_BLE_Mesh_Flood\Mesh_Flood\Mesh_Flood_PSoC4BLE.cydsn/ble_process.c **** 					dataADVCounter--;
ARM GAS  C:\Users\User\AppData\Local\Temp\cc96DgHN.s 			page 9


 242:..\..\..\PSoC-4-BLE-master\100_Projects_in_100_Days\Day049_BLE_Mesh_Flood\Mesh_Flood\Mesh_Flood_PSoC4BLE.cydsn/ble_process.c **** 					
 243:..\..\..\PSoC-4-BLE-master\100_Projects_in_100_Days\Day049_BLE_Mesh_Flood\Mesh_Flood\Mesh_Flood_PSoC4BLE.cydsn/ble_process.c **** 					/* Update the ADV data counter characteristic in GATT DB  to allow
 244:..\..\..\PSoC-4-BLE-master\100_Projects_in_100_Days\Day049_BLE_Mesh_Flood\Mesh_Flood\Mesh_Flood_PSoC4BLE.cydsn/ble_process.c **** 					* Client to read the latest ADV data counter value */
 245:..\..\..\PSoC-4-BLE-master\100_Projects_in_100_Days\Day049_BLE_Mesh_Flood\Mesh_Flood\Mesh_Flood_PSoC4BLE.cydsn/ble_process.c **** 					CyBle_GattsWriteAttributeValue(&writeCmdData.handleValPair,
 246:..\..\..\PSoC-4-BLE-master\100_Projects_in_100_Days\Day049_BLE_Mesh_Flood\Mesh_Flood\Mesh_Flood_PSoC4BLE.cydsn/ble_process.c **** 													0,
 247:..\..\..\PSoC-4-BLE-master\100_Projects_in_100_Days\Day049_BLE_Mesh_Flood\Mesh_Flood\Mesh_Flood_PSoC4BLE.cydsn/ble_process.c **** 													&cyBle_connHandle,
 248:..\..\..\PSoC-4-BLE-master\100_Projects_in_100_Days\Day049_BLE_Mesh_Flood\Mesh_Flood\Mesh_Flood_PSoC4BLE.cydsn/ble_process.c **** 													CYBLE_GATT_DB_LOCALLY_INITIATED);
 249:..\..\..\PSoC-4-BLE-master\100_Projects_in_100_Days\Day049_BLE_Mesh_Flood\Mesh_Flood\Mesh_Flood_PSoC4BLE.cydsn/ble_process.c **** 
 250:..\..\..\PSoC-4-BLE-master\100_Projects_in_100_Days\Day049_BLE_Mesh_Flood\Mesh_Flood\Mesh_Flood_PSoC4BLE.cydsn/ble_process.c **** 					#ifdef DEBUG_ENABLED
 251:..\..\..\PSoC-4-BLE-master\100_Projects_in_100_Days\Day049_BLE_Mesh_Flood\Mesh_Flood\Mesh_Flood_PSoC4BLE.cydsn/ble_process.c **** 					UART_UartPutString("dataADVCounter from CYBLE_EVT_GATTS_WRITE_CMD_REQ = ");
 252:..\..\..\PSoC-4-BLE-master\100_Projects_in_100_Days\Day049_BLE_Mesh_Flood\Mesh_Flood\Mesh_Flood_PSoC4BLE.cydsn/ble_process.c **** 					PrintNum(dataADVCounter);
 253:..\..\..\PSoC-4-BLE-master\100_Projects_in_100_Days\Day049_BLE_Mesh_Flood\Mesh_Flood\Mesh_Flood_PSoC4BLE.cydsn/ble_process.c **** 					UART_UartPutCRLF(' ');
 254:..\..\..\PSoC-4-BLE-master\100_Projects_in_100_Days\Day049_BLE_Mesh_Flood\Mesh_Flood\Mesh_Flood_PSoC4BLE.cydsn/ble_process.c **** 					#endif
 255:..\..\..\PSoC-4-BLE-master\100_Projects_in_100_Days\Day049_BLE_Mesh_Flood\Mesh_Flood\Mesh_Flood_PSoC4BLE.cydsn/ble_process.c **** 				}	/* if(writeCmdData.handleValPair.value.len == 1) */
 256:..\..\..\PSoC-4-BLE-master\100_Projects_in_100_Days\Day049_BLE_Mesh_Flood\Mesh_Flood\Mesh_Flood_PSoC4BLE.cydsn/ble_process.c **** 			}
 257:..\..\..\PSoC-4-BLE-master\100_Projects_in_100_Days\Day049_BLE_Mesh_Flood\Mesh_Flood\Mesh_Flood_PSoC4BLE.cydsn/ble_process.c **** 			break;
 258:..\..\..\PSoC-4-BLE-master\100_Projects_in_100_Days\Day049_BLE_Mesh_Flood\Mesh_Flood\Mesh_Flood_PSoC4BLE.cydsn/ble_process.c **** 		
 259:..\..\..\PSoC-4-BLE-master\100_Projects_in_100_Days\Day049_BLE_Mesh_Flood\Mesh_Flood\Mesh_Flood_PSoC4BLE.cydsn/ble_process.c **** 		case CYBLE_EVT_GAPC_SCAN_PROGRESS_RESULT:
 260:..\..\..\PSoC-4-BLE-master\100_Projects_in_100_Days\Day049_BLE_Mesh_Flood\Mesh_Flood\Mesh_Flood_PSoC4BLE.cydsn/ble_process.c **** 			/* This event is generated whenever there is a peripheral device found by 
 261:..\..\..\PSoC-4-BLE-master\100_Projects_in_100_Days\Day049_BLE_Mesh_Flood\Mesh_Flood\Mesh_Flood_PSoC4BLE.cydsn/ble_process.c **** 			* while scanning */
 262:..\..\..\PSoC-4-BLE-master\100_Projects_in_100_Days\Day049_BLE_Mesh_Flood\Mesh_Flood\Mesh_Flood_PSoC4BLE.cydsn/ble_process.c **** 			if(CYBLE_STATE_CONNECTED != CyBle_GetState())	
 263:..\..\..\PSoC-4-BLE-master\100_Projects_in_100_Days\Day049_BLE_Mesh_Flood\Mesh_Flood\Mesh_Flood_PSoC4BLE.cydsn/ble_process.c **** 			{
 264:..\..\..\PSoC-4-BLE-master\100_Projects_in_100_Days\Day049_BLE_Mesh_Flood\Mesh_Flood\Mesh_Flood_PSoC4BLE.cydsn/ble_process.c **** 				/* If we are not connected to any peripheral device, then save the new device  
 265:..\..\..\PSoC-4-BLE-master\100_Projects_in_100_Days\Day049_BLE_Mesh_Flood\Mesh_Flood\Mesh_Flood_PSoC4BLE.cydsn/ble_process.c **** 				* information so to add it to our list */
 266:..\..\..\PSoC-4-BLE-master\100_Projects_in_100_Days\Day049_BLE_Mesh_Flood\Mesh_Flood\Mesh_Flood_PSoC4BLE.cydsn/ble_process.c **** 				scan_report = *(CYBLE_GAPC_ADV_REPORT_T*)eventParam;
 267:..\..\..\PSoC-4-BLE-master\100_Projects_in_100_Days\Day049_BLE_Mesh_Flood\Mesh_Flood\Mesh_Flood_PSoC4BLE.cydsn/ble_process.c ****                 
 268:..\..\..\PSoC-4-BLE-master\100_Projects_in_100_Days\Day049_BLE_Mesh_Flood\Mesh_Flood\Mesh_Flood_PSoC4BLE.cydsn/ble_process.c ****                 #ifdef TEMPERATURE_OUTPUT_ENABLED
 269:..\..\..\PSoC-4-BLE-master\100_Projects_in_100_Days\Day049_BLE_Mesh_Flood\Mesh_Flood\Mesh_Flood_PSoC4BLE.cydsn/ble_process.c ****                 UART_UartPutString("*** Progress result of SCAN");
 270:..\..\..\PSoC-4-BLE-master\100_Projects_in_100_Days\Day049_BLE_Mesh_Flood\Mesh_Flood\Mesh_Flood_PSoC4BLE.cydsn/ble_process.c ****     			UART_UartPutCRLF(' ');
 271:..\..\..\PSoC-4-BLE-master\100_Projects_in_100_Days\Day049_BLE_Mesh_Flood\Mesh_Flood\Mesh_Flood_PSoC4BLE.cydsn/ble_process.c ****                 #endif
 272:..\..\..\PSoC-4-BLE-master\100_Projects_in_100_Days\Day049_BLE_Mesh_Flood\Mesh_Flood\Mesh_Flood_PSoC4BLE.cydsn/ble_process.c **** 				
 273:..\..\..\PSoC-4-BLE-master\100_Projects_in_100_Days\Day049_BLE_Mesh_Flood\Mesh_Flood\Mesh_Flood_PSoC4BLE.cydsn/ble_process.c ****                 
 274:..\..\..\PSoC-4-BLE-master\100_Projects_in_100_Days\Day049_BLE_Mesh_Flood\Mesh_Flood\Mesh_Flood_PSoC4BLE.cydsn/ble_process.c **** 				#ifdef DEBUG_ENABLED
 275:..\..\..\PSoC-4-BLE-master\100_Projects_in_100_Days\Day049_BLE_Mesh_Flood\Mesh_Flood\Mesh_Flood_PSoC4BLE.cydsn/ble_process.c **** 					UART_UartPutString("CYBLE_EVT_GAPC_SCAN_PROGRESS_RESULT ");
 276:..\..\..\PSoC-4-BLE-master\100_Projects_in_100_Days\Day049_BLE_Mesh_Flood\Mesh_Flood\Mesh_Flood_PSoC4BLE.cydsn/ble_process.c **** 					UART_UartPutCRLF(' ');
 277:..\..\..\PSoC-4-BLE-master\100_Projects_in_100_Days\Day049_BLE_Mesh_Flood\Mesh_Flood\Mesh_Flood_PSoC4BLE.cydsn/ble_process.c **** 				#endif
 278:..\..\..\PSoC-4-BLE-master\100_Projects_in_100_Days\Day049_BLE_Mesh_Flood\Mesh_Flood\Mesh_Flood_PSoC4BLE.cydsn/ble_process.c **** 				{
 279:..\..\..\PSoC-4-BLE-master\100_Projects_in_100_Days\Day049_BLE_Mesh_Flood\Mesh_Flood\Mesh_Flood_PSoC4BLE.cydsn/ble_process.c **** 				#ifdef ENABLE_ADV_DATA_COUNTER
 280:..\..\..\PSoC-4-BLE-master\100_Projects_in_100_Days\Day049_BLE_Mesh_Flood\Mesh_Flood\Mesh_Flood_PSoC4BLE.cydsn/ble_process.c **** 				/* If ADV DATA COUNTER is enabled, then the central device would check
 281:..\..\..\PSoC-4-BLE-master\100_Projects_in_100_Days\Day049_BLE_Mesh_Flood\Mesh_Flood\Mesh_Flood_PSoC4BLE.cydsn/ble_process.c **** 				* if the counter in ADV packet of peripheral is less than its own counter
 282:..\..\..\PSoC-4-BLE-master\100_Projects_in_100_Days\Day049_BLE_Mesh_Flood\Mesh_Flood\Mesh_Flood_PSoC4BLE.cydsn/ble_process.c **** 				* or not. If yes, then it will consider the peripheral as a potential 
 283:..\..\..\PSoC-4-BLE-master\100_Projects_in_100_Days\Day049_BLE_Mesh_Flood\Mesh_Flood\Mesh_Flood_PSoC4BLE.cydsn/ble_process.c **** 				* device to connect to.*/
 284:..\..\..\PSoC-4-BLE-master\100_Projects_in_100_Days\Day049_BLE_Mesh_Flood\Mesh_Flood\Mesh_Flood_PSoC4BLE.cydsn/ble_process.c **** 				if(scan_report.eventType == CYBLE_GAPC_CONN_UNDIRECTED_ADV)
 285:..\..\..\PSoC-4-BLE-master\100_Projects_in_100_Days\Day049_BLE_Mesh_Flood\Mesh_Flood\Mesh_Flood_PSoC4BLE.cydsn/ble_process.c **** 				{
 286:..\..\..\PSoC-4-BLE-master\100_Projects_in_100_Days\Day049_BLE_Mesh_Flood\Mesh_Flood\Mesh_Flood_PSoC4BLE.cydsn/ble_process.c **** 					/* If the scan report received is of advertising nature and the data 
 287:..\..\..\PSoC-4-BLE-master\100_Projects_in_100_Days\Day049_BLE_Mesh_Flood\Mesh_Flood\Mesh_Flood_PSoC4BLE.cydsn/ble_process.c **** 					* length is as expected... */
 288:..\..\..\PSoC-4-BLE-master\100_Projects_in_100_Days\Day049_BLE_Mesh_Flood\Mesh_Flood\Mesh_Flood_PSoC4BLE.cydsn/ble_process.c **** 					if(scan_report.dataLen == new_advData.advDataLen)
 289:..\..\..\PSoC-4-BLE-master\100_Projects_in_100_Days\Day049_BLE_Mesh_Flood\Mesh_Flood\Mesh_Flood_PSoC4BLE.cydsn/ble_process.c **** 					{
 290:..\..\..\PSoC-4-BLE-master\100_Projects_in_100_Days\Day049_BLE_Mesh_Flood\Mesh_Flood\Mesh_Flood_PSoC4BLE.cydsn/ble_process.c **** 						/* If the second last value of the advertising data matches the custom 
 291:..\..\..\PSoC-4-BLE-master\100_Projects_in_100_Days\Day049_BLE_Mesh_Flood\Mesh_Flood\Mesh_Flood_PSoC4BLE.cydsn/ble_process.c **** 						* marker, then the peripheral is a node of the network */
 292:..\..\..\PSoC-4-BLE-master\100_Projects_in_100_Days\Day049_BLE_Mesh_Flood\Mesh_Flood\Mesh_Flood_PSoC4BLE.cydsn/ble_process.c **** 						if(scan_report.data[scan_report.dataLen-2] == CUSTOM_ADV_DATA_MARKER)
 293:..\..\..\PSoC-4-BLE-master\100_Projects_in_100_Days\Day049_BLE_Mesh_Flood\Mesh_Flood\Mesh_Flood_PSoC4BLE.cydsn/ble_process.c **** 						{
 294:..\..\..\PSoC-4-BLE-master\100_Projects_in_100_Days\Day049_BLE_Mesh_Flood\Mesh_Flood\Mesh_Flood_PSoC4BLE.cydsn/ble_process.c **** 							/* If the ADV counter data in Advertising data is less than that of
 295:..\..\..\PSoC-4-BLE-master\100_Projects_in_100_Days\Day049_BLE_Mesh_Flood\Mesh_Flood\Mesh_Flood_PSoC4BLE.cydsn/ble_process.c **** 							* the value in this scanning device, then the node is a potential node 
 296:..\..\..\PSoC-4-BLE-master\100_Projects_in_100_Days\Day049_BLE_Mesh_Flood\Mesh_Flood\Mesh_Flood_PSoC4BLE.cydsn/ble_process.c **** 							* whose color has to be updated. */
 297:..\..\..\PSoC-4-BLE-master\100_Projects_in_100_Days\Day049_BLE_Mesh_Flood\Mesh_Flood\Mesh_Flood_PSoC4BLE.cydsn/ble_process.c **** 							if((scan_report.data[scan_report.dataLen-1] < dataADVCounter) ||
 298:..\..\..\PSoC-4-BLE-master\100_Projects_in_100_Days\Day049_BLE_Mesh_Flood\Mesh_Flood\Mesh_Flood_PSoC4BLE.cydsn/ble_process.c **** 							((scan_report.data[scan_report.dataLen-1] == 255) && (dataADVCounter == 0)))
ARM GAS  C:\Users\User\AppData\Local\Temp\cc96DgHN.s 			page 10


 299:..\..\..\PSoC-4-BLE-master\100_Projects_in_100_Days\Day049_BLE_Mesh_Flood\Mesh_Flood\Mesh_Flood_PSoC4BLE.cydsn/ble_process.c **** 							{
 300:..\..\..\PSoC-4-BLE-master\100_Projects_in_100_Days\Day049_BLE_Mesh_Flood\Mesh_Flood\Mesh_Flood_PSoC4BLE.cydsn/ble_process.c **** 								/* Potential node found*/
 301:..\..\..\PSoC-4-BLE-master\100_Projects_in_100_Days\Day049_BLE_Mesh_Flood\Mesh_Flood\Mesh_Flood_PSoC4BLE.cydsn/ble_process.c **** 								potential_node_found = TRUE;
 302:..\..\..\PSoC-4-BLE-master\100_Projects_in_100_Days\Day049_BLE_Mesh_Flood\Mesh_Flood\Mesh_Flood_PSoC4BLE.cydsn/ble_process.c **** 								/* Save the advertising peripheral address and type*/
 303:..\..\..\PSoC-4-BLE-master\100_Projects_in_100_Days\Day049_BLE_Mesh_Flood\Mesh_Flood\Mesh_Flood_PSoC4BLE.cydsn/ble_process.c **** 								memcpy(potential_node_bdAddr, scan_report.peerBdAddr, 6);
 304:..\..\..\PSoC-4-BLE-master\100_Projects_in_100_Days\Day049_BLE_Mesh_Flood\Mesh_Flood\Mesh_Flood_PSoC4BLE.cydsn/ble_process.c **** 								potential_node_bdAddrType = scan_report.peerAddrType;
 305:..\..\..\PSoC-4-BLE-master\100_Projects_in_100_Days\Day049_BLE_Mesh_Flood\Mesh_Flood\Mesh_Flood_PSoC4BLE.cydsn/ble_process.c **** 								
 306:..\..\..\PSoC-4-BLE-master\100_Projects_in_100_Days\Day049_BLE_Mesh_Flood\Mesh_Flood\Mesh_Flood_PSoC4BLE.cydsn/ble_process.c **** 								#ifdef DEBUG_ENABLED
 307:..\..\..\PSoC-4-BLE-master\100_Projects_in_100_Days\Day049_BLE_Mesh_Flood\Mesh_Flood\Mesh_Flood_PSoC4BLE.cydsn/ble_process.c **** 								UART_UartPutString("potential_node_found ");
 308:..\..\..\PSoC-4-BLE-master\100_Projects_in_100_Days\Day049_BLE_Mesh_Flood\Mesh_Flood\Mesh_Flood_PSoC4BLE.cydsn/ble_process.c **** 								UART_UartPutCRLF(' ');
 309:..\..\..\PSoC-4-BLE-master\100_Projects_in_100_Days\Day049_BLE_Mesh_Flood\Mesh_Flood\Mesh_Flood_PSoC4BLE.cydsn/ble_process.c **** 								#endif
 310:..\..\..\PSoC-4-BLE-master\100_Projects_in_100_Days\Day049_BLE_Mesh_Flood\Mesh_Flood\Mesh_Flood_PSoC4BLE.cydsn/ble_process.c **** 							}
 311:..\..\..\PSoC-4-BLE-master\100_Projects_in_100_Days\Day049_BLE_Mesh_Flood\Mesh_Flood\Mesh_Flood_PSoC4BLE.cydsn/ble_process.c **** 							else
 312:..\..\..\PSoC-4-BLE-master\100_Projects_in_100_Days\Day049_BLE_Mesh_Flood\Mesh_Flood\Mesh_Flood_PSoC4BLE.cydsn/ble_process.c **** 							{
 313:..\..\..\PSoC-4-BLE-master\100_Projects_in_100_Days\Day049_BLE_Mesh_Flood\Mesh_Flood\Mesh_Flood_PSoC4BLE.cydsn/ble_process.c **** 								/* If the ADV data counter is equal or more than the data counter
 314:..\..\..\PSoC-4-BLE-master\100_Projects_in_100_Days\Day049_BLE_Mesh_Flood\Mesh_Flood\Mesh_Flood_PSoC4BLE.cydsn/ble_process.c **** 								* in this scanning device, then the node has latest RGB LED data
 315:..\..\..\PSoC-4-BLE-master\100_Projects_in_100_Days\Day049_BLE_Mesh_Flood\Mesh_Flood\Mesh_Flood_PSoC4BLE.cydsn/ble_process.c **** 								* and does not need to be connected to. Reset the potential node 
 316:..\..\..\PSoC-4-BLE-master\100_Projects_in_100_Days\Day049_BLE_Mesh_Flood\Mesh_Flood\Mesh_Flood_PSoC4BLE.cydsn/ble_process.c **** 								* address */
 317:..\..\..\PSoC-4-BLE-master\100_Projects_in_100_Days\Day049_BLE_Mesh_Flood\Mesh_Flood\Mesh_Flood_PSoC4BLE.cydsn/ble_process.c **** 								potential_node_found = FALSE;
 318:..\..\..\PSoC-4-BLE-master\100_Projects_in_100_Days\Day049_BLE_Mesh_Flood\Mesh_Flood\Mesh_Flood_PSoC4BLE.cydsn/ble_process.c **** 								
 319:..\..\..\PSoC-4-BLE-master\100_Projects_in_100_Days\Day049_BLE_Mesh_Flood\Mesh_Flood\Mesh_Flood_PSoC4BLE.cydsn/ble_process.c **** 								potential_node_bdAddrType = 0;
 320:..\..\..\PSoC-4-BLE-master\100_Projects_in_100_Days\Day049_BLE_Mesh_Flood\Mesh_Flood\Mesh_Flood_PSoC4BLE.cydsn/ble_process.c **** 								
 321:..\..\..\PSoC-4-BLE-master\100_Projects_in_100_Days\Day049_BLE_Mesh_Flood\Mesh_Flood\Mesh_Flood_PSoC4BLE.cydsn/ble_process.c **** 								potential_node_bdAddr[0] = 0x00;
 322:..\..\..\PSoC-4-BLE-master\100_Projects_in_100_Days\Day049_BLE_Mesh_Flood\Mesh_Flood\Mesh_Flood_PSoC4BLE.cydsn/ble_process.c **** 								potential_node_bdAddr[1] = 0x00;
 323:..\..\..\PSoC-4-BLE-master\100_Projects_in_100_Days\Day049_BLE_Mesh_Flood\Mesh_Flood\Mesh_Flood_PSoC4BLE.cydsn/ble_process.c **** 								potential_node_bdAddr[2] = 0x00;
 324:..\..\..\PSoC-4-BLE-master\100_Projects_in_100_Days\Day049_BLE_Mesh_Flood\Mesh_Flood\Mesh_Flood_PSoC4BLE.cydsn/ble_process.c **** 								potential_node_bdAddr[3] = 0x00;
 325:..\..\..\PSoC-4-BLE-master\100_Projects_in_100_Days\Day049_BLE_Mesh_Flood\Mesh_Flood\Mesh_Flood_PSoC4BLE.cydsn/ble_process.c **** 								potential_node_bdAddr[4] = 0x00;
 326:..\..\..\PSoC-4-BLE-master\100_Projects_in_100_Days\Day049_BLE_Mesh_Flood\Mesh_Flood\Mesh_Flood_PSoC4BLE.cydsn/ble_process.c **** 								potential_node_bdAddr[5] = 0x00;
 327:..\..\..\PSoC-4-BLE-master\100_Projects_in_100_Days\Day049_BLE_Mesh_Flood\Mesh_Flood\Mesh_Flood_PSoC4BLE.cydsn/ble_process.c **** 							}
 328:..\..\..\PSoC-4-BLE-master\100_Projects_in_100_Days\Day049_BLE_Mesh_Flood\Mesh_Flood\Mesh_Flood_PSoC4BLE.cydsn/ble_process.c **** 						}
 329:..\..\..\PSoC-4-BLE-master\100_Projects_in_100_Days\Day049_BLE_Mesh_Flood\Mesh_Flood\Mesh_Flood_PSoC4BLE.cydsn/ble_process.c **** 					}
 330:..\..\..\PSoC-4-BLE-master\100_Projects_in_100_Days\Day049_BLE_Mesh_Flood\Mesh_Flood\Mesh_Flood_PSoC4BLE.cydsn/ble_process.c **** 				}
 331:..\..\..\PSoC-4-BLE-master\100_Projects_in_100_Days\Day049_BLE_Mesh_Flood\Mesh_Flood\Mesh_Flood_PSoC4BLE.cydsn/ble_process.c **** 				#endif
 332:..\..\..\PSoC-4-BLE-master\100_Projects_in_100_Days\Day049_BLE_Mesh_Flood\Mesh_Flood\Mesh_Flood_PSoC4BLE.cydsn/ble_process.c ****                 }
 333:..\..\..\PSoC-4-BLE-master\100_Projects_in_100_Days\Day049_BLE_Mesh_Flood\Mesh_Flood\Mesh_Flood_PSoC4BLE.cydsn/ble_process.c **** 				
 334:..\..\..\PSoC-4-BLE-master\100_Projects_in_100_Days\Day049_BLE_Mesh_Flood\Mesh_Flood\Mesh_Flood_PSoC4BLE.cydsn/ble_process.c ****                 scan_report.eventType = CYBLE_GAPC_SCAN_RSP;
 335:..\..\..\PSoC-4-BLE-master\100_Projects_in_100_Days\Day049_BLE_Mesh_Flood\Mesh_Flood\Mesh_Flood_PSoC4BLE.cydsn/ble_process.c **** 				/* If the received scan data is part of scan response from a peripheral... */
 336:..\..\..\PSoC-4-BLE-master\100_Projects_in_100_Days\Day049_BLE_Mesh_Flood\Mesh_Flood\Mesh_Flood_PSoC4BLE.cydsn/ble_process.c **** 				if(scan_report.eventType == CYBLE_GAPC_SCAN_RSP)
 337:..\..\..\PSoC-4-BLE-master\100_Projects_in_100_Days\Day049_BLE_Mesh_Flood\Mesh_Flood\Mesh_Flood_PSoC4BLE.cydsn/ble_process.c **** 				{
 338:..\..\..\PSoC-4-BLE-master\100_Projects_in_100_Days\Day049_BLE_Mesh_Flood\Mesh_Flood\Mesh_Flood_PSoC4BLE.cydsn/ble_process.c **** 					/* If the data lenght of the scan reponse packet is equal to expected
 339:..\..\..\PSoC-4-BLE-master\100_Projects_in_100_Days\Day049_BLE_Mesh_Flood\Mesh_Flood\Mesh_Flood_PSoC4BLE.cydsn/ble_process.c **** 					* scan response data lenght...*/
 340:..\..\..\PSoC-4-BLE-master\100_Projects_in_100_Days\Day049_BLE_Mesh_Flood\Mesh_Flood\Mesh_Flood_PSoC4BLE.cydsn/ble_process.c **** 					//if(scan_report.dataLen == SCAN_TAG_DATA_LEN) {
 341:..\..\..\PSoC-4-BLE-master\100_Projects_in_100_Days\Day049_BLE_Mesh_Flood\Mesh_Flood\Mesh_Flood_PSoC4BLE.cydsn/ble_process.c **** 						/* If the scan report data matches the expected data (scan_tag),
 342:..\..\..\PSoC-4-BLE-master\100_Projects_in_100_Days\Day049_BLE_Mesh_Flood\Mesh_Flood\Mesh_Flood_PSoC4BLE.cydsn/ble_process.c **** 						* then it is our desired node */
 343:..\..\..\PSoC-4-BLE-master\100_Projects_in_100_Days\Day049_BLE_Mesh_Flood\Mesh_Flood\Mesh_Flood_PSoC4BLE.cydsn/ble_process.c **** 						//if(!memcmp(scan_report.data, scan_tag, scan_report.dataLen))
 344:..\..\..\PSoC-4-BLE-master\100_Projects_in_100_Days\Day049_BLE_Mesh_Flood\Mesh_Flood\Mesh_Flood_PSoC4BLE.cydsn/ble_process.c **** 						{
 345:..\..\..\PSoC-4-BLE-master\100_Projects_in_100_Days\Day049_BLE_Mesh_Flood\Mesh_Flood\Mesh_Flood_PSoC4BLE.cydsn/ble_process.c ****                             #ifdef TEMPERATURE_OUTPUT_ENABLED
 346:..\..\..\PSoC-4-BLE-master\100_Projects_in_100_Days\Day049_BLE_Mesh_Flood\Mesh_Flood\Mesh_Flood_PSoC4BLE.cydsn/ble_process.c ****                             UART_UartPutString("*** Device is FOUND. Stop SCANNING");
 347:..\..\..\PSoC-4-BLE-master\100_Projects_in_100_Days\Day049_BLE_Mesh_Flood\Mesh_Flood\Mesh_Flood_PSoC4BLE.cydsn/ble_process.c ****                 			UART_UartPutCRLF(' ');
 348:..\..\..\PSoC-4-BLE-master\100_Projects_in_100_Days\Day049_BLE_Mesh_Flood\Mesh_Flood\Mesh_Flood_PSoC4BLE.cydsn/ble_process.c ****                             #endif
 349:..\..\..\PSoC-4-BLE-master\100_Projects_in_100_Days\Day049_BLE_Mesh_Flood\Mesh_Flood\Mesh_Flood_PSoC4BLE.cydsn/ble_process.c ****                             
 350:..\..\..\PSoC-4-BLE-master\100_Projects_in_100_Days\Day049_BLE_Mesh_Flood\Mesh_Flood\Mesh_Flood_PSoC4BLE.cydsn/ble_process.c **** 							#ifdef DEBUG_ENABLED
 351:..\..\..\PSoC-4-BLE-master\100_Projects_in_100_Days\Day049_BLE_Mesh_Flood\Mesh_Flood\Mesh_Flood_PSoC4BLE.cydsn/ble_process.c **** 							UART_UartPutString("Titan Found ");
 352:..\..\..\PSoC-4-BLE-master\100_Projects_in_100_Days\Day049_BLE_Mesh_Flood\Mesh_Flood\Mesh_Flood_PSoC4BLE.cydsn/ble_process.c **** 							UART_UartPutCRLF(' ');
 353:..\..\..\PSoC-4-BLE-master\100_Projects_in_100_Days\Day049_BLE_Mesh_Flood\Mesh_Flood\Mesh_Flood_PSoC4BLE.cydsn/ble_process.c **** 							#endif
 354:..\..\..\PSoC-4-BLE-master\100_Projects_in_100_Days\Day049_BLE_Mesh_Flood\Mesh_Flood\Mesh_Flood_PSoC4BLE.cydsn/ble_process.c **** 							/* Stop existing scan */
 355:..\..\..\PSoC-4-BLE-master\100_Projects_in_100_Days\Day049_BLE_Mesh_Flood\Mesh_Flood\Mesh_Flood_PSoC4BLE.cydsn/ble_process.c **** 							CyBle_GapcStopScan();
ARM GAS  C:\Users\User\AppData\Local\Temp\cc96DgHN.s 			page 11


 356:..\..\..\PSoC-4-BLE-master\100_Projects_in_100_Days\Day049_BLE_Mesh_Flood\Mesh_Flood\Mesh_Flood_PSoC4BLE.cydsn/ble_process.c **** 							#ifdef DEBUG_ENABLED
 357:..\..\..\PSoC-4-BLE-master\100_Projects_in_100_Days\Day049_BLE_Mesh_Flood\Mesh_Flood\Mesh_Flood_PSoC4BLE.cydsn/ble_process.c **** 							UART_UartPutString("Stop Scan called ");
 358:..\..\..\PSoC-4-BLE-master\100_Projects_in_100_Days\Day049_BLE_Mesh_Flood\Mesh_Flood\Mesh_Flood_PSoC4BLE.cydsn/ble_process.c **** 							UART_UartPutCRLF(' ');
 359:..\..\..\PSoC-4-BLE-master\100_Projects_in_100_Days\Day049_BLE_Mesh_Flood\Mesh_Flood\Mesh_Flood_PSoC4BLE.cydsn/ble_process.c **** 							#endif
 360:..\..\..\PSoC-4-BLE-master\100_Projects_in_100_Days\Day049_BLE_Mesh_Flood\Mesh_Flood\Mesh_Flood_PSoC4BLE.cydsn/ble_process.c **** 							
 361:..\..\..\PSoC-4-BLE-master\100_Projects_in_100_Days\Day049_BLE_Mesh_Flood\Mesh_Flood\Mesh_Flood_PSoC4BLE.cydsn/ble_process.c **** 							/* Save the peripheral BD address and type*/
 362:..\..\..\PSoC-4-BLE-master\100_Projects_in_100_Days\Day049_BLE_Mesh_Flood\Mesh_Flood\Mesh_Flood_PSoC4BLE.cydsn/ble_process.c **** 							peripAddr.type = scan_report.peerAddrType;
 363:..\..\..\PSoC-4-BLE-master\100_Projects_in_100_Days\Day049_BLE_Mesh_Flood\Mesh_Flood\Mesh_Flood_PSoC4BLE.cydsn/ble_process.c **** 							peripAddr.bdAddr[0] = scan_report.peerBdAddr[0];
 364:..\..\..\PSoC-4-BLE-master\100_Projects_in_100_Days\Day049_BLE_Mesh_Flood\Mesh_Flood\Mesh_Flood_PSoC4BLE.cydsn/ble_process.c **** 							peripAddr.bdAddr[1] = scan_report.peerBdAddr[1];
 365:..\..\..\PSoC-4-BLE-master\100_Projects_in_100_Days\Day049_BLE_Mesh_Flood\Mesh_Flood\Mesh_Flood_PSoC4BLE.cydsn/ble_process.c **** 							peripAddr.bdAddr[2] = scan_report.peerBdAddr[2];
 366:..\..\..\PSoC-4-BLE-master\100_Projects_in_100_Days\Day049_BLE_Mesh_Flood\Mesh_Flood\Mesh_Flood_PSoC4BLE.cydsn/ble_process.c ****                             peripAddr.bdAddr[3] = scan_report.peerBdAddr[3];
 367:..\..\..\PSoC-4-BLE-master\100_Projects_in_100_Days\Day049_BLE_Mesh_Flood\Mesh_Flood\Mesh_Flood_PSoC4BLE.cydsn/ble_process.c **** 							peripAddr.bdAddr[4] = scan_report.peerBdAddr[4];
 368:..\..\..\PSoC-4-BLE-master\100_Projects_in_100_Days\Day049_BLE_Mesh_Flood\Mesh_Flood\Mesh_Flood_PSoC4BLE.cydsn/ble_process.c **** 							peripAddr.bdAddr[5] = scan_report.peerBdAddr[5];
 369:..\..\..\PSoC-4-BLE-master\100_Projects_in_100_Days\Day049_BLE_Mesh_Flood\Mesh_Flood\Mesh_Flood_PSoC4BLE.cydsn/ble_process.c **** 
 370:..\..\..\PSoC-4-BLE-master\100_Projects_in_100_Days\Day049_BLE_Mesh_Flood\Mesh_Flood\Mesh_Flood_PSoC4BLE.cydsn/ble_process.c **** 							/* Set the flag to allow application to connect to the
 371:..\..\..\PSoC-4-BLE-master\100_Projects_in_100_Days\Day049_BLE_Mesh_Flood\Mesh_Flood\Mesh_Flood_PSoC4BLE.cydsn/ble_process.c **** 							* peripheral found */
 372:..\..\..\PSoC-4-BLE-master\100_Projects_in_100_Days\Day049_BLE_Mesh_Flood\Mesh_Flood\Mesh_Flood_PSoC4BLE.cydsn/ble_process.c **** 							clientConnectToDevice = TRUE;
 373:..\..\..\PSoC-4-BLE-master\100_Projects_in_100_Days\Day049_BLE_Mesh_Flood\Mesh_Flood\Mesh_Flood_PSoC4BLE.cydsn/ble_process.c **** 						}
 374:..\..\..\PSoC-4-BLE-master\100_Projects_in_100_Days\Day049_BLE_Mesh_Flood\Mesh_Flood\Mesh_Flood_PSoC4BLE.cydsn/ble_process.c **** 					//} else {
 375:..\..\..\PSoC-4-BLE-master\100_Projects_in_100_Days\Day049_BLE_Mesh_Flood\Mesh_Flood\Mesh_Flood_PSoC4BLE.cydsn/ble_process.c ****                     //    UART_UartPutString("111111111111111f");
 376:..\..\..\PSoC-4-BLE-master\100_Projects_in_100_Days\Day049_BLE_Mesh_Flood\Mesh_Flood\Mesh_Flood_PSoC4BLE.cydsn/ble_process.c ****                     //}
 377:..\..\..\PSoC-4-BLE-master\100_Projects_in_100_Days\Day049_BLE_Mesh_Flood\Mesh_Flood\Mesh_Flood_PSoC4BLE.cydsn/ble_process.c **** 				} 
 378:..\..\..\PSoC-4-BLE-master\100_Projects_in_100_Days\Day049_BLE_Mesh_Flood\Mesh_Flood\Mesh_Flood_PSoC4BLE.cydsn/ble_process.c **** 			}
 379:..\..\..\PSoC-4-BLE-master\100_Projects_in_100_Days\Day049_BLE_Mesh_Flood\Mesh_Flood\Mesh_Flood_PSoC4BLE.cydsn/ble_process.c **** 		break;
 380:..\..\..\PSoC-4-BLE-master\100_Projects_in_100_Days\Day049_BLE_Mesh_Flood\Mesh_Flood\Mesh_Flood_PSoC4BLE.cydsn/ble_process.c **** 			
 381:..\..\..\PSoC-4-BLE-master\100_Projects_in_100_Days\Day049_BLE_Mesh_Flood\Mesh_Flood\Mesh_Flood_PSoC4BLE.cydsn/ble_process.c **** 		case CYBLE_EVT_GAP_DEVICE_CONNECTED:
 382:..\..\..\PSoC-4-BLE-master\100_Projects_in_100_Days\Day049_BLE_Mesh_Flood\Mesh_Flood\Mesh_Flood_PSoC4BLE.cydsn/ble_process.c **** 			/* This event is received whenever the device connect on GAP layer */
 383:..\..\..\PSoC-4-BLE-master\100_Projects_in_100_Days\Day049_BLE_Mesh_Flood\Mesh_Flood\Mesh_Flood_PSoC4BLE.cydsn/ble_process.c **** 			if(ble_gap_state == BLE_CENTRAL)
 384:..\..\..\PSoC-4-BLE-master\100_Projects_in_100_Days\Day049_BLE_Mesh_Flood\Mesh_Flood\Mesh_Flood_PSoC4BLE.cydsn/ble_process.c **** 			{
 385:..\..\..\PSoC-4-BLE-master\100_Projects_in_100_Days\Day049_BLE_Mesh_Flood\Mesh_Flood\Mesh_Flood_PSoC4BLE.cydsn/ble_process.c ****         		/* If this system is currently acting in Central role and has connected
 386:..\..\..\PSoC-4-BLE-master\100_Projects_in_100_Days\Day049_BLE_Mesh_Flood\Mesh_Flood\Mesh_Flood_PSoC4BLE.cydsn/ble_process.c ****         		* to a peripheral device, then write directly the ADV counter data and
 387:..\..\..\PSoC-4-BLE-master\100_Projects_in_100_Days\Day049_BLE_Mesh_Flood\Mesh_Flood\Mesh_Flood_PSoC4BLE.cydsn/ble_process.c ****         		* RGB LED control data using attribute handles */
 388:..\..\..\PSoC-4-BLE-master\100_Projects_in_100_Days\Day049_BLE_Mesh_Flood\Mesh_Flood\Mesh_Flood_PSoC4BLE.cydsn/ble_process.c ****         		
 389:..\..\..\PSoC-4-BLE-master\100_Projects_in_100_Days\Day049_BLE_Mesh_Flood\Mesh_Flood\Mesh_Flood_PSoC4BLE.cydsn/ble_process.c ****         		/* Set the device connected flag */
 390:..\..\..\PSoC-4-BLE-master\100_Projects_in_100_Days\Day049_BLE_Mesh_Flood\Mesh_Flood\Mesh_Flood_PSoC4BLE.cydsn/ble_process.c ****         		deviceConnected = TRUE;
 391:..\..\..\PSoC-4-BLE-master\100_Projects_in_100_Days\Day049_BLE_Mesh_Flood\Mesh_Flood\Mesh_Flood_PSoC4BLE.cydsn/ble_process.c ****                 
 392:..\..\..\PSoC-4-BLE-master\100_Projects_in_100_Days\Day049_BLE_Mesh_Flood\Mesh_Flood\Mesh_Flood_PSoC4BLE.cydsn/ble_process.c ****                 #ifdef TEMPERATURE_OUTPUT_ENABLED
 393:..\..\..\PSoC-4-BLE-master\100_Projects_in_100_Days\Day049_BLE_Mesh_Flood\Mesh_Flood\Mesh_Flood_PSoC4BLE.cydsn/ble_process.c ****                 UART_UartPutString("*** WRITING TEMPERATURE...");
 394:..\..\..\PSoC-4-BLE-master\100_Projects_in_100_Days\Day049_BLE_Mesh_Flood\Mesh_Flood\Mesh_Flood_PSoC4BLE.cydsn/ble_process.c ****     			UART_UartPutCRLF(' ');
 395:..\..\..\PSoC-4-BLE-master\100_Projects_in_100_Days\Day049_BLE_Mesh_Flood\Mesh_Flood\Mesh_Flood_PSoC4BLE.cydsn/ble_process.c ****                 #endif
 396:..\..\..\PSoC-4-BLE-master\100_Projects_in_100_Days\Day049_BLE_Mesh_Flood\Mesh_Flood\Mesh_Flood_PSoC4BLE.cydsn/ble_process.c **** 
 397:..\..\..\PSoC-4-BLE-master\100_Projects_in_100_Days\Day049_BLE_Mesh_Flood\Mesh_Flood\Mesh_Flood_PSoC4BLE.cydsn/ble_process.c ****     			/* Extract temperature value and store it */
 398:..\..\..\PSoC-4-BLE-master\100_Projects_in_100_Days\Day049_BLE_Mesh_Flood\Mesh_Flood\Mesh_Flood_PSoC4BLE.cydsn/ble_process.c ****                 TemperatureStorage.handleValPair.value.val[1] = GetTemperature(flag_Timer) - 0.12;
 399:..\..\..\PSoC-4-BLE-master\100_Projects_in_100_Days\Day049_BLE_Mesh_Flood\Mesh_Flood\Mesh_Flood_PSoC4BLE.cydsn/ble_process.c ****                 
 400:..\..\..\PSoC-4-BLE-master\100_Projects_in_100_Days\Day049_BLE_Mesh_Flood\Mesh_Flood\Mesh_Flood_PSoC4BLE.cydsn/ble_process.c ****                 #ifdef TEMPERATURE_OUTPUT_ENABLED
 401:..\..\..\PSoC-4-BLE-master\100_Projects_in_100_Days\Day049_BLE_Mesh_Flood\Mesh_Flood\Mesh_Flood_PSoC4BLE.cydsn/ble_process.c ****                     SendTemperarureToUart(TemperatureStorage.handleValPair.value.val[deviceIndex]);
 402:..\..\..\PSoC-4-BLE-master\100_Projects_in_100_Days\Day049_BLE_Mesh_Flood\Mesh_Flood\Mesh_Flood_PSoC4BLE.cydsn/ble_process.c ****                 #endif
 403:..\..\..\PSoC-4-BLE-master\100_Projects_in_100_Days\Day049_BLE_Mesh_Flood\Mesh_Flood\Mesh_Flood_PSoC4BLE.cydsn/ble_process.c ****         		
 404:..\..\..\PSoC-4-BLE-master\100_Projects_in_100_Days\Day049_BLE_Mesh_Flood\Mesh_Flood\Mesh_Flood_PSoC4BLE.cydsn/ble_process.c ****         		#ifdef DEBUG_ENABLED
 405:..\..\..\PSoC-4-BLE-master\100_Projects_in_100_Days\Day049_BLE_Mesh_Flood\Mesh_Flood\Mesh_Flood_PSoC4BLE.cydsn/ble_process.c ****         			UART_UartPutString("Directly write RGB using Attr handle ");
 406:..\..\..\PSoC-4-BLE-master\100_Projects_in_100_Days\Day049_BLE_Mesh_Flood\Mesh_Flood\Mesh_Flood_PSoC4BLE.cydsn/ble_process.c ****         			SendBLEStatetoUART(CyBle_GetState());
 407:..\..\..\PSoC-4-BLE-master\100_Projects_in_100_Days\Day049_BLE_Mesh_Flood\Mesh_Flood\Mesh_Flood_PSoC4BLE.cydsn/ble_process.c ****         			UART_UartPutCRLF(' ');
 408:..\..\..\PSoC-4-BLE-master\100_Projects_in_100_Days\Day049_BLE_Mesh_Flood\Mesh_Flood\Mesh_Flood_PSoC4BLE.cydsn/ble_process.c ****         		#endif
 409:..\..\..\PSoC-4-BLE-master\100_Projects_in_100_Days\Day049_BLE_Mesh_Flood\Mesh_Flood\Mesh_Flood_PSoC4BLE.cydsn/ble_process.c ****         		
 410:..\..\..\PSoC-4-BLE-master\100_Projects_in_100_Days\Day049_BLE_Mesh_Flood\Mesh_Flood\Mesh_Flood_PSoC4BLE.cydsn/ble_process.c ****         		/* Write the Data Counter value */
 411:..\..\..\PSoC-4-BLE-master\100_Projects_in_100_Days\Day049_BLE_Mesh_Flood\Mesh_Flood\Mesh_Flood_PSoC4BLE.cydsn/ble_process.c ****         		//writeADVcounterdata.attrHandle = CYBLE_RGB_DATA_COUNT_CHAR_HANDLE;
 412:..\..\..\PSoC-4-BLE-master\100_Projects_in_100_Days\Day049_BLE_Mesh_Flood\Mesh_Flood\Mesh_Flood_PSoC4BLE.cydsn/ble_process.c ****         		writeADVcounterdata.value.val = &dataADVCounter;
ARM GAS  C:\Users\User\AppData\Local\Temp\cc96DgHN.s 			page 12


 413:..\..\..\PSoC-4-BLE-master\100_Projects_in_100_Days\Day049_BLE_Mesh_Flood\Mesh_Flood\Mesh_Flood_PSoC4BLE.cydsn/ble_process.c ****         		writeADVcounterdata.value.len = 1;
 414:..\..\..\PSoC-4-BLE-master\100_Projects_in_100_Days\Day049_BLE_Mesh_Flood\Mesh_Flood\Mesh_Flood_PSoC4BLE.cydsn/ble_process.c ****         		CyBle_GattcWriteWithoutResponse(cyBle_connHandle, &writeADVcounterdata);
 415:..\..\..\PSoC-4-BLE-master\100_Projects_in_100_Days\Day049_BLE_Mesh_Flood\Mesh_Flood\Mesh_Flood_PSoC4BLE.cydsn/ble_process.c ****         	
 416:..\..\..\PSoC-4-BLE-master\100_Projects_in_100_Days\Day049_BLE_Mesh_Flood\Mesh_Flood\Mesh_Flood_PSoC4BLE.cydsn/ble_process.c ****         		/* Write the RGB LED Value */
 417:..\..\..\PSoC-4-BLE-master\100_Projects_in_100_Days\Day049_BLE_Mesh_Flood\Mesh_Flood\Mesh_Flood_PSoC4BLE.cydsn/ble_process.c ****         		writeRGBdata.attrHandle = writeReqData.handleValPair.attrHandle;
 418:..\..\..\PSoC-4-BLE-master\100_Projects_in_100_Days\Day049_BLE_Mesh_Flood\Mesh_Flood\Mesh_Flood_PSoC4BLE.cydsn/ble_process.c ****         		writeRGBdata.value.val = TemperatureStorage.handleValPair.value.val;
 419:..\..\..\PSoC-4-BLE-master\100_Projects_in_100_Days\Day049_BLE_Mesh_Flood\Mesh_Flood\Mesh_Flood_PSoC4BLE.cydsn/ble_process.c ****         		writeRGBdata.value.len = 4;
 420:..\..\..\PSoC-4-BLE-master\100_Projects_in_100_Days\Day049_BLE_Mesh_Flood\Mesh_Flood\Mesh_Flood_PSoC4BLE.cydsn/ble_process.c ****         		CyBle_GattcWriteCharacteristicValue(cyBle_connHandle, &writeRGBdata);
 421:..\..\..\PSoC-4-BLE-master\100_Projects_in_100_Days\Day049_BLE_Mesh_Flood\Mesh_Flood\Mesh_Flood_PSoC4BLE.cydsn/ble_process.c ****                 GREEN_LED_Pin_Write(0);
 422:..\..\..\PSoC-4-BLE-master\100_Projects_in_100_Days\Day049_BLE_Mesh_Flood\Mesh_Flood\Mesh_Flood_PSoC4BLE.cydsn/ble_process.c ****                 
 423:..\..\..\PSoC-4-BLE-master\100_Projects_in_100_Days\Day049_BLE_Mesh_Flood\Mesh_Flood\Mesh_Flood_PSoC4BLE.cydsn/ble_process.c ****                 #ifdef TEMPERATURE_OUTPUT_ENABLED
 424:..\..\..\PSoC-4-BLE-master\100_Projects_in_100_Days\Day049_BLE_Mesh_Flood\Mesh_Flood\Mesh_Flood_PSoC4BLE.cydsn/ble_process.c ****                 UART_UartPutString("*** Data is WRITTEN");
 425:..\..\..\PSoC-4-BLE-master\100_Projects_in_100_Days\Day049_BLE_Mesh_Flood\Mesh_Flood\Mesh_Flood_PSoC4BLE.cydsn/ble_process.c ****     			UART_UartPutCRLF(' ');
 426:..\..\..\PSoC-4-BLE-master\100_Projects_in_100_Days\Day049_BLE_Mesh_Flood\Mesh_Flood\Mesh_Flood_PSoC4BLE.cydsn/ble_process.c ****                 
 427:..\..\..\PSoC-4-BLE-master\100_Projects_in_100_Days\Day049_BLE_Mesh_Flood\Mesh_Flood\Mesh_Flood_PSoC4BLE.cydsn/ble_process.c ****                 SendTempArrayToUart(TemperatureStorage.handleValPair.value.val);
 428:..\..\..\PSoC-4-BLE-master\100_Projects_in_100_Days\Day049_BLE_Mesh_Flood\Mesh_Flood\Mesh_Flood_PSoC4BLE.cydsn/ble_process.c ****                 
 429:..\..\..\PSoC-4-BLE-master\100_Projects_in_100_Days\Day049_BLE_Mesh_Flood\Mesh_Flood\Mesh_Flood_PSoC4BLE.cydsn/ble_process.c ****                 #endif
 430:..\..\..\PSoC-4-BLE-master\100_Projects_in_100_Days\Day049_BLE_Mesh_Flood\Mesh_Flood\Mesh_Flood_PSoC4BLE.cydsn/ble_process.c **** 				
 431:..\..\..\PSoC-4-BLE-master\100_Projects_in_100_Days\Day049_BLE_Mesh_Flood\Mesh_Flood\Mesh_Flood_PSoC4BLE.cydsn/ble_process.c **** 			}	
 432:..\..\..\PSoC-4-BLE-master\100_Projects_in_100_Days\Day049_BLE_Mesh_Flood\Mesh_Flood\Mesh_Flood_PSoC4BLE.cydsn/ble_process.c ****         break;
 433:..\..\..\PSoC-4-BLE-master\100_Projects_in_100_Days\Day049_BLE_Mesh_Flood\Mesh_Flood\Mesh_Flood_PSoC4BLE.cydsn/ble_process.c **** 			
 434:..\..\..\PSoC-4-BLE-master\100_Projects_in_100_Days\Day049_BLE_Mesh_Flood\Mesh_Flood\Mesh_Flood_PSoC4BLE.cydsn/ble_process.c **** 		case CYBLE_EVT_GATTC_DISCOVERY_COMPLETE:
 435:..\..\..\PSoC-4-BLE-master\100_Projects_in_100_Days\Day049_BLE_Mesh_Flood\Mesh_Flood\Mesh_Flood_PSoC4BLE.cydsn/ble_process.c **** 			/* This event is generated whenever the discovery procedure is complete*/
 436:..\..\..\PSoC-4-BLE-master\100_Projects_in_100_Days\Day049_BLE_Mesh_Flood\Mesh_Flood\Mesh_Flood_PSoC4BLE.cydsn/ble_process.c **** 		break;
 437:..\..\..\PSoC-4-BLE-master\100_Projects_in_100_Days\Day049_BLE_Mesh_Flood\Mesh_Flood\Mesh_Flood_PSoC4BLE.cydsn/ble_process.c **** 			
 438:..\..\..\PSoC-4-BLE-master\100_Projects_in_100_Days\Day049_BLE_Mesh_Flood\Mesh_Flood\Mesh_Flood_PSoC4BLE.cydsn/ble_process.c **** 		case CYBLE_EVT_GATTC_WRITE_RSP:
 439:..\..\..\PSoC-4-BLE-master\100_Projects_in_100_Days\Day049_BLE_Mesh_Flood\Mesh_Flood\Mesh_Flood_PSoC4BLE.cydsn/ble_process.c ****             {
 440:..\..\..\PSoC-4-BLE-master\100_Projects_in_100_Days\Day049_BLE_Mesh_Flood\Mesh_Flood\Mesh_Flood_PSoC4BLE.cydsn/ble_process.c **** 			/* This event is generated when the Client device receives a response
 441:..\..\..\PSoC-4-BLE-master\100_Projects_in_100_Days\Day049_BLE_Mesh_Flood\Mesh_Flood\Mesh_Flood_PSoC4BLE.cydsn/ble_process.c **** 			* as part of the Write request sent earlier. This indicates that
 442:..\..\..\PSoC-4-BLE-master\100_Projects_in_100_Days\Day049_BLE_Mesh_Flood\Mesh_Flood\Mesh_Flood_PSoC4BLE.cydsn/ble_process.c **** 			* the RGB LED data was written successfully */
 443:..\..\..\PSoC-4-BLE-master\100_Projects_in_100_Days\Day049_BLE_Mesh_Flood\Mesh_Flood\Mesh_Flood_PSoC4BLE.cydsn/ble_process.c **** 			#ifdef DEBUG_ENABLED
 444:..\..\..\PSoC-4-BLE-master\100_Projects_in_100_Days\Day049_BLE_Mesh_Flood\Mesh_Flood\Mesh_Flood_PSoC4BLE.cydsn/ble_process.c **** 				UART_UartPutString("CYBLE_EVT_GATTC_WRITE_RSP ");
 445:..\..\..\PSoC-4-BLE-master\100_Projects_in_100_Days\Day049_BLE_Mesh_Flood\Mesh_Flood\Mesh_Flood_PSoC4BLE.cydsn/ble_process.c **** 				SendBLEStatetoUART(CyBle_GetState());
 446:..\..\..\PSoC-4-BLE-master\100_Projects_in_100_Days\Day049_BLE_Mesh_Flood\Mesh_Flood\Mesh_Flood_PSoC4BLE.cydsn/ble_process.c **** 				UART_UartPutCRLF(' ');
 447:..\..\..\PSoC-4-BLE-master\100_Projects_in_100_Days\Day049_BLE_Mesh_Flood\Mesh_Flood\Mesh_Flood_PSoC4BLE.cydsn/ble_process.c **** 			#endif
 448:..\..\..\PSoC-4-BLE-master\100_Projects_in_100_Days\Day049_BLE_Mesh_Flood\Mesh_Flood\Mesh_Flood_PSoC4BLE.cydsn/ble_process.c **** 			
 449:..\..\..\PSoC-4-BLE-master\100_Projects_in_100_Days\Day049_BLE_Mesh_Flood\Mesh_Flood\Mesh_Flood_PSoC4BLE.cydsn/ble_process.c **** 			/* Disconnect the existing connection and restart scanning */
 450:..\..\..\PSoC-4-BLE-master\100_Projects_in_100_Days\Day049_BLE_Mesh_Flood\Mesh_Flood\Mesh_Flood_PSoC4BLE.cydsn/ble_process.c **** 			if((cyBle_connHandle.bdHandle != 0))
 451:..\..\..\PSoC-4-BLE-master\100_Projects_in_100_Days\Day049_BLE_Mesh_Flood\Mesh_Flood\Mesh_Flood_PSoC4BLE.cydsn/ble_process.c **** 			{
 452:..\..\..\PSoC-4-BLE-master\100_Projects_in_100_Days\Day049_BLE_Mesh_Flood\Mesh_Flood\Mesh_Flood_PSoC4BLE.cydsn/ble_process.c **** 				CyBle_GapDisconnect(cyBle_connHandle.bdHandle);
 453:..\..\..\PSoC-4-BLE-master\100_Projects_in_100_Days\Day049_BLE_Mesh_Flood\Mesh_Flood\Mesh_Flood_PSoC4BLE.cydsn/ble_process.c **** 				
 454:..\..\..\PSoC-4-BLE-master\100_Projects_in_100_Days\Day049_BLE_Mesh_Flood\Mesh_Flood\Mesh_Flood_PSoC4BLE.cydsn/ble_process.c **** 				restartScanning = TRUE;
 455:..\..\..\PSoC-4-BLE-master\100_Projects_in_100_Days\Day049_BLE_Mesh_Flood\Mesh_Flood\Mesh_Flood_PSoC4BLE.cydsn/ble_process.c **** 				#ifdef DEBUG_ENABLED
 456:..\..\..\PSoC-4-BLE-master\100_Projects_in_100_Days\Day049_BLE_Mesh_Flood\Mesh_Flood\Mesh_Flood_PSoC4BLE.cydsn/ble_process.c **** 				UART_UartPutString("Disconnect from CYBLE_EVT_GATTC_WRITE_RSP ");
 457:..\..\..\PSoC-4-BLE-master\100_Projects_in_100_Days\Day049_BLE_Mesh_Flood\Mesh_Flood\Mesh_Flood_PSoC4BLE.cydsn/ble_process.c **** 				SendBLEStatetoUART(CyBle_GetState());
 458:..\..\..\PSoC-4-BLE-master\100_Projects_in_100_Days\Day049_BLE_Mesh_Flood\Mesh_Flood\Mesh_Flood_PSoC4BLE.cydsn/ble_process.c **** 				UART_UartPutCRLF(' ');
 459:..\..\..\PSoC-4-BLE-master\100_Projects_in_100_Days\Day049_BLE_Mesh_Flood\Mesh_Flood\Mesh_Flood_PSoC4BLE.cydsn/ble_process.c **** 				#endif
 460:..\..\..\PSoC-4-BLE-master\100_Projects_in_100_Days\Day049_BLE_Mesh_Flood\Mesh_Flood\Mesh_Flood_PSoC4BLE.cydsn/ble_process.c **** 			}
 461:..\..\..\PSoC-4-BLE-master\100_Projects_in_100_Days\Day049_BLE_Mesh_Flood\Mesh_Flood\Mesh_Flood_PSoC4BLE.cydsn/ble_process.c ****             }
 462:..\..\..\PSoC-4-BLE-master\100_Projects_in_100_Days\Day049_BLE_Mesh_Flood\Mesh_Flood\Mesh_Flood_PSoC4BLE.cydsn/ble_process.c **** 		break;
 463:..\..\..\PSoC-4-BLE-master\100_Projects_in_100_Days\Day049_BLE_Mesh_Flood\Mesh_Flood\Mesh_Flood_PSoC4BLE.cydsn/ble_process.c **** 
 464:..\..\..\PSoC-4-BLE-master\100_Projects_in_100_Days\Day049_BLE_Mesh_Flood\Mesh_Flood\Mesh_Flood_PSoC4BLE.cydsn/ble_process.c **** 		case CYBLE_EVT_GAP_DEVICE_DISCONNECTED:
 465:..\..\..\PSoC-4-BLE-master\100_Projects_in_100_Days\Day049_BLE_Mesh_Flood\Mesh_Flood\Mesh_Flood_PSoC4BLE.cydsn/ble_process.c ****             {
 466:..\..\..\PSoC-4-BLE-master\100_Projects_in_100_Days\Day049_BLE_Mesh_Flood\Mesh_Flood\Mesh_Flood_PSoC4BLE.cydsn/ble_process.c **** 			/* This event is generated when the device disconnects from an 
 467:..\..\..\PSoC-4-BLE-master\100_Projects_in_100_Days\Day049_BLE_Mesh_Flood\Mesh_Flood\Mesh_Flood_PSoC4BLE.cydsn/ble_process.c **** 			* existing connection */
 468:..\..\..\PSoC-4-BLE-master\100_Projects_in_100_Days\Day049_BLE_Mesh_Flood\Mesh_Flood\Mesh_Flood_PSoC4BLE.cydsn/ble_process.c **** 			deviceConnected = FALSE;
 469:..\..\..\PSoC-4-BLE-master\100_Projects_in_100_Days\Day049_BLE_Mesh_Flood\Mesh_Flood\Mesh_Flood_PSoC4BLE.cydsn/ble_process.c **** 			
ARM GAS  C:\Users\User\AppData\Local\Temp\cc96DgHN.s 			page 13


 470:..\..\..\PSoC-4-BLE-master\100_Projects_in_100_Days\Day049_BLE_Mesh_Flood\Mesh_Flood\Mesh_Flood_PSoC4BLE.cydsn/ble_process.c **** 			#ifdef DEBUG_ENABLED
 471:..\..\..\PSoC-4-BLE-master\100_Projects_in_100_Days\Day049_BLE_Mesh_Flood\Mesh_Flood\Mesh_Flood_PSoC4BLE.cydsn/ble_process.c **** 				UART_UartPutString("CYBLE_EVT_GAP_DEVICE_DISCONNECTED ");
 472:..\..\..\PSoC-4-BLE-master\100_Projects_in_100_Days\Day049_BLE_Mesh_Flood\Mesh_Flood\Mesh_Flood_PSoC4BLE.cydsn/ble_process.c **** 				SendBLEStatetoUART(CyBle_GetState());
 473:..\..\..\PSoC-4-BLE-master\100_Projects_in_100_Days\Day049_BLE_Mesh_Flood\Mesh_Flood\Mesh_Flood_PSoC4BLE.cydsn/ble_process.c **** 				UART_UartPutCRLF(' ');
 474:..\..\..\PSoC-4-BLE-master\100_Projects_in_100_Days\Day049_BLE_Mesh_Flood\Mesh_Flood\Mesh_Flood_PSoC4BLE.cydsn/ble_process.c **** 			#endif
 475:..\..\..\PSoC-4-BLE-master\100_Projects_in_100_Days\Day049_BLE_Mesh_Flood\Mesh_Flood\Mesh_Flood_PSoC4BLE.cydsn/ble_process.c **** 			
 476:..\..\..\PSoC-4-BLE-master\100_Projects_in_100_Days\Day049_BLE_Mesh_Flood\Mesh_Flood\Mesh_Flood_PSoC4BLE.cydsn/ble_process.c **** 			if((ble_gap_state == BLE_PERIPHERAL) && (switch_Role != TRUE))
 477:..\..\..\PSoC-4-BLE-master\100_Projects_in_100_Days\Day049_BLE_Mesh_Flood\Mesh_Flood\Mesh_Flood_PSoC4BLE.cydsn/ble_process.c **** 			{
 478:..\..\..\PSoC-4-BLE-master\100_Projects_in_100_Days\Day049_BLE_Mesh_Flood\Mesh_Flood\Mesh_Flood_PSoC4BLE.cydsn/ble_process.c **** 				/* If the current role of this system was Peripheral and the role
 479:..\..\..\PSoC-4-BLE-master\100_Projects_in_100_Days\Day049_BLE_Mesh_Flood\Mesh_Flood\Mesh_Flood_PSoC4BLE.cydsn/ble_process.c **** 				* is not to be switched, then restart advertisement */
 480:..\..\..\PSoC-4-BLE-master\100_Projects_in_100_Days\Day049_BLE_Mesh_Flood\Mesh_Flood\Mesh_Flood_PSoC4BLE.cydsn/ble_process.c **** 				if(CYBLE_STATE_DISCONNECTED == CyBle_GetState())
 481:..\..\..\PSoC-4-BLE-master\100_Projects_in_100_Days\Day049_BLE_Mesh_Flood\Mesh_Flood\Mesh_Flood_PSoC4BLE.cydsn/ble_process.c **** 				{
 482:..\..\..\PSoC-4-BLE-master\100_Projects_in_100_Days\Day049_BLE_Mesh_Flood\Mesh_Flood\Mesh_Flood_PSoC4BLE.cydsn/ble_process.c **** 					CyBle_GappStartAdvertisement(CYBLE_ADVERTISING_FAST);	
 483:..\..\..\PSoC-4-BLE-master\100_Projects_in_100_Days\Day049_BLE_Mesh_Flood\Mesh_Flood\Mesh_Flood_PSoC4BLE.cydsn/ble_process.c **** 					#ifdef DEBUG_ENABLED
 484:..\..\..\PSoC-4-BLE-master\100_Projects_in_100_Days\Day049_BLE_Mesh_Flood\Mesh_Flood\Mesh_Flood_PSoC4BLE.cydsn/ble_process.c **** 					UART_UartPutString("Restart Advertisement ");
 485:..\..\..\PSoC-4-BLE-master\100_Projects_in_100_Days\Day049_BLE_Mesh_Flood\Mesh_Flood\Mesh_Flood_PSoC4BLE.cydsn/ble_process.c **** 					SendBLEStatetoUART(CyBle_GetState());
 486:..\..\..\PSoC-4-BLE-master\100_Projects_in_100_Days\Day049_BLE_Mesh_Flood\Mesh_Flood\Mesh_Flood_PSoC4BLE.cydsn/ble_process.c **** 					UART_UartPutCRLF(' ');
 487:..\..\..\PSoC-4-BLE-master\100_Projects_in_100_Days\Day049_BLE_Mesh_Flood\Mesh_Flood\Mesh_Flood_PSoC4BLE.cydsn/ble_process.c **** 					#endif
 488:..\..\..\PSoC-4-BLE-master\100_Projects_in_100_Days\Day049_BLE_Mesh_Flood\Mesh_Flood\Mesh_Flood_PSoC4BLE.cydsn/ble_process.c **** 				}
 489:..\..\..\PSoC-4-BLE-master\100_Projects_in_100_Days\Day049_BLE_Mesh_Flood\Mesh_Flood\Mesh_Flood_PSoC4BLE.cydsn/ble_process.c **** 			}
 490:..\..\..\PSoC-4-BLE-master\100_Projects_in_100_Days\Day049_BLE_Mesh_Flood\Mesh_Flood\Mesh_Flood_PSoC4BLE.cydsn/ble_process.c **** 			else if((ble_gap_state == BLE_CENTRAL) && (switch_Role != TRUE))
 491:..\..\..\PSoC-4-BLE-master\100_Projects_in_100_Days\Day049_BLE_Mesh_Flood\Mesh_Flood\Mesh_Flood_PSoC4BLE.cydsn/ble_process.c **** 			{
 492:..\..\..\PSoC-4-BLE-master\100_Projects_in_100_Days\Day049_BLE_Mesh_Flood\Mesh_Flood\Mesh_Flood_PSoC4BLE.cydsn/ble_process.c **** 				/* If the current role of this system was Central and the role
 493:..\..\..\PSoC-4-BLE-master\100_Projects_in_100_Days\Day049_BLE_Mesh_Flood\Mesh_Flood\Mesh_Flood_PSoC4BLE.cydsn/ble_process.c **** 				* is not to be switched, then restart scanning */
 494:..\..\..\PSoC-4-BLE-master\100_Projects_in_100_Days\Day049_BLE_Mesh_Flood\Mesh_Flood\Mesh_Flood_PSoC4BLE.cydsn/ble_process.c **** 				if(CYBLE_STATE_DISCONNECTED == CyBle_GetState())
 495:..\..\..\PSoC-4-BLE-master\100_Projects_in_100_Days\Day049_BLE_Mesh_Flood\Mesh_Flood\Mesh_Flood_PSoC4BLE.cydsn/ble_process.c **** 				{
 496:..\..\..\PSoC-4-BLE-master\100_Projects_in_100_Days\Day049_BLE_Mesh_Flood\Mesh_Flood\Mesh_Flood_PSoC4BLE.cydsn/ble_process.c **** 					CyBle_GapcStartScan(CYBLE_SCANNING_FAST);	
 497:..\..\..\PSoC-4-BLE-master\100_Projects_in_100_Days\Day049_BLE_Mesh_Flood\Mesh_Flood\Mesh_Flood_PSoC4BLE.cydsn/ble_process.c **** 					#ifdef DEBUG_ENABLED
 498:..\..\..\PSoC-4-BLE-master\100_Projects_in_100_Days\Day049_BLE_Mesh_Flood\Mesh_Flood\Mesh_Flood_PSoC4BLE.cydsn/ble_process.c **** 					UART_UartPutString("Restart Scanning ");
 499:..\..\..\PSoC-4-BLE-master\100_Projects_in_100_Days\Day049_BLE_Mesh_Flood\Mesh_Flood\Mesh_Flood_PSoC4BLE.cydsn/ble_process.c **** 					SendBLEStatetoUART(CyBle_GetState());
 500:..\..\..\PSoC-4-BLE-master\100_Projects_in_100_Days\Day049_BLE_Mesh_Flood\Mesh_Flood\Mesh_Flood_PSoC4BLE.cydsn/ble_process.c **** 					UART_UartPutCRLF(' ');
 501:..\..\..\PSoC-4-BLE-master\100_Projects_in_100_Days\Day049_BLE_Mesh_Flood\Mesh_Flood\Mesh_Flood_PSoC4BLE.cydsn/ble_process.c **** 					#endif
 502:..\..\..\PSoC-4-BLE-master\100_Projects_in_100_Days\Day049_BLE_Mesh_Flood\Mesh_Flood\Mesh_Flood_PSoC4BLE.cydsn/ble_process.c **** 				}	
 503:..\..\..\PSoC-4-BLE-master\100_Projects_in_100_Days\Day049_BLE_Mesh_Flood\Mesh_Flood\Mesh_Flood_PSoC4BLE.cydsn/ble_process.c **** 			}
 504:..\..\..\PSoC-4-BLE-master\100_Projects_in_100_Days\Day049_BLE_Mesh_Flood\Mesh_Flood\Mesh_Flood_PSoC4BLE.cydsn/ble_process.c ****         }
 505:..\..\..\PSoC-4-BLE-master\100_Projects_in_100_Days\Day049_BLE_Mesh_Flood\Mesh_Flood\Mesh_Flood_PSoC4BLE.cydsn/ble_process.c **** 		break;
 506:..\..\..\PSoC-4-BLE-master\100_Projects_in_100_Days\Day049_BLE_Mesh_Flood\Mesh_Flood\Mesh_Flood_PSoC4BLE.cydsn/ble_process.c **** 			
 507:..\..\..\PSoC-4-BLE-master\100_Projects_in_100_Days\Day049_BLE_Mesh_Flood\Mesh_Flood\Mesh_Flood_PSoC4BLE.cydsn/ble_process.c **** 		default:
 508:..\..\..\PSoC-4-BLE-master\100_Projects_in_100_Days\Day049_BLE_Mesh_Flood\Mesh_Flood\Mesh_Flood_PSoC4BLE.cydsn/ble_process.c **** 			eventParam = eventParam;
 509:..\..\..\PSoC-4-BLE-master\100_Projects_in_100_Days\Day049_BLE_Mesh_Flood\Mesh_Flood\Mesh_Flood_PSoC4BLE.cydsn/ble_process.c **** 		break;
 176              		.loc 1 509 0
 177 0022 08E2     		b	.L18
 178              	.L6:
  68:..\..\..\PSoC-4-BLE-master\100_Projects_in_100_Days\Day049_BLE_Mesh_Flood\Mesh_Flood\Mesh_Flood_PSoC4BLE.cydsn/ble_process.c **** 	{
 179              		.loc 1 68 0
 180 0024 272B     		cmp	r3, #39
 181 0026 00D1     		bne	.LCB33
 182 0028 1FE1     		b	.L9	@long jump
 183              	.LCB33:
 184 002a 282B     		cmp	r3, #40
 185 002c 00D1     		bne	.LCB35
 186 002e A1E1     		b	.L10	@long jump
 187              	.LCB35:
 188              		.loc 1 509 0
 189 0030 01E2     		b	.L18
 190              	.L4:
  68:..\..\..\PSoC-4-BLE-master\100_Projects_in_100_Days\Day049_BLE_Mesh_Flood\Mesh_Flood\Mesh_Flood_PSoC4BLE.cydsn/ble_process.c **** 	{
ARM GAS  C:\Users\User\AppData\Local\Temp\cc96DgHN.s 			page 14


 191              		.loc 1 68 0
 192 0032 4C2B     		cmp	r3, #76
 193 0034 4ED0     		beq	.L11
 194 0036 04D8     		bhi	.L12
 195 0038 412B     		cmp	r3, #65
 196 003a 3BD0     		beq	.L13
 197 003c 422B     		cmp	r3, #66
 198 003e 41D0     		beq	.L14
 199              		.loc 1 509 0
 200 0040 F9E1     		b	.L18
 201              	.L12:
  68:..\..\..\PSoC-4-BLE-master\100_Projects_in_100_Days\Day049_BLE_Mesh_Flood\Mesh_Flood\Mesh_Flood_PSoC4BLE.cydsn/ble_process.c **** 	{
 202              		.loc 1 68 0
 203 0042 4E2B     		cmp	r3, #78
 204 0044 00D1     		bne	.LCB53
 205 0046 90E0     		b	.L15	@long jump
 206              	.LCB53:
 207 0048 00D2     		bcs	.LCB55
 208 004a 86E1     		b	.L16	@long jump
 209              	.LCB55:
 210 004c 8922     		movs	r2, #137
 211 004e 5200     		lsls	r2, r2, #1
 212 0050 9342     		cmp	r3, r2
 213 0052 00D1     		bne	.LCB59
 214 0054 B2E1     		b	.L27	@long jump
 215              	.LCB59:
 216              		.loc 1 509 0
 217 0056 EEE1     		b	.L18
 218              	.L7:
  77:..\..\..\PSoC-4-BLE-master\100_Projects_in_100_Days\Day049_BLE_Mesh_Flood\Mesh_Flood\Mesh_Flood_PSoC4BLE.cydsn/ble_process.c **** 		break;
 219              		.loc 1 77 0
 220 0058 0020     		movs	r0, #0
 221 005a FFF7FEFF 		bl	CyBle_GappStartAdvertisement
  78:..\..\..\PSoC-4-BLE-master\100_Projects_in_100_Days\Day049_BLE_Mesh_Flood\Mesh_Flood\Mesh_Flood_PSoC4BLE.cydsn/ble_process.c **** 			
 222              		.loc 1 78 0
 223 005e EAE1     		b	.L18
 224              	.L5:
  84:..\..\..\PSoC-4-BLE-master\100_Projects_in_100_Days\Day049_BLE_Mesh_Flood\Mesh_Flood\Mesh_Flood_PSoC4BLE.cydsn/ble_process.c **** 			UART_UartPutCRLF(' ');
 225              		.loc 1 84 0
 226 0060 DC4B     		ldr	r3, .L34
 227 0062 1800     		movs	r0, r3
 228 0064 FFF7FEFF 		bl	UART_UartPutString
  85:..\..\..\PSoC-4-BLE-master\100_Projects_in_100_Days\Day049_BLE_Mesh_Flood\Mesh_Flood\Mesh_Flood_PSoC4BLE.cydsn/ble_process.c ****             #endif
 229              		.loc 1 85 0
 230 0068 2020     		movs	r0, #32
 231 006a FFF7FEFF 		bl	UART_UartPutCRLF
  95:..\..\..\PSoC-4-BLE-master\100_Projects_in_100_Days\Day049_BLE_Mesh_Flood\Mesh_Flood\Mesh_Flood_PSoC4BLE.cydsn/ble_process.c **** 			{
 232              		.loc 1 95 0
 233 006e DA4B     		ldr	r3, .L34+4
 234 0070 1B78     		ldrb	r3, [r3]
 235 0072 062B     		cmp	r3, #6
 236 0074 00D0     		beq	.LCB78
 237 0076 A3E1     		b	.L28	@long jump
 238              	.LCB78:
  95:..\..\..\PSoC-4-BLE-master\100_Projects_in_100_Days\Day049_BLE_Mesh_Flood\Mesh_Flood\Mesh_Flood_PSoC4BLE.cydsn/ble_process.c **** 			{
 239              		.loc 1 95 0 is_stmt 0 discriminator 1
 240 0078 D84B     		ldr	r3, .L34+8
ARM GAS  C:\Users\User\AppData\Local\Temp\cc96DgHN.s 			page 15


 241 007a 1B78     		ldrb	r3, [r3]
 242 007c 002B     		cmp	r3, #0
 243 007e 00D0     		beq	.LCB82
 244 0080 9EE1     		b	.L28	@long jump
 245              	.LCB82:
 101:..\..\..\PSoC-4-BLE-master\100_Projects_in_100_Days\Day049_BLE_Mesh_Flood\Mesh_Flood\Mesh_Flood_PSoC4BLE.cydsn/ble_process.c **** 				
 246              		.loc 1 101 0 is_stmt 1
 247 0082 0020     		movs	r0, #0
 248 0084 FFF7FEFF 		bl	CyBle_GappStartAdvertisement
 103:..\..\..\PSoC-4-BLE-master\100_Projects_in_100_Days\Day049_BLE_Mesh_Flood\Mesh_Flood\Mesh_Flood_PSoC4BLE.cydsn/ble_process.c **** 				{
 249              		.loc 1 103 0
 250 0088 5623     		movs	r3, #86
 251 008a FB18     		adds	r3, r7, r3
 252 008c 1B88     		ldrh	r3, [r3]
 253 008e 002B     		cmp	r3, #0
 254 0090 00D0     		beq	.LCB89
 255 0092 95E1     		b	.L28	@long jump
 256              	.LCB89:
 106:..\..\..\PSoC-4-BLE-master\100_Projects_in_100_Days\Day049_BLE_Mesh_Flood\Mesh_Flood\Mesh_Flood_PSoC4BLE.cydsn/ble_process.c ****         			UART_UartPutCRLF(' ');
 257              		.loc 1 106 0
 258 0094 D24B     		ldr	r3, .L34+12
 259 0096 1800     		movs	r0, r3
 260 0098 FFF7FEFF 		bl	UART_UartPutString
 107:..\..\..\PSoC-4-BLE-master\100_Projects_in_100_Days\Day049_BLE_Mesh_Flood\Mesh_Flood\Mesh_Flood_PSoC4BLE.cydsn/ble_process.c ****                     #endif
 261              		.loc 1 107 0
 262 009c 2020     		movs	r0, #32
 263 009e FFF7FEFF 		bl	UART_UartPutCRLF
 117:..\..\..\PSoC-4-BLE-master\100_Projects_in_100_Days\Day049_BLE_Mesh_Flood\Mesh_Flood\Mesh_Flood_PSoC4BLE.cydsn/ble_process.c **** 			
 264              		.loc 1 117 0
 265 00a2 8DE1     		b	.L28
 266              	.L3:
 122:..\..\..\PSoC-4-BLE-master\100_Projects_in_100_Days\Day049_BLE_Mesh_Flood\Mesh_Flood\Mesh_Flood_PSoC4BLE.cydsn/ble_process.c **** 			UART_UartPutCRLF(' ');
 267              		.loc 1 122 0
 268 00a4 CF4B     		ldr	r3, .L34+16
 269 00a6 1800     		movs	r0, r3
 270 00a8 FFF7FEFF 		bl	UART_UartPutString
 123:..\..\..\PSoC-4-BLE-master\100_Projects_in_100_Days\Day049_BLE_Mesh_Flood\Mesh_Flood\Mesh_Flood_PSoC4BLE.cydsn/ble_process.c ****             #endif
 271              		.loc 1 123 0
 272 00ac 2020     		movs	r0, #32
 273 00ae FFF7FEFF 		bl	UART_UartPutCRLF
 132:..\..\..\PSoC-4-BLE-master\100_Projects_in_100_Days\Day049_BLE_Mesh_Flood\Mesh_Flood\Mesh_Flood_PSoC4BLE.cydsn/ble_process.c **** 			
 274              		.loc 1 132 0
 275 00b2 C0E1     		b	.L18
 276              	.L13:
 138:..\..\..\PSoC-4-BLE-master\100_Projects_in_100_Days\Day049_BLE_Mesh_Flood\Mesh_Flood\Mesh_Flood_PSoC4BLE.cydsn/ble_process.c **** 			UART_UartPutCRLF(' ');
 277              		.loc 1 138 0
 278 00b4 CC4B     		ldr	r3, .L34+20
 279 00b6 1800     		movs	r0, r3
 280 00b8 FFF7FEFF 		bl	UART_UartPutString
 139:..\..\..\PSoC-4-BLE-master\100_Projects_in_100_Days\Day049_BLE_Mesh_Flood\Mesh_Flood\Mesh_Flood_PSoC4BLE.cydsn/ble_process.c ****             #endif
 281              		.loc 1 139 0
 282 00bc 2020     		movs	r0, #32
 283 00be FFF7FEFF 		bl	UART_UartPutCRLF
 146:..\..\..\PSoC-4-BLE-master\100_Projects_in_100_Days\Day049_BLE_Mesh_Flood\Mesh_Flood\Mesh_Flood_PSoC4BLE.cydsn/ble_process.c **** 		
 284              		.loc 1 146 0
 285 00c2 B8E1     		b	.L18
 286              	.L14:
ARM GAS  C:\Users\User\AppData\Local\Temp\cc96DgHN.s 			page 16


 152:..\..\..\PSoC-4-BLE-master\100_Projects_in_100_Days\Day049_BLE_Mesh_Flood\Mesh_Flood\Mesh_Flood_PSoC4BLE.cydsn/ble_process.c **** 			UART_UartPutCRLF(' ');
 287              		.loc 1 152 0
 288 00c4 C94B     		ldr	r3, .L34+24
 289 00c6 1800     		movs	r0, r3
 290 00c8 FFF7FEFF 		bl	UART_UartPutString
 153:..\..\..\PSoC-4-BLE-master\100_Projects_in_100_Days\Day049_BLE_Mesh_Flood\Mesh_Flood\Mesh_Flood_PSoC4BLE.cydsn/ble_process.c ****             #endif
 291              		.loc 1 153 0
 292 00cc 2020     		movs	r0, #32
 293 00ce FFF7FEFF 		bl	UART_UartPutCRLF
 160:..\..\..\PSoC-4-BLE-master\100_Projects_in_100_Days\Day049_BLE_Mesh_Flood\Mesh_Flood\Mesh_Flood_PSoC4BLE.cydsn/ble_process.c **** 			
 294              		.loc 1 160 0
 295 00d2 B0E1     		b	.L18
 296              	.L11:
 167:..\..\..\PSoC-4-BLE-master\100_Projects_in_100_Days\Day049_BLE_Mesh_Flood\Mesh_Flood\Mesh_Flood_PSoC4BLE.cydsn/ble_process.c ****             
 297              		.loc 1 167 0
 298 00d4 4423     		movs	r3, #68
 299 00d6 FB18     		adds	r3, r7, r3
 300 00d8 3A68     		ldr	r2, [r7]
 301 00da 13CA     		ldmia	r2!, {r0, r1, r4}
 302 00dc 13C3     		stmia	r3!, {r0, r1, r4}
 303 00de 1268     		ldr	r2, [r2]
 304 00e0 1A60     		str	r2, [r3]
 170:..\..\..\PSoC-4-BLE-master\100_Projects_in_100_Days\Day049_BLE_Mesh_Flood\Mesh_Flood\Mesh_Flood_PSoC4BLE.cydsn/ble_process.c **** 			UART_UartPutCRLF(' ');
 305              		.loc 1 170 0
 306 00e2 C34B     		ldr	r3, .L34+28
 307 00e4 1800     		movs	r0, r3
 308 00e6 FFF7FEFF 		bl	UART_UartPutString
 171:..\..\..\PSoC-4-BLE-master\100_Projects_in_100_Days\Day049_BLE_Mesh_Flood\Mesh_Flood\Mesh_Flood_PSoC4BLE.cydsn/ble_process.c ****             #endif
 309              		.loc 1 171 0
 310 00ea 2020     		movs	r0, #32
 311 00ec FFF7FEFF 		bl	UART_UartPutCRLF
 180:..\..\..\PSoC-4-BLE-master\100_Projects_in_100_Days\Day049_BLE_Mesh_Flood\Mesh_Flood\Mesh_Flood_PSoC4BLE.cydsn/ble_process.c ****             GREEN_LED_Pin_Write(0);
 312              		.loc 1 180 0
 313 00f0 C04B     		ldr	r3, .L34+32
 314 00f2 5A68     		ldr	r2, [r3, #4]
 315 00f4 0023     		movs	r3, #0
 316 00f6 9B00     		lsls	r3, r3, #2
 317 00f8 D418     		adds	r4, r2, r3
 318 00fa BF4B     		ldr	r3, .L34+36
 319 00fc 1B78     		ldrb	r3, [r3]
 320 00fe DBB2     		uxtb	r3, r3
 321 0100 1800     		movs	r0, r3
 322 0102 FFF7FEFF 		bl	GetTemperature
 323 0106 031C     		adds	r3, r0, #0
 324 0108 2360     		str	r3, [r4]
 181:..\..\..\PSoC-4-BLE-master\100_Projects_in_100_Days\Day049_BLE_Mesh_Flood\Mesh_Flood\Mesh_Flood_PSoC4BLE.cydsn/ble_process.c ****             
 325              		.loc 1 181 0
 326 010a 0020     		movs	r0, #0
 327 010c FFF7FEFF 		bl	GREEN_LED_Pin_Write
 184:..\..\..\PSoC-4-BLE-master\100_Projects_in_100_Days\Day049_BLE_Mesh_Flood\Mesh_Flood\Mesh_Flood_PSoC4BLE.cydsn/ble_process.c ****             #endif
 328              		.loc 1 184 0
 329 0110 B84B     		ldr	r3, .L34+32
 330 0112 5A68     		ldr	r2, [r3, #4]
 331 0114 0023     		movs	r3, #0
 332 0116 9B00     		lsls	r3, r3, #2
 333 0118 D318     		adds	r3, r2, r3
 334 011a 1B68     		ldr	r3, [r3]
ARM GAS  C:\Users\User\AppData\Local\Temp\cc96DgHN.s 			page 17


 335 011c 181C     		adds	r0, r3, #0
 336 011e FFF7FEFF 		bl	SendTemperarureToUart
 189:..\..\..\PSoC-4-BLE-master\100_Projects_in_100_Days\Day049_BLE_Mesh_Flood\Mesh_Flood\Mesh_Flood_PSoC4BLE.cydsn/ble_process.c ****             
 337              		.loc 1 189 0
 338 0122 B64A     		ldr	r2, .L34+40
 339 0124 B648     		ldr	r0, .L34+44
 340 0126 0023     		movs	r3, #0
 341 0128 0021     		movs	r1, #0
 342 012a FFF7FEFF 		bl	CyBle_GattsWriteAttributeValue
 191:..\..\..\PSoC-4-BLE-master\100_Projects_in_100_Days\Day049_BLE_Mesh_Flood\Mesh_Flood\Mesh_Flood_PSoC4BLE.cydsn/ble_process.c **** 					
 343              		.loc 1 191 0
 344 012e B14B     		ldr	r3, .L34+32
 345 0130 5B68     		ldr	r3, [r3, #4]
 346 0132 1800     		movs	r0, r3
 347 0134 FFF7FEFF 		bl	SendTempArrayToUart
 207:..\..\..\PSoC-4-BLE-master\100_Projects_in_100_Days\Day049_BLE_Mesh_Flood\Mesh_Flood\Mesh_Flood_PSoC4BLE.cydsn/ble_process.c ****             
 348              		.loc 1 207 0
 349 0138 A84B     		ldr	r3, .L34+8
 350 013a 0122     		movs	r2, #1
 351 013c 1A70     		strb	r2, [r3]
 210:..\..\..\PSoC-4-BLE-master\100_Projects_in_100_Days\Day049_BLE_Mesh_Flood\Mesh_Flood\Mesh_Flood_PSoC4BLE.cydsn/ble_process.c **** 			UART_UartPutCRLF(' ');
 352              		.loc 1 210 0
 353 013e B14B     		ldr	r3, .L34+48
 354 0140 1800     		movs	r0, r3
 355 0142 FFF7FEFF 		bl	UART_UartPutString
 211:..\..\..\PSoC-4-BLE-master\100_Projects_in_100_Days\Day049_BLE_Mesh_Flood\Mesh_Flood\Mesh_Flood_PSoC4BLE.cydsn/ble_process.c ****             #endif
 356              		.loc 1 211 0
 357 0146 2020     		movs	r0, #32
 358 0148 FFF7FEFF 		bl	UART_UartPutCRLF
 222:..\..\..\PSoC-4-BLE-master\100_Projects_in_100_Days\Day049_BLE_Mesh_Flood\Mesh_Flood\Mesh_Flood_PSoC4BLE.cydsn/ble_process.c **** 		break;
 359              		.loc 1 222 0
 360 014c AB4B     		ldr	r3, .L34+40
 361 014e 1A78     		ldrb	r2, [r3]
 362 0150 5B78     		ldrb	r3, [r3, #1]
 363 0152 1B02     		lsls	r3, r3, #8
 364 0154 1A43     		orrs	r2, r3
 365 0156 0023     		movs	r3, #0
 366 0158 1204     		lsls	r2, r2, #16
 367 015a 120C     		lsrs	r2, r2, #16
 368 015c 1B0C     		lsrs	r3, r3, #16
 369 015e 1B04     		lsls	r3, r3, #16
 370 0160 1343     		orrs	r3, r2
 371 0162 1800     		movs	r0, r3
 372 0164 FFF7FEFF 		bl	CyBle_GattsWriteRsp
 223:..\..\..\PSoC-4-BLE-master\100_Projects_in_100_Days\Day049_BLE_Mesh_Flood\Mesh_Flood\Mesh_Flood_PSoC4BLE.cydsn/ble_process.c **** 			
 373              		.loc 1 223 0
 374 0168 65E1     		b	.L18
 375              	.L15:
 229:..\..\..\PSoC-4-BLE-master\100_Projects_in_100_Days\Day049_BLE_Mesh_Flood\Mesh_Flood\Mesh_Flood_PSoC4BLE.cydsn/ble_process.c **** 			
 376              		.loc 1 229 0
 377 016a 1423     		movs	r3, #20
 378 016c FB18     		adds	r3, r7, r3
 379 016e 3A68     		ldr	r2, [r7]
 380 0170 13CA     		ldmia	r2!, {r0, r1, r4}
 381 0172 13C3     		stmia	r3!, {r0, r1, r4}
 382 0174 1268     		ldr	r2, [r2]
 383 0176 1A60     		str	r2, [r3]
ARM GAS  C:\Users\User\AppData\Local\Temp\cc96DgHN.s 			page 18


 232:..\..\..\PSoC-4-BLE-master\100_Projects_in_100_Days\Day049_BLE_Mesh_Flood\Mesh_Flood\Mesh_Flood_PSoC4BLE.cydsn/ble_process.c **** 			{
 384              		.loc 1 232 0
 385 0178 1423     		movs	r3, #20
 386 017a FB18     		adds	r3, r7, r3
 387 017c 9B89     		ldrh	r3, [r3, #12]
 388 017e 122B     		cmp	r3, #18
 389 0180 00D0     		beq	.LCB203
 390 0182 1FE1     		b	.L29	@long jump
 391              	.LCB203:
 235:..\..\..\PSoC-4-BLE-master\100_Projects_in_100_Days\Day049_BLE_Mesh_Flood\Mesh_Flood\Mesh_Flood_PSoC4BLE.cydsn/ble_process.c **** 				{
 392              		.loc 1 235 0
 393 0184 1423     		movs	r3, #20
 394 0186 FB18     		adds	r3, r7, r3
 395 0188 1B89     		ldrh	r3, [r3, #8]
 396 018a 012B     		cmp	r3, #1
 397 018c 00D0     		beq	.LCB208
 398 018e 19E1     		b	.L29	@long jump
 399              	.LCB208:
 238:..\..\..\PSoC-4-BLE-master\100_Projects_in_100_Days\Day049_BLE_Mesh_Flood\Mesh_Flood\Mesh_Flood_PSoC4BLE.cydsn/ble_process.c **** 					
 400              		.loc 1 238 0
 401 0190 1423     		movs	r3, #20
 402 0192 FB18     		adds	r3, r7, r3
 403 0194 5B68     		ldr	r3, [r3, #4]
 404 0196 1B68     		ldr	r3, [r3]
 405 0198 181C     		adds	r0, r3, #0
 406 019a FFF7FEFF 		bl	__aeabi_f2uiz
 407 019e 0300     		movs	r3, r0
 408 01a0 DAB2     		uxtb	r2, r3
 409 01a2 994B     		ldr	r3, .L34+52
 410 01a4 1A70     		strb	r2, [r3]
 241:..\..\..\PSoC-4-BLE-master\100_Projects_in_100_Days\Day049_BLE_Mesh_Flood\Mesh_Flood\Mesh_Flood_PSoC4BLE.cydsn/ble_process.c **** 					
 411              		.loc 1 241 0
 412 01a6 984B     		ldr	r3, .L34+52
 413 01a8 1B78     		ldrb	r3, [r3]
 414 01aa 013B     		subs	r3, r3, #1
 415 01ac DAB2     		uxtb	r2, r3
 416 01ae 964B     		ldr	r3, .L34+52
 417 01b0 1A70     		strb	r2, [r3]
 245:..\..\..\PSoC-4-BLE-master\100_Projects_in_100_Days\Day049_BLE_Mesh_Flood\Mesh_Flood\Mesh_Flood_PSoC4BLE.cydsn/ble_process.c **** 													0,
 418              		.loc 1 245 0
 419 01b2 924A     		ldr	r2, .L34+40
 420 01b4 1423     		movs	r3, #20
 421 01b6 FB18     		adds	r3, r7, r3
 422 01b8 181D     		adds	r0, r3, #4
 423 01ba 0023     		movs	r3, #0
 424 01bc 0021     		movs	r1, #0
 425 01be FFF7FEFF 		bl	CyBle_GattsWriteAttributeValue
 257:..\..\..\PSoC-4-BLE-master\100_Projects_in_100_Days\Day049_BLE_Mesh_Flood\Mesh_Flood\Mesh_Flood_PSoC4BLE.cydsn/ble_process.c **** 		
 426              		.loc 1 257 0
 427 01c2 FFE0     		b	.L29
 428              	.L8:
 262:..\..\..\PSoC-4-BLE-master\100_Projects_in_100_Days\Day049_BLE_Mesh_Flood\Mesh_Flood\Mesh_Flood_PSoC4BLE.cydsn/ble_process.c **** 			{
 429              		.loc 1 262 0
 430 01c4 844B     		ldr	r3, .L34+4
 431 01c6 1B78     		ldrb	r3, [r3]
 432 01c8 022B     		cmp	r3, #2
 433 01ca 00D1     		bne	.LCB239
ARM GAS  C:\Users\User\AppData\Local\Temp\cc96DgHN.s 			page 19


 434 01cc FCE0     		b	.L30	@long jump
 435              	.LCB239:
 266:..\..\..\PSoC-4-BLE-master\100_Projects_in_100_Days\Day049_BLE_Mesh_Flood\Mesh_Flood\Mesh_Flood_PSoC4BLE.cydsn/ble_process.c ****                 
 436              		.loc 1 266 0
 437 01ce 2423     		movs	r3, #36
 438 01d0 FB18     		adds	r3, r7, r3
 439 01d2 3A68     		ldr	r2, [r7]
 440 01d4 13CA     		ldmia	r2!, {r0, r1, r4}
 441 01d6 13C3     		stmia	r3!, {r0, r1, r4}
 442 01d8 03CA     		ldmia	r2!, {r0, r1}
 443 01da 03C3     		stmia	r3!, {r0, r1}
 269:..\..\..\PSoC-4-BLE-master\100_Projects_in_100_Days\Day049_BLE_Mesh_Flood\Mesh_Flood\Mesh_Flood_PSoC4BLE.cydsn/ble_process.c ****     			UART_UartPutCRLF(' ');
 444              		.loc 1 269 0
 445 01dc 8B4B     		ldr	r3, .L34+56
 446 01de 1800     		movs	r0, r3
 447 01e0 FFF7FEFF 		bl	UART_UartPutString
 270:..\..\..\PSoC-4-BLE-master\100_Projects_in_100_Days\Day049_BLE_Mesh_Flood\Mesh_Flood\Mesh_Flood_PSoC4BLE.cydsn/ble_process.c ****                 #endif
 448              		.loc 1 270 0
 449 01e4 2020     		movs	r0, #32
 450 01e6 FFF7FEFF 		bl	UART_UartPutCRLF
 334:..\..\..\PSoC-4-BLE-master\100_Projects_in_100_Days\Day049_BLE_Mesh_Flood\Mesh_Flood\Mesh_Flood_PSoC4BLE.cydsn/ble_process.c **** 				/* If the received scan data is part of scan response from a peripheral... */
 451              		.loc 1 334 0
 452 01ea 2423     		movs	r3, #36
 453 01ec FB18     		adds	r3, r7, r3
 454 01ee 0422     		movs	r2, #4
 455 01f0 1A70     		strb	r2, [r3]
 336:..\..\..\PSoC-4-BLE-master\100_Projects_in_100_Days\Day049_BLE_Mesh_Flood\Mesh_Flood\Mesh_Flood_PSoC4BLE.cydsn/ble_process.c **** 				{
 456              		.loc 1 336 0
 457 01f2 2423     		movs	r3, #36
 458 01f4 FB18     		adds	r3, r7, r3
 459 01f6 1B78     		ldrb	r3, [r3]
 460 01f8 042B     		cmp	r3, #4
 461 01fa 00D0     		beq	.LCB258
 462 01fc E4E0     		b	.L30	@long jump
 463              	.LCB258:
 346:..\..\..\PSoC-4-BLE-master\100_Projects_in_100_Days\Day049_BLE_Mesh_Flood\Mesh_Flood\Mesh_Flood_PSoC4BLE.cydsn/ble_process.c ****                 			UART_UartPutCRLF(' ');
 464              		.loc 1 346 0
 465 01fe 844B     		ldr	r3, .L34+60
 466 0200 1800     		movs	r0, r3
 467 0202 FFF7FEFF 		bl	UART_UartPutString
 347:..\..\..\PSoC-4-BLE-master\100_Projects_in_100_Days\Day049_BLE_Mesh_Flood\Mesh_Flood\Mesh_Flood_PSoC4BLE.cydsn/ble_process.c ****                             #endif
 468              		.loc 1 347 0
 469 0206 2020     		movs	r0, #32
 470 0208 FFF7FEFF 		bl	UART_UartPutCRLF
 355:..\..\..\PSoC-4-BLE-master\100_Projects_in_100_Days\Day049_BLE_Mesh_Flood\Mesh_Flood\Mesh_Flood_PSoC4BLE.cydsn/ble_process.c **** 							#ifdef DEBUG_ENABLED
 471              		.loc 1 355 0
 472 020c FFF7FEFF 		bl	CyBle_GapcStopScan
 362:..\..\..\PSoC-4-BLE-master\100_Projects_in_100_Days\Day049_BLE_Mesh_Flood\Mesh_Flood\Mesh_Flood_PSoC4BLE.cydsn/ble_process.c **** 							peripAddr.bdAddr[0] = scan_report.peerBdAddr[0];
 473              		.loc 1 362 0
 474 0210 2423     		movs	r3, #36
 475 0212 FB18     		adds	r3, r7, r3
 476 0214 5A78     		ldrb	r2, [r3, #1]
 477 0216 7F4B     		ldr	r3, .L34+64
 478 0218 9A71     		strb	r2, [r3, #6]
 363:..\..\..\PSoC-4-BLE-master\100_Projects_in_100_Days\Day049_BLE_Mesh_Flood\Mesh_Flood\Mesh_Flood_PSoC4BLE.cydsn/ble_process.c **** 							peripAddr.bdAddr[1] = scan_report.peerBdAddr[1];
 479              		.loc 1 363 0
 480 021a 2423     		movs	r3, #36
ARM GAS  C:\Users\User\AppData\Local\Temp\cc96DgHN.s 			page 20


 481 021c FB18     		adds	r3, r7, r3
 482 021e 5B68     		ldr	r3, [r3, #4]
 483 0220 1A78     		ldrb	r2, [r3]
 484 0222 7C4B     		ldr	r3, .L34+64
 485 0224 1A70     		strb	r2, [r3]
 364:..\..\..\PSoC-4-BLE-master\100_Projects_in_100_Days\Day049_BLE_Mesh_Flood\Mesh_Flood\Mesh_Flood_PSoC4BLE.cydsn/ble_process.c **** 							peripAddr.bdAddr[2] = scan_report.peerBdAddr[2];
 486              		.loc 1 364 0
 487 0226 2423     		movs	r3, #36
 488 0228 FB18     		adds	r3, r7, r3
 489 022a 5B68     		ldr	r3, [r3, #4]
 490 022c 5A78     		ldrb	r2, [r3, #1]
 491 022e 794B     		ldr	r3, .L34+64
 492 0230 5A70     		strb	r2, [r3, #1]
 365:..\..\..\PSoC-4-BLE-master\100_Projects_in_100_Days\Day049_BLE_Mesh_Flood\Mesh_Flood\Mesh_Flood_PSoC4BLE.cydsn/ble_process.c ****                             peripAddr.bdAddr[3] = scan_report.peerBdAddr[3];
 493              		.loc 1 365 0
 494 0232 2423     		movs	r3, #36
 495 0234 FB18     		adds	r3, r7, r3
 496 0236 5B68     		ldr	r3, [r3, #4]
 497 0238 9A78     		ldrb	r2, [r3, #2]
 498 023a 764B     		ldr	r3, .L34+64
 499 023c 9A70     		strb	r2, [r3, #2]
 366:..\..\..\PSoC-4-BLE-master\100_Projects_in_100_Days\Day049_BLE_Mesh_Flood\Mesh_Flood\Mesh_Flood_PSoC4BLE.cydsn/ble_process.c **** 							peripAddr.bdAddr[4] = scan_report.peerBdAddr[4];
 500              		.loc 1 366 0
 501 023e 2423     		movs	r3, #36
 502 0240 FB18     		adds	r3, r7, r3
 503 0242 5B68     		ldr	r3, [r3, #4]
 504 0244 DA78     		ldrb	r2, [r3, #3]
 505 0246 734B     		ldr	r3, .L34+64
 506 0248 DA70     		strb	r2, [r3, #3]
 367:..\..\..\PSoC-4-BLE-master\100_Projects_in_100_Days\Day049_BLE_Mesh_Flood\Mesh_Flood\Mesh_Flood_PSoC4BLE.cydsn/ble_process.c **** 							peripAddr.bdAddr[5] = scan_report.peerBdAddr[5];
 507              		.loc 1 367 0
 508 024a 2423     		movs	r3, #36
 509 024c FB18     		adds	r3, r7, r3
 510 024e 5B68     		ldr	r3, [r3, #4]
 511 0250 1A79     		ldrb	r2, [r3, #4]
 512 0252 704B     		ldr	r3, .L34+64
 513 0254 1A71     		strb	r2, [r3, #4]
 368:..\..\..\PSoC-4-BLE-master\100_Projects_in_100_Days\Day049_BLE_Mesh_Flood\Mesh_Flood\Mesh_Flood_PSoC4BLE.cydsn/ble_process.c **** 
 514              		.loc 1 368 0
 515 0256 2423     		movs	r3, #36
 516 0258 FB18     		adds	r3, r7, r3
 517 025a 5B68     		ldr	r3, [r3, #4]
 518 025c 5A79     		ldrb	r2, [r3, #5]
 519 025e 6D4B     		ldr	r3, .L34+64
 520 0260 5A71     		strb	r2, [r3, #5]
 372:..\..\..\PSoC-4-BLE-master\100_Projects_in_100_Days\Day049_BLE_Mesh_Flood\Mesh_Flood\Mesh_Flood_PSoC4BLE.cydsn/ble_process.c **** 						}
 521              		.loc 1 372 0
 522 0262 6D4B     		ldr	r3, .L34+68
 523 0264 0122     		movs	r2, #1
 524 0266 1A70     		strb	r2, [r3]
 379:..\..\..\PSoC-4-BLE-master\100_Projects_in_100_Days\Day049_BLE_Mesh_Flood\Mesh_Flood\Mesh_Flood_PSoC4BLE.cydsn/ble_process.c **** 			
 525              		.loc 1 379 0
 526 0268 AEE0     		b	.L30
 527              	.L9:
 383:..\..\..\PSoC-4-BLE-master\100_Projects_in_100_Days\Day049_BLE_Mesh_Flood\Mesh_Flood\Mesh_Flood_PSoC4BLE.cydsn/ble_process.c **** 			{
 528              		.loc 1 383 0
 529 026a 6C4B     		ldr	r3, .L34+72
ARM GAS  C:\Users\User\AppData\Local\Temp\cc96DgHN.s 			page 21


 530 026c 1B78     		ldrb	r3, [r3]
 531 026e 022B     		cmp	r3, #2
 532 0270 00D0     		beq	.LCB316
 533 0272 ABE0     		b	.L31	@long jump
 534              	.LCB316:
 390:..\..\..\PSoC-4-BLE-master\100_Projects_in_100_Days\Day049_BLE_Mesh_Flood\Mesh_Flood\Mesh_Flood_PSoC4BLE.cydsn/ble_process.c ****                 
 535              		.loc 1 390 0
 536 0274 6A4B     		ldr	r3, .L34+76
 537 0276 0122     		movs	r2, #1
 538 0278 1A70     		strb	r2, [r3]
 393:..\..\..\PSoC-4-BLE-master\100_Projects_in_100_Days\Day049_BLE_Mesh_Flood\Mesh_Flood\Mesh_Flood_PSoC4BLE.cydsn/ble_process.c ****     			UART_UartPutCRLF(' ');
 539              		.loc 1 393 0
 540 027a 5D4B     		ldr	r3, .L34+28
 541 027c 1800     		movs	r0, r3
 542 027e FFF7FEFF 		bl	UART_UartPutString
 394:..\..\..\PSoC-4-BLE-master\100_Projects_in_100_Days\Day049_BLE_Mesh_Flood\Mesh_Flood\Mesh_Flood_PSoC4BLE.cydsn/ble_process.c ****                 #endif
 543              		.loc 1 394 0
 544 0282 2020     		movs	r0, #32
 545 0284 FFF7FEFF 		bl	UART_UartPutCRLF
 398:..\..\..\PSoC-4-BLE-master\100_Projects_in_100_Days\Day049_BLE_Mesh_Flood\Mesh_Flood\Mesh_Flood_PSoC4BLE.cydsn/ble_process.c ****                 
 546              		.loc 1 398 0
 547 0288 5A4B     		ldr	r3, .L34+32
 548 028a 5B68     		ldr	r3, [r3, #4]
 549 028c 1C1D     		adds	r4, r3, #4
 550 028e 5A4B     		ldr	r3, .L34+36
 551 0290 1B78     		ldrb	r3, [r3]
 552 0292 DBB2     		uxtb	r3, r3
 553 0294 1800     		movs	r0, r3
 554 0296 FFF7FEFF 		bl	GetTemperature
 555 029a 031C     		adds	r3, r0, #0
 556 029c 181C     		adds	r0, r3, #0
 557 029e FFF7FEFF 		bl	__aeabi_f2d
 558 02a2 604A     		ldr	r2, .L34+80
 559 02a4 604B     		ldr	r3, .L34+84
 560 02a6 FFF7FEFF 		bl	__aeabi_dsub
 561 02aa 0200     		movs	r2, r0
 562 02ac 0B00     		movs	r3, r1
 563 02ae 1000     		movs	r0, r2
 564 02b0 1900     		movs	r1, r3
 565 02b2 FFF7FEFF 		bl	__aeabi_d2f
 566 02b6 031C     		adds	r3, r0, #0
 567 02b8 2360     		str	r3, [r4]
 401:..\..\..\PSoC-4-BLE-master\100_Projects_in_100_Days\Day049_BLE_Mesh_Flood\Mesh_Flood\Mesh_Flood_PSoC4BLE.cydsn/ble_process.c ****                 #endif
 568              		.loc 1 401 0
 569 02ba 4E4B     		ldr	r3, .L34+32
 570 02bc 5A68     		ldr	r2, [r3, #4]
 571 02be 0023     		movs	r3, #0
 572 02c0 9B00     		lsls	r3, r3, #2
 573 02c2 D318     		adds	r3, r2, r3
 574 02c4 1B68     		ldr	r3, [r3]
 575 02c6 181C     		adds	r0, r3, #0
 576 02c8 FFF7FEFF 		bl	SendTemperarureToUart
 412:..\..\..\PSoC-4-BLE-master\100_Projects_in_100_Days\Day049_BLE_Mesh_Flood\Mesh_Flood\Mesh_Flood_PSoC4BLE.cydsn/ble_process.c ****         		writeADVcounterdata.value.len = 1;
 577              		.loc 1 412 0
 578 02cc 3823     		movs	r3, #56
 579 02ce FB18     		adds	r3, r7, r3
 580 02d0 4D4A     		ldr	r2, .L34+52
ARM GAS  C:\Users\User\AppData\Local\Temp\cc96DgHN.s 			page 22


 581 02d2 1A60     		str	r2, [r3]
 413:..\..\..\PSoC-4-BLE-master\100_Projects_in_100_Days\Day049_BLE_Mesh_Flood\Mesh_Flood\Mesh_Flood_PSoC4BLE.cydsn/ble_process.c ****         		CyBle_GattcWriteWithoutResponse(cyBle_connHandle, &writeADVcounterdata);
 582              		.loc 1 413 0
 583 02d4 3823     		movs	r3, #56
 584 02d6 FB18     		adds	r3, r7, r3
 585 02d8 0122     		movs	r2, #1
 586 02da 9A80     		strh	r2, [r3, #4]
 414:..\..\..\PSoC-4-BLE-master\100_Projects_in_100_Days\Day049_BLE_Mesh_Flood\Mesh_Flood\Mesh_Flood_PSoC4BLE.cydsn/ble_process.c ****         	
 587              		.loc 1 414 0
 588 02dc 3823     		movs	r3, #56
 589 02de F918     		adds	r1, r7, r3
 590 02e0 464B     		ldr	r3, .L34+40
 591 02e2 1A78     		ldrb	r2, [r3]
 592 02e4 5B78     		ldrb	r3, [r3, #1]
 593 02e6 1B02     		lsls	r3, r3, #8
 594 02e8 1A43     		orrs	r2, r3
 595 02ea 0023     		movs	r3, #0
 596 02ec 1204     		lsls	r2, r2, #16
 597 02ee 120C     		lsrs	r2, r2, #16
 598 02f0 1B0C     		lsrs	r3, r3, #16
 599 02f2 1B04     		lsls	r3, r3, #16
 600 02f4 1343     		orrs	r3, r2
 601 02f6 1800     		movs	r0, r3
 602 02f8 FFF7FEFF 		bl	CyBle_GattcWriteWithoutResponse
 417:..\..\..\PSoC-4-BLE-master\100_Projects_in_100_Days\Day049_BLE_Mesh_Flood\Mesh_Flood\Mesh_Flood_PSoC4BLE.cydsn/ble_process.c ****         		writeRGBdata.value.val = TemperatureStorage.handleValPair.value.val;
 603              		.loc 1 417 0
 604 02fc 4423     		movs	r3, #68
 605 02fe FB18     		adds	r3, r7, r3
 606 0300 9A89     		ldrh	r2, [r3, #12]
 607 0302 0823     		movs	r3, #8
 608 0304 FB18     		adds	r3, r7, r3
 609 0306 1A81     		strh	r2, [r3, #8]
 418:..\..\..\PSoC-4-BLE-master\100_Projects_in_100_Days\Day049_BLE_Mesh_Flood\Mesh_Flood\Mesh_Flood_PSoC4BLE.cydsn/ble_process.c ****         		writeRGBdata.value.len = 4;
 610              		.loc 1 418 0
 611 0308 3A4B     		ldr	r3, .L34+32
 612 030a 5A68     		ldr	r2, [r3, #4]
 613 030c 0823     		movs	r3, #8
 614 030e FB18     		adds	r3, r7, r3
 615 0310 1A60     		str	r2, [r3]
 419:..\..\..\PSoC-4-BLE-master\100_Projects_in_100_Days\Day049_BLE_Mesh_Flood\Mesh_Flood\Mesh_Flood_PSoC4BLE.cydsn/ble_process.c ****         		CyBle_GattcWriteCharacteristicValue(cyBle_connHandle, &writeRGBdata);
 616              		.loc 1 419 0
 617 0312 0823     		movs	r3, #8
 618 0314 FB18     		adds	r3, r7, r3
 619 0316 0422     		movs	r2, #4
 620 0318 9A80     		strh	r2, [r3, #4]
 420:..\..\..\PSoC-4-BLE-master\100_Projects_in_100_Days\Day049_BLE_Mesh_Flood\Mesh_Flood\Mesh_Flood_PSoC4BLE.cydsn/ble_process.c ****                 GREEN_LED_Pin_Write(0);
 621              		.loc 1 420 0
 622 031a 0823     		movs	r3, #8
 623 031c F918     		adds	r1, r7, r3
 624 031e 374B     		ldr	r3, .L34+40
 625 0320 1A78     		ldrb	r2, [r3]
 626 0322 5B78     		ldrb	r3, [r3, #1]
 627 0324 1B02     		lsls	r3, r3, #8
 628 0326 1A43     		orrs	r2, r3
 629 0328 0023     		movs	r3, #0
 630 032a 1204     		lsls	r2, r2, #16
 631 032c 120C     		lsrs	r2, r2, #16
ARM GAS  C:\Users\User\AppData\Local\Temp\cc96DgHN.s 			page 23


 632 032e 1B0C     		lsrs	r3, r3, #16
 633 0330 1B04     		lsls	r3, r3, #16
 634 0332 1343     		orrs	r3, r2
 635 0334 1800     		movs	r0, r3
 636 0336 FFF7FEFF 		bl	CyBle_GattcWriteCharacteristicValue
 421:..\..\..\PSoC-4-BLE-master\100_Projects_in_100_Days\Day049_BLE_Mesh_Flood\Mesh_Flood\Mesh_Flood_PSoC4BLE.cydsn/ble_process.c ****                 
 637              		.loc 1 421 0
 638 033a 0020     		movs	r0, #0
 639 033c FFF7FEFF 		bl	GREEN_LED_Pin_Write
 424:..\..\..\PSoC-4-BLE-master\100_Projects_in_100_Days\Day049_BLE_Mesh_Flood\Mesh_Flood\Mesh_Flood_PSoC4BLE.cydsn/ble_process.c ****     			UART_UartPutCRLF(' ');
 640              		.loc 1 424 0
 641 0340 3A4B     		ldr	r3, .L34+88
 642 0342 1800     		movs	r0, r3
 643 0344 FFF7FEFF 		bl	UART_UartPutString
 425:..\..\..\PSoC-4-BLE-master\100_Projects_in_100_Days\Day049_BLE_Mesh_Flood\Mesh_Flood\Mesh_Flood_PSoC4BLE.cydsn/ble_process.c ****                 
 644              		.loc 1 425 0
 645 0348 2020     		movs	r0, #32
 646 034a FFF7FEFF 		bl	UART_UartPutCRLF
 427:..\..\..\PSoC-4-BLE-master\100_Projects_in_100_Days\Day049_BLE_Mesh_Flood\Mesh_Flood\Mesh_Flood_PSoC4BLE.cydsn/ble_process.c ****                 
 647              		.loc 1 427 0
 648 034e 294B     		ldr	r3, .L34+32
 649 0350 5B68     		ldr	r3, [r3, #4]
 650 0352 1800     		movs	r0, r3
 651 0354 FFF7FEFF 		bl	SendTempArrayToUart
 432:..\..\..\PSoC-4-BLE-master\100_Projects_in_100_Days\Day049_BLE_Mesh_Flood\Mesh_Flood\Mesh_Flood_PSoC4BLE.cydsn/ble_process.c **** 			
 652              		.loc 1 432 0
 653 0358 38E0     		b	.L31
 654              	.L16:
 450:..\..\..\PSoC-4-BLE-master\100_Projects_in_100_Days\Day049_BLE_Mesh_Flood\Mesh_Flood\Mesh_Flood_PSoC4BLE.cydsn/ble_process.c **** 			{
 655              		.loc 1 450 0
 656 035a 284B     		ldr	r3, .L34+40
 657 035c 1B78     		ldrb	r3, [r3]
 658 035e 002B     		cmp	r3, #0
 659 0360 36D0     		beq	.L32
 452:..\..\..\PSoC-4-BLE-master\100_Projects_in_100_Days\Day049_BLE_Mesh_Flood\Mesh_Flood\Mesh_Flood_PSoC4BLE.cydsn/ble_process.c **** 				
 660              		.loc 1 452 0
 661 0362 264B     		ldr	r3, .L34+40
 662 0364 1B78     		ldrb	r3, [r3]
 663 0366 1800     		movs	r0, r3
 664 0368 FFF7FEFF 		bl	CyBle_GapDisconnect
 454:..\..\..\PSoC-4-BLE-master\100_Projects_in_100_Days\Day049_BLE_Mesh_Flood\Mesh_Flood\Mesh_Flood_PSoC4BLE.cydsn/ble_process.c **** 				#ifdef DEBUG_ENABLED
 665              		.loc 1 454 0
 666 036c 304B     		ldr	r3, .L34+92
 667 036e 0122     		movs	r2, #1
 668 0370 1A70     		strb	r2, [r3]
 462:..\..\..\PSoC-4-BLE-master\100_Projects_in_100_Days\Day049_BLE_Mesh_Flood\Mesh_Flood\Mesh_Flood_PSoC4BLE.cydsn/ble_process.c **** 
 669              		.loc 1 462 0
 670 0372 2DE0     		b	.L32
 671              	.L10:
 468:..\..\..\PSoC-4-BLE-master\100_Projects_in_100_Days\Day049_BLE_Mesh_Flood\Mesh_Flood\Mesh_Flood_PSoC4BLE.cydsn/ble_process.c **** 			
 672              		.loc 1 468 0
 673 0374 2A4B     		ldr	r3, .L34+76
 674 0376 0022     		movs	r2, #0
 675 0378 1A70     		strb	r2, [r3]
 476:..\..\..\PSoC-4-BLE-master\100_Projects_in_100_Days\Day049_BLE_Mesh_Flood\Mesh_Flood\Mesh_Flood_PSoC4BLE.cydsn/ble_process.c **** 			{
 676              		.loc 1 476 0
 677 037a 284B     		ldr	r3, .L34+72
ARM GAS  C:\Users\User\AppData\Local\Temp\cc96DgHN.s 			page 24


 678 037c 1B78     		ldrb	r3, [r3]
 679 037e 012B     		cmp	r3, #1
 680 0380 0BD1     		bne	.L24
 476:..\..\..\PSoC-4-BLE-master\100_Projects_in_100_Days\Day049_BLE_Mesh_Flood\Mesh_Flood\Mesh_Flood_PSoC4BLE.cydsn/ble_process.c **** 			{
 681              		.loc 1 476 0 is_stmt 0 discriminator 1
 682 0382 164B     		ldr	r3, .L34+8
 683 0384 1B78     		ldrb	r3, [r3]
 684 0386 012B     		cmp	r3, #1
 685 0388 07D0     		beq	.L24
 480:..\..\..\PSoC-4-BLE-master\100_Projects_in_100_Days\Day049_BLE_Mesh_Flood\Mesh_Flood\Mesh_Flood_PSoC4BLE.cydsn/ble_process.c **** 				{
 686              		.loc 1 480 0 is_stmt 1
 687 038a 134B     		ldr	r3, .L34+4
 688 038c 1B78     		ldrb	r3, [r3]
 689 038e 062B     		cmp	r3, #6
 690 0390 13D1     		bne	.L26
 482:..\..\..\PSoC-4-BLE-master\100_Projects_in_100_Days\Day049_BLE_Mesh_Flood\Mesh_Flood\Mesh_Flood_PSoC4BLE.cydsn/ble_process.c **** 					#ifdef DEBUG_ENABLED
 691              		.loc 1 482 0
 692 0392 0020     		movs	r0, #0
 693 0394 FFF7FEFF 		bl	CyBle_GappStartAdvertisement
 480:..\..\..\PSoC-4-BLE-master\100_Projects_in_100_Days\Day049_BLE_Mesh_Flood\Mesh_Flood\Mesh_Flood_PSoC4BLE.cydsn/ble_process.c **** 				{
 694              		.loc 1 480 0
 695 0398 0FE0     		b	.L26
 696              	.L24:
 490:..\..\..\PSoC-4-BLE-master\100_Projects_in_100_Days\Day049_BLE_Mesh_Flood\Mesh_Flood\Mesh_Flood_PSoC4BLE.cydsn/ble_process.c **** 			{
 697              		.loc 1 490 0
 698 039a 204B     		ldr	r3, .L34+72
 699 039c 1B78     		ldrb	r3, [r3]
 700 039e 022B     		cmp	r3, #2
 701 03a0 48D1     		bne	.L33
 490:..\..\..\PSoC-4-BLE-master\100_Projects_in_100_Days\Day049_BLE_Mesh_Flood\Mesh_Flood\Mesh_Flood_PSoC4BLE.cydsn/ble_process.c **** 			{
 702              		.loc 1 490 0 is_stmt 0 discriminator 1
 703 03a2 0E4B     		ldr	r3, .L34+8
 704 03a4 1B78     		ldrb	r3, [r3]
 705 03a6 012B     		cmp	r3, #1
 706 03a8 44D0     		beq	.L33
 494:..\..\..\PSoC-4-BLE-master\100_Projects_in_100_Days\Day049_BLE_Mesh_Flood\Mesh_Flood\Mesh_Flood_PSoC4BLE.cydsn/ble_process.c **** 				{
 707              		.loc 1 494 0 is_stmt 1
 708 03aa 0B4B     		ldr	r3, .L34+4
 709 03ac 1B78     		ldrb	r3, [r3]
 710 03ae 062B     		cmp	r3, #6
 711 03b0 40D1     		bne	.L33
 496:..\..\..\PSoC-4-BLE-master\100_Projects_in_100_Days\Day049_BLE_Mesh_Flood\Mesh_Flood\Mesh_Flood_PSoC4BLE.cydsn/ble_process.c **** 					#ifdef DEBUG_ENABLED
 712              		.loc 1 496 0
 713 03b2 0020     		movs	r0, #0
 714 03b4 FFF7FEFF 		bl	CyBle_GapcStartScan
 505:..\..\..\PSoC-4-BLE-master\100_Projects_in_100_Days\Day049_BLE_Mesh_Flood\Mesh_Flood\Mesh_Flood_PSoC4BLE.cydsn/ble_process.c **** 			
 715              		.loc 1 505 0
 716 03b8 3CE0     		b	.L33
 717              	.L26:
 505:..\..\..\PSoC-4-BLE-master\100_Projects_in_100_Days\Day049_BLE_Mesh_Flood\Mesh_Flood\Mesh_Flood_PSoC4BLE.cydsn/ble_process.c **** 			
 718              		.loc 1 505 0 is_stmt 0 discriminator 7
 719 03ba 3BE0     		b	.L33
 720              	.L27:
 436:..\..\..\PSoC-4-BLE-master\100_Projects_in_100_Days\Day049_BLE_Mesh_Flood\Mesh_Flood\Mesh_Flood_PSoC4BLE.cydsn/ble_process.c **** 			
 721              		.loc 1 436 0 is_stmt 1
 722 03bc C046     		nop
 723 03be 3AE0     		b	.L18
ARM GAS  C:\Users\User\AppData\Local\Temp\cc96DgHN.s 			page 25


 724              	.L28:
 117:..\..\..\PSoC-4-BLE-master\100_Projects_in_100_Days\Day049_BLE_Mesh_Flood\Mesh_Flood\Mesh_Flood_PSoC4BLE.cydsn/ble_process.c **** 			
 725              		.loc 1 117 0
 726 03c0 C046     		nop
 727 03c2 38E0     		b	.L18
 728              	.L29:
 257:..\..\..\PSoC-4-BLE-master\100_Projects_in_100_Days\Day049_BLE_Mesh_Flood\Mesh_Flood\Mesh_Flood_PSoC4BLE.cydsn/ble_process.c **** 		
 729              		.loc 1 257 0
 730 03c4 C046     		nop
 731 03c6 36E0     		b	.L18
 732              	.L30:
 379:..\..\..\PSoC-4-BLE-master\100_Projects_in_100_Days\Day049_BLE_Mesh_Flood\Mesh_Flood\Mesh_Flood_PSoC4BLE.cydsn/ble_process.c **** 			
 733              		.loc 1 379 0
 734 03c8 C046     		nop
 735 03ca 34E0     		b	.L18
 736              	.L31:
 432:..\..\..\PSoC-4-BLE-master\100_Projects_in_100_Days\Day049_BLE_Mesh_Flood\Mesh_Flood\Mesh_Flood_PSoC4BLE.cydsn/ble_process.c **** 			
 737              		.loc 1 432 0
 738 03cc C046     		nop
 739 03ce 32E0     		b	.L18
 740              	.L32:
 462:..\..\..\PSoC-4-BLE-master\100_Projects_in_100_Days\Day049_BLE_Mesh_Flood\Mesh_Flood\Mesh_Flood_PSoC4BLE.cydsn/ble_process.c **** 
 741              		.loc 1 462 0
 742 03d0 C046     		nop
 743 03d2 30E0     		b	.L18
 744              	.L35:
 745              		.align	2
 746              	.L34:
 747 03d4 04000000 		.word	.LC0
 748 03d8 00000000 		.word	cyBle_state
 749 03dc 00000000 		.word	switch_Role
 750 03e0 2C000000 		.word	.LC4
 751 03e4 48000000 		.word	.LC6
 752 03e8 68000000 		.word	.LC8
 753 03ec 80000000 		.word	.LC10
 754 03f0 9C000000 		.word	.LC12
 755 03f4 00000000 		.word	TemperatureStorage
 756 03f8 00000000 		.word	flag_Timer
 757 03fc 00000000 		.word	cyBle_connHandle
 758 0400 04000000 		.word	TemperatureStorage+4
 759 0404 B8000000 		.word	.LC18
 760 0408 00000000 		.word	dataADVCounter
 761 040c D4000000 		.word	.LC21
 762 0410 F0000000 		.word	.LC23
 763 0414 00000000 		.word	peripAddr
 764 0418 00000000 		.word	clientConnectToDevice
 765 041c 00000000 		.word	ble_gap_state
 766 0420 00000000 		.word	deviceConnected
 767 0424 B81E85EB 		.word	-343597384
 768 0428 51B8BE3F 		.word	1069463633
 769 042c 14010000 		.word	.LC29
 770 0430 00000000 		.word	restartScanning
 771              	.L33:
 505:..\..\..\PSoC-4-BLE-master\100_Projects_in_100_Days\Day049_BLE_Mesh_Flood\Mesh_Flood\Mesh_Flood_PSoC4BLE.cydsn/ble_process.c **** 			
 772              		.loc 1 505 0
 773 0434 C046     		nop
 774              	.L18:
ARM GAS  C:\Users\User\AppData\Local\Temp\cc96DgHN.s 			page 26


 510:..\..\..\PSoC-4-BLE-master\100_Projects_in_100_Days\Day049_BLE_Mesh_Flood\Mesh_Flood\Mesh_Flood_PSoC4BLE.cydsn/ble_process.c **** 	}
 511:..\..\..\PSoC-4-BLE-master\100_Projects_in_100_Days\Day049_BLE_Mesh_Flood\Mesh_Flood\Mesh_Flood_PSoC4BLE.cydsn/ble_process.c **** }
 775              		.loc 1 511 0 discriminator 8
 776 0436 C046     		nop
 777 0438 BD46     		mov	sp, r7
 778 043a 17B0     		add	sp, sp, #92
 779              		@ sp needed
 780 043c 90BD     		pop	{r4, r7, pc}
 781              		.cfi_endproc
 782              	.LFE36:
 783              		.size	GenericEventHandler, .-GenericEventHandler
 784 043e C046     		.section	.text.SwitchRole,"ax",%progbits
 785              		.align	2
 786              		.global	SwitchRole
 787              		.code	16
 788              		.thumb_func
 789              		.type	SwitchRole, %function
 790              	SwitchRole:
 791              	.LFB37:
 512:..\..\..\PSoC-4-BLE-master\100_Projects_in_100_Days\Day049_BLE_Mesh_Flood\Mesh_Flood\Mesh_Flood_PSoC4BLE.cydsn/ble_process.c **** 
 513:..\..\..\PSoC-4-BLE-master\100_Projects_in_100_Days\Day049_BLE_Mesh_Flood\Mesh_Flood\Mesh_Flood_PSoC4BLE.cydsn/ble_process.c **** /*******************************************************************************
 514:..\..\..\PSoC-4-BLE-master\100_Projects_in_100_Days\Day049_BLE_Mesh_Flood\Mesh_Flood\Mesh_Flood_PSoC4BLE.cydsn/ble_process.c **** * Function Name: SwitchRole
 515:..\..\..\PSoC-4-BLE-master\100_Projects_in_100_Days\Day049_BLE_Mesh_Flood\Mesh_Flood\Mesh_Flood_PSoC4BLE.cydsn/ble_process.c **** ********************************************************************************
 516:..\..\..\PSoC-4-BLE-master\100_Projects_in_100_Days\Day049_BLE_Mesh_Flood\Mesh_Flood\Mesh_Flood_PSoC4BLE.cydsn/ble_process.c **** * Summary:
 517:..\..\..\PSoC-4-BLE-master\100_Projects_in_100_Days\Day049_BLE_Mesh_Flood\Mesh_Flood\Mesh_Flood_PSoC4BLE.cydsn/ble_process.c **** *        This function switches the role between Central and Peripheral. If device 
 518:..\..\..\PSoC-4-BLE-master\100_Projects_in_100_Days\Day049_BLE_Mesh_Flood\Mesh_Flood\Mesh_Flood_PSoC4BLE.cydsn/ble_process.c **** * is connected while switching role, then it is first disconnected.
 519:..\..\..\PSoC-4-BLE-master\100_Projects_in_100_Days\Day049_BLE_Mesh_Flood\Mesh_Flood\Mesh_Flood_PSoC4BLE.cydsn/ble_process.c **** *
 520:..\..\..\PSoC-4-BLE-master\100_Projects_in_100_Days\Day049_BLE_Mesh_Flood\Mesh_Flood\Mesh_Flood_PSoC4BLE.cydsn/ble_process.c **** * Parameters:
 521:..\..\..\PSoC-4-BLE-master\100_Projects_in_100_Days\Day049_BLE_Mesh_Flood\Mesh_Flood\Mesh_Flood_PSoC4BLE.cydsn/ble_process.c **** *  void
 522:..\..\..\PSoC-4-BLE-master\100_Projects_in_100_Days\Day049_BLE_Mesh_Flood\Mesh_Flood\Mesh_Flood_PSoC4BLE.cydsn/ble_process.c **** *
 523:..\..\..\PSoC-4-BLE-master\100_Projects_in_100_Days\Day049_BLE_Mesh_Flood\Mesh_Flood\Mesh_Flood_PSoC4BLE.cydsn/ble_process.c **** * Return:
 524:..\..\..\PSoC-4-BLE-master\100_Projects_in_100_Days\Day049_BLE_Mesh_Flood\Mesh_Flood\Mesh_Flood_PSoC4BLE.cydsn/ble_process.c **** *  void
 525:..\..\..\PSoC-4-BLE-master\100_Projects_in_100_Days\Day049_BLE_Mesh_Flood\Mesh_Flood\Mesh_Flood_PSoC4BLE.cydsn/ble_process.c **** *
 526:..\..\..\PSoC-4-BLE-master\100_Projects_in_100_Days\Day049_BLE_Mesh_Flood\Mesh_Flood\Mesh_Flood_PSoC4BLE.cydsn/ble_process.c **** *******************************************************************************/
 527:..\..\..\PSoC-4-BLE-master\100_Projects_in_100_Days\Day049_BLE_Mesh_Flood\Mesh_Flood\Mesh_Flood_PSoC4BLE.cydsn/ble_process.c **** void SwitchRole(void)
 528:..\..\..\PSoC-4-BLE-master\100_Projects_in_100_Days\Day049_BLE_Mesh_Flood\Mesh_Flood\Mesh_Flood_PSoC4BLE.cydsn/ble_process.c **** {
 792              		.loc 1 528 0
 793              		.cfi_startproc
 794              		@ args = 0, pretend = 0, frame = 8
 795              		@ frame_needed = 1, uses_anonymous_args = 0
 796 0000 90B5     		push	{r4, r7, lr}
 797              		.cfi_def_cfa_offset 12
 798              		.cfi_offset 4, -12
 799              		.cfi_offset 7, -8
 800              		.cfi_offset 14, -4
 801 0002 83B0     		sub	sp, sp, #12
 802              		.cfi_def_cfa_offset 24
 803 0004 00AF     		add	r7, sp, #0
 804              		.cfi_def_cfa_register 7
 529:..\..\..\PSoC-4-BLE-master\100_Projects_in_100_Days\Day049_BLE_Mesh_Flood\Mesh_Flood\Mesh_Flood_PSoC4BLE.cydsn/ble_process.c **** 	CYBLE_API_RESULT_T  apiResult;
 530:..\..\..\PSoC-4-BLE-master\100_Projects_in_100_Days\Day049_BLE_Mesh_Flood\Mesh_Flood\Mesh_Flood_PSoC4BLE.cydsn/ble_process.c **** 	
 531:..\..\..\PSoC-4-BLE-master\100_Projects_in_100_Days\Day049_BLE_Mesh_Flood\Mesh_Flood\Mesh_Flood_PSoC4BLE.cydsn/ble_process.c **** 	/* if the switch role flag is set... */
 532:..\..\..\PSoC-4-BLE-master\100_Projects_in_100_Days\Day049_BLE_Mesh_Flood\Mesh_Flood\Mesh_Flood_PSoC4BLE.cydsn/ble_process.c **** 	if(switch_Role == TRUE)
 805              		.loc 1 532 0
 806 0006 354B     		ldr	r3, .L49
 807 0008 1B78     		ldrb	r3, [r3]
 808 000a 012B     		cmp	r3, #1
ARM GAS  C:\Users\User\AppData\Local\Temp\cc96DgHN.s 			page 27


 809 000c 61D1     		bne	.L48
 533:..\..\..\PSoC-4-BLE-master\100_Projects_in_100_Days\Day049_BLE_Mesh_Flood\Mesh_Flood\Mesh_Flood_PSoC4BLE.cydsn/ble_process.c **** 	{	
 534:..\..\..\PSoC-4-BLE-master\100_Projects_in_100_Days\Day049_BLE_Mesh_Flood\Mesh_Flood\Mesh_Flood_PSoC4BLE.cydsn/ble_process.c **** 		/* Process pending BLE events */
 535:..\..\..\PSoC-4-BLE-master\100_Projects_in_100_Days\Day049_BLE_Mesh_Flood\Mesh_Flood\Mesh_Flood_PSoC4BLE.cydsn/ble_process.c **** 		CyBle_ProcessEvents();
 810              		.loc 1 535 0
 811 000e FFF7FEFF 		bl	CyBle_ProcessEvents
 536:..\..\..\PSoC-4-BLE-master\100_Projects_in_100_Days\Day049_BLE_Mesh_Flood\Mesh_Flood\Mesh_Flood_PSoC4BLE.cydsn/ble_process.c **** 		
 537:..\..\..\PSoC-4-BLE-master\100_Projects_in_100_Days\Day049_BLE_Mesh_Flood\Mesh_Flood\Mesh_Flood_PSoC4BLE.cydsn/ble_process.c **** 		/* If there is an existing connection, then disconnect before switching
 538:..\..\..\PSoC-4-BLE-master\100_Projects_in_100_Days\Day049_BLE_Mesh_Flood\Mesh_Flood\Mesh_Flood_PSoC4BLE.cydsn/ble_process.c **** 		* role. */
 539:..\..\..\PSoC-4-BLE-master\100_Projects_in_100_Days\Day049_BLE_Mesh_Flood\Mesh_Flood\Mesh_Flood_PSoC4BLE.cydsn/ble_process.c **** 		if((cyBle_connHandle.bdHandle != 0))
 812              		.loc 1 539 0
 813 0012 334B     		ldr	r3, .L49+4
 814 0014 1B78     		ldrb	r3, [r3]
 815 0016 002B     		cmp	r3, #0
 816 0018 06D0     		beq	.L38
 540:..\..\..\PSoC-4-BLE-master\100_Projects_in_100_Days\Day049_BLE_Mesh_Flood\Mesh_Flood\Mesh_Flood_PSoC4BLE.cydsn/ble_process.c **** 		{
 541:..\..\..\PSoC-4-BLE-master\100_Projects_in_100_Days\Day049_BLE_Mesh_Flood\Mesh_Flood\Mesh_Flood_PSoC4BLE.cydsn/ble_process.c **** 			/* Disconnect the device and process the event */
 542:..\..\..\PSoC-4-BLE-master\100_Projects_in_100_Days\Day049_BLE_Mesh_Flood\Mesh_Flood\Mesh_Flood_PSoC4BLE.cydsn/ble_process.c **** 			CyBle_GapDisconnect(cyBle_connHandle.bdHandle);
 817              		.loc 1 542 0
 818 001a 314B     		ldr	r3, .L49+4
 819 001c 1B78     		ldrb	r3, [r3]
 820 001e 1800     		movs	r0, r3
 821 0020 FFF7FEFF 		bl	CyBle_GapDisconnect
 543:..\..\..\PSoC-4-BLE-master\100_Projects_in_100_Days\Day049_BLE_Mesh_Flood\Mesh_Flood\Mesh_Flood_PSoC4BLE.cydsn/ble_process.c **** 			CyBle_ProcessEvents();
 822              		.loc 1 543 0
 823 0024 FFF7FEFF 		bl	CyBle_ProcessEvents
 824              	.L38:
 544:..\..\..\PSoC-4-BLE-master\100_Projects_in_100_Days\Day049_BLE_Mesh_Flood\Mesh_Flood\Mesh_Flood_PSoC4BLE.cydsn/ble_process.c **** 			#ifdef DEBUG_ENABLED
 545:..\..\..\PSoC-4-BLE-master\100_Projects_in_100_Days\Day049_BLE_Mesh_Flood\Mesh_Flood\Mesh_Flood_PSoC4BLE.cydsn/ble_process.c **** 			UART_UartPutString("Peripheral closed connection ");
 546:..\..\..\PSoC-4-BLE-master\100_Projects_in_100_Days\Day049_BLE_Mesh_Flood\Mesh_Flood\Mesh_Flood_PSoC4BLE.cydsn/ble_process.c **** 			SendBLEStatetoUART(CyBle_GetState());
 547:..\..\..\PSoC-4-BLE-master\100_Projects_in_100_Days\Day049_BLE_Mesh_Flood\Mesh_Flood\Mesh_Flood_PSoC4BLE.cydsn/ble_process.c **** 			UART_UartPutCRLF(' ');
 548:..\..\..\PSoC-4-BLE-master\100_Projects_in_100_Days\Day049_BLE_Mesh_Flood\Mesh_Flood\Mesh_Flood_PSoC4BLE.cydsn/ble_process.c **** 			#endif
 549:..\..\..\PSoC-4-BLE-master\100_Projects_in_100_Days\Day049_BLE_Mesh_Flood\Mesh_Flood\Mesh_Flood_PSoC4BLE.cydsn/ble_process.c **** 		}		
 550:..\..\..\PSoC-4-BLE-master\100_Projects_in_100_Days\Day049_BLE_Mesh_Flood\Mesh_Flood\Mesh_Flood_PSoC4BLE.cydsn/ble_process.c **** 		
 551:..\..\..\PSoC-4-BLE-master\100_Projects_in_100_Days\Day049_BLE_Mesh_Flood\Mesh_Flood\Mesh_Flood_PSoC4BLE.cydsn/ble_process.c **** 		switch(ble_gap_state)
 825              		.loc 1 551 0
 826 0028 2E4B     		ldr	r3, .L49+8
 827 002a 1B78     		ldrb	r3, [r3]
 828 002c 012B     		cmp	r3, #1
 829 002e 02D0     		beq	.L40
 830 0030 022B     		cmp	r3, #2
 831 0032 28D0     		beq	.L41
 552:..\..\..\PSoC-4-BLE-master\100_Projects_in_100_Days\Day049_BLE_Mesh_Flood\Mesh_Flood\Mesh_Flood_PSoC4BLE.cydsn/ble_process.c **** 		{
 553:..\..\..\PSoC-4-BLE-master\100_Projects_in_100_Days\Day049_BLE_Mesh_Flood\Mesh_Flood\Mesh_Flood_PSoC4BLE.cydsn/ble_process.c **** 			case BLE_PERIPHERAL:
 554:..\..\..\PSoC-4-BLE-master\100_Projects_in_100_Days\Day049_BLE_Mesh_Flood\Mesh_Flood\Mesh_Flood_PSoC4BLE.cydsn/ble_process.c **** 				/* If the current role is Peripheral and system is advertising,
 555:..\..\..\PSoC-4-BLE-master\100_Projects_in_100_Days\Day049_BLE_Mesh_Flood\Mesh_Flood\Mesh_Flood_PSoC4BLE.cydsn/ble_process.c **** 				* then stop advertisement before switching role */
 556:..\..\..\PSoC-4-BLE-master\100_Projects_in_100_Days\Day049_BLE_Mesh_Flood\Mesh_Flood\Mesh_Flood_PSoC4BLE.cydsn/ble_process.c **** 				if(CyBle_GetState() == CYBLE_STATE_ADVERTISING)
 557:..\..\..\PSoC-4-BLE-master\100_Projects_in_100_Days\Day049_BLE_Mesh_Flood\Mesh_Flood\Mesh_Flood_PSoC4BLE.cydsn/ble_process.c **** 				{
 558:..\..\..\PSoC-4-BLE-master\100_Projects_in_100_Days\Day049_BLE_Mesh_Flood\Mesh_Flood\Mesh_Flood_PSoC4BLE.cydsn/ble_process.c **** 					CyBle_GappStopAdvertisement();
 559:..\..\..\PSoC-4-BLE-master\100_Projects_in_100_Days\Day049_BLE_Mesh_Flood\Mesh_Flood\Mesh_Flood_PSoC4BLE.cydsn/ble_process.c **** 					CyBle_ProcessEvents();
 560:..\..\..\PSoC-4-BLE-master\100_Projects_in_100_Days\Day049_BLE_Mesh_Flood\Mesh_Flood\Mesh_Flood_PSoC4BLE.cydsn/ble_process.c **** 
 561:..\..\..\PSoC-4-BLE-master\100_Projects_in_100_Days\Day049_BLE_Mesh_Flood\Mesh_Flood\Mesh_Flood_PSoC4BLE.cydsn/ble_process.c **** 					#ifdef DEBUG_ENABLED
 562:..\..\..\PSoC-4-BLE-master\100_Projects_in_100_Days\Day049_BLE_Mesh_Flood\Mesh_Flood\Mesh_Flood_PSoC4BLE.cydsn/ble_process.c **** 						UART_UartPutString("Peripheral Advertisment Stopped ");
 563:..\..\..\PSoC-4-BLE-master\100_Projects_in_100_Days\Day049_BLE_Mesh_Flood\Mesh_Flood\Mesh_Flood_PSoC4BLE.cydsn/ble_process.c **** 						SendBLEStatetoUART(CyBle_GetState());
 564:..\..\..\PSoC-4-BLE-master\100_Projects_in_100_Days\Day049_BLE_Mesh_Flood\Mesh_Flood\Mesh_Flood_PSoC4BLE.cydsn/ble_process.c **** 						UART_UartPutCRLF(' ');
 565:..\..\..\PSoC-4-BLE-master\100_Projects_in_100_Days\Day049_BLE_Mesh_Flood\Mesh_Flood\Mesh_Flood_PSoC4BLE.cydsn/ble_process.c **** 					#endif
 566:..\..\..\PSoC-4-BLE-master\100_Projects_in_100_Days\Day049_BLE_Mesh_Flood\Mesh_Flood\Mesh_Flood_PSoC4BLE.cydsn/ble_process.c **** 				}
ARM GAS  C:\Users\User\AppData\Local\Temp\cc96DgHN.s 			page 28


 567:..\..\..\PSoC-4-BLE-master\100_Projects_in_100_Days\Day049_BLE_Mesh_Flood\Mesh_Flood\Mesh_Flood_PSoC4BLE.cydsn/ble_process.c **** 				
 568:..\..\..\PSoC-4-BLE-master\100_Projects_in_100_Days\Day049_BLE_Mesh_Flood\Mesh_Flood\Mesh_Flood_PSoC4BLE.cydsn/ble_process.c **** 				if(CyBle_GetState() == CYBLE_STATE_DISCONNECTED)
 569:..\..\..\PSoC-4-BLE-master\100_Projects_in_100_Days\Day049_BLE_Mesh_Flood\Mesh_Flood\Mesh_Flood_PSoC4BLE.cydsn/ble_process.c **** 				{
 570:..\..\..\PSoC-4-BLE-master\100_Projects_in_100_Days\Day049_BLE_Mesh_Flood\Mesh_Flood\Mesh_Flood_PSoC4BLE.cydsn/ble_process.c **** 					/* Switch BLE role by starting scan. This way, the system is set
 571:..\..\..\PSoC-4-BLE-master\100_Projects_in_100_Days\Day049_BLE_Mesh_Flood\Mesh_Flood\Mesh_Flood_PSoC4BLE.cydsn/ble_process.c **** 					* to Central role */
 572:..\..\..\PSoC-4-BLE-master\100_Projects_in_100_Days\Day049_BLE_Mesh_Flood\Mesh_Flood\Mesh_Flood_PSoC4BLE.cydsn/ble_process.c **** 					apiResult = CyBle_GapcStartScan(CYBLE_SCANNING_FAST);
 573:..\..\..\PSoC-4-BLE-master\100_Projects_in_100_Days\Day049_BLE_Mesh_Flood\Mesh_Flood\Mesh_Flood_PSoC4BLE.cydsn/ble_process.c **** 					
 574:..\..\..\PSoC-4-BLE-master\100_Projects_in_100_Days\Day049_BLE_Mesh_Flood\Mesh_Flood\Mesh_Flood_PSoC4BLE.cydsn/ble_process.c **** 					if(CYBLE_ERROR_OK == apiResult)
 575:..\..\..\PSoC-4-BLE-master\100_Projects_in_100_Days\Day049_BLE_Mesh_Flood\Mesh_Flood\Mesh_Flood_PSoC4BLE.cydsn/ble_process.c **** 					{
 576:..\..\..\PSoC-4-BLE-master\100_Projects_in_100_Days\Day049_BLE_Mesh_Flood\Mesh_Flood\Mesh_Flood_PSoC4BLE.cydsn/ble_process.c **** 						#ifdef DEBUG_ENABLED
 577:..\..\..\PSoC-4-BLE-master\100_Projects_in_100_Days\Day049_BLE_Mesh_Flood\Mesh_Flood\Mesh_Flood_PSoC4BLE.cydsn/ble_process.c **** 						UART_UartPutString("Start Scan API called ");
 578:..\..\..\PSoC-4-BLE-master\100_Projects_in_100_Days\Day049_BLE_Mesh_Flood\Mesh_Flood\Mesh_Flood_PSoC4BLE.cydsn/ble_process.c **** 						SendBLEStatetoUART(CyBle_GetState());
 579:..\..\..\PSoC-4-BLE-master\100_Projects_in_100_Days\Day049_BLE_Mesh_Flood\Mesh_Flood\Mesh_Flood_PSoC4BLE.cydsn/ble_process.c **** 						UART_UartPutCRLF(' ');
 580:..\..\..\PSoC-4-BLE-master\100_Projects_in_100_Days\Day049_BLE_Mesh_Flood\Mesh_Flood\Mesh_Flood_PSoC4BLE.cydsn/ble_process.c **** 						#endif
 581:..\..\..\PSoC-4-BLE-master\100_Projects_in_100_Days\Day049_BLE_Mesh_Flood\Mesh_Flood\Mesh_Flood_PSoC4BLE.cydsn/ble_process.c **** 						
 582:..\..\..\PSoC-4-BLE-master\100_Projects_in_100_Days\Day049_BLE_Mesh_Flood\Mesh_Flood\Mesh_Flood_PSoC4BLE.cydsn/ble_process.c **** 						/* Record the time at which Central role was started. This will be 
 583:..\..\..\PSoC-4-BLE-master\100_Projects_in_100_Days\Day049_BLE_Mesh_Flood\Mesh_Flood\Mesh_Flood_PSoC4BLE.cydsn/ble_process.c **** 						* used for timeout and switching to Peripheral operation*/
 584:..\..\..\PSoC-4-BLE-master\100_Projects_in_100_Days\Day049_BLE_Mesh_Flood\Mesh_Flood\Mesh_Flood_PSoC4BLE.cydsn/ble_process.c **** 						centralStartedTime = WatchDog_CurrentCount();
 585:..\..\..\PSoC-4-BLE-master\100_Projects_in_100_Days\Day049_BLE_Mesh_Flood\Mesh_Flood\Mesh_Flood_PSoC4BLE.cydsn/ble_process.c **** 						
 586:..\..\..\PSoC-4-BLE-master\100_Projects_in_100_Days\Day049_BLE_Mesh_Flood\Mesh_Flood\Mesh_Flood_PSoC4BLE.cydsn/ble_process.c **** 						/* Update the current BLE role to Central */
 587:..\..\..\PSoC-4-BLE-master\100_Projects_in_100_Days\Day049_BLE_Mesh_Flood\Mesh_Flood\Mesh_Flood_PSoC4BLE.cydsn/ble_process.c **** 						ble_gap_state = BLE_CENTRAL;
 588:..\..\..\PSoC-4-BLE-master\100_Projects_in_100_Days\Day049_BLE_Mesh_Flood\Mesh_Flood\Mesh_Flood_PSoC4BLE.cydsn/ble_process.c **** 						
 589:..\..\..\PSoC-4-BLE-master\100_Projects_in_100_Days\Day049_BLE_Mesh_Flood\Mesh_Flood\Mesh_Flood_PSoC4BLE.cydsn/ble_process.c **** 						/* Reset the switch role flag*/
 590:..\..\..\PSoC-4-BLE-master\100_Projects_in_100_Days\Day049_BLE_Mesh_Flood\Mesh_Flood\Mesh_Flood_PSoC4BLE.cydsn/ble_process.c **** 						switch_Role = FALSE;
 591:..\..\..\PSoC-4-BLE-master\100_Projects_in_100_Days\Day049_BLE_Mesh_Flood\Mesh_Flood\Mesh_Flood_PSoC4BLE.cydsn/ble_process.c **** 					}
 592:..\..\..\PSoC-4-BLE-master\100_Projects_in_100_Days\Day049_BLE_Mesh_Flood\Mesh_Flood\Mesh_Flood_PSoC4BLE.cydsn/ble_process.c **** 					else
 593:..\..\..\PSoC-4-BLE-master\100_Projects_in_100_Days\Day049_BLE_Mesh_Flood\Mesh_Flood\Mesh_Flood_PSoC4BLE.cydsn/ble_process.c **** 					{
 594:..\..\..\PSoC-4-BLE-master\100_Projects_in_100_Days\Day049_BLE_Mesh_Flood\Mesh_Flood\Mesh_Flood_PSoC4BLE.cydsn/ble_process.c **** 						/* If scanning did not start, maintain the current role and retry later */
 595:..\..\..\PSoC-4-BLE-master\100_Projects_in_100_Days\Day049_BLE_Mesh_Flood\Mesh_Flood\Mesh_Flood_PSoC4BLE.cydsn/ble_process.c **** 						ble_gap_state = BLE_PERIPHERAL;
 596:..\..\..\PSoC-4-BLE-master\100_Projects_in_100_Days\Day049_BLE_Mesh_Flood\Mesh_Flood\Mesh_Flood_PSoC4BLE.cydsn/ble_process.c **** 						
 597:..\..\..\PSoC-4-BLE-master\100_Projects_in_100_Days\Day049_BLE_Mesh_Flood\Mesh_Flood\Mesh_Flood_PSoC4BLE.cydsn/ble_process.c **** 						#ifdef DEBUG_ENABLED
 598:..\..\..\PSoC-4-BLE-master\100_Projects_in_100_Days\Day049_BLE_Mesh_Flood\Mesh_Flood\Mesh_Flood_PSoC4BLE.cydsn/ble_process.c **** 						UART_UartPutString("Start Scan API failed ");
 599:..\..\..\PSoC-4-BLE-master\100_Projects_in_100_Days\Day049_BLE_Mesh_Flood\Mesh_Flood\Mesh_Flood_PSoC4BLE.cydsn/ble_process.c **** 						SendBLEStatetoUART(CyBle_GetState());
 600:..\..\..\PSoC-4-BLE-master\100_Projects_in_100_Days\Day049_BLE_Mesh_Flood\Mesh_Flood\Mesh_Flood_PSoC4BLE.cydsn/ble_process.c **** 						UART_UartPutCRLF(' ');
 601:..\..\..\PSoC-4-BLE-master\100_Projects_in_100_Days\Day049_BLE_Mesh_Flood\Mesh_Flood\Mesh_Flood_PSoC4BLE.cydsn/ble_process.c **** 						#endif
 602:..\..\..\PSoC-4-BLE-master\100_Projects_in_100_Days\Day049_BLE_Mesh_Flood\Mesh_Flood\Mesh_Flood_PSoC4BLE.cydsn/ble_process.c **** 					}
 603:..\..\..\PSoC-4-BLE-master\100_Projects_in_100_Days\Day049_BLE_Mesh_Flood\Mesh_Flood\Mesh_Flood_PSoC4BLE.cydsn/ble_process.c **** 				}
 604:..\..\..\PSoC-4-BLE-master\100_Projects_in_100_Days\Day049_BLE_Mesh_Flood\Mesh_Flood\Mesh_Flood_PSoC4BLE.cydsn/ble_process.c **** 				
 605:..\..\..\PSoC-4-BLE-master\100_Projects_in_100_Days\Day049_BLE_Mesh_Flood\Mesh_Flood\Mesh_Flood_PSoC4BLE.cydsn/ble_process.c **** 				/* Process Pending BLE Events */
 606:..\..\..\PSoC-4-BLE-master\100_Projects_in_100_Days\Day049_BLE_Mesh_Flood\Mesh_Flood\Mesh_Flood_PSoC4BLE.cydsn/ble_process.c **** 				CyBle_ProcessEvents();
 607:..\..\..\PSoC-4-BLE-master\100_Projects_in_100_Days\Day049_BLE_Mesh_Flood\Mesh_Flood\Mesh_Flood_PSoC4BLE.cydsn/ble_process.c **** 				
 608:..\..\..\PSoC-4-BLE-master\100_Projects_in_100_Days\Day049_BLE_Mesh_Flood\Mesh_Flood\Mesh_Flood_PSoC4BLE.cydsn/ble_process.c **** 			break;
 609:..\..\..\PSoC-4-BLE-master\100_Projects_in_100_Days\Day049_BLE_Mesh_Flood\Mesh_Flood\Mesh_Flood_PSoC4BLE.cydsn/ble_process.c **** 			
 610:..\..\..\PSoC-4-BLE-master\100_Projects_in_100_Days\Day049_BLE_Mesh_Flood\Mesh_Flood\Mesh_Flood_PSoC4BLE.cydsn/ble_process.c **** 			case BLE_CENTRAL:
 611:..\..\..\PSoC-4-BLE-master\100_Projects_in_100_Days\Day049_BLE_Mesh_Flood\Mesh_Flood\Mesh_Flood_PSoC4BLE.cydsn/ble_process.c **** 				/* If the current role is Central and system is scanning,
 612:..\..\..\PSoC-4-BLE-master\100_Projects_in_100_Days\Day049_BLE_Mesh_Flood\Mesh_Flood\Mesh_Flood_PSoC4BLE.cydsn/ble_process.c **** 				* then stop scanning before switching role */
 613:..\..\..\PSoC-4-BLE-master\100_Projects_in_100_Days\Day049_BLE_Mesh_Flood\Mesh_Flood\Mesh_Flood_PSoC4BLE.cydsn/ble_process.c **** 				if(CyBle_GetState() == CYBLE_STATE_SCANNING)
 614:..\..\..\PSoC-4-BLE-master\100_Projects_in_100_Days\Day049_BLE_Mesh_Flood\Mesh_Flood\Mesh_Flood_PSoC4BLE.cydsn/ble_process.c **** 				{
 615:..\..\..\PSoC-4-BLE-master\100_Projects_in_100_Days\Day049_BLE_Mesh_Flood\Mesh_Flood\Mesh_Flood_PSoC4BLE.cydsn/ble_process.c **** 					CyBle_GapcStopScan();
 616:..\..\..\PSoC-4-BLE-master\100_Projects_in_100_Days\Day049_BLE_Mesh_Flood\Mesh_Flood\Mesh_Flood_PSoC4BLE.cydsn/ble_process.c **** 					CyBle_ProcessEvents();
 617:..\..\..\PSoC-4-BLE-master\100_Projects_in_100_Days\Day049_BLE_Mesh_Flood\Mesh_Flood\Mesh_Flood_PSoC4BLE.cydsn/ble_process.c **** 					
 618:..\..\..\PSoC-4-BLE-master\100_Projects_in_100_Days\Day049_BLE_Mesh_Flood\Mesh_Flood\Mesh_Flood_PSoC4BLE.cydsn/ble_process.c **** 					#ifdef DEBUG_ENABLED
 619:..\..\..\PSoC-4-BLE-master\100_Projects_in_100_Days\Day049_BLE_Mesh_Flood\Mesh_Flood\Mesh_Flood_PSoC4BLE.cydsn/ble_process.c **** 						UART_UartPutString("Central Scan stopped ");
 620:..\..\..\PSoC-4-BLE-master\100_Projects_in_100_Days\Day049_BLE_Mesh_Flood\Mesh_Flood\Mesh_Flood_PSoC4BLE.cydsn/ble_process.c **** 						UART_UartPutCRLF(' ');
 621:..\..\..\PSoC-4-BLE-master\100_Projects_in_100_Days\Day049_BLE_Mesh_Flood\Mesh_Flood\Mesh_Flood_PSoC4BLE.cydsn/ble_process.c **** 					#endif
 622:..\..\..\PSoC-4-BLE-master\100_Projects_in_100_Days\Day049_BLE_Mesh_Flood\Mesh_Flood\Mesh_Flood_PSoC4BLE.cydsn/ble_process.c **** 				}
 623:..\..\..\PSoC-4-BLE-master\100_Projects_in_100_Days\Day049_BLE_Mesh_Flood\Mesh_Flood\Mesh_Flood_PSoC4BLE.cydsn/ble_process.c **** 				
ARM GAS  C:\Users\User\AppData\Local\Temp\cc96DgHN.s 			page 29


 624:..\..\..\PSoC-4-BLE-master\100_Projects_in_100_Days\Day049_BLE_Mesh_Flood\Mesh_Flood\Mesh_Flood_PSoC4BLE.cydsn/ble_process.c **** 				if(CyBle_GetState() == CYBLE_STATE_DISCONNECTED)
 625:..\..\..\PSoC-4-BLE-master\100_Projects_in_100_Days\Day049_BLE_Mesh_Flood\Mesh_Flood\Mesh_Flood_PSoC4BLE.cydsn/ble_process.c **** 				{
 626:..\..\..\PSoC-4-BLE-master\100_Projects_in_100_Days\Day049_BLE_Mesh_Flood\Mesh_Flood\Mesh_Flood_PSoC4BLE.cydsn/ble_process.c **** 					#ifdef ENABLE_ADV_DATA_COUNTER
 627:..\..\..\PSoC-4-BLE-master\100_Projects_in_100_Days\Day049_BLE_Mesh_Flood\Mesh_Flood\Mesh_Flood_PSoC4BLE.cydsn/ble_process.c **** 					/* Increment data counter */
 628:..\..\..\PSoC-4-BLE-master\100_Projects_in_100_Days\Day049_BLE_Mesh_Flood\Mesh_Flood\Mesh_Flood_PSoC4BLE.cydsn/ble_process.c **** 					new_advData.advData[new_advData.advDataLen - 1] = dataADVCounter;
 629:..\..\..\PSoC-4-BLE-master\100_Projects_in_100_Days\Day049_BLE_Mesh_Flood\Mesh_Flood\Mesh_Flood_PSoC4BLE.cydsn/ble_process.c **** 					
 630:..\..\..\PSoC-4-BLE-master\100_Projects_in_100_Days\Day049_BLE_Mesh_Flood\Mesh_Flood\Mesh_Flood_PSoC4BLE.cydsn/ble_process.c **** 					cyBle_discoveryModeInfo.advData = &new_advData;
 631:..\..\..\PSoC-4-BLE-master\100_Projects_in_100_Days\Day049_BLE_Mesh_Flood\Mesh_Flood\Mesh_Flood_PSoC4BLE.cydsn/ble_process.c **** 					
 632:..\..\..\PSoC-4-BLE-master\100_Projects_in_100_Days\Day049_BLE_Mesh_Flood\Mesh_Flood\Mesh_Flood_PSoC4BLE.cydsn/ble_process.c **** 					#ifdef DEBUG_ENABLED
 633:..\..\..\PSoC-4-BLE-master\100_Projects_in_100_Days\Day049_BLE_Mesh_Flood\Mesh_Flood\Mesh_Flood_PSoC4BLE.cydsn/ble_process.c **** 						UART_UartPutString("Updated ADV data = ");
 634:..\..\..\PSoC-4-BLE-master\100_Projects_in_100_Days\Day049_BLE_Mesh_Flood\Mesh_Flood\Mesh_Flood_PSoC4BLE.cydsn/ble_process.c **** 						PrintNum(dataADVCounter);
 635:..\..\..\PSoC-4-BLE-master\100_Projects_in_100_Days\Day049_BLE_Mesh_Flood\Mesh_Flood\Mesh_Flood_PSoC4BLE.cydsn/ble_process.c **** 						UART_UartPutCRLF(' ');
 636:..\..\..\PSoC-4-BLE-master\100_Projects_in_100_Days\Day049_BLE_Mesh_Flood\Mesh_Flood\Mesh_Flood_PSoC4BLE.cydsn/ble_process.c **** 					#endif
 637:..\..\..\PSoC-4-BLE-master\100_Projects_in_100_Days\Day049_BLE_Mesh_Flood\Mesh_Flood\Mesh_Flood_PSoC4BLE.cydsn/ble_process.c **** 					#endif
 638:..\..\..\PSoC-4-BLE-master\100_Projects_in_100_Days\Day049_BLE_Mesh_Flood\Mesh_Flood\Mesh_Flood_PSoC4BLE.cydsn/ble_process.c **** 					
 639:..\..\..\PSoC-4-BLE-master\100_Projects_in_100_Days\Day049_BLE_Mesh_Flood\Mesh_Flood\Mesh_Flood_PSoC4BLE.cydsn/ble_process.c **** 					/* Switch BLE role by starting advertisement. This way, the system is 
 640:..\..\..\PSoC-4-BLE-master\100_Projects_in_100_Days\Day049_BLE_Mesh_Flood\Mesh_Flood\Mesh_Flood_PSoC4BLE.cydsn/ble_process.c **** 					* set to Peripheral role */
 641:..\..\..\PSoC-4-BLE-master\100_Projects_in_100_Days\Day049_BLE_Mesh_Flood\Mesh_Flood\Mesh_Flood_PSoC4BLE.cydsn/ble_process.c **** 					apiResult = CyBle_GappStartAdvertisement(CYBLE_ADVERTISING_FAST);
 642:..\..\..\PSoC-4-BLE-master\100_Projects_in_100_Days\Day049_BLE_Mesh_Flood\Mesh_Flood\Mesh_Flood_PSoC4BLE.cydsn/ble_process.c **** 					
 643:..\..\..\PSoC-4-BLE-master\100_Projects_in_100_Days\Day049_BLE_Mesh_Flood\Mesh_Flood\Mesh_Flood_PSoC4BLE.cydsn/ble_process.c **** 					if(apiResult == CYBLE_ERROR_OK)
 644:..\..\..\PSoC-4-BLE-master\100_Projects_in_100_Days\Day049_BLE_Mesh_Flood\Mesh_Flood\Mesh_Flood_PSoC4BLE.cydsn/ble_process.c **** 					{
 645:..\..\..\PSoC-4-BLE-master\100_Projects_in_100_Days\Day049_BLE_Mesh_Flood\Mesh_Flood\Mesh_Flood_PSoC4BLE.cydsn/ble_process.c **** 						/* If advertisement started successfully, set the BLE state and
 646:..\..\..\PSoC-4-BLE-master\100_Projects_in_100_Days\Day049_BLE_Mesh_Flood\Mesh_Flood\Mesh_Flood_PSoC4BLE.cydsn/ble_process.c **** 						* reset the switch role flag*/
 647:..\..\..\PSoC-4-BLE-master\100_Projects_in_100_Days\Day049_BLE_Mesh_Flood\Mesh_Flood\Mesh_Flood_PSoC4BLE.cydsn/ble_process.c **** 						ble_gap_state = BLE_PERIPHERAL;
 648:..\..\..\PSoC-4-BLE-master\100_Projects_in_100_Days\Day049_BLE_Mesh_Flood\Mesh_Flood\Mesh_Flood_PSoC4BLE.cydsn/ble_process.c **** 						clientConnectToDevice = FALSE;	
 649:..\..\..\PSoC-4-BLE-master\100_Projects_in_100_Days\Day049_BLE_Mesh_Flood\Mesh_Flood\Mesh_Flood_PSoC4BLE.cydsn/ble_process.c **** 						switch_Role = FALSE;
 650:..\..\..\PSoC-4-BLE-master\100_Projects_in_100_Days\Day049_BLE_Mesh_Flood\Mesh_Flood\Mesh_Flood_PSoC4BLE.cydsn/ble_process.c **** 						
 651:..\..\..\PSoC-4-BLE-master\100_Projects_in_100_Days\Day049_BLE_Mesh_Flood\Mesh_Flood\Mesh_Flood_PSoC4BLE.cydsn/ble_process.c **** 						#ifdef DEBUG_ENABLED
 652:..\..\..\PSoC-4-BLE-master\100_Projects_in_100_Days\Day049_BLE_Mesh_Flood\Mesh_Flood\Mesh_Flood_PSoC4BLE.cydsn/ble_process.c **** 						UART_UartPutString("Peripheral Advertisment called ");
 653:..\..\..\PSoC-4-BLE-master\100_Projects_in_100_Days\Day049_BLE_Mesh_Flood\Mesh_Flood\Mesh_Flood_PSoC4BLE.cydsn/ble_process.c **** 						SendBLEStatetoUART(CyBle_GetState());
 654:..\..\..\PSoC-4-BLE-master\100_Projects_in_100_Days\Day049_BLE_Mesh_Flood\Mesh_Flood\Mesh_Flood_PSoC4BLE.cydsn/ble_process.c **** 						UART_UartPutCRLF(' ');
 655:..\..\..\PSoC-4-BLE-master\100_Projects_in_100_Days\Day049_BLE_Mesh_Flood\Mesh_Flood\Mesh_Flood_PSoC4BLE.cydsn/ble_process.c **** 						#endif
 656:..\..\..\PSoC-4-BLE-master\100_Projects_in_100_Days\Day049_BLE_Mesh_Flood\Mesh_Flood\Mesh_Flood_PSoC4BLE.cydsn/ble_process.c **** 					}
 657:..\..\..\PSoC-4-BLE-master\100_Projects_in_100_Days\Day049_BLE_Mesh_Flood\Mesh_Flood\Mesh_Flood_PSoC4BLE.cydsn/ble_process.c **** 					else
 658:..\..\..\PSoC-4-BLE-master\100_Projects_in_100_Days\Day049_BLE_Mesh_Flood\Mesh_Flood\Mesh_Flood_PSoC4BLE.cydsn/ble_process.c **** 					{
 659:..\..\..\PSoC-4-BLE-master\100_Projects_in_100_Days\Day049_BLE_Mesh_Flood\Mesh_Flood\Mesh_Flood_PSoC4BLE.cydsn/ble_process.c **** 						/* If advertisement did not start, maintain the current role and retry later */
 660:..\..\..\PSoC-4-BLE-master\100_Projects_in_100_Days\Day049_BLE_Mesh_Flood\Mesh_Flood\Mesh_Flood_PSoC4BLE.cydsn/ble_process.c **** 						ble_gap_state = BLE_CENTRAL;
 661:..\..\..\PSoC-4-BLE-master\100_Projects_in_100_Days\Day049_BLE_Mesh_Flood\Mesh_Flood\Mesh_Flood_PSoC4BLE.cydsn/ble_process.c **** 						
 662:..\..\..\PSoC-4-BLE-master\100_Projects_in_100_Days\Day049_BLE_Mesh_Flood\Mesh_Flood\Mesh_Flood_PSoC4BLE.cydsn/ble_process.c **** 						#ifdef DEBUG_ENABLED
 663:..\..\..\PSoC-4-BLE-master\100_Projects_in_100_Days\Day049_BLE_Mesh_Flood\Mesh_Flood\Mesh_Flood_PSoC4BLE.cydsn/ble_process.c **** 						UART_UartPutString("Start Peripheral Advertisment Failed ");
 664:..\..\..\PSoC-4-BLE-master\100_Projects_in_100_Days\Day049_BLE_Mesh_Flood\Mesh_Flood\Mesh_Flood_PSoC4BLE.cydsn/ble_process.c **** 						SendBLEStatetoUART(CyBle_GetState());
 665:..\..\..\PSoC-4-BLE-master\100_Projects_in_100_Days\Day049_BLE_Mesh_Flood\Mesh_Flood\Mesh_Flood_PSoC4BLE.cydsn/ble_process.c **** 						UART_UartPutCRLF(' ');
 666:..\..\..\PSoC-4-BLE-master\100_Projects_in_100_Days\Day049_BLE_Mesh_Flood\Mesh_Flood\Mesh_Flood_PSoC4BLE.cydsn/ble_process.c **** 						#endif					
 667:..\..\..\PSoC-4-BLE-master\100_Projects_in_100_Days\Day049_BLE_Mesh_Flood\Mesh_Flood\Mesh_Flood_PSoC4BLE.cydsn/ble_process.c **** 					}
 668:..\..\..\PSoC-4-BLE-master\100_Projects_in_100_Days\Day049_BLE_Mesh_Flood\Mesh_Flood\Mesh_Flood_PSoC4BLE.cydsn/ble_process.c **** 				}
 669:..\..\..\PSoC-4-BLE-master\100_Projects_in_100_Days\Day049_BLE_Mesh_Flood\Mesh_Flood\Mesh_Flood_PSoC4BLE.cydsn/ble_process.c **** 				
 670:..\..\..\PSoC-4-BLE-master\100_Projects_in_100_Days\Day049_BLE_Mesh_Flood\Mesh_Flood\Mesh_Flood_PSoC4BLE.cydsn/ble_process.c **** 				/* Process Pending BLE Events */
 671:..\..\..\PSoC-4-BLE-master\100_Projects_in_100_Days\Day049_BLE_Mesh_Flood\Mesh_Flood\Mesh_Flood_PSoC4BLE.cydsn/ble_process.c **** 				CyBle_ProcessEvents();
 672:..\..\..\PSoC-4-BLE-master\100_Projects_in_100_Days\Day049_BLE_Mesh_Flood\Mesh_Flood\Mesh_Flood_PSoC4BLE.cydsn/ble_process.c **** 			break;
 673:..\..\..\PSoC-4-BLE-master\100_Projects_in_100_Days\Day049_BLE_Mesh_Flood\Mesh_Flood\Mesh_Flood_PSoC4BLE.cydsn/ble_process.c **** 			
 674:..\..\..\PSoC-4-BLE-master\100_Projects_in_100_Days\Day049_BLE_Mesh_Flood\Mesh_Flood\Mesh_Flood_PSoC4BLE.cydsn/ble_process.c **** 			default:
 675:..\..\..\PSoC-4-BLE-master\100_Projects_in_100_Days\Day049_BLE_Mesh_Flood\Mesh_Flood\Mesh_Flood_PSoC4BLE.cydsn/ble_process.c **** 			
 676:..\..\..\PSoC-4-BLE-master\100_Projects_in_100_Days\Day049_BLE_Mesh_Flood\Mesh_Flood\Mesh_Flood_PSoC4BLE.cydsn/ble_process.c **** 			break;
 832              		.loc 1 676 0
 833 0034 4DE0     		b	.L37
 834              	.L40:
 556:..\..\..\PSoC-4-BLE-master\100_Projects_in_100_Days\Day049_BLE_Mesh_Flood\Mesh_Flood\Mesh_Flood_PSoC4BLE.cydsn/ble_process.c **** 				{
ARM GAS  C:\Users\User\AppData\Local\Temp\cc96DgHN.s 			page 30


 835              		.loc 1 556 0
 836 0036 2C4B     		ldr	r3, .L49+12
 837 0038 1B78     		ldrb	r3, [r3]
 838 003a 032B     		cmp	r3, #3
 839 003c 03D1     		bne	.L42
 558:..\..\..\PSoC-4-BLE-master\100_Projects_in_100_Days\Day049_BLE_Mesh_Flood\Mesh_Flood\Mesh_Flood_PSoC4BLE.cydsn/ble_process.c **** 					CyBle_ProcessEvents();
 840              		.loc 1 558 0
 841 003e FFF7FEFF 		bl	CyBle_GappStopAdvertisement
 559:..\..\..\PSoC-4-BLE-master\100_Projects_in_100_Days\Day049_BLE_Mesh_Flood\Mesh_Flood\Mesh_Flood_PSoC4BLE.cydsn/ble_process.c **** 
 842              		.loc 1 559 0
 843 0042 FFF7FEFF 		bl	CyBle_ProcessEvents
 844              	.L42:
 568:..\..\..\PSoC-4-BLE-master\100_Projects_in_100_Days\Day049_BLE_Mesh_Flood\Mesh_Flood\Mesh_Flood_PSoC4BLE.cydsn/ble_process.c **** 				{
 845              		.loc 1 568 0
 846 0046 284B     		ldr	r3, .L49+12
 847 0048 1B78     		ldrb	r3, [r3]
 848 004a 062B     		cmp	r3, #6
 849 004c 18D1     		bne	.L43
 572:..\..\..\PSoC-4-BLE-master\100_Projects_in_100_Days\Day049_BLE_Mesh_Flood\Mesh_Flood\Mesh_Flood_PSoC4BLE.cydsn/ble_process.c **** 					
 850              		.loc 1 572 0
 851 004e BC1D     		adds	r4, r7, #6
 852 0050 0020     		movs	r0, #0
 853 0052 FFF7FEFF 		bl	CyBle_GapcStartScan
 854 0056 0300     		movs	r3, r0
 855 0058 2380     		strh	r3, [r4]
 574:..\..\..\PSoC-4-BLE-master\100_Projects_in_100_Days\Day049_BLE_Mesh_Flood\Mesh_Flood\Mesh_Flood_PSoC4BLE.cydsn/ble_process.c **** 					{
 856              		.loc 1 574 0
 857 005a BB1D     		adds	r3, r7, #6
 858 005c 1B88     		ldrh	r3, [r3]
 859 005e 002B     		cmp	r3, #0
 860 0060 0BD1     		bne	.L44
 584:..\..\..\PSoC-4-BLE-master\100_Projects_in_100_Days\Day049_BLE_Mesh_Flood\Mesh_Flood\Mesh_Flood_PSoC4BLE.cydsn/ble_process.c **** 						
 861              		.loc 1 584 0
 862 0062 224B     		ldr	r3, .L49+16
 863 0064 1B88     		ldrh	r3, [r3]
 864 0066 9AB2     		uxth	r2, r3
 865 0068 214B     		ldr	r3, .L49+20
 866 006a 1A80     		strh	r2, [r3]
 587:..\..\..\PSoC-4-BLE-master\100_Projects_in_100_Days\Day049_BLE_Mesh_Flood\Mesh_Flood\Mesh_Flood_PSoC4BLE.cydsn/ble_process.c **** 						
 867              		.loc 1 587 0
 868 006c 1D4B     		ldr	r3, .L49+8
 869 006e 0222     		movs	r2, #2
 870 0070 1A70     		strb	r2, [r3]
 590:..\..\..\PSoC-4-BLE-master\100_Projects_in_100_Days\Day049_BLE_Mesh_Flood\Mesh_Flood\Mesh_Flood_PSoC4BLE.cydsn/ble_process.c **** 					}
 871              		.loc 1 590 0
 872 0072 1A4B     		ldr	r3, .L49
 873 0074 0022     		movs	r2, #0
 874 0076 1A70     		strb	r2, [r3]
 875 0078 02E0     		b	.L43
 876              	.L44:
 595:..\..\..\PSoC-4-BLE-master\100_Projects_in_100_Days\Day049_BLE_Mesh_Flood\Mesh_Flood\Mesh_Flood_PSoC4BLE.cydsn/ble_process.c **** 						
 877              		.loc 1 595 0
 878 007a 1A4B     		ldr	r3, .L49+8
 879 007c 0122     		movs	r2, #1
 880 007e 1A70     		strb	r2, [r3]
 881              	.L43:
 606:..\..\..\PSoC-4-BLE-master\100_Projects_in_100_Days\Day049_BLE_Mesh_Flood\Mesh_Flood\Mesh_Flood_PSoC4BLE.cydsn/ble_process.c **** 				
ARM GAS  C:\Users\User\AppData\Local\Temp\cc96DgHN.s 			page 31


 882              		.loc 1 606 0
 883 0080 FFF7FEFF 		bl	CyBle_ProcessEvents
 608:..\..\..\PSoC-4-BLE-master\100_Projects_in_100_Days\Day049_BLE_Mesh_Flood\Mesh_Flood\Mesh_Flood_PSoC4BLE.cydsn/ble_process.c **** 			
 884              		.loc 1 608 0
 885 0084 25E0     		b	.L37
 886              	.L41:
 613:..\..\..\PSoC-4-BLE-master\100_Projects_in_100_Days\Day049_BLE_Mesh_Flood\Mesh_Flood\Mesh_Flood_PSoC4BLE.cydsn/ble_process.c **** 				{
 887              		.loc 1 613 0
 888 0086 184B     		ldr	r3, .L49+12
 889 0088 1B78     		ldrb	r3, [r3]
 890 008a 042B     		cmp	r3, #4
 891 008c 03D1     		bne	.L45
 615:..\..\..\PSoC-4-BLE-master\100_Projects_in_100_Days\Day049_BLE_Mesh_Flood\Mesh_Flood\Mesh_Flood_PSoC4BLE.cydsn/ble_process.c **** 					CyBle_ProcessEvents();
 892              		.loc 1 615 0
 893 008e FFF7FEFF 		bl	CyBle_GapcStopScan
 616:..\..\..\PSoC-4-BLE-master\100_Projects_in_100_Days\Day049_BLE_Mesh_Flood\Mesh_Flood\Mesh_Flood_PSoC4BLE.cydsn/ble_process.c **** 					
 894              		.loc 1 616 0
 895 0092 FFF7FEFF 		bl	CyBle_ProcessEvents
 896              	.L45:
 624:..\..\..\PSoC-4-BLE-master\100_Projects_in_100_Days\Day049_BLE_Mesh_Flood\Mesh_Flood\Mesh_Flood_PSoC4BLE.cydsn/ble_process.c **** 				{
 897              		.loc 1 624 0
 898 0096 144B     		ldr	r3, .L49+12
 899 0098 1B78     		ldrb	r3, [r3]
 900 009a 062B     		cmp	r3, #6
 901 009c 16D1     		bne	.L46
 641:..\..\..\PSoC-4-BLE-master\100_Projects_in_100_Days\Day049_BLE_Mesh_Flood\Mesh_Flood\Mesh_Flood_PSoC4BLE.cydsn/ble_process.c **** 					
 902              		.loc 1 641 0
 903 009e BC1D     		adds	r4, r7, #6
 904 00a0 0020     		movs	r0, #0
 905 00a2 FFF7FEFF 		bl	CyBle_GappStartAdvertisement
 906 00a6 0300     		movs	r3, r0
 907 00a8 2380     		strh	r3, [r4]
 643:..\..\..\PSoC-4-BLE-master\100_Projects_in_100_Days\Day049_BLE_Mesh_Flood\Mesh_Flood\Mesh_Flood_PSoC4BLE.cydsn/ble_process.c **** 					{
 908              		.loc 1 643 0
 909 00aa BB1D     		adds	r3, r7, #6
 910 00ac 1B88     		ldrh	r3, [r3]
 911 00ae 002B     		cmp	r3, #0
 912 00b0 09D1     		bne	.L47
 647:..\..\..\PSoC-4-BLE-master\100_Projects_in_100_Days\Day049_BLE_Mesh_Flood\Mesh_Flood\Mesh_Flood_PSoC4BLE.cydsn/ble_process.c **** 						clientConnectToDevice = FALSE;	
 913              		.loc 1 647 0
 914 00b2 0C4B     		ldr	r3, .L49+8
 915 00b4 0122     		movs	r2, #1
 916 00b6 1A70     		strb	r2, [r3]
 648:..\..\..\PSoC-4-BLE-master\100_Projects_in_100_Days\Day049_BLE_Mesh_Flood\Mesh_Flood\Mesh_Flood_PSoC4BLE.cydsn/ble_process.c **** 						switch_Role = FALSE;
 917              		.loc 1 648 0
 918 00b8 0E4B     		ldr	r3, .L49+24
 919 00ba 0022     		movs	r2, #0
 920 00bc 1A70     		strb	r2, [r3]
 649:..\..\..\PSoC-4-BLE-master\100_Projects_in_100_Days\Day049_BLE_Mesh_Flood\Mesh_Flood\Mesh_Flood_PSoC4BLE.cydsn/ble_process.c **** 						
 921              		.loc 1 649 0
 922 00be 074B     		ldr	r3, .L49
 923 00c0 0022     		movs	r2, #0
 924 00c2 1A70     		strb	r2, [r3]
 925 00c4 02E0     		b	.L46
 926              	.L47:
 660:..\..\..\PSoC-4-BLE-master\100_Projects_in_100_Days\Day049_BLE_Mesh_Flood\Mesh_Flood\Mesh_Flood_PSoC4BLE.cydsn/ble_process.c **** 						
 927              		.loc 1 660 0
ARM GAS  C:\Users\User\AppData\Local\Temp\cc96DgHN.s 			page 32


 928 00c6 074B     		ldr	r3, .L49+8
 929 00c8 0222     		movs	r2, #2
 930 00ca 1A70     		strb	r2, [r3]
 931              	.L46:
 671:..\..\..\PSoC-4-BLE-master\100_Projects_in_100_Days\Day049_BLE_Mesh_Flood\Mesh_Flood\Mesh_Flood_PSoC4BLE.cydsn/ble_process.c **** 			break;
 932              		.loc 1 671 0
 933 00cc FFF7FEFF 		bl	CyBle_ProcessEvents
 672:..\..\..\PSoC-4-BLE-master\100_Projects_in_100_Days\Day049_BLE_Mesh_Flood\Mesh_Flood\Mesh_Flood_PSoC4BLE.cydsn/ble_process.c **** 			
 934              		.loc 1 672 0
 935 00d0 C046     		nop
 936              	.L37:
 937              	.L48:
 677:..\..\..\PSoC-4-BLE-master\100_Projects_in_100_Days\Day049_BLE_Mesh_Flood\Mesh_Flood\Mesh_Flood_PSoC4BLE.cydsn/ble_process.c **** 			
 678:..\..\..\PSoC-4-BLE-master\100_Projects_in_100_Days\Day049_BLE_Mesh_Flood\Mesh_Flood\Mesh_Flood_PSoC4BLE.cydsn/ble_process.c **** 		}
 679:..\..\..\PSoC-4-BLE-master\100_Projects_in_100_Days\Day049_BLE_Mesh_Flood\Mesh_Flood\Mesh_Flood_PSoC4BLE.cydsn/ble_process.c **** 	}
 680:..\..\..\PSoC-4-BLE-master\100_Projects_in_100_Days\Day049_BLE_Mesh_Flood\Mesh_Flood\Mesh_Flood_PSoC4BLE.cydsn/ble_process.c **** }
 938              		.loc 1 680 0
 939 00d2 C046     		nop
 940 00d4 BD46     		mov	sp, r7
 941 00d6 03B0     		add	sp, sp, #12
 942              		@ sp needed
 943 00d8 90BD     		pop	{r4, r7, pc}
 944              	.L50:
 945 00da C046     		.align	2
 946              	.L49:
 947 00dc 00000000 		.word	switch_Role
 948 00e0 00000000 		.word	cyBle_connHandle
 949 00e4 00000000 		.word	ble_gap_state
 950 00e8 00000000 		.word	cyBle_state
 951 00ec 00000000 		.word	current_watchdog_counter
 952 00f0 00000000 		.word	centralStartedTime
 953 00f4 00000000 		.word	clientConnectToDevice
 954              		.cfi_endproc
 955              	.LFE37:
 956              		.size	SwitchRole, .-SwitchRole
 957              		.section	.text.ConnectToPeripheralDevice,"ax",%progbits
 958              		.align	2
 959              		.global	ConnectToPeripheralDevice
 960              		.code	16
 961              		.thumb_func
 962              		.type	ConnectToPeripheralDevice, %function
 963              	ConnectToPeripheralDevice:
 964              	.LFB38:
 681:..\..\..\PSoC-4-BLE-master\100_Projects_in_100_Days\Day049_BLE_Mesh_Flood\Mesh_Flood\Mesh_Flood_PSoC4BLE.cydsn/ble_process.c **** 
 682:..\..\..\PSoC-4-BLE-master\100_Projects_in_100_Days\Day049_BLE_Mesh_Flood\Mesh_Flood\Mesh_Flood_PSoC4BLE.cydsn/ble_process.c **** /*******************************************************************************
 683:..\..\..\PSoC-4-BLE-master\100_Projects_in_100_Days\Day049_BLE_Mesh_Flood\Mesh_Flood\Mesh_Flood_PSoC4BLE.cydsn/ble_process.c **** * Function Name: ConnectToPeripheralDevice
 684:..\..\..\PSoC-4-BLE-master\100_Projects_in_100_Days\Day049_BLE_Mesh_Flood\Mesh_Flood\Mesh_Flood_PSoC4BLE.cydsn/ble_process.c **** ********************************************************************************
 685:..\..\..\PSoC-4-BLE-master\100_Projects_in_100_Days\Day049_BLE_Mesh_Flood\Mesh_Flood\Mesh_Flood_PSoC4BLE.cydsn/ble_process.c **** * Summary:
 686:..\..\..\PSoC-4-BLE-master\100_Projects_in_100_Days\Day049_BLE_Mesh_Flood\Mesh_Flood\Mesh_Flood_PSoC4BLE.cydsn/ble_process.c **** *        Connects to Peripheral device with given BD Address.
 687:..\..\..\PSoC-4-BLE-master\100_Projects_in_100_Days\Day049_BLE_Mesh_Flood\Mesh_Flood\Mesh_Flood_PSoC4BLE.cydsn/ble_process.c **** *
 688:..\..\..\PSoC-4-BLE-master\100_Projects_in_100_Days\Day049_BLE_Mesh_Flood\Mesh_Flood\Mesh_Flood_PSoC4BLE.cydsn/ble_process.c **** * Parameters:
 689:..\..\..\PSoC-4-BLE-master\100_Projects_in_100_Days\Day049_BLE_Mesh_Flood\Mesh_Flood\Mesh_Flood_PSoC4BLE.cydsn/ble_process.c **** *  void
 690:..\..\..\PSoC-4-BLE-master\100_Projects_in_100_Days\Day049_BLE_Mesh_Flood\Mesh_Flood\Mesh_Flood_PSoC4BLE.cydsn/ble_process.c **** *
 691:..\..\..\PSoC-4-BLE-master\100_Projects_in_100_Days\Day049_BLE_Mesh_Flood\Mesh_Flood\Mesh_Flood_PSoC4BLE.cydsn/ble_process.c **** * Return:
 692:..\..\..\PSoC-4-BLE-master\100_Projects_in_100_Days\Day049_BLE_Mesh_Flood\Mesh_Flood\Mesh_Flood_PSoC4BLE.cydsn/ble_process.c **** *  void
 693:..\..\..\PSoC-4-BLE-master\100_Projects_in_100_Days\Day049_BLE_Mesh_Flood\Mesh_Flood\Mesh_Flood_PSoC4BLE.cydsn/ble_process.c **** *
 694:..\..\..\PSoC-4-BLE-master\100_Projects_in_100_Days\Day049_BLE_Mesh_Flood\Mesh_Flood\Mesh_Flood_PSoC4BLE.cydsn/ble_process.c **** *******************************************************************************/
ARM GAS  C:\Users\User\AppData\Local\Temp\cc96DgHN.s 			page 33


 695:..\..\..\PSoC-4-BLE-master\100_Projects_in_100_Days\Day049_BLE_Mesh_Flood\Mesh_Flood\Mesh_Flood_PSoC4BLE.cydsn/ble_process.c **** void ConnectToPeripheralDevice(void)
 696:..\..\..\PSoC-4-BLE-master\100_Projects_in_100_Days\Day049_BLE_Mesh_Flood\Mesh_Flood\Mesh_Flood_PSoC4BLE.cydsn/ble_process.c **** {
 965              		.loc 1 696 0
 966              		.cfi_startproc
 967              		@ args = 0, pretend = 0, frame = 8
 968              		@ frame_needed = 1, uses_anonymous_args = 0
 969 0000 90B5     		push	{r4, r7, lr}
 970              		.cfi_def_cfa_offset 12
 971              		.cfi_offset 4, -12
 972              		.cfi_offset 7, -8
 973              		.cfi_offset 14, -4
 974 0002 83B0     		sub	sp, sp, #12
 975              		.cfi_def_cfa_offset 24
 976 0004 00AF     		add	r7, sp, #0
 977              		.cfi_def_cfa_register 7
 697:..\..\..\PSoC-4-BLE-master\100_Projects_in_100_Days\Day049_BLE_Mesh_Flood\Mesh_Flood\Mesh_Flood_PSoC4BLE.cydsn/ble_process.c **** 	CYBLE_API_RESULT_T  apiResult;
 698:..\..\..\PSoC-4-BLE-master\100_Projects_in_100_Days\Day049_BLE_Mesh_Flood\Mesh_Flood\Mesh_Flood_PSoC4BLE.cydsn/ble_process.c **** 	
 699:..\..\..\PSoC-4-BLE-master\100_Projects_in_100_Days\Day049_BLE_Mesh_Flood\Mesh_Flood\Mesh_Flood_PSoC4BLE.cydsn/ble_process.c **** 	/* If flag has been set to connect to a device... */
 700:..\..\..\PSoC-4-BLE-master\100_Projects_in_100_Days\Day049_BLE_Mesh_Flood\Mesh_Flood\Mesh_Flood_PSoC4BLE.cydsn/ble_process.c **** 	if(clientConnectToDevice)
 978              		.loc 1 700 0
 979 0006 0D4B     		ldr	r3, .L54
 980 0008 1B78     		ldrb	r3, [r3]
 981 000a 002B     		cmp	r3, #0
 982 000c 11D0     		beq	.L53
 701:..\..\..\PSoC-4-BLE-master\100_Projects_in_100_Days\Day049_BLE_Mesh_Flood\Mesh_Flood\Mesh_Flood_PSoC4BLE.cydsn/ble_process.c **** 	{
 702:..\..\..\PSoC-4-BLE-master\100_Projects_in_100_Days\Day049_BLE_Mesh_Flood\Mesh_Flood\Mesh_Flood_PSoC4BLE.cydsn/ble_process.c **** 		/* Process pending BLE events */
 703:..\..\..\PSoC-4-BLE-master\100_Projects_in_100_Days\Day049_BLE_Mesh_Flood\Mesh_Flood\Mesh_Flood_PSoC4BLE.cydsn/ble_process.c **** 		CyBle_ProcessEvents();
 983              		.loc 1 703 0
 984 000e FFF7FEFF 		bl	CyBle_ProcessEvents
 704:..\..\..\PSoC-4-BLE-master\100_Projects_in_100_Days\Day049_BLE_Mesh_Flood\Mesh_Flood\Mesh_Flood_PSoC4BLE.cydsn/ble_process.c **** 			
 705:..\..\..\PSoC-4-BLE-master\100_Projects_in_100_Days\Day049_BLE_Mesh_Flood\Mesh_Flood\Mesh_Flood_PSoC4BLE.cydsn/ble_process.c **** 		#if 0
 706:..\..\..\PSoC-4-BLE-master\100_Projects_in_100_Days\Day049_BLE_Mesh_Flood\Mesh_Flood\Mesh_Flood_PSoC4BLE.cydsn/ble_process.c **** 		if(CYBLE_STATE_SCANNING == CyBle_GetState())
 707:..\..\..\PSoC-4-BLE-master\100_Projects_in_100_Days\Day049_BLE_Mesh_Flood\Mesh_Flood\Mesh_Flood_PSoC4BLE.cydsn/ble_process.c **** 		{
 708:..\..\..\PSoC-4-BLE-master\100_Projects_in_100_Days\Day049_BLE_Mesh_Flood\Mesh_Flood\Mesh_Flood_PSoC4BLE.cydsn/ble_process.c **** 			CyBle_GapcStopScan();
 709:..\..\..\PSoC-4-BLE-master\100_Projects_in_100_Days\Day049_BLE_Mesh_Flood\Mesh_Flood\Mesh_Flood_PSoC4BLE.cydsn/ble_process.c **** 			#ifdef DEBUG_ENABLED
 710:..\..\..\PSoC-4-BLE-master\100_Projects_in_100_Days\Day049_BLE_Mesh_Flood\Mesh_Flood\Mesh_Flood_PSoC4BLE.cydsn/ble_process.c **** 				UART_UartPutString("Stop Scan called from clientConnectToDevice ");
 711:..\..\..\PSoC-4-BLE-master\100_Projects_in_100_Days\Day049_BLE_Mesh_Flood\Mesh_Flood\Mesh_Flood_PSoC4BLE.cydsn/ble_process.c **** 				SendBLEStatetoUART(CyBle_GetState());
 712:..\..\..\PSoC-4-BLE-master\100_Projects_in_100_Days\Day049_BLE_Mesh_Flood\Mesh_Flood\Mesh_Flood_PSoC4BLE.cydsn/ble_process.c **** 				UART_UartPutCRLF(' ');
 713:..\..\..\PSoC-4-BLE-master\100_Projects_in_100_Days\Day049_BLE_Mesh_Flood\Mesh_Flood\Mesh_Flood_PSoC4BLE.cydsn/ble_process.c **** 			#endif
 714:..\..\..\PSoC-4-BLE-master\100_Projects_in_100_Days\Day049_BLE_Mesh_Flood\Mesh_Flood\Mesh_Flood_PSoC4BLE.cydsn/ble_process.c **** 			CyBle_ProcessEvents();
 715:..\..\..\PSoC-4-BLE-master\100_Projects_in_100_Days\Day049_BLE_Mesh_Flood\Mesh_Flood\Mesh_Flood_PSoC4BLE.cydsn/ble_process.c **** 		}
 716:..\..\..\PSoC-4-BLE-master\100_Projects_in_100_Days\Day049_BLE_Mesh_Flood\Mesh_Flood\Mesh_Flood_PSoC4BLE.cydsn/ble_process.c **** 		#endif
 717:..\..\..\PSoC-4-BLE-master\100_Projects_in_100_Days\Day049_BLE_Mesh_Flood\Mesh_Flood\Mesh_Flood_PSoC4BLE.cydsn/ble_process.c **** 			
 718:..\..\..\PSoC-4-BLE-master\100_Projects_in_100_Days\Day049_BLE_Mesh_Flood\Mesh_Flood\Mesh_Flood_PSoC4BLE.cydsn/ble_process.c **** 		if(CYBLE_STATE_DISCONNECTED == CyBle_GetState())
 985              		.loc 1 718 0
 986 0012 0B4B     		ldr	r3, .L54+4
 987 0014 1B78     		ldrb	r3, [r3]
 988 0016 062B     		cmp	r3, #6
 989 0018 0BD1     		bne	.L53
 719:..\..\..\PSoC-4-BLE-master\100_Projects_in_100_Days\Day049_BLE_Mesh_Flood\Mesh_Flood\Mesh_Flood_PSoC4BLE.cydsn/ble_process.c **** 		{
 720:..\..\..\PSoC-4-BLE-master\100_Projects_in_100_Days\Day049_BLE_Mesh_Flood\Mesh_Flood\Mesh_Flood_PSoC4BLE.cydsn/ble_process.c **** 			/* Reset the flag to connect to a device*/
 721:..\..\..\PSoC-4-BLE-master\100_Projects_in_100_Days\Day049_BLE_Mesh_Flood\Mesh_Flood\Mesh_Flood_PSoC4BLE.cydsn/ble_process.c **** 			clientConnectToDevice = FALSE;
 990              		.loc 1 721 0
 991 001a 084B     		ldr	r3, .L54
 992 001c 0022     		movs	r2, #0
 993 001e 1A70     		strb	r2, [r3]
 722:..\..\..\PSoC-4-BLE-master\100_Projects_in_100_Days\Day049_BLE_Mesh_Flood\Mesh_Flood\Mesh_Flood_PSoC4BLE.cydsn/ble_process.c **** 
ARM GAS  C:\Users\User\AppData\Local\Temp\cc96DgHN.s 			page 34


 723:..\..\..\PSoC-4-BLE-master\100_Projects_in_100_Days\Day049_BLE_Mesh_Flood\Mesh_Flood\Mesh_Flood_PSoC4BLE.cydsn/ble_process.c **** 			/* Connect to the device whose address has been saved as part of 
 724:..\..\..\PSoC-4-BLE-master\100_Projects_in_100_Days\Day049_BLE_Mesh_Flood\Mesh_Flood\Mesh_Flood_PSoC4BLE.cydsn/ble_process.c **** 			* potential node search */
 725:..\..\..\PSoC-4-BLE-master\100_Projects_in_100_Days\Day049_BLE_Mesh_Flood\Mesh_Flood\Mesh_Flood_PSoC4BLE.cydsn/ble_process.c **** 			apiResult = CyBle_GapcConnectDevice(&peripAddr);
 994              		.loc 1 725 0
 995 0020 BC1D     		adds	r4, r7, #6
 996 0022 084B     		ldr	r3, .L54+8
 997 0024 1800     		movs	r0, r3
 998 0026 FFF7FEFF 		bl	CyBle_GapcConnectDevice
 999 002a 0300     		movs	r3, r0
 1000 002c 2380     		strh	r3, [r4]
 726:..\..\..\PSoC-4-BLE-master\100_Projects_in_100_Days\Day049_BLE_Mesh_Flood\Mesh_Flood\Mesh_Flood_PSoC4BLE.cydsn/ble_process.c **** 			
 727:..\..\..\PSoC-4-BLE-master\100_Projects_in_100_Days\Day049_BLE_Mesh_Flood\Mesh_Flood\Mesh_Flood_PSoC4BLE.cydsn/ble_process.c **** 			if(apiResult != CYBLE_ERROR_OK)
 728:..\..\..\PSoC-4-BLE-master\100_Projects_in_100_Days\Day049_BLE_Mesh_Flood\Mesh_Flood\Mesh_Flood_PSoC4BLE.cydsn/ble_process.c **** 			{
 729:..\..\..\PSoC-4-BLE-master\100_Projects_in_100_Days\Day049_BLE_Mesh_Flood\Mesh_Flood\Mesh_Flood_PSoC4BLE.cydsn/ble_process.c **** 				#ifdef DEBUG_ENABLED
 730:..\..\..\PSoC-4-BLE-master\100_Projects_in_100_Days\Day049_BLE_Mesh_Flood\Mesh_Flood\Mesh_Flood_PSoC4BLE.cydsn/ble_process.c **** 					UART_UartPutString("Connect Request failed ");
 731:..\..\..\PSoC-4-BLE-master\100_Projects_in_100_Days\Day049_BLE_Mesh_Flood\Mesh_Flood\Mesh_Flood_PSoC4BLE.cydsn/ble_process.c **** 					SendBLEStatetoUART(CyBle_GetState());
 732:..\..\..\PSoC-4-BLE-master\100_Projects_in_100_Days\Day049_BLE_Mesh_Flood\Mesh_Flood\Mesh_Flood_PSoC4BLE.cydsn/ble_process.c **** 					UART_UartPutCRLF(' ');
 733:..\..\..\PSoC-4-BLE-master\100_Projects_in_100_Days\Day049_BLE_Mesh_Flood\Mesh_Flood\Mesh_Flood_PSoC4BLE.cydsn/ble_process.c **** 				#endif
 734:..\..\..\PSoC-4-BLE-master\100_Projects_in_100_Days\Day049_BLE_Mesh_Flood\Mesh_Flood\Mesh_Flood_PSoC4BLE.cydsn/ble_process.c **** 			}
 735:..\..\..\PSoC-4-BLE-master\100_Projects_in_100_Days\Day049_BLE_Mesh_Flood\Mesh_Flood\Mesh_Flood_PSoC4BLE.cydsn/ble_process.c **** 			else
 736:..\..\..\PSoC-4-BLE-master\100_Projects_in_100_Days\Day049_BLE_Mesh_Flood\Mesh_Flood\Mesh_Flood_PSoC4BLE.cydsn/ble_process.c **** 			{
 737:..\..\..\PSoC-4-BLE-master\100_Projects_in_100_Days\Day049_BLE_Mesh_Flood\Mesh_Flood\Mesh_Flood_PSoC4BLE.cydsn/ble_process.c **** 				#ifdef DEBUG_ENABLED
 738:..\..\..\PSoC-4-BLE-master\100_Projects_in_100_Days\Day049_BLE_Mesh_Flood\Mesh_Flood\Mesh_Flood_PSoC4BLE.cydsn/ble_process.c **** 					UART_UartPutString("Connect Request Sent ");
 739:..\..\..\PSoC-4-BLE-master\100_Projects_in_100_Days\Day049_BLE_Mesh_Flood\Mesh_Flood\Mesh_Flood_PSoC4BLE.cydsn/ble_process.c **** 					SendBLEStatetoUART(CyBle_GetState());
 740:..\..\..\PSoC-4-BLE-master\100_Projects_in_100_Days\Day049_BLE_Mesh_Flood\Mesh_Flood\Mesh_Flood_PSoC4BLE.cydsn/ble_process.c **** 					UART_UartPutCRLF(' ');
 741:..\..\..\PSoC-4-BLE-master\100_Projects_in_100_Days\Day049_BLE_Mesh_Flood\Mesh_Flood\Mesh_Flood_PSoC4BLE.cydsn/ble_process.c **** 				#endif	
 742:..\..\..\PSoC-4-BLE-master\100_Projects_in_100_Days\Day049_BLE_Mesh_Flood\Mesh_Flood\Mesh_Flood_PSoC4BLE.cydsn/ble_process.c **** 			}
 743:..\..\..\PSoC-4-BLE-master\100_Projects_in_100_Days\Day049_BLE_Mesh_Flood\Mesh_Flood\Mesh_Flood_PSoC4BLE.cydsn/ble_process.c **** 		
 744:..\..\..\PSoC-4-BLE-master\100_Projects_in_100_Days\Day049_BLE_Mesh_Flood\Mesh_Flood\Mesh_Flood_PSoC4BLE.cydsn/ble_process.c **** 			/* Process pending BLE events */
 745:..\..\..\PSoC-4-BLE-master\100_Projects_in_100_Days\Day049_BLE_Mesh_Flood\Mesh_Flood\Mesh_Flood_PSoC4BLE.cydsn/ble_process.c **** 			CyBle_ProcessEvents();
 1001              		.loc 1 745 0
 1002 002e FFF7FEFF 		bl	CyBle_ProcessEvents
 1003              	.L53:
 746:..\..\..\PSoC-4-BLE-master\100_Projects_in_100_Days\Day049_BLE_Mesh_Flood\Mesh_Flood\Mesh_Flood_PSoC4BLE.cydsn/ble_process.c **** 		}
 747:..\..\..\PSoC-4-BLE-master\100_Projects_in_100_Days\Day049_BLE_Mesh_Flood\Mesh_Flood\Mesh_Flood_PSoC4BLE.cydsn/ble_process.c **** 	}
 748:..\..\..\PSoC-4-BLE-master\100_Projects_in_100_Days\Day049_BLE_Mesh_Flood\Mesh_Flood\Mesh_Flood_PSoC4BLE.cydsn/ble_process.c **** }
 1004              		.loc 1 748 0
 1005 0032 C046     		nop
 1006 0034 BD46     		mov	sp, r7
 1007 0036 03B0     		add	sp, sp, #12
 1008              		@ sp needed
 1009 0038 90BD     		pop	{r4, r7, pc}
 1010              	.L55:
 1011 003a C046     		.align	2
 1012              	.L54:
 1013 003c 00000000 		.word	clientConnectToDevice
 1014 0040 00000000 		.word	cyBle_state
 1015 0044 00000000 		.word	peripAddr
 1016              		.cfi_endproc
 1017              	.LFE38:
 1018              		.size	ConnectToPeripheralDevice, .-ConnectToPeripheralDevice
 1019              		.section	.text.RestartCentralScanning,"ax",%progbits
 1020              		.align	2
 1021              		.global	RestartCentralScanning
 1022              		.code	16
 1023              		.thumb_func
 1024              		.type	RestartCentralScanning, %function
ARM GAS  C:\Users\User\AppData\Local\Temp\cc96DgHN.s 			page 35


 1025              	RestartCentralScanning:
 1026              	.LFB39:
 749:..\..\..\PSoC-4-BLE-master\100_Projects_in_100_Days\Day049_BLE_Mesh_Flood\Mesh_Flood\Mesh_Flood_PSoC4BLE.cydsn/ble_process.c **** 
 750:..\..\..\PSoC-4-BLE-master\100_Projects_in_100_Days\Day049_BLE_Mesh_Flood\Mesh_Flood\Mesh_Flood_PSoC4BLE.cydsn/ble_process.c **** /*******************************************************************************
 751:..\..\..\PSoC-4-BLE-master\100_Projects_in_100_Days\Day049_BLE_Mesh_Flood\Mesh_Flood\Mesh_Flood_PSoC4BLE.cydsn/ble_process.c **** * Function Name: RestartCentralScanning
 752:..\..\..\PSoC-4-BLE-master\100_Projects_in_100_Days\Day049_BLE_Mesh_Flood\Mesh_Flood\Mesh_Flood_PSoC4BLE.cydsn/ble_process.c **** ********************************************************************************
 753:..\..\..\PSoC-4-BLE-master\100_Projects_in_100_Days\Day049_BLE_Mesh_Flood\Mesh_Flood\Mesh_Flood_PSoC4BLE.cydsn/ble_process.c **** * Summary:
 754:..\..\..\PSoC-4-BLE-master\100_Projects_in_100_Days\Day049_BLE_Mesh_Flood\Mesh_Flood\Mesh_Flood_PSoC4BLE.cydsn/ble_process.c **** *        Restarts Central scanning. Also, if the time that the device has remained
 755:..\..\..\PSoC-4-BLE-master\100_Projects_in_100_Days\Day049_BLE_Mesh_Flood\Mesh_Flood\Mesh_Flood_PSoC4BLE.cydsn/ble_process.c **** * in Central role exceeds pre-determined value, then the switch role flag is set.
 756:..\..\..\PSoC-4-BLE-master\100_Projects_in_100_Days\Day049_BLE_Mesh_Flood\Mesh_Flood\Mesh_Flood_PSoC4BLE.cydsn/ble_process.c **** *
 757:..\..\..\PSoC-4-BLE-master\100_Projects_in_100_Days\Day049_BLE_Mesh_Flood\Mesh_Flood\Mesh_Flood_PSoC4BLE.cydsn/ble_process.c **** * Parameters:
 758:..\..\..\PSoC-4-BLE-master\100_Projects_in_100_Days\Day049_BLE_Mesh_Flood\Mesh_Flood\Mesh_Flood_PSoC4BLE.cydsn/ble_process.c **** *  void
 759:..\..\..\PSoC-4-BLE-master\100_Projects_in_100_Days\Day049_BLE_Mesh_Flood\Mesh_Flood\Mesh_Flood_PSoC4BLE.cydsn/ble_process.c **** *
 760:..\..\..\PSoC-4-BLE-master\100_Projects_in_100_Days\Day049_BLE_Mesh_Flood\Mesh_Flood\Mesh_Flood_PSoC4BLE.cydsn/ble_process.c **** * Return:
 761:..\..\..\PSoC-4-BLE-master\100_Projects_in_100_Days\Day049_BLE_Mesh_Flood\Mesh_Flood\Mesh_Flood_PSoC4BLE.cydsn/ble_process.c **** *  void
 762:..\..\..\PSoC-4-BLE-master\100_Projects_in_100_Days\Day049_BLE_Mesh_Flood\Mesh_Flood\Mesh_Flood_PSoC4BLE.cydsn/ble_process.c **** *
 763:..\..\..\PSoC-4-BLE-master\100_Projects_in_100_Days\Day049_BLE_Mesh_Flood\Mesh_Flood\Mesh_Flood_PSoC4BLE.cydsn/ble_process.c **** *******************************************************************************/
 764:..\..\..\PSoC-4-BLE-master\100_Projects_in_100_Days\Day049_BLE_Mesh_Flood\Mesh_Flood\Mesh_Flood_PSoC4BLE.cydsn/ble_process.c **** void RestartCentralScanning(void)
 765:..\..\..\PSoC-4-BLE-master\100_Projects_in_100_Days\Day049_BLE_Mesh_Flood\Mesh_Flood\Mesh_Flood_PSoC4BLE.cydsn/ble_process.c **** {
 1027              		.loc 1 765 0
 1028              		.cfi_startproc
 1029              		@ args = 0, pretend = 0, frame = 0
 1030              		@ frame_needed = 1, uses_anonymous_args = 0
 1031 0000 80B5     		push	{r7, lr}
 1032              		.cfi_def_cfa_offset 8
 1033              		.cfi_offset 7, -8
 1034              		.cfi_offset 14, -4
 1035 0002 00AF     		add	r7, sp, #0
 1036              		.cfi_def_cfa_register 7
 766:..\..\..\PSoC-4-BLE-master\100_Projects_in_100_Days\Day049_BLE_Mesh_Flood\Mesh_Flood\Mesh_Flood_PSoC4BLE.cydsn/ble_process.c **** 	/* If the current role is Central and the Central time has exceeded the preset time,
 767:..\..\..\PSoC-4-BLE-master\100_Projects_in_100_Days\Day049_BLE_Mesh_Flood\Mesh_Flood\Mesh_Flood_PSoC4BLE.cydsn/ble_process.c **** 	* then set the flag to switch role to Peripheral */
 768:..\..\..\PSoC-4-BLE-master\100_Projects_in_100_Days\Day049_BLE_Mesh_Flood\Mesh_Flood\Mesh_Flood_PSoC4BLE.cydsn/ble_process.c **** 	if((BLE_CENTRAL == ble_gap_state) && 
 1037              		.loc 1 768 0
 1038 0004 164B     		ldr	r3, .L60
 1039 0006 1B78     		ldrb	r3, [r3]
 1040 0008 022B     		cmp	r3, #2
 1041 000a 15D1     		bne	.L57
 769:..\..\..\PSoC-4-BLE-master\100_Projects_in_100_Days\Day049_BLE_Mesh_Flood\Mesh_Flood\Mesh_Flood_PSoC4BLE.cydsn/ble_process.c **** 		(WatchDog_CurrentCount() - centralStartedTime > CENTRAL_STATE_SPAN) &&
 1042              		.loc 1 769 0 discriminator 1
 1043 000c 154B     		ldr	r3, .L60+4
 1044 000e 1B88     		ldrh	r3, [r3]
 1045 0010 9BB2     		uxth	r3, r3
 1046 0012 1A00     		movs	r2, r3
 1047 0014 144B     		ldr	r3, .L60+8
 1048 0016 1B88     		ldrh	r3, [r3]
 1049 0018 9BB2     		uxth	r3, r3
 1050 001a D31A     		subs	r3, r2, r3
 768:..\..\..\PSoC-4-BLE-master\100_Projects_in_100_Days\Day049_BLE_Mesh_Flood\Mesh_Flood\Mesh_Flood_PSoC4BLE.cydsn/ble_process.c **** 		(WatchDog_CurrentCount() - centralStartedTime > CENTRAL_STATE_SPAN) &&
 1051              		.loc 1 768 0 discriminator 1
 1052 001c 2D2B     		cmp	r3, #45
 1053 001e 0BDD     		ble	.L57
 770:..\..\..\PSoC-4-BLE-master\100_Projects_in_100_Days\Day049_BLE_Mesh_Flood\Mesh_Flood\Mesh_Flood_PSoC4BLE.cydsn/ble_process.c **** 		((CYBLE_STATE_DISCONNECTED == CyBle_GetState()) || (CYBLE_STATE_SCANNING == CyBle_GetState())))
 1054              		.loc 1 770 0
 1055 0020 124B     		ldr	r3, .L60+12
 1056 0022 1B78     		ldrb	r3, [r3]
 769:..\..\..\PSoC-4-BLE-master\100_Projects_in_100_Days\Day049_BLE_Mesh_Flood\Mesh_Flood\Mesh_Flood_PSoC4BLE.cydsn/ble_process.c **** 		(WatchDog_CurrentCount() - centralStartedTime > CENTRAL_STATE_SPAN) &&
 1057              		.loc 1 769 0
ARM GAS  C:\Users\User\AppData\Local\Temp\cc96DgHN.s 			page 36


 1058 0024 062B     		cmp	r3, #6
 1059 0026 03D0     		beq	.L58
 1060              		.loc 1 770 0
 1061 0028 104B     		ldr	r3, .L60+12
 1062 002a 1B78     		ldrb	r3, [r3]
 1063 002c 042B     		cmp	r3, #4
 1064 002e 03D1     		bne	.L57
 1065              	.L58:
 771:..\..\..\PSoC-4-BLE-master\100_Projects_in_100_Days\Day049_BLE_Mesh_Flood\Mesh_Flood\Mesh_Flood_PSoC4BLE.cydsn/ble_process.c **** 	{
 772:..\..\..\PSoC-4-BLE-master\100_Projects_in_100_Days\Day049_BLE_Mesh_Flood\Mesh_Flood\Mesh_Flood_PSoC4BLE.cydsn/ble_process.c **** 		/* Switch role flag set */
 773:..\..\..\PSoC-4-BLE-master\100_Projects_in_100_Days\Day049_BLE_Mesh_Flood\Mesh_Flood\Mesh_Flood_PSoC4BLE.cydsn/ble_process.c **** 		switch_Role = TRUE;
 1066              		.loc 1 773 0
 1067 0030 0F4B     		ldr	r3, .L60+16
 1068 0032 0122     		movs	r2, #1
 1069 0034 1A70     		strb	r2, [r3]
 774:..\..\..\PSoC-4-BLE-master\100_Projects_in_100_Days\Day049_BLE_Mesh_Flood\Mesh_Flood\Mesh_Flood_PSoC4BLE.cydsn/ble_process.c **** 		#ifdef DEBUG_ENABLED
 775:..\..\..\PSoC-4-BLE-master\100_Projects_in_100_Days\Day049_BLE_Mesh_Flood\Mesh_Flood\Mesh_Flood_PSoC4BLE.cydsn/ble_process.c **** 		UART_UartPutString("switchRole from restartScanning loop ");
 776:..\..\..\PSoC-4-BLE-master\100_Projects_in_100_Days\Day049_BLE_Mesh_Flood\Mesh_Flood\Mesh_Flood_PSoC4BLE.cydsn/ble_process.c **** 		UART_UartPutCRLF(' ');
 777:..\..\..\PSoC-4-BLE-master\100_Projects_in_100_Days\Day049_BLE_Mesh_Flood\Mesh_Flood\Mesh_Flood_PSoC4BLE.cydsn/ble_process.c **** 		#endif
 778:..\..\..\PSoC-4-BLE-master\100_Projects_in_100_Days\Day049_BLE_Mesh_Flood\Mesh_Flood\Mesh_Flood_PSoC4BLE.cydsn/ble_process.c **** 		
 779:..\..\..\PSoC-4-BLE-master\100_Projects_in_100_Days\Day049_BLE_Mesh_Flood\Mesh_Flood\Mesh_Flood_PSoC4BLE.cydsn/ble_process.c **** 		return;
 1070              		.loc 1 779 0
 1071 0036 11E0     		b	.L56
 1072              	.L57:
 780:..\..\..\PSoC-4-BLE-master\100_Projects_in_100_Days\Day049_BLE_Mesh_Flood\Mesh_Flood\Mesh_Flood_PSoC4BLE.cydsn/ble_process.c **** 	}
 781:..\..\..\PSoC-4-BLE-master\100_Projects_in_100_Days\Day049_BLE_Mesh_Flood\Mesh_Flood\Mesh_Flood_PSoC4BLE.cydsn/ble_process.c **** 			
 782:..\..\..\PSoC-4-BLE-master\100_Projects_in_100_Days\Day049_BLE_Mesh_Flood\Mesh_Flood\Mesh_Flood_PSoC4BLE.cydsn/ble_process.c **** 	/* If restart scanning flag is set, the restart the Central scanning */
 783:..\..\..\PSoC-4-BLE-master\100_Projects_in_100_Days\Day049_BLE_Mesh_Flood\Mesh_Flood\Mesh_Flood_PSoC4BLE.cydsn/ble_process.c **** 	if(restartScanning)
 1073              		.loc 1 783 0
 1074 0038 0E4B     		ldr	r3, .L60+20
 1075 003a 1B78     		ldrb	r3, [r3]
 1076 003c 002B     		cmp	r3, #0
 1077 003e 0DD0     		beq	.L56
 784:..\..\..\PSoC-4-BLE-master\100_Projects_in_100_Days\Day049_BLE_Mesh_Flood\Mesh_Flood\Mesh_Flood_PSoC4BLE.cydsn/ble_process.c **** 	{
 785:..\..\..\PSoC-4-BLE-master\100_Projects_in_100_Days\Day049_BLE_Mesh_Flood\Mesh_Flood\Mesh_Flood_PSoC4BLE.cydsn/ble_process.c **** 		/* Process pending BLE events */
 786:..\..\..\PSoC-4-BLE-master\100_Projects_in_100_Days\Day049_BLE_Mesh_Flood\Mesh_Flood\Mesh_Flood_PSoC4BLE.cydsn/ble_process.c **** 		CyBle_ProcessEvents();
 1078              		.loc 1 786 0
 1079 0040 FFF7FEFF 		bl	CyBle_ProcessEvents
 787:..\..\..\PSoC-4-BLE-master\100_Projects_in_100_Days\Day049_BLE_Mesh_Flood\Mesh_Flood\Mesh_Flood_PSoC4BLE.cydsn/ble_process.c **** 		if(CYBLE_STATE_DISCONNECTED == CyBle_GetState())
 1080              		.loc 1 787 0
 1081 0044 094B     		ldr	r3, .L60+12
 1082 0046 1B78     		ldrb	r3, [r3]
 1083 0048 062B     		cmp	r3, #6
 1084 004a 07D1     		bne	.L56
 788:..\..\..\PSoC-4-BLE-master\100_Projects_in_100_Days\Day049_BLE_Mesh_Flood\Mesh_Flood\Mesh_Flood_PSoC4BLE.cydsn/ble_process.c **** 		{
 789:..\..\..\PSoC-4-BLE-master\100_Projects_in_100_Days\Day049_BLE_Mesh_Flood\Mesh_Flood\Mesh_Flood_PSoC4BLE.cydsn/ble_process.c **** 			/* Reset the restart scanning flag */
 790:..\..\..\PSoC-4-BLE-master\100_Projects_in_100_Days\Day049_BLE_Mesh_Flood\Mesh_Flood\Mesh_Flood_PSoC4BLE.cydsn/ble_process.c **** 			restartScanning = FALSE;
 1085              		.loc 1 790 0
 1086 004c 094B     		ldr	r3, .L60+20
 1087 004e 0022     		movs	r2, #0
 1088 0050 1A70     		strb	r2, [r3]
 791:..\..\..\PSoC-4-BLE-master\100_Projects_in_100_Days\Day049_BLE_Mesh_Flood\Mesh_Flood\Mesh_Flood_PSoC4BLE.cydsn/ble_process.c **** 			#ifdef DEBUG_ENABLED
 792:..\..\..\PSoC-4-BLE-master\100_Projects_in_100_Days\Day049_BLE_Mesh_Flood\Mesh_Flood\Mesh_Flood_PSoC4BLE.cydsn/ble_process.c **** 			UART_UartPutString("restartScanning loop ");
 793:..\..\..\PSoC-4-BLE-master\100_Projects_in_100_Days\Day049_BLE_Mesh_Flood\Mesh_Flood\Mesh_Flood_PSoC4BLE.cydsn/ble_process.c **** 			UART_UartPutCRLF(' ');
 794:..\..\..\PSoC-4-BLE-master\100_Projects_in_100_Days\Day049_BLE_Mesh_Flood\Mesh_Flood\Mesh_Flood_PSoC4BLE.cydsn/ble_process.c **** 			#endif
 795:..\..\..\PSoC-4-BLE-master\100_Projects_in_100_Days\Day049_BLE_Mesh_Flood\Mesh_Flood\Mesh_Flood_PSoC4BLE.cydsn/ble_process.c **** 			
 796:..\..\..\PSoC-4-BLE-master\100_Projects_in_100_Days\Day049_BLE_Mesh_Flood\Mesh_Flood\Mesh_Flood_PSoC4BLE.cydsn/ble_process.c **** 			/* Start Central scan and process the event */
ARM GAS  C:\Users\User\AppData\Local\Temp\cc96DgHN.s 			page 37


 797:..\..\..\PSoC-4-BLE-master\100_Projects_in_100_Days\Day049_BLE_Mesh_Flood\Mesh_Flood\Mesh_Flood_PSoC4BLE.cydsn/ble_process.c **** 			CyBle_GapcStartScan(CYBLE_SCANNING_FAST);
 1089              		.loc 1 797 0
 1090 0052 0020     		movs	r0, #0
 1091 0054 FFF7FEFF 		bl	CyBle_GapcStartScan
 798:..\..\..\PSoC-4-BLE-master\100_Projects_in_100_Days\Day049_BLE_Mesh_Flood\Mesh_Flood\Mesh_Flood_PSoC4BLE.cydsn/ble_process.c **** 			CyBle_ProcessEvents();
 1092              		.loc 1 798 0
 1093 0058 FFF7FEFF 		bl	CyBle_ProcessEvents
 1094              	.L56:
 799:..\..\..\PSoC-4-BLE-master\100_Projects_in_100_Days\Day049_BLE_Mesh_Flood\Mesh_Flood\Mesh_Flood_PSoC4BLE.cydsn/ble_process.c **** 			
 800:..\..\..\PSoC-4-BLE-master\100_Projects_in_100_Days\Day049_BLE_Mesh_Flood\Mesh_Flood\Mesh_Flood_PSoC4BLE.cydsn/ble_process.c **** 			#ifdef DEBUG_ENABLED
 801:..\..\..\PSoC-4-BLE-master\100_Projects_in_100_Days\Day049_BLE_Mesh_Flood\Mesh_Flood\Mesh_Flood_PSoC4BLE.cydsn/ble_process.c **** 			UART_UartPutString("Start Scan from restartScanning loop ");
 802:..\..\..\PSoC-4-BLE-master\100_Projects_in_100_Days\Day049_BLE_Mesh_Flood\Mesh_Flood\Mesh_Flood_PSoC4BLE.cydsn/ble_process.c **** 			UART_UartPutCRLF(' ');
 803:..\..\..\PSoC-4-BLE-master\100_Projects_in_100_Days\Day049_BLE_Mesh_Flood\Mesh_Flood\Mesh_Flood_PSoC4BLE.cydsn/ble_process.c **** 			#endif
 804:..\..\..\PSoC-4-BLE-master\100_Projects_in_100_Days\Day049_BLE_Mesh_Flood\Mesh_Flood\Mesh_Flood_PSoC4BLE.cydsn/ble_process.c **** 		}
 805:..\..\..\PSoC-4-BLE-master\100_Projects_in_100_Days\Day049_BLE_Mesh_Flood\Mesh_Flood\Mesh_Flood_PSoC4BLE.cydsn/ble_process.c **** 	}
 806:..\..\..\PSoC-4-BLE-master\100_Projects_in_100_Days\Day049_BLE_Mesh_Flood\Mesh_Flood\Mesh_Flood_PSoC4BLE.cydsn/ble_process.c **** }	
 1095              		.loc 1 806 0
 1096 005c BD46     		mov	sp, r7
 1097              		@ sp needed
 1098 005e 80BD     		pop	{r7, pc}
 1099              	.L61:
 1100              		.align	2
 1101              	.L60:
 1102 0060 00000000 		.word	ble_gap_state
 1103 0064 00000000 		.word	current_watchdog_counter
 1104 0068 00000000 		.word	centralStartedTime
 1105 006c 00000000 		.word	cyBle_state
 1106 0070 00000000 		.word	switch_Role
 1107 0074 00000000 		.word	restartScanning
 1108              		.cfi_endproc
 1109              	.LFE39:
 1110              		.size	RestartCentralScanning, .-RestartCentralScanning
 1111              		.section	.text.SendErrorCode,"ax",%progbits
 1112              		.align	2
 1113              		.global	SendErrorCode
 1114              		.code	16
 1115              		.thumb_func
 1116              		.type	SendErrorCode, %function
 1117              	SendErrorCode:
 1118              	.LFB40:
 807:..\..\..\PSoC-4-BLE-master\100_Projects_in_100_Days\Day049_BLE_Mesh_Flood\Mesh_Flood\Mesh_Flood_PSoC4BLE.cydsn/ble_process.c **** 
 808:..\..\..\PSoC-4-BLE-master\100_Projects_in_100_Days\Day049_BLE_Mesh_Flood\Mesh_Flood\Mesh_Flood_PSoC4BLE.cydsn/ble_process.c **** /*******************************************************************************
 809:..\..\..\PSoC-4-BLE-master\100_Projects_in_100_Days\Day049_BLE_Mesh_Flood\Mesh_Flood\Mesh_Flood_PSoC4BLE.cydsn/ble_process.c **** * Function Name: SendErrorCode
 810:..\..\..\PSoC-4-BLE-master\100_Projects_in_100_Days\Day049_BLE_Mesh_Flood\Mesh_Flood\Mesh_Flood_PSoC4BLE.cydsn/ble_process.c **** ********************************************************************************
 811:..\..\..\PSoC-4-BLE-master\100_Projects_in_100_Days\Day049_BLE_Mesh_Flood\Mesh_Flood\Mesh_Flood_PSoC4BLE.cydsn/ble_process.c **** * Summary:
 812:..\..\..\PSoC-4-BLE-master\100_Projects_in_100_Days\Day049_BLE_Mesh_Flood\Mesh_Flood\Mesh_Flood_PSoC4BLE.cydsn/ble_process.c **** *        Send Error code at GATT Layer
 813:..\..\..\PSoC-4-BLE-master\100_Projects_in_100_Days\Day049_BLE_Mesh_Flood\Mesh_Flood\Mesh_Flood_PSoC4BLE.cydsn/ble_process.c **** *
 814:..\..\..\PSoC-4-BLE-master\100_Projects_in_100_Days\Day049_BLE_Mesh_Flood\Mesh_Flood\Mesh_Flood_PSoC4BLE.cydsn/ble_process.c **** * Parameters:
 815:..\..\..\PSoC-4-BLE-master\100_Projects_in_100_Days\Day049_BLE_Mesh_Flood\Mesh_Flood\Mesh_Flood_PSoC4BLE.cydsn/ble_process.c **** *  uint8 opCode, 
 816:..\..\..\PSoC-4-BLE-master\100_Projects_in_100_Days\Day049_BLE_Mesh_Flood\Mesh_Flood\Mesh_Flood_PSoC4BLE.cydsn/ble_process.c **** *  CYBLE_GATT_DB_ATTR_HANDLE_T  attrHandle, 
 817:..\..\..\PSoC-4-BLE-master\100_Projects_in_100_Days\Day049_BLE_Mesh_Flood\Mesh_Flood\Mesh_Flood_PSoC4BLE.cydsn/ble_process.c **** *  CYBLE_GATT_ERR_CODE_T errorCode
 818:..\..\..\PSoC-4-BLE-master\100_Projects_in_100_Days\Day049_BLE_Mesh_Flood\Mesh_Flood\Mesh_Flood_PSoC4BLE.cydsn/ble_process.c **** *
 819:..\..\..\PSoC-4-BLE-master\100_Projects_in_100_Days\Day049_BLE_Mesh_Flood\Mesh_Flood\Mesh_Flood_PSoC4BLE.cydsn/ble_process.c **** * Return:
 820:..\..\..\PSoC-4-BLE-master\100_Projects_in_100_Days\Day049_BLE_Mesh_Flood\Mesh_Flood\Mesh_Flood_PSoC4BLE.cydsn/ble_process.c **** *  void
 821:..\..\..\PSoC-4-BLE-master\100_Projects_in_100_Days\Day049_BLE_Mesh_Flood\Mesh_Flood\Mesh_Flood_PSoC4BLE.cydsn/ble_process.c **** *
 822:..\..\..\PSoC-4-BLE-master\100_Projects_in_100_Days\Day049_BLE_Mesh_Flood\Mesh_Flood\Mesh_Flood_PSoC4BLE.cydsn/ble_process.c **** *******************************************************************************/
 823:..\..\..\PSoC-4-BLE-master\100_Projects_in_100_Days\Day049_BLE_Mesh_Flood\Mesh_Flood\Mesh_Flood_PSoC4BLE.cydsn/ble_process.c **** void SendErrorCode(uint8 opCode, CYBLE_GATT_DB_ATTR_HANDLE_T  attrHandle, CYBLE_GATT_ERR_CODE_T err
ARM GAS  C:\Users\User\AppData\Local\Temp\cc96DgHN.s 			page 38


 824:..\..\..\PSoC-4-BLE-master\100_Projects_in_100_Days\Day049_BLE_Mesh_Flood\Mesh_Flood\Mesh_Flood_PSoC4BLE.cydsn/ble_process.c **** {
 1119              		.loc 1 824 0
 1120              		.cfi_startproc
 1121              		@ args = 0, pretend = 0, frame = 16
 1122              		@ frame_needed = 1, uses_anonymous_args = 0
 1123 0000 90B5     		push	{r4, r7, lr}
 1124              		.cfi_def_cfa_offset 12
 1125              		.cfi_offset 4, -12
 1126              		.cfi_offset 7, -8
 1127              		.cfi_offset 14, -4
 1128 0002 85B0     		sub	sp, sp, #20
 1129              		.cfi_def_cfa_offset 32
 1130 0004 00AF     		add	r7, sp, #0
 1131              		.cfi_def_cfa_register 7
 1132 0006 0400     		movs	r4, r0
 1133 0008 0800     		movs	r0, r1
 1134 000a 1100     		movs	r1, r2
 1135 000c FB1D     		adds	r3, r7, #7
 1136 000e 221C     		adds	r2, r4, #0
 1137 0010 1A70     		strb	r2, [r3]
 1138 0012 3B1D     		adds	r3, r7, #4
 1139 0014 021C     		adds	r2, r0, #0
 1140 0016 1A80     		strh	r2, [r3]
 1141 0018 BB1D     		adds	r3, r7, #6
 1142 001a 0A1C     		adds	r2, r1, #0
 1143 001c 1A70     		strb	r2, [r3]
 825:..\..\..\PSoC-4-BLE-master\100_Projects_in_100_Days\Day049_BLE_Mesh_Flood\Mesh_Flood\Mesh_Flood_PSoC4BLE.cydsn/ble_process.c **** 	CYBLE_GATTS_ERR_PARAM_T err_param;
 826:..\..\..\PSoC-4-BLE-master\100_Projects_in_100_Days\Day049_BLE_Mesh_Flood\Mesh_Flood\Mesh_Flood_PSoC4BLE.cydsn/ble_process.c **** 		            
 827:..\..\..\PSoC-4-BLE-master\100_Projects_in_100_Days\Day049_BLE_Mesh_Flood\Mesh_Flood\Mesh_Flood_PSoC4BLE.cydsn/ble_process.c ****     err_param.opcode = opCode;
 1144              		.loc 1 827 0
 1145 001e 0C23     		movs	r3, #12
 1146 0020 FB18     		adds	r3, r7, r3
 1147 0022 FA1D     		adds	r2, r7, #7
 1148 0024 1278     		ldrb	r2, [r2]
 1149 0026 9A70     		strb	r2, [r3, #2]
 828:..\..\..\PSoC-4-BLE-master\100_Projects_in_100_Days\Day049_BLE_Mesh_Flood\Mesh_Flood\Mesh_Flood_PSoC4BLE.cydsn/ble_process.c ****     err_param.attrHandle = attrHandle;
 1150              		.loc 1 828 0
 1151 0028 0C23     		movs	r3, #12
 1152 002a FB18     		adds	r3, r7, r3
 1153 002c 3A1D     		adds	r2, r7, #4
 1154 002e 1288     		ldrh	r2, [r2]
 1155 0030 1A80     		strh	r2, [r3]
 829:..\..\..\PSoC-4-BLE-master\100_Projects_in_100_Days\Day049_BLE_Mesh_Flood\Mesh_Flood\Mesh_Flood_PSoC4BLE.cydsn/ble_process.c ****     err_param.errorCode = errorCode;
 1156              		.loc 1 829 0
 1157 0032 0C23     		movs	r3, #12
 1158 0034 FB18     		adds	r3, r7, r3
 1159 0036 BA1D     		adds	r2, r7, #6
 1160 0038 1278     		ldrb	r2, [r2]
 1161 003a DA70     		strb	r2, [r3, #3]
 830:..\..\..\PSoC-4-BLE-master\100_Projects_in_100_Days\Day049_BLE_Mesh_Flood\Mesh_Flood\Mesh_Flood_PSoC4BLE.cydsn/ble_process.c **** 
 831:..\..\..\PSoC-4-BLE-master\100_Projects_in_100_Days\Day049_BLE_Mesh_Flood\Mesh_Flood\Mesh_Flood_PSoC4BLE.cydsn/ble_process.c ****     /* Send Error Response */
 832:..\..\..\PSoC-4-BLE-master\100_Projects_in_100_Days\Day049_BLE_Mesh_Flood\Mesh_Flood\Mesh_Flood_PSoC4BLE.cydsn/ble_process.c ****     (void)CyBle_GattsErrorRsp(cyBle_connHandle, &err_param);
 1162              		.loc 1 832 0
 1163 003c 0C23     		movs	r3, #12
 1164 003e F918     		adds	r1, r7, r3
 1165 0040 084B     		ldr	r3, .L63
 1166 0042 1A78     		ldrb	r2, [r3]
ARM GAS  C:\Users\User\AppData\Local\Temp\cc96DgHN.s 			page 39


 1167 0044 5B78     		ldrb	r3, [r3, #1]
 1168 0046 1B02     		lsls	r3, r3, #8
 1169 0048 1A43     		orrs	r2, r3
 1170 004a 0023     		movs	r3, #0
 1171 004c 1204     		lsls	r2, r2, #16
 1172 004e 120C     		lsrs	r2, r2, #16
 1173 0050 1B0C     		lsrs	r3, r3, #16
 1174 0052 1B04     		lsls	r3, r3, #16
 1175 0054 1343     		orrs	r3, r2
 1176 0056 1800     		movs	r0, r3
 1177 0058 FFF7FEFF 		bl	CyBle_GattsErrorRsp
 833:..\..\..\PSoC-4-BLE-master\100_Projects_in_100_Days\Day049_BLE_Mesh_Flood\Mesh_Flood\Mesh_Flood_PSoC4BLE.cydsn/ble_process.c **** }
 1178              		.loc 1 833 0
 1179 005c C046     		nop
 1180 005e BD46     		mov	sp, r7
 1181 0060 05B0     		add	sp, sp, #20
 1182              		@ sp needed
 1183 0062 90BD     		pop	{r4, r7, pc}
 1184              	.L64:
 1185              		.align	2
 1186              	.L63:
 1187 0064 00000000 		.word	cyBle_connHandle
 1188              		.cfi_endproc
 1189              	.LFE40:
 1190              		.size	SendErrorCode, .-SendErrorCode
 1191              		.text
 1192              	.Letext0:
 1193              		.file 2 "Generated_Source\\PSoC4/cytypes.h"
 1194              		.file 3 "Generated_Source\\PSoC4/OneWire.h"
 1195              		.file 4 "Generated_Source\\PSoC4/BLE_Stack.h"
 1196              		.file 5 "Generated_Source\\PSoC4/BLE_StackGap.h"
 1197              		.file 6 "Generated_Source\\PSoC4/BLE_StackGatt.h"
 1198              		.file 7 "Generated_Source\\PSoC4/BLE_StackGattServer.h"
 1199              		.file 8 "Generated_Source\\PSoC4/BLE_StackGattClient.h"
 1200              		.file 9 "Generated_Source\\PSoC4/BLE_hts.h"
 1201              		.file 10 "Generated_Source\\PSoC4/BLE_eventHandler.h"
 1202              		.file 11 "./Temperature.h"
 1203              		.file 12 "..\\..\\..\\PSoC-4-BLE-master\\100_Projects_in_100_Days\\Day049_BLE_Mesh_Flood\\Mesh_Flo
 1204              		.section	.debug_info,"",%progbits
 1205              	.Ldebug_info0:
 1206 0000 45120000 		.4byte	0x1245
 1207 0004 0400     		.2byte	0x4
 1208 0006 00000000 		.4byte	.Ldebug_abbrev0
 1209 000a 04       		.byte	0x4
 1210 000b 01       		.uleb128 0x1
 1211 000c B20D0000 		.4byte	.LASF559
 1212 0010 0C       		.byte	0xc
 1213 0011 EB120000 		.4byte	.LASF560
 1214 0015 79270000 		.4byte	.LASF561
 1215 0019 00000000 		.4byte	.Ldebug_ranges0+0
 1216 001d 00000000 		.4byte	0
 1217 0021 00000000 		.4byte	.Ldebug_line0
 1218 0025 02       		.uleb128 0x2
 1219 0026 01       		.byte	0x1
 1220 0027 06       		.byte	0x6
 1221 0028 47230000 		.4byte	.LASF0
 1222 002c 02       		.uleb128 0x2
ARM GAS  C:\Users\User\AppData\Local\Temp\cc96DgHN.s 			page 40


 1223 002d 01       		.byte	0x1
 1224 002e 08       		.byte	0x8
 1225 002f 6A0E0000 		.4byte	.LASF1
 1226 0033 02       		.uleb128 0x2
 1227 0034 02       		.byte	0x2
 1228 0035 05       		.byte	0x5
 1229 0036 5C410000 		.4byte	.LASF2
 1230 003a 02       		.uleb128 0x2
 1231 003b 02       		.byte	0x2
 1232 003c 07       		.byte	0x7
 1233 003d 1A230000 		.4byte	.LASF3
 1234 0041 02       		.uleb128 0x2
 1235 0042 04       		.byte	0x4
 1236 0043 05       		.byte	0x5
 1237 0044 4D270000 		.4byte	.LASF4
 1238 0048 02       		.uleb128 0x2
 1239 0049 04       		.byte	0x4
 1240 004a 07       		.byte	0x7
 1241 004b 6D2B0000 		.4byte	.LASF5
 1242 004f 02       		.uleb128 0x2
 1243 0050 08       		.byte	0x8
 1244 0051 05       		.byte	0x5
 1245 0052 493C0000 		.4byte	.LASF6
 1246 0056 02       		.uleb128 0x2
 1247 0057 08       		.byte	0x8
 1248 0058 07       		.byte	0x7
 1249 0059 6C370000 		.4byte	.LASF7
 1250 005d 03       		.uleb128 0x3
 1251 005e 04       		.byte	0x4
 1252 005f 05       		.byte	0x5
 1253 0060 696E7400 		.ascii	"int\000"
 1254 0064 02       		.uleb128 0x2
 1255 0065 04       		.byte	0x4
 1256 0066 07       		.byte	0x7
 1257 0067 E2400000 		.4byte	.LASF8
 1258 006b 04       		.uleb128 0x4
 1259 006c 32080000 		.4byte	.LASF9
 1260 0070 02       		.byte	0x2
 1261 0071 E601     		.2byte	0x1e6
 1262 0073 2C000000 		.4byte	0x2c
 1263 0077 04       		.uleb128 0x4
 1264 0078 F02A0000 		.4byte	.LASF10
 1265 007c 02       		.byte	0x2
 1266 007d E701     		.2byte	0x1e7
 1267 007f 3A000000 		.4byte	0x3a
 1268 0083 04       		.uleb128 0x4
 1269 0084 E22C0000 		.4byte	.LASF11
 1270 0088 02       		.byte	0x2
 1271 0089 E801     		.2byte	0x1e8
 1272 008b 48000000 		.4byte	0x48
 1273 008f 04       		.uleb128 0x4
 1274 0090 191D0000 		.4byte	.LASF12
 1275 0094 02       		.byte	0x2
 1276 0095 E901     		.2byte	0x1e9
 1277 0097 25000000 		.4byte	0x25
 1278 009b 02       		.uleb128 0x2
 1279 009c 04       		.byte	0x4
ARM GAS  C:\Users\User\AppData\Local\Temp\cc96DgHN.s 			page 41


 1280 009d 04       		.byte	0x4
 1281 009e EF0E0000 		.4byte	.LASF13
 1282 00a2 02       		.uleb128 0x2
 1283 00a3 08       		.byte	0x8
 1284 00a4 04       		.byte	0x4
 1285 00a5 30320000 		.4byte	.LASF14
 1286 00a9 02       		.uleb128 0x2
 1287 00aa 01       		.byte	0x1
 1288 00ab 08       		.byte	0x8
 1289 00ac 1F2C0000 		.4byte	.LASF15
 1290 00b0 05       		.uleb128 0x5
 1291 00b1 6B000000 		.4byte	0x6b
 1292 00b5 05       		.uleb128 0x5
 1293 00b6 77000000 		.4byte	0x77
 1294 00ba 06       		.uleb128 0x6
 1295 00bb B2380000 		.4byte	.LASF562
 1296 00bf 04       		.byte	0x4
 1297 00c0 03       		.byte	0x3
 1298 00c1 30       		.byte	0x30
 1299 00c2 DF000000 		.4byte	0xdf
 1300 00c6 07       		.uleb128 0x7
 1301 00c7 30150000 		.4byte	.LASF16
 1302 00cb 03       		.byte	0x3
 1303 00cc 31       		.byte	0x31
 1304 00cd 77000000 		.4byte	0x77
 1305 00d1 00       		.byte	0
 1306 00d2 07       		.uleb128 0x7
 1307 00d3 59320000 		.4byte	.LASF17
 1308 00d7 03       		.byte	0x3
 1309 00d8 32       		.byte	0x32
 1310 00d9 6B000000 		.4byte	0x6b
 1311 00dd 02       		.byte	0x2
 1312 00de 00       		.byte	0
 1313 00df 02       		.uleb128 0x2
 1314 00e0 08       		.byte	0x8
 1315 00e1 04       		.byte	0x4
 1316 00e2 8E2A0000 		.4byte	.LASF18
 1317 00e6 02       		.uleb128 0x2
 1318 00e7 04       		.byte	0x4
 1319 00e8 07       		.byte	0x7
 1320 00e9 9E220000 		.4byte	.LASF19
 1321 00ed 08       		.uleb128 0x8
 1322 00ee 04       		.byte	0x4
 1323 00ef 09       		.uleb128 0x9
 1324 00f0 04       		.byte	0x4
 1325 00f1 6B000000 		.4byte	0x6b
 1326 00f5 0A       		.uleb128 0xa
 1327 00f6 01       		.byte	0x1
 1328 00f7 2C000000 		.4byte	0x2c
 1329 00fb 04       		.byte	0x4
 1330 00fc 3501     		.2byte	0x135
 1331 00fe B3020000 		.4byte	0x2b3
 1332 0102 0B       		.uleb128 0xb
 1333 0103 E9220000 		.4byte	.LASF20
 1334 0107 00       		.byte	0
 1335 0108 0B       		.uleb128 0xb
 1336 0109 4F040000 		.4byte	.LASF21
ARM GAS  C:\Users\User\AppData\Local\Temp\cc96DgHN.s 			page 42


 1337 010d 01       		.byte	0x1
 1338 010e 0B       		.uleb128 0xb
 1339 010f 81140000 		.4byte	.LASF22
 1340 0113 02       		.byte	0x2
 1341 0114 0B       		.uleb128 0xb
 1342 0115 65090000 		.4byte	.LASF23
 1343 0119 03       		.byte	0x3
 1344 011a 0B       		.uleb128 0xb
 1345 011b 0E050000 		.4byte	.LASF24
 1346 011f 04       		.byte	0x4
 1347 0120 0B       		.uleb128 0xb
 1348 0121 5B290000 		.4byte	.LASF25
 1349 0125 05       		.byte	0x5
 1350 0126 0B       		.uleb128 0xb
 1351 0127 FE190000 		.4byte	.LASF26
 1352 012b 06       		.byte	0x6
 1353 012c 0B       		.uleb128 0xb
 1354 012d 8B130000 		.4byte	.LASF27
 1355 0131 20       		.byte	0x20
 1356 0132 0B       		.uleb128 0xb
 1357 0133 80100000 		.4byte	.LASF28
 1358 0137 21       		.byte	0x21
 1359 0138 0B       		.uleb128 0xb
 1360 0139 5F050000 		.4byte	.LASF29
 1361 013d 22       		.byte	0x22
 1362 013e 0B       		.uleb128 0xb
 1363 013f AF410000 		.4byte	.LASF30
 1364 0143 23       		.byte	0x23
 1365 0144 0B       		.uleb128 0xb
 1366 0145 E6010000 		.4byte	.LASF31
 1367 0149 24       		.byte	0x24
 1368 014a 0B       		.uleb128 0xb
 1369 014b D8350000 		.4byte	.LASF32
 1370 014f 25       		.byte	0x25
 1371 0150 0B       		.uleb128 0xb
 1372 0151 780E0000 		.4byte	.LASF33
 1373 0155 26       		.byte	0x26
 1374 0156 0B       		.uleb128 0xb
 1375 0157 C6210000 		.4byte	.LASF34
 1376 015b 27       		.byte	0x27
 1377 015c 0B       		.uleb128 0xb
 1378 015d 512A0000 		.4byte	.LASF35
 1379 0161 28       		.byte	0x28
 1380 0162 0B       		.uleb128 0xb
 1381 0163 9B210000 		.4byte	.LASF36
 1382 0167 29       		.byte	0x29
 1383 0168 0B       		.uleb128 0xb
 1384 0169 03390000 		.4byte	.LASF37
 1385 016d 2A       		.byte	0x2a
 1386 016e 0B       		.uleb128 0xb
 1387 016f BF3C0000 		.4byte	.LASF38
 1388 0173 2B       		.byte	0x2b
 1389 0174 0B       		.uleb128 0xb
 1390 0175 6B280000 		.4byte	.LASF39
 1391 0179 2C       		.byte	0x2c
 1392 017a 0B       		.uleb128 0xb
 1393 017b 833B0000 		.4byte	.LASF40
ARM GAS  C:\Users\User\AppData\Local\Temp\cc96DgHN.s 			page 43


 1394 017f 2D       		.byte	0x2d
 1395 0180 0B       		.uleb128 0xb
 1396 0181 FF250000 		.4byte	.LASF41
 1397 0185 2E       		.byte	0x2e
 1398 0186 0B       		.uleb128 0xb
 1399 0187 5F3F0000 		.4byte	.LASF42
 1400 018b 2F       		.byte	0x2f
 1401 018c 0B       		.uleb128 0xb
 1402 018d 98180000 		.4byte	.LASF43
 1403 0191 30       		.byte	0x30
 1404 0192 0B       		.uleb128 0xb
 1405 0193 EF400000 		.4byte	.LASF44
 1406 0197 31       		.byte	0x31
 1407 0198 0B       		.uleb128 0xb
 1408 0199 EF070000 		.4byte	.LASF45
 1409 019d 32       		.byte	0x32
 1410 019e 0B       		.uleb128 0xb
 1411 019f A10B0000 		.4byte	.LASF46
 1412 01a3 33       		.byte	0x33
 1413 01a4 0B       		.uleb128 0xb
 1414 01a5 A5320000 		.4byte	.LASF47
 1415 01a9 34       		.byte	0x34
 1416 01aa 0B       		.uleb128 0xb
 1417 01ab 6A1D0000 		.4byte	.LASF48
 1418 01af 35       		.byte	0x35
 1419 01b0 0B       		.uleb128 0xb
 1420 01b1 CE3B0000 		.4byte	.LASF49
 1421 01b5 36       		.byte	0x36
 1422 01b6 0B       		.uleb128 0xb
 1423 01b7 03330000 		.4byte	.LASF50
 1424 01bb 37       		.byte	0x37
 1425 01bc 0B       		.uleb128 0xb
 1426 01bd 540D0000 		.4byte	.LASF51
 1427 01c1 40       		.byte	0x40
 1428 01c2 0B       		.uleb128 0xb
 1429 01c3 80320000 		.4byte	.LASF52
 1430 01c7 41       		.byte	0x41
 1431 01c8 0B       		.uleb128 0xb
 1432 01c9 B61C0000 		.4byte	.LASF53
 1433 01cd 42       		.byte	0x42
 1434 01ce 0B       		.uleb128 0xb
 1435 01cf 31300000 		.4byte	.LASF54
 1436 01d3 43       		.byte	0x43
 1437 01d4 0B       		.uleb128 0xb
 1438 01d5 00060000 		.4byte	.LASF55
 1439 01d9 44       		.byte	0x44
 1440 01da 0B       		.uleb128 0xb
 1441 01db 9B290000 		.4byte	.LASF56
 1442 01df 45       		.byte	0x45
 1443 01e0 0B       		.uleb128 0xb
 1444 01e1 393E0000 		.4byte	.LASF57
 1445 01e5 46       		.byte	0x46
 1446 01e6 0B       		.uleb128 0xb
 1447 01e7 4C0F0000 		.4byte	.LASF58
 1448 01eb 47       		.byte	0x47
 1449 01ec 0B       		.uleb128 0xb
 1450 01ed 5B260000 		.4byte	.LASF59
ARM GAS  C:\Users\User\AppData\Local\Temp\cc96DgHN.s 			page 44


 1451 01f1 48       		.byte	0x48
 1452 01f2 0B       		.uleb128 0xb
 1453 01f3 D2060000 		.4byte	.LASF60
 1454 01f7 49       		.byte	0x49
 1455 01f8 0B       		.uleb128 0xb
 1456 01f9 9A190000 		.4byte	.LASF61
 1457 01fd 4A       		.byte	0x4a
 1458 01fe 0B       		.uleb128 0xb
 1459 01ff D80C0000 		.4byte	.LASF62
 1460 0203 4B       		.byte	0x4b
 1461 0204 0B       		.uleb128 0xb
 1462 0205 DA3D0000 		.4byte	.LASF63
 1463 0209 4C       		.byte	0x4c
 1464 020a 0B       		.uleb128 0xb
 1465 020b D62A0000 		.4byte	.LASF64
 1466 020f 4D       		.byte	0x4d
 1467 0210 0B       		.uleb128 0xb
 1468 0211 600C0000 		.4byte	.LASF65
 1469 0215 4E       		.byte	0x4e
 1470 0216 0B       		.uleb128 0xb
 1471 0217 2E2E0000 		.4byte	.LASF66
 1472 021b 4F       		.byte	0x4f
 1473 021c 0B       		.uleb128 0xb
 1474 021d 351A0000 		.4byte	.LASF67
 1475 0221 50       		.byte	0x50
 1476 0222 0B       		.uleb128 0xb
 1477 0223 C0230000 		.4byte	.LASF68
 1478 0227 51       		.byte	0x51
 1479 0228 0B       		.uleb128 0xb
 1480 0229 6F160000 		.4byte	.LASF69
 1481 022d 52       		.byte	0x52
 1482 022e 0B       		.uleb128 0xb
 1483 022f C6310000 		.4byte	.LASF70
 1484 0233 53       		.byte	0x53
 1485 0234 0B       		.uleb128 0xb
 1486 0235 F63C0000 		.4byte	.LASF71
 1487 0239 54       		.byte	0x54
 1488 023a 0B       		.uleb128 0xb
 1489 023b A5030000 		.4byte	.LASF72
 1490 023f 55       		.byte	0x55
 1491 0240 0B       		.uleb128 0xb
 1492 0241 9A2B0000 		.4byte	.LASF73
 1493 0245 56       		.byte	0x56
 1494 0246 0B       		.uleb128 0xb
 1495 0247 D4360000 		.4byte	.LASF74
 1496 024b 57       		.byte	0x57
 1497 024c 0B       		.uleb128 0xb
 1498 024d F43D0000 		.4byte	.LASF75
 1499 0251 58       		.byte	0x58
 1500 0252 0B       		.uleb128 0xb
 1501 0253 FD360000 		.4byte	.LASF76
 1502 0257 70       		.byte	0x70
 1503 0258 0B       		.uleb128 0xb
 1504 0259 2E1E0000 		.4byte	.LASF77
 1505 025d 71       		.byte	0x71
 1506 025e 0B       		.uleb128 0xb
 1507 025f 9F0A0000 		.4byte	.LASF78
ARM GAS  C:\Users\User\AppData\Local\Temp\cc96DgHN.s 			page 45


 1508 0263 72       		.byte	0x72
 1509 0264 0B       		.uleb128 0xb
 1510 0265 8F0F0000 		.4byte	.LASF79
 1511 0269 73       		.byte	0x73
 1512 026a 0B       		.uleb128 0xb
 1513 026b 602C0000 		.4byte	.LASF80
 1514 026f 74       		.byte	0x74
 1515 0270 0B       		.uleb128 0xb
 1516 0271 F30F0000 		.4byte	.LASF81
 1517 0275 75       		.byte	0x75
 1518 0276 0B       		.uleb128 0xb
 1519 0277 312D0000 		.4byte	.LASF82
 1520 027b 76       		.byte	0x76
 1521 027c 0B       		.uleb128 0xb
 1522 027d C3180000 		.4byte	.LASF83
 1523 0281 77       		.byte	0x77
 1524 0282 0B       		.uleb128 0xb
 1525 0283 773E0000 		.4byte	.LASF84
 1526 0287 78       		.byte	0x78
 1527 0288 0B       		.uleb128 0xb
 1528 0289 36400000 		.4byte	.LASF85
 1529 028d 79       		.byte	0x79
 1530 028e 0B       		.uleb128 0xb
 1531 028f 29160000 		.4byte	.LASF86
 1532 0293 7A       		.byte	0x7a
 1533 0294 0B       		.uleb128 0xb
 1534 0295 CB220000 		.4byte	.LASF87
 1535 0299 FA       		.byte	0xfa
 1536 029a 0B       		.uleb128 0xb
 1537 029b AF150000 		.4byte	.LASF88
 1538 029f FB       		.byte	0xfb
 1539 02a0 0B       		.uleb128 0xb
 1540 02a1 1F0B0000 		.4byte	.LASF89
 1541 02a5 FC       		.byte	0xfc
 1542 02a6 0B       		.uleb128 0xb
 1543 02a7 F63A0000 		.4byte	.LASF90
 1544 02ab FD       		.byte	0xfd
 1545 02ac 0B       		.uleb128 0xb
 1546 02ad 9D000000 		.4byte	.LASF91
 1547 02b1 FF       		.byte	0xff
 1548 02b2 00       		.byte	0
 1549 02b3 0A       		.uleb128 0xa
 1550 02b4 02       		.byte	0x2
 1551 02b5 3A000000 		.4byte	0x3a
 1552 02b9 04       		.byte	0x4
 1553 02ba EA03     		.2byte	0x3ea
 1554 02bc 92030000 		.4byte	0x392
 1555 02c0 0B       		.uleb128 0xb
 1556 02c1 86020000 		.4byte	.LASF92
 1557 02c5 00       		.byte	0
 1558 02c6 0B       		.uleb128 0xb
 1559 02c7 A3090000 		.4byte	.LASF93
 1560 02cb 01       		.byte	0x1
 1561 02cc 0B       		.uleb128 0xb
 1562 02cd C42C0000 		.4byte	.LASF94
 1563 02d1 02       		.byte	0x2
 1564 02d2 0B       		.uleb128 0xb
ARM GAS  C:\Users\User\AppData\Local\Temp\cc96DgHN.s 			page 46


 1565 02d3 0A2A0000 		.4byte	.LASF95
 1566 02d7 03       		.byte	0x3
 1567 02d8 0B       		.uleb128 0xb
 1568 02d9 38290000 		.4byte	.LASF96
 1569 02dd 04       		.byte	0x4
 1570 02de 0B       		.uleb128 0xb
 1571 02df 18350000 		.4byte	.LASF97
 1572 02e3 05       		.byte	0x5
 1573 02e4 0B       		.uleb128 0xb
 1574 02e5 BC2A0000 		.4byte	.LASF98
 1575 02e9 06       		.byte	0x6
 1576 02ea 0B       		.uleb128 0xb
 1577 02eb 142D0000 		.4byte	.LASF99
 1578 02ef 07       		.byte	0x7
 1579 02f0 0B       		.uleb128 0xb
 1580 02f1 F0150000 		.4byte	.LASF100
 1581 02f5 08       		.byte	0x8
 1582 02f6 0B       		.uleb128 0xb
 1583 02f7 571B0000 		.4byte	.LASF101
 1584 02fb 09       		.byte	0x9
 1585 02fc 0B       		.uleb128 0xb
 1586 02fd 5F300000 		.4byte	.LASF102
 1587 0301 0A       		.byte	0xa
 1588 0302 0B       		.uleb128 0xb
 1589 0303 DE020000 		.4byte	.LASF103
 1590 0307 0B       		.byte	0xb
 1591 0308 0B       		.uleb128 0xb
 1592 0309 F72A0000 		.4byte	.LASF104
 1593 030d 0C       		.byte	0xc
 1594 030e 0B       		.uleb128 0xb
 1595 030f 3B3D0000 		.4byte	.LASF105
 1596 0313 0D       		.byte	0xd
 1597 0314 0B       		.uleb128 0xb
 1598 0315 25000000 		.4byte	.LASF106
 1599 0319 0E       		.byte	0xe
 1600 031a 0B       		.uleb128 0xb
 1601 031b 19280000 		.4byte	.LASF107
 1602 031f 0F       		.byte	0xf
 1603 0320 0B       		.uleb128 0xb
 1604 0321 291B0000 		.4byte	.LASF108
 1605 0325 10       		.byte	0x10
 1606 0326 0B       		.uleb128 0xb
 1607 0327 07380000 		.4byte	.LASF109
 1608 032b 11       		.byte	0x11
 1609 032c 0B       		.uleb128 0xb
 1610 032d 4C120000 		.4byte	.LASF110
 1611 0331 12       		.byte	0x12
 1612 0332 0B       		.uleb128 0xb
 1613 0333 B9040000 		.4byte	.LASF111
 1614 0337 13       		.byte	0x13
 1615 0338 0B       		.uleb128 0xb
 1616 0339 D61A0000 		.4byte	.LASF112
 1617 033d 27       		.byte	0x27
 1618 033e 0B       		.uleb128 0xb
 1619 033f C2380000 		.4byte	.LASF113
 1620 0343 28       		.byte	0x28
 1621 0344 0B       		.uleb128 0xb
ARM GAS  C:\Users\User\AppData\Local\Temp\cc96DgHN.s 			page 47


 1622 0345 E2180000 		.4byte	.LASF114
 1623 0349 29       		.byte	0x29
 1624 034a 0B       		.uleb128 0xb
 1625 034b 5A3E0000 		.4byte	.LASF115
 1626 034f 2A       		.byte	0x2a
 1627 0350 0B       		.uleb128 0xb
 1628 0351 D4420000 		.4byte	.LASF116
 1629 0355 2B       		.byte	0x2b
 1630 0356 0B       		.uleb128 0xb
 1631 0357 CC290000 		.4byte	.LASF117
 1632 035b 2C       		.byte	0x2c
 1633 035c 0B       		.uleb128 0xb
 1634 035d 90360000 		.4byte	.LASF118
 1635 0361 2D       		.byte	0x2d
 1636 0362 0B       		.uleb128 0xb
 1637 0363 BB0E0000 		.4byte	.LASF119
 1638 0367 FE       		.byte	0xfe
 1639 0368 0B       		.uleb128 0xb
 1640 0369 4F300000 		.4byte	.LASF120
 1641 036d FF       		.byte	0xff
 1642 036e 0C       		.uleb128 0xc
 1643 036f A3170000 		.4byte	.LASF121
 1644 0373 0001     		.2byte	0x100
 1645 0375 0C       		.uleb128 0xc
 1646 0376 02020000 		.4byte	.LASF122
 1647 037a 0101     		.2byte	0x101
 1648 037c 0C       		.uleb128 0xc
 1649 037d B2080000 		.4byte	.LASF123
 1650 0381 0201     		.2byte	0x102
 1651 0383 0C       		.uleb128 0xc
 1652 0384 B7260000 		.4byte	.LASF124
 1653 0388 0301     		.2byte	0x103
 1654 038a 0C       		.uleb128 0xc
 1655 038b 6F120000 		.4byte	.LASF125
 1656 038f 0401     		.2byte	0x104
 1657 0391 00       		.byte	0
 1658 0392 04       		.uleb128 0x4
 1659 0393 D7170000 		.4byte	.LASF126
 1660 0397 04       		.byte	0x4
 1661 0398 5C04     		.2byte	0x45c
 1662 039a B3020000 		.4byte	0x2b3
 1663 039e 0D       		.uleb128 0xd
 1664 039f 07       		.byte	0x7
 1665 03a0 04       		.byte	0x4
 1666 03a1 2A05     		.2byte	0x52a
 1667 03a3 C2030000 		.4byte	0x3c2
 1668 03a7 0E       		.uleb128 0xe
 1669 03a8 90160000 		.4byte	.LASF127
 1670 03ac 04       		.byte	0x4
 1671 03ad 2D05     		.2byte	0x52d
 1672 03af C2030000 		.4byte	0x3c2
 1673 03b3 00       		.byte	0
 1674 03b4 0E       		.uleb128 0xe
 1675 03b5 680B0000 		.4byte	.LASF128
 1676 03b9 04       		.byte	0x4
 1677 03ba 2F05     		.2byte	0x52f
 1678 03bc 6B000000 		.4byte	0x6b
ARM GAS  C:\Users\User\AppData\Local\Temp\cc96DgHN.s 			page 48


 1679 03c0 06       		.byte	0x6
 1680 03c1 00       		.byte	0
 1681 03c2 0F       		.uleb128 0xf
 1682 03c3 6B000000 		.4byte	0x6b
 1683 03c7 D2030000 		.4byte	0x3d2
 1684 03cb 10       		.uleb128 0x10
 1685 03cc E6000000 		.4byte	0xe6
 1686 03d0 05       		.byte	0x5
 1687 03d1 00       		.byte	0
 1688 03d2 04       		.uleb128 0x4
 1689 03d3 51330000 		.4byte	.LASF129
 1690 03d7 04       		.byte	0x4
 1691 03d8 3005     		.2byte	0x530
 1692 03da 9E030000 		.4byte	0x39e
 1693 03de 11       		.uleb128 0x11
 1694 03df 01       		.byte	0x1
 1695 03e0 2C000000 		.4byte	0x2c
 1696 03e4 05       		.byte	0x5
 1697 03e5 F4       		.byte	0xf4
 1698 03e6 09040000 		.4byte	0x409
 1699 03ea 0B       		.uleb128 0xb
 1700 03eb 23050000 		.4byte	.LASF130
 1701 03ef 00       		.byte	0
 1702 03f0 0B       		.uleb128 0xb
 1703 03f1 C53F0000 		.4byte	.LASF131
 1704 03f5 01       		.byte	0x1
 1705 03f6 0B       		.uleb128 0xb
 1706 03f7 FD330000 		.4byte	.LASF132
 1707 03fb 02       		.byte	0x2
 1708 03fc 0B       		.uleb128 0xb
 1709 03fd F13F0000 		.4byte	.LASF133
 1710 0401 03       		.byte	0x3
 1711 0402 0B       		.uleb128 0xb
 1712 0403 EB1E0000 		.4byte	.LASF134
 1713 0407 04       		.byte	0x4
 1714 0408 00       		.byte	0
 1715 0409 04       		.uleb128 0x4
 1716 040a 2F2C0000 		.4byte	.LASF135
 1717 040e 05       		.byte	0x5
 1718 040f 0401     		.2byte	0x104
 1719 0411 DE030000 		.4byte	0x3de
 1720 0415 0D       		.uleb128 0xd
 1721 0416 14       		.byte	0x14
 1722 0417 05       		.byte	0x5
 1723 0418 2403     		.2byte	0x324
 1724 041a 6D040000 		.4byte	0x46d
 1725 041e 0E       		.uleb128 0xe
 1726 041f 90190000 		.4byte	.LASF136
 1727 0423 05       		.byte	0x5
 1728 0424 2D03     		.2byte	0x32d
 1729 0426 09040000 		.4byte	0x409
 1730 042a 00       		.byte	0
 1731 042b 0E       		.uleb128 0xe
 1732 042c AC040000 		.4byte	.LASF137
 1733 0430 05       		.byte	0x5
 1734 0431 3503     		.2byte	0x335
 1735 0433 6B000000 		.4byte	0x6b
ARM GAS  C:\Users\User\AppData\Local\Temp\cc96DgHN.s 			page 49


 1736 0437 01       		.byte	0x1
 1737 0438 0E       		.uleb128 0xe
 1738 0439 47110000 		.4byte	.LASF138
 1739 043d 05       		.byte	0x5
 1740 043e 3903     		.2byte	0x339
 1741 0440 EF000000 		.4byte	0xef
 1742 0444 04       		.byte	0x4
 1743 0445 0E       		.uleb128 0xe
 1744 0446 3F110000 		.4byte	.LASF139
 1745 044a 05       		.byte	0x5
 1746 044b 3C03     		.2byte	0x33c
 1747 044d 6B000000 		.4byte	0x6b
 1748 0451 08       		.byte	0x8
 1749 0452 0E       		.uleb128 0xe
 1750 0453 65330000 		.4byte	.LASF140
 1751 0457 05       		.byte	0x5
 1752 0458 3F03     		.2byte	0x33f
 1753 045a EF000000 		.4byte	0xef
 1754 045e 0C       		.byte	0xc
 1755 045f 0E       		.uleb128 0xe
 1756 0460 D22E0000 		.4byte	.LASF141
 1757 0464 05       		.byte	0x5
 1758 0465 4403     		.2byte	0x344
 1759 0467 8F000000 		.4byte	0x8f
 1760 046b 10       		.byte	0x10
 1761 046c 00       		.byte	0
 1762 046d 04       		.uleb128 0x4
 1763 046e DE3C0000 		.4byte	.LASF142
 1764 0472 05       		.byte	0x5
 1765 0473 4603     		.2byte	0x346
 1766 0475 15040000 		.4byte	0x415
 1767 0479 11       		.uleb128 0x11
 1768 047a 01       		.byte	0x1
 1769 047b 2C000000 		.4byte	0x2c
 1770 047f 06       		.byte	0x6
 1771 0480 A5       		.byte	0xa5
 1772 0481 70050000 		.4byte	0x570
 1773 0485 0B       		.uleb128 0xb
 1774 0486 A61B0000 		.4byte	.LASF143
 1775 048a 00       		.byte	0
 1776 048b 0B       		.uleb128 0xb
 1777 048c 752D0000 		.4byte	.LASF144
 1778 0490 01       		.byte	0x1
 1779 0491 0B       		.uleb128 0xb
 1780 0492 8D410000 		.4byte	.LASF145
 1781 0496 02       		.byte	0x2
 1782 0497 0B       		.uleb128 0xb
 1783 0498 AD270000 		.4byte	.LASF146
 1784 049c 03       		.byte	0x3
 1785 049d 0B       		.uleb128 0xb
 1786 049e 97100000 		.4byte	.LASF147
 1787 04a2 04       		.byte	0x4
 1788 04a3 0B       		.uleb128 0xb
 1789 04a4 0E2B0000 		.4byte	.LASF148
 1790 04a8 05       		.byte	0x5
 1791 04a9 0B       		.uleb128 0xb
 1792 04aa 5B100000 		.4byte	.LASF149
ARM GAS  C:\Users\User\AppData\Local\Temp\cc96DgHN.s 			page 50


 1793 04ae 06       		.byte	0x6
 1794 04af 0B       		.uleb128 0xb
 1795 04b0 31220000 		.4byte	.LASF150
 1796 04b4 07       		.byte	0x7
 1797 04b5 0B       		.uleb128 0xb
 1798 04b6 74220000 		.4byte	.LASF151
 1799 04ba 08       		.byte	0x8
 1800 04bb 0B       		.uleb128 0xb
 1801 04bc AC110000 		.4byte	.LASF152
 1802 04c0 09       		.byte	0x9
 1803 04c1 0B       		.uleb128 0xb
 1804 04c2 AF130000 		.4byte	.LASF153
 1805 04c6 0A       		.byte	0xa
 1806 04c7 0B       		.uleb128 0xb
 1807 04c8 FE180000 		.4byte	.LASF154
 1808 04cc 0B       		.byte	0xb
 1809 04cd 0B       		.uleb128 0xb
 1810 04ce D0000000 		.4byte	.LASF155
 1811 04d2 0C       		.byte	0xc
 1812 04d3 0B       		.uleb128 0xb
 1813 04d4 243C0000 		.4byte	.LASF156
 1814 04d8 0D       		.byte	0xd
 1815 04d9 0B       		.uleb128 0xb
 1816 04da 20190000 		.4byte	.LASF157
 1817 04de 0E       		.byte	0xe
 1818 04df 0B       		.uleb128 0xb
 1819 04e0 35410000 		.4byte	.LASF158
 1820 04e4 0F       		.byte	0xf
 1821 04e5 0B       		.uleb128 0xb
 1822 04e6 E4290000 		.4byte	.LASF159
 1823 04ea 10       		.byte	0x10
 1824 04eb 0B       		.uleb128 0xb
 1825 04ec 0B150000 		.4byte	.LASF160
 1826 04f0 11       		.byte	0x11
 1827 04f1 0B       		.uleb128 0xb
 1828 04f2 6D0B0000 		.4byte	.LASF161
 1829 04f6 80       		.byte	0x80
 1830 04f7 0B       		.uleb128 0xb
 1831 04f8 921F0000 		.4byte	.LASF162
 1832 04fc 80       		.byte	0x80
 1833 04fd 0B       		.uleb128 0xb
 1834 04fe 6B3D0000 		.4byte	.LASF163
 1835 0502 80       		.byte	0x80
 1836 0503 0B       		.uleb128 0xb
 1837 0504 7E0C0000 		.4byte	.LASF164
 1838 0508 80       		.byte	0x80
 1839 0509 0B       		.uleb128 0xb
 1840 050a 5F390000 		.4byte	.LASF165
 1841 050e 80       		.byte	0x80
 1842 050f 0B       		.uleb128 0xb
 1843 0510 3E360000 		.4byte	.LASF166
 1844 0514 80       		.byte	0x80
 1845 0515 0B       		.uleb128 0xb
 1846 0516 AC340000 		.4byte	.LASF167
 1847 051a 80       		.byte	0x80
 1848 051b 0B       		.uleb128 0xb
 1849 051c BF3D0000 		.4byte	.LASF168
ARM GAS  C:\Users\User\AppData\Local\Temp\cc96DgHN.s 			page 51


 1850 0520 80       		.byte	0x80
 1851 0521 0B       		.uleb128 0xb
 1852 0522 1E060000 		.4byte	.LASF169
 1853 0526 81       		.byte	0x81
 1854 0527 0B       		.uleb128 0xb
 1855 0528 1C0D0000 		.4byte	.LASF170
 1856 052c 81       		.byte	0x81
 1857 052d 0B       		.uleb128 0xb
 1858 052e A00E0000 		.4byte	.LASF171
 1859 0532 81       		.byte	0x81
 1860 0533 0B       		.uleb128 0xb
 1861 0534 9D1A0000 		.4byte	.LASF172
 1862 0538 81       		.byte	0x81
 1863 0539 0B       		.uleb128 0xb
 1864 053a F2350000 		.4byte	.LASF173
 1865 053e 82       		.byte	0x82
 1866 053f 0B       		.uleb128 0xb
 1867 0540 9C2F0000 		.4byte	.LASF174
 1868 0544 A0       		.byte	0xa0
 1869 0545 0B       		.uleb128 0xb
 1870 0546 11310000 		.4byte	.LASF175
 1871 054a A0       		.byte	0xa0
 1872 054b 0B       		.uleb128 0xb
 1873 054c 6D240000 		.4byte	.LASF176
 1874 0550 A1       		.byte	0xa1
 1875 0551 0B       		.uleb128 0xb
 1876 0552 1C340000 		.4byte	.LASF177
 1877 0556 A2       		.byte	0xa2
 1878 0557 0B       		.uleb128 0xb
 1879 0558 F8100000 		.4byte	.LASF178
 1880 055c A3       		.byte	0xa3
 1881 055d 0B       		.uleb128 0xb
 1882 055e 400E0000 		.4byte	.LASF179
 1883 0562 FD       		.byte	0xfd
 1884 0563 0B       		.uleb128 0xb
 1885 0564 E1040000 		.4byte	.LASF180
 1886 0568 FE       		.byte	0xfe
 1887 0569 0B       		.uleb128 0xb
 1888 056a 80230000 		.4byte	.LASF181
 1889 056e FF       		.byte	0xff
 1890 056f 00       		.byte	0
 1891 0570 04       		.uleb128 0x4
 1892 0571 14420000 		.4byte	.LASF182
 1893 0575 06       		.byte	0x6
 1894 0576 5F01     		.2byte	0x15f
 1895 0578 79040000 		.4byte	0x479
 1896 057c 04       		.uleb128 0x4
 1897 057d 81400000 		.4byte	.LASF183
 1898 0581 06       		.byte	0x6
 1899 0582 8901     		.2byte	0x189
 1900 0584 77000000 		.4byte	0x77
 1901 0588 0D       		.uleb128 0xd
 1902 0589 02       		.byte	0x2
 1903 058a 06       		.byte	0x6
 1904 058b 9301     		.2byte	0x193
 1905 058d AC050000 		.4byte	0x5ac
 1906 0591 0E       		.uleb128 0xe
ARM GAS  C:\Users\User\AppData\Local\Temp\cc96DgHN.s 			page 52


 1907 0592 0B2D0000 		.4byte	.LASF184
 1908 0596 06       		.byte	0x6
 1909 0597 9A01     		.2byte	0x19a
 1910 0599 6B000000 		.4byte	0x6b
 1911 059d 00       		.byte	0
 1912 059e 0E       		.uleb128 0xe
 1913 059f 8F280000 		.4byte	.LASF185
 1914 05a3 06       		.byte	0x6
 1915 05a4 A001     		.2byte	0x1a0
 1916 05a6 6B000000 		.4byte	0x6b
 1917 05aa 01       		.byte	0x1
 1918 05ab 00       		.byte	0
 1919 05ac 04       		.uleb128 0x4
 1920 05ad 8D310000 		.4byte	.LASF186
 1921 05b1 06       		.byte	0x6
 1922 05b2 A201     		.2byte	0x1a2
 1923 05b4 88050000 		.4byte	0x588
 1924 05b8 0D       		.uleb128 0xd
 1925 05b9 08       		.byte	0x8
 1926 05ba 06       		.byte	0x6
 1927 05bb BE01     		.2byte	0x1be
 1928 05bd E9050000 		.4byte	0x5e9
 1929 05c1 12       		.uleb128 0x12
 1930 05c2 76616C00 		.ascii	"val\000"
 1931 05c6 06       		.byte	0x6
 1932 05c7 C101     		.2byte	0x1c1
 1933 05c9 E9050000 		.4byte	0x5e9
 1934 05cd 00       		.byte	0
 1935 05ce 12       		.uleb128 0x12
 1936 05cf 6C656E00 		.ascii	"len\000"
 1937 05d3 06       		.byte	0x6
 1938 05d4 C401     		.2byte	0x1c4
 1939 05d6 77000000 		.4byte	0x77
 1940 05da 04       		.byte	0x4
 1941 05db 0E       		.uleb128 0xe
 1942 05dc D2250000 		.4byte	.LASF187
 1943 05e0 06       		.byte	0x6
 1944 05e1 CB01     		.2byte	0x1cb
 1945 05e3 77000000 		.4byte	0x77
 1946 05e7 06       		.byte	0x6
 1947 05e8 00       		.byte	0
 1948 05e9 09       		.uleb128 0x9
 1949 05ea 04       		.byte	0x4
 1950 05eb 9B000000 		.4byte	0x9b
 1951 05ef 04       		.uleb128 0x4
 1952 05f0 060C0000 		.4byte	.LASF188
 1953 05f4 06       		.byte	0x6
 1954 05f5 CD01     		.2byte	0x1cd
 1955 05f7 B8050000 		.4byte	0x5b8
 1956 05fb 0D       		.uleb128 0xd
 1957 05fc 0C       		.byte	0xc
 1958 05fd 06       		.byte	0x6
 1959 05fe D001     		.2byte	0x1d0
 1960 0600 1F060000 		.4byte	0x61f
 1961 0604 0E       		.uleb128 0xe
 1962 0605 901B0000 		.4byte	.LASF189
 1963 0609 06       		.byte	0x6
ARM GAS  C:\Users\User\AppData\Local\Temp\cc96DgHN.s 			page 53


 1964 060a D301     		.2byte	0x1d3
 1965 060c EF050000 		.4byte	0x5ef
 1966 0610 00       		.byte	0
 1967 0611 0E       		.uleb128 0xe
 1968 0612 76400000 		.4byte	.LASF190
 1969 0616 06       		.byte	0x6
 1970 0617 D601     		.2byte	0x1d6
 1971 0619 7C050000 		.4byte	0x57c
 1972 061d 08       		.byte	0x8
 1973 061e 00       		.byte	0
 1974 061f 04       		.uleb128 0x4
 1975 0620 3E190000 		.4byte	.LASF191
 1976 0624 06       		.byte	0x6
 1977 0625 D801     		.2byte	0x1d8
 1978 0627 FB050000 		.4byte	0x5fb
 1979 062b 13       		.uleb128 0x13
 1980 062c 04       		.byte	0x4
 1981 062d 07       		.byte	0x7
 1982 062e 3A       		.byte	0x3a
 1983 062f 58060000 		.4byte	0x658
 1984 0633 07       		.uleb128 0x7
 1985 0634 76400000 		.4byte	.LASF190
 1986 0638 07       		.byte	0x7
 1987 0639 3D       		.byte	0x3d
 1988 063a 7C050000 		.4byte	0x57c
 1989 063e 00       		.byte	0
 1990 063f 07       		.uleb128 0x7
 1991 0640 51070000 		.4byte	.LASF192
 1992 0644 07       		.byte	0x7
 1993 0645 43       		.byte	0x43
 1994 0646 6B000000 		.4byte	0x6b
 1995 064a 02       		.byte	0x2
 1996 064b 07       		.uleb128 0x7
 1997 064c E5210000 		.4byte	.LASF193
 1998 0650 07       		.byte	0x7
 1999 0651 46       		.byte	0x46
 2000 0652 70050000 		.4byte	0x570
 2001 0656 03       		.byte	0x3
 2002 0657 00       		.byte	0
 2003 0658 14       		.uleb128 0x14
 2004 0659 96250000 		.4byte	.LASF194
 2005 065d 07       		.byte	0x7
 2006 065e 48       		.byte	0x48
 2007 065f 2B060000 		.4byte	0x62b
 2008 0663 13       		.uleb128 0x13
 2009 0664 10       		.byte	0x10
 2010 0665 07       		.byte	0x7
 2011 0666 8A       		.byte	0x8a
 2012 0667 84060000 		.4byte	0x684
 2013 066b 07       		.uleb128 0x7
 2014 066c 1C3A0000 		.4byte	.LASF195
 2015 0670 07       		.byte	0x7
 2016 0671 8D       		.byte	0x8d
 2017 0672 AC050000 		.4byte	0x5ac
 2018 0676 00       		.byte	0
 2019 0677 07       		.uleb128 0x7
 2020 0678 F81A0000 		.4byte	.LASF196
ARM GAS  C:\Users\User\AppData\Local\Temp\cc96DgHN.s 			page 54


 2021 067c 07       		.byte	0x7
 2022 067d 90       		.byte	0x90
 2023 067e 1F060000 		.4byte	0x61f
 2024 0682 04       		.byte	0x4
 2025 0683 00       		.byte	0
 2026 0684 14       		.uleb128 0x14
 2027 0685 940D0000 		.4byte	.LASF197
 2028 0689 07       		.byte	0x7
 2029 068a 92       		.byte	0x92
 2030 068b 63060000 		.4byte	0x663
 2031 068f 14       		.uleb128 0x14
 2032 0690 E5370000 		.4byte	.LASF198
 2033 0694 07       		.byte	0x7
 2034 0695 95       		.byte	0x95
 2035 0696 84060000 		.4byte	0x684
 2036 069a 14       		.uleb128 0x14
 2037 069b D70E0000 		.4byte	.LASF199
 2038 069f 08       		.byte	0x8
 2039 06a0 7A       		.byte	0x7a
 2040 06a1 1F060000 		.4byte	0x61f
 2041 06a5 11       		.uleb128 0x11
 2042 06a6 01       		.byte	0x1
 2043 06a7 2C000000 		.4byte	0x2c
 2044 06ab 09       		.byte	0x9
 2045 06ac 21       		.byte	0x21
 2046 06ad D0060000 		.4byte	0x6d0
 2047 06b1 0B       		.uleb128 0xb
 2048 06b2 392B0000 		.4byte	.LASF200
 2049 06b6 00       		.byte	0
 2050 06b7 0B       		.uleb128 0xb
 2051 06b8 58070000 		.4byte	.LASF201
 2052 06bc 01       		.byte	0x1
 2053 06bd 0B       		.uleb128 0xb
 2054 06be BC060000 		.4byte	.LASF202
 2055 06c2 02       		.byte	0x2
 2056 06c3 0B       		.uleb128 0xb
 2057 06c4 41010000 		.4byte	.LASF203
 2058 06c8 03       		.byte	0x3
 2059 06c9 0B       		.uleb128 0xb
 2060 06ca 311D0000 		.4byte	.LASF204
 2061 06ce 04       		.byte	0x4
 2062 06cf 00       		.byte	0
 2063 06d0 11       		.uleb128 0x11
 2064 06d1 01       		.byte	0x1
 2065 06d2 2C000000 		.4byte	0x2c
 2066 06d6 09       		.byte	0x9
 2067 06d7 2C       		.byte	0x2c
 2068 06d8 EF060000 		.4byte	0x6ef
 2069 06dc 0B       		.uleb128 0xb
 2070 06dd E23F0000 		.4byte	.LASF205
 2071 06e1 00       		.byte	0
 2072 06e2 0B       		.uleb128 0xb
 2073 06e3 B8210000 		.4byte	.LASF206
 2074 06e7 01       		.byte	0x1
 2075 06e8 0B       		.uleb128 0xb
 2076 06e9 89060000 		.4byte	.LASF207
 2077 06ed 02       		.byte	0x2
ARM GAS  C:\Users\User\AppData\Local\Temp\cc96DgHN.s 			page 55


 2078 06ee 00       		.byte	0
 2079 06ef 11       		.uleb128 0x11
 2080 06f0 02       		.byte	0x2
 2081 06f1 3A000000 		.4byte	0x3a
 2082 06f5 0A       		.byte	0xa
 2083 06f6 B4       		.byte	0xb4
 2084 06f7 5A0F0000 		.4byte	0xf5a
 2085 06fb 0C       		.uleb128 0xc
 2086 06fc 68130000 		.4byte	.LASF208
 2087 0700 0001     		.2byte	0x100
 2088 0702 0C       		.uleb128 0xc
 2089 0703 14400000 		.4byte	.LASF209
 2090 0707 0101     		.2byte	0x101
 2091 0709 0C       		.uleb128 0xc
 2092 070a F71C0000 		.4byte	.LASF210
 2093 070e 0201     		.2byte	0x102
 2094 0710 0C       		.uleb128 0xc
 2095 0711 6E0D0000 		.4byte	.LASF211
 2096 0715 0301     		.2byte	0x103
 2097 0717 0C       		.uleb128 0xc
 2098 0718 9C3C0000 		.4byte	.LASF212
 2099 071c 0401     		.2byte	0x104
 2100 071e 0C       		.uleb128 0xc
 2101 071f 173D0000 		.4byte	.LASF213
 2102 0723 0501     		.2byte	0x105
 2103 0725 0C       		.uleb128 0xc
 2104 0726 273A0000 		.4byte	.LASF214
 2105 072a 0601     		.2byte	0x106
 2106 072c 0C       		.uleb128 0xc
 2107 072d EE280000 		.4byte	.LASF215
 2108 0731 0701     		.2byte	0x107
 2109 0733 0C       		.uleb128 0xc
 2110 0734 B63A0000 		.4byte	.LASF216
 2111 0738 0801     		.2byte	0x108
 2112 073a 0C       		.uleb128 0xc
 2113 073b 6E150000 		.4byte	.LASF217
 2114 073f 0901     		.2byte	0x109
 2115 0741 0C       		.uleb128 0xc
 2116 0742 71180000 		.4byte	.LASF218
 2117 0746 0A01     		.2byte	0x10a
 2118 0748 0C       		.uleb128 0xc
 2119 0749 58200000 		.4byte	.LASF219
 2120 074d 0B01     		.2byte	0x10b
 2121 074f 0C       		.uleb128 0xc
 2122 0750 8D330000 		.4byte	.LASF220
 2123 0754 0C01     		.2byte	0x10c
 2124 0756 0C       		.uleb128 0xc
 2125 0757 9B300000 		.4byte	.LASF221
 2126 075b 0D01     		.2byte	0x10d
 2127 075d 0C       		.uleb128 0xc
 2128 075e 2E0A0000 		.4byte	.LASF222
 2129 0762 0E01     		.2byte	0x10e
 2130 0764 0C       		.uleb128 0xc
 2131 0765 FF1E0000 		.4byte	.LASF223
 2132 0769 0F01     		.2byte	0x10f
 2133 076b 0C       		.uleb128 0xc
 2134 076c 380C0000 		.4byte	.LASF224
ARM GAS  C:\Users\User\AppData\Local\Temp\cc96DgHN.s 			page 56


 2135 0770 1001     		.2byte	0x110
 2136 0772 0C       		.uleb128 0xc
 2137 0773 92260000 		.4byte	.LASF225
 2138 0777 1101     		.2byte	0x111
 2139 0779 0C       		.uleb128 0xc
 2140 077a 4B150000 		.4byte	.LASF226
 2141 077e 1201     		.2byte	0x112
 2142 0780 0C       		.uleb128 0xc
 2143 0781 B9020000 		.4byte	.LASF227
 2144 0785 1301     		.2byte	0x113
 2145 0787 0C       		.uleb128 0xc
 2146 0788 5A170000 		.4byte	.LASF228
 2147 078c 1401     		.2byte	0x114
 2148 078e 0C       		.uleb128 0xc
 2149 078f 89340000 		.4byte	.LASF229
 2150 0793 1501     		.2byte	0x115
 2151 0795 0C       		.uleb128 0xc
 2152 0796 C1090000 		.4byte	.LASF230
 2153 079a 1601     		.2byte	0x116
 2154 079c 0C       		.uleb128 0xc
 2155 079d EE240000 		.4byte	.LASF231
 2156 07a1 1701     		.2byte	0x117
 2157 07a3 0C       		.uleb128 0xc
 2158 07a4 5C010000 		.4byte	.LASF232
 2159 07a8 1801     		.2byte	0x118
 2160 07aa 0C       		.uleb128 0xc
 2161 07ab E7380000 		.4byte	.LASF233
 2162 07af 1901     		.2byte	0x119
 2163 07b1 0C       		.uleb128 0xc
 2164 07b2 59400000 		.4byte	.LASF234
 2165 07b6 1A01     		.2byte	0x11a
 2166 07b8 0C       		.uleb128 0xc
 2167 07b9 EB0B0000 		.4byte	.LASF235
 2168 07bd 1B01     		.2byte	0x11b
 2169 07bf 0C       		.uleb128 0xc
 2170 07c0 781E0000 		.4byte	.LASF236
 2171 07c4 1C01     		.2byte	0x11c
 2172 07c6 0C       		.uleb128 0xc
 2173 07c7 14100000 		.4byte	.LASF237
 2174 07cb 1D01     		.2byte	0x11d
 2175 07cd 0C       		.uleb128 0xc
 2176 07ce 2C390000 		.4byte	.LASF238
 2177 07d2 1E01     		.2byte	0x11e
 2178 07d4 0C       		.uleb128 0xc
 2179 07d5 EF030000 		.4byte	.LASF239
 2180 07d9 1F01     		.2byte	0x11f
 2181 07db 0C       		.uleb128 0xc
 2182 07dc FD160000 		.4byte	.LASF240
 2183 07e0 2001     		.2byte	0x120
 2184 07e2 0C       		.uleb128 0xc
 2185 07e3 97160000 		.4byte	.LASF241
 2186 07e7 2101     		.2byte	0x121
 2187 07e9 0C       		.uleb128 0xc
 2188 07ea C9030000 		.4byte	.LASF242
 2189 07ee 2201     		.2byte	0x122
 2190 07f0 0C       		.uleb128 0xc
 2191 07f1 0E160000 		.4byte	.LASF243
ARM GAS  C:\Users\User\AppData\Local\Temp\cc96DgHN.s 			page 57


 2192 07f5 2301     		.2byte	0x123
 2193 07f7 0C       		.uleb128 0xc
 2194 07f8 6C060000 		.4byte	.LASF244
 2195 07fc 2401     		.2byte	0x124
 2196 07fe 0C       		.uleb128 0xc
 2197 07ff AD0F0000 		.4byte	.LASF245
 2198 0803 2501     		.2byte	0x125
 2199 0805 0C       		.uleb128 0xc
 2200 0806 6B380000 		.4byte	.LASF246
 2201 080a 2601     		.2byte	0x126
 2202 080c 0C       		.uleb128 0xc
 2203 080d 79200000 		.4byte	.LASF247
 2204 0811 2701     		.2byte	0x127
 2205 0813 0C       		.uleb128 0xc
 2206 0814 61320000 		.4byte	.LASF248
 2207 0818 2801     		.2byte	0x128
 2208 081a 0C       		.uleb128 0xc
 2209 081b 561C0000 		.4byte	.LASF249
 2210 081f 2901     		.2byte	0x129
 2211 0821 0C       		.uleb128 0xc
 2212 0822 B3350000 		.4byte	.LASF250
 2213 0826 2A01     		.2byte	0x12a
 2214 0828 0C       		.uleb128 0xc
 2215 0829 51280000 		.4byte	.LASF251
 2216 082d 2B01     		.2byte	0x12b
 2217 082f 0C       		.uleb128 0xc
 2218 0830 83370000 		.4byte	.LASF252
 2219 0834 2C01     		.2byte	0x12c
 2220 0836 0C       		.uleb128 0xc
 2221 0837 2B270000 		.4byte	.LASF253
 2222 083b 2D01     		.2byte	0x12d
 2223 083d 0C       		.uleb128 0xc
 2224 083e 44140000 		.4byte	.LASF254
 2225 0842 2E01     		.2byte	0x12e
 2226 0844 0C       		.uleb128 0xc
 2227 0845 4D1F0000 		.4byte	.LASF255
 2228 0849 2F01     		.2byte	0x12f
 2229 084b 0C       		.uleb128 0xc
 2230 084c AE250000 		.4byte	.LASF256
 2231 0850 3001     		.2byte	0x130
 2232 0852 0C       		.uleb128 0xc
 2233 0853 72250000 		.4byte	.LASF257
 2234 0857 3101     		.2byte	0x131
 2235 0859 0C       		.uleb128 0xc
 2236 085a EB060000 		.4byte	.LASF258
 2237 085e 3201     		.2byte	0x132
 2238 0860 0C       		.uleb128 0xc
 2239 0861 3F260000 		.4byte	.LASF259
 2240 0865 3301     		.2byte	0x133
 2241 0867 0C       		.uleb128 0xc
 2242 0868 023C0000 		.4byte	.LASF260
 2243 086c 3401     		.2byte	0x134
 2244 086e 0C       		.uleb128 0xc
 2245 086f 66340000 		.4byte	.LASF261
 2246 0873 3501     		.2byte	0x135
 2247 0875 0C       		.uleb128 0xc
 2248 0876 F9080000 		.4byte	.LASF262
ARM GAS  C:\Users\User\AppData\Local\Temp\cc96DgHN.s 			page 58


 2249 087a 3601     		.2byte	0x136
 2250 087c 0C       		.uleb128 0xc
 2251 087d E92C0000 		.4byte	.LASF263
 2252 0881 3701     		.2byte	0x137
 2253 0883 0C       		.uleb128 0xc
 2254 0884 9F370000 		.4byte	.LASF264
 2255 0888 3801     		.2byte	0x138
 2256 088a 0C       		.uleb128 0xc
 2257 088b 9C230000 		.4byte	.LASF265
 2258 088f 3901     		.2byte	0x139
 2259 0891 0C       		.uleb128 0xc
 2260 0892 462C0000 		.4byte	.LASF266
 2261 0896 3A01     		.2byte	0x13a
 2262 0898 0C       		.uleb128 0xc
 2263 0899 4D160000 		.4byte	.LASF267
 2264 089d 3B01     		.2byte	0x13b
 2265 089f 0C       		.uleb128 0xc
 2266 08a0 B5140000 		.4byte	.LASF268
 2267 08a4 3C01     		.2byte	0x13c
 2268 08a6 0C       		.uleb128 0xc
 2269 08a7 EB260000 		.4byte	.LASF269
 2270 08ab 3D01     		.2byte	0x13d
 2271 08ad 0C       		.uleb128 0xc
 2272 08ae B2100000 		.4byte	.LASF270
 2273 08b2 3E01     		.2byte	0x13e
 2274 08b4 0C       		.uleb128 0xc
 2275 08b5 D72E0000 		.4byte	.LASF271
 2276 08b9 3F01     		.2byte	0x13f
 2277 08bb 0C       		.uleb128 0xc
 2278 08bc 9A3E0000 		.4byte	.LASF272
 2279 08c0 4001     		.2byte	0x140
 2280 08c2 0C       		.uleb128 0xc
 2281 08c3 541A0000 		.4byte	.LASF273
 2282 08c7 4101     		.2byte	0x141
 2283 08c9 0C       		.uleb128 0xc
 2284 08ca F70C0000 		.4byte	.LASF274
 2285 08ce 4201     		.2byte	0x142
 2286 08d0 0C       		.uleb128 0xc
 2287 08d1 E4200000 		.4byte	.LASF275
 2288 08d5 4301     		.2byte	0x143
 2289 08d7 0C       		.uleb128 0xc
 2290 08d8 22030000 		.4byte	.LASF276
 2291 08dc 4401     		.2byte	0x144
 2292 08de 0C       		.uleb128 0xc
 2293 08df 173E0000 		.4byte	.LASF277
 2294 08e3 4501     		.2byte	0x145
 2295 08e5 0C       		.uleb128 0xc
 2296 08e6 03240000 		.4byte	.LASF278
 2297 08ea 4601     		.2byte	0x146
 2298 08ec 0C       		.uleb128 0xc
 2299 08ed B0420000 		.4byte	.LASF279
 2300 08f1 4701     		.2byte	0x147
 2301 08f3 0C       		.uleb128 0xc
 2302 08f4 38080000 		.4byte	.LASF280
 2303 08f8 4801     		.2byte	0x148
 2304 08fa 0C       		.uleb128 0xc
 2305 08fb 2F2A0000 		.4byte	.LASF281
ARM GAS  C:\Users\User\AppData\Local\Temp\cc96DgHN.s 			page 59


 2306 08ff 4901     		.2byte	0x149
 2307 0901 0C       		.uleb128 0xc
 2308 0902 89110000 		.4byte	.LASF282
 2309 0906 4A01     		.2byte	0x14a
 2310 0908 0C       		.uleb128 0xc
 2311 0909 331C0000 		.4byte	.LASF283
 2312 090d 4B01     		.2byte	0x14b
 2313 090f 0C       		.uleb128 0xc
 2314 0910 50310000 		.4byte	.LASF284
 2315 0914 4C01     		.2byte	0x14c
 2316 0916 0C       		.uleb128 0xc
 2317 0917 932D0000 		.4byte	.LASF285
 2318 091b 4D01     		.2byte	0x14d
 2319 091d 0C       		.uleb128 0xc
 2320 091e 7E090000 		.4byte	.LASF286
 2321 0922 4E01     		.2byte	0x14e
 2322 0924 0C       		.uleb128 0xc
 2323 0925 D1340000 		.4byte	.LASF287
 2324 0929 4F01     		.2byte	0x14f
 2325 092b 0C       		.uleb128 0xc
 2326 092c 18360000 		.4byte	.LASF288
 2327 0930 5001     		.2byte	0x150
 2328 0932 0C       		.uleb128 0xc
 2329 0933 E2330000 		.4byte	.LASF289
 2330 0937 5101     		.2byte	0x151
 2331 0939 0C       		.uleb128 0xc
 2332 093a 423A0000 		.4byte	.LASF290
 2333 093e 5201     		.2byte	0x152
 2334 0940 0C       		.uleb128 0xc
 2335 0941 9F060000 		.4byte	.LASF291
 2336 0945 5301     		.2byte	0x153
 2337 0947 0C       		.uleb128 0xc
 2338 0948 6D190000 		.4byte	.LASF292
 2339 094c 5401     		.2byte	0x154
 2340 094e 0C       		.uleb128 0xc
 2341 094f C2010000 		.4byte	.LASF293
 2342 0953 5501     		.2byte	0x155
 2343 0955 0C       		.uleb128 0xc
 2344 0956 560A0000 		.4byte	.LASF294
 2345 095a 5601     		.2byte	0x156
 2346 095c 0C       		.uleb128 0xc
 2347 095d D0270000 		.4byte	.LASF295
 2348 0961 5701     		.2byte	0x157
 2349 0963 0C       		.uleb128 0xc
 2350 0964 1D090000 		.4byte	.LASF296
 2351 0968 5801     		.2byte	0x158
 2352 096a 0C       		.uleb128 0xc
 2353 096b B91E0000 		.4byte	.LASF297
 2354 096f 5901     		.2byte	0x159
 2355 0971 0C       		.uleb128 0xc
 2356 0972 7A3C0000 		.4byte	.LASF298
 2357 0976 5A01     		.2byte	0x15a
 2358 0978 0C       		.uleb128 0xc
 2359 0979 56270000 		.4byte	.LASF299
 2360 097d 5B01     		.2byte	0x15b
 2361 097f 0C       		.uleb128 0xc
 2362 0980 A02C0000 		.4byte	.LASF300
ARM GAS  C:\Users\User\AppData\Local\Temp\cc96DgHN.s 			page 60


 2363 0984 5C01     		.2byte	0x15c
 2364 0986 0C       		.uleb128 0xc
 2365 0987 53230000 		.4byte	.LASF301
 2366 098b 5D01     		.2byte	0x15d
 2367 098d 0C       		.uleb128 0xc
 2368 098e F6340000 		.4byte	.LASF302
 2369 0992 5E01     		.2byte	0x15e
 2370 0994 0C       		.uleb128 0xc
 2371 0995 DC3A0000 		.4byte	.LASF303
 2372 0999 5F01     		.2byte	0x15f
 2373 099b 0C       		.uleb128 0xc
 2374 099c DE390000 		.4byte	.LASF304
 2375 09a0 6001     		.2byte	0x160
 2376 09a2 0C       		.uleb128 0xc
 2377 09a3 17220000 		.4byte	.LASF305
 2378 09a7 6101     		.2byte	0x161
 2379 09a9 0C       		.uleb128 0xc
 2380 09aa 91240000 		.4byte	.LASF306
 2381 09ae 6201     		.2byte	0x162
 2382 09b0 0C       		.uleb128 0xc
 2383 09b1 38100000 		.4byte	.LASF307
 2384 09b5 6301     		.2byte	0x163
 2385 09b7 0C       		.uleb128 0xc
 2386 09b8 6A330000 		.4byte	.LASF308
 2387 09bc 6401     		.2byte	0x164
 2388 09be 0C       		.uleb128 0xc
 2389 09bf ED300000 		.4byte	.LASF309
 2390 09c3 6501     		.2byte	0x165
 2391 09c5 0C       		.uleb128 0xc
 2392 09c6 EC130000 		.4byte	.LASF310
 2393 09ca 6601     		.2byte	0x166
 2394 09cc 0C       		.uleb128 0xc
 2395 09cd FA2B0000 		.4byte	.LASF311
 2396 09d1 6701     		.2byte	0x167
 2397 09d3 0C       		.uleb128 0xc
 2398 09d4 4E000000 		.4byte	.LASF312
 2399 09d8 6801     		.2byte	0x168
 2400 09da 0C       		.uleb128 0xc
 2401 09db 89040000 		.4byte	.LASF313
 2402 09df 6901     		.2byte	0x169
 2403 09e1 0C       		.uleb128 0xc
 2404 09e2 52080000 		.4byte	.LASF314
 2405 09e6 6A01     		.2byte	0x16a
 2406 09e8 0C       		.uleb128 0xc
 2407 09e9 9A010000 		.4byte	.LASF315
 2408 09ed 6B01     		.2byte	0x16b
 2409 09ef 0C       		.uleb128 0xc
 2410 09f0 BC170000 		.4byte	.LASF316
 2411 09f4 6C01     		.2byte	0x16c
 2412 09f6 0C       		.uleb128 0xc
 2413 09f7 9C390000 		.4byte	.LASF317
 2414 09fb 6D01     		.2byte	0x16d
 2415 09fd 0C       		.uleb128 0xc
 2416 09fe 66410000 		.4byte	.LASF318
 2417 0a02 6E01     		.2byte	0x16e
 2418 0a04 0C       		.uleb128 0xc
 2419 0a05 562F0000 		.4byte	.LASF319
ARM GAS  C:\Users\User\AppData\Local\Temp\cc96DgHN.s 			page 61


 2420 0a09 6F01     		.2byte	0x16f
 2421 0a0b 0C       		.uleb128 0xc
 2422 0a0c 1B020000 		.4byte	.LASF320
 2423 0a10 7001     		.2byte	0x170
 2424 0a12 0C       		.uleb128 0xc
 2425 0a13 FB0A0000 		.4byte	.LASF321
 2426 0a17 7101     		.2byte	0x171
 2427 0a19 0C       		.uleb128 0xc
 2428 0a1a 020F0000 		.4byte	.LASF322
 2429 0a1e 7201     		.2byte	0x172
 2430 0a20 0C       		.uleb128 0xc
 2431 0a21 40210000 		.4byte	.LASF323
 2432 0a25 7301     		.2byte	0x173
 2433 0a27 0C       		.uleb128 0xc
 2434 0a28 871D0000 		.4byte	.LASF324
 2435 0a2c 7401     		.2byte	0x174
 2436 0a2e 0C       		.uleb128 0xc
 2437 0a2f E6050000 		.4byte	.LASF325
 2438 0a33 7501     		.2byte	0x175
 2439 0a35 0C       		.uleb128 0xc
 2440 0a36 10140000 		.4byte	.LASF326
 2441 0a3a 7601     		.2byte	0x176
 2442 0a3c 0C       		.uleb128 0xc
 2443 0a3d 72420000 		.4byte	.LASF327
 2444 0a41 7701     		.2byte	0x177
 2445 0a43 0C       		.uleb128 0xc
 2446 0a44 D41C0000 		.4byte	.LASF328
 2447 0a48 7801     		.2byte	0x178
 2448 0a4a 0C       		.uleb128 0xc
 2449 0a4b 77290000 		.4byte	.LASF329
 2450 0a4f 7901     		.2byte	0x179
 2451 0a51 0C       		.uleb128 0xc
 2452 0a52 29120000 		.4byte	.LASF330
 2453 0a56 7A01     		.2byte	0x17a
 2454 0a58 0C       		.uleb128 0xc
 2455 0a59 C52F0000 		.4byte	.LASF331
 2456 0a5d 7B01     		.2byte	0x17b
 2457 0a5f 0C       		.uleb128 0xc
 2458 0a60 FE020000 		.4byte	.LASF332
 2459 0a64 7C01     		.2byte	0x17c
 2460 0a66 0C       		.uleb128 0xc
 2461 0a67 4F220000 		.4byte	.LASF333
 2462 0a6b 7D01     		.2byte	0x17d
 2463 0a6d 0C       		.uleb128 0xc
 2464 0a6e 10080000 		.4byte	.LASF334
 2465 0a72 7E01     		.2byte	0x17e
 2466 0a74 0C       		.uleb128 0xc
 2467 0a75 49060000 		.4byte	.LASF335
 2468 0a79 7F01     		.2byte	0x17f
 2469 0a7b 0C       		.uleb128 0xc
 2470 0a7c 62040000 		.4byte	.LASF336
 2471 0a80 8001     		.2byte	0x180
 2472 0a82 0C       		.uleb128 0xc
 2473 0a83 0E3B0000 		.4byte	.LASF337
 2474 0a87 8101     		.2byte	0x181
 2475 0a89 0C       		.uleb128 0xc
 2476 0a8a 35310000 		.4byte	.LASF338
ARM GAS  C:\Users\User\AppData\Local\Temp\cc96DgHN.s 			page 62


 2477 0a8e 8201     		.2byte	0x182
 2478 0a90 0C       		.uleb128 0xc
 2479 0a91 94420000 		.4byte	.LASF339
 2480 0a95 8301     		.2byte	0x183
 2481 0a97 0C       		.uleb128 0xc
 2482 0a98 A7050000 		.4byte	.LASF340
 2483 0a9c 8401     		.2byte	0x184
 2484 0a9e 0C       		.uleb128 0xc
 2485 0a9f E1320000 		.4byte	.LASF341
 2486 0aa3 8501     		.2byte	0x185
 2487 0aa5 0C       		.uleb128 0xc
 2488 0aa6 F1410000 		.4byte	.LASF342
 2489 0aaa 8601     		.2byte	0x186
 2490 0aac 0C       		.uleb128 0xc
 2491 0aad 2A250000 		.4byte	.LASF343
 2492 0ab1 8701     		.2byte	0x187
 2493 0ab3 0C       		.uleb128 0xc
 2494 0ab4 95280000 		.4byte	.LASF344
 2495 0ab8 8801     		.2byte	0x188
 2496 0aba 0C       		.uleb128 0xc
 2497 0abb 83030000 		.4byte	.LASF345
 2498 0abf 8901     		.2byte	0x189
 2499 0ac1 0C       		.uleb128 0xc
 2500 0ac2 522D0000 		.4byte	.LASF346
 2501 0ac6 8A01     		.2byte	0x18a
 2502 0ac8 0C       		.uleb128 0xc
 2503 0ac9 D9160000 		.4byte	.LASF347
 2504 0acd 8B01     		.2byte	0x18b
 2505 0acf 0C       		.uleb128 0xc
 2506 0ad0 6C360000 		.4byte	.LASF348
 2507 0ad4 8C01     		.2byte	0x18c
 2508 0ad6 0C       		.uleb128 0xc
 2509 0ad7 F3310000 		.4byte	.LASF349
 2510 0adb 8D01     		.2byte	0x18d
 2511 0add 0C       		.uleb128 0xc
 2512 0ade 4C3B0000 		.4byte	.LASF350
 2513 0ae2 8E01     		.2byte	0x18e
 2514 0ae4 0C       		.uleb128 0xc
 2515 0ae5 2D230000 		.4byte	.LASF351
 2516 0ae9 8F01     		.2byte	0x18f
 2517 0aeb 0C       		.uleb128 0xc
 2518 0aec 4F380000 		.4byte	.LASF352
 2519 0af0 9001     		.2byte	0x190
 2520 0af2 0C       		.uleb128 0xc
 2521 0af3 682E0000 		.4byte	.LASF353
 2522 0af7 9101     		.2byte	0x191
 2523 0af9 0C       		.uleb128 0xc
 2524 0afa DC250000 		.4byte	.LASF354
 2525 0afe 9201     		.2byte	0x192
 2526 0b00 0C       		.uleb128 0xc
 2527 0b01 BD300000 		.4byte	.LASF355
 2528 0b05 9301     		.2byte	0x193
 2529 0b07 0C       		.uleb128 0xc
 2530 0b08 B8190000 		.4byte	.LASF356
 2531 0b0c 9401     		.2byte	0x194
 2532 0b0e 0C       		.uleb128 0xc
 2533 0b0f 2C070000 		.4byte	.LASF357
ARM GAS  C:\Users\User\AppData\Local\Temp\cc96DgHN.s 			page 63


 2534 0b13 9501     		.2byte	0x195
 2535 0b15 0C       		.uleb128 0xc
 2536 0b16 993D0000 		.4byte	.LASF358
 2537 0b1a 9601     		.2byte	0x196
 2538 0b1c 0C       		.uleb128 0xc
 2539 0b1d BE3E0000 		.4byte	.LASF359
 2540 0b21 9701     		.2byte	0x197
 2541 0b23 0C       		.uleb128 0xc
 2542 0b24 701F0000 		.4byte	.LASF360
 2543 0b28 9801     		.2byte	0x198
 2544 0b2a 0C       		.uleb128 0xc
 2545 0b2b 18320000 		.4byte	.LASF361
 2546 0b2f 9901     		.2byte	0x199
 2547 0b31 0C       		.uleb128 0xc
 2548 0b32 AC1D0000 		.4byte	.LASF362
 2549 0b36 9A01     		.2byte	0x19a
 2550 0b38 0C       		.uleb128 0xc
 2551 0b39 B3240000 		.4byte	.LASF363
 2552 0b3d 9B01     		.2byte	0x19b
 2553 0b3f 0C       		.uleb128 0xc
 2554 0b40 502B0000 		.4byte	.LASF364
 2555 0b44 9C01     		.2byte	0x19c
 2556 0b46 0C       		.uleb128 0xc
 2557 0b47 3C3F0000 		.4byte	.LASF365
 2558 0b4b 9D01     		.2byte	0x19d
 2559 0b4d 0C       		.uleb128 0xc
 2560 0b4e A7220000 		.4byte	.LASF366
 2561 0b52 9E01     		.2byte	0x19e
 2562 0b54 0C       		.uleb128 0xc
 2563 0b55 D4100000 		.4byte	.LASF367
 2564 0b59 9F01     		.2byte	0x19f
 2565 0b5b 0C       		.uleb128 0xc
 2566 0b5c 270F0000 		.4byte	.LASF368
 2567 0b60 A001     		.2byte	0x1a0
 2568 0b62 0C       		.uleb128 0xc
 2569 0b63 F9000000 		.4byte	.LASF369
 2570 0b67 A101     		.2byte	0x1a1
 2571 0b69 0C       		.uleb128 0xc
 2572 0b6a 00000000 		.4byte	.LASF370
 2573 0b6e A201     		.2byte	0x1a2
 2574 0b70 0C       		.uleb128 0xc
 2575 0b71 883F0000 		.4byte	.LASF371
 2576 0b75 A301     		.2byte	0x1a3
 2577 0b77 0C       		.uleb128 0xc
 2578 0b78 DE2B0000 		.4byte	.LASF372
 2579 0b7c A401     		.2byte	0x1a4
 2580 0b7e 0C       		.uleb128 0xc
 2581 0b7f AC3B0000 		.4byte	.LASF373
 2582 0b83 A501     		.2byte	0x1a5
 2583 0b85 0C       		.uleb128 0xc
 2584 0b86 35200000 		.4byte	.LASF374
 2585 0b8a A601     		.2byte	0x1a6
 2586 0b8c 0C       		.uleb128 0xc
 2587 0b8d D5080000 		.4byte	.LASF375
 2588 0b91 A701     		.2byte	0x1a7
 2589 0b93 0C       		.uleb128 0xc
 2590 0b94 061B0000 		.4byte	.LASF376
ARM GAS  C:\Users\User\AppData\Local\Temp\cc96DgHN.s 			page 64


 2591 0b98 A801     		.2byte	0x1a8
 2592 0b9a 0C       		.uleb128 0xc
 2593 0b9b 781A0000 		.4byte	.LASF377
 2594 0b9f A901     		.2byte	0x1a9
 2595 0ba1 0C       		.uleb128 0xc
 2596 0ba2 541E0000 		.4byte	.LASF378
 2597 0ba6 AA01     		.2byte	0x1aa
 2598 0ba8 0C       		.uleb128 0xc
 2599 0ba9 202F0000 		.4byte	.LASF379
 2600 0bad AB01     		.2byte	0x1ab
 2601 0baf 0C       		.uleb128 0xc
 2602 0bb0 0F270000 		.4byte	.LASF380
 2603 0bb4 AC01     		.2byte	0x1ac
 2604 0bb6 0C       		.uleb128 0xc
 2605 0bb7 CE150000 		.4byte	.LASF381
 2606 0bbb AD01     		.2byte	0x1ad
 2607 0bbd 0C       		.uleb128 0xc
 2608 0bbe C2370000 		.4byte	.LASF382
 2609 0bc2 AE01     		.2byte	0x1ae
 2610 0bc4 0C       		.uleb128 0xc
 2611 0bc5 4F420000 		.4byte	.LASF383
 2612 0bc9 AF01     		.2byte	0x1af
 2613 0bcb 0C       		.uleb128 0xc
 2614 0bcc 62020000 		.4byte	.LASF384
 2615 0bd0 B001     		.2byte	0x1b0
 2616 0bd2 0C       		.uleb128 0xc
 2617 0bd3 C91D0000 		.4byte	.LASF385
 2618 0bd7 B101     		.2byte	0x1b1
 2619 0bd9 0C       		.uleb128 0xc
 2620 0bda 2A420000 		.4byte	.LASF386
 2621 0bde B201     		.2byte	0x1b2
 2622 0be0 0C       		.uleb128 0xc
 2623 0be1 6C070000 		.4byte	.LASF387
 2624 0be5 B301     		.2byte	0x1b3
 2625 0be7 0C       		.uleb128 0xc
 2626 0be8 0B1E0000 		.4byte	.LASF388
 2627 0bec B401     		.2byte	0x1b4
 2628 0bee 0C       		.uleb128 0xc
 2629 0bef 6C1B0000 		.4byte	.LASF389
 2630 0bf3 B501     		.2byte	0x1b5
 2631 0bf5 0C       		.uleb128 0xc
 2632 0bf6 8E070000 		.4byte	.LASF390
 2633 0bfa B601     		.2byte	0x1b6
 2634 0bfc 0C       		.uleb128 0xc
 2635 0bfd 10070000 		.4byte	.LASF391
 2636 0c01 B701     		.2byte	0x1b7
 2637 0c03 0C       		.uleb128 0xc
 2638 0c04 67140000 		.4byte	.LASF392
 2639 0c08 B801     		.2byte	0x1b8
 2640 0c0a 0C       		.uleb128 0xc
 2641 0c0b 37320000 		.4byte	.LASF393
 2642 0c0f B901     		.2byte	0x1b9
 2643 0c11 0C       		.uleb128 0xc
 2644 0c12 80170000 		.4byte	.LASF394
 2645 0c16 BA01     		.2byte	0x1ba
 2646 0c18 0C       		.uleb128 0xc
 2647 0c19 78210000 		.4byte	.LASF395
ARM GAS  C:\Users\User\AppData\Local\Temp\cc96DgHN.s 			page 65


 2648 0c1d BB01     		.2byte	0x1bb
 2649 0c1f 0C       		.uleb128 0xc
 2650 0c20 FE200000 		.4byte	.LASF396
 2651 0c24 BC01     		.2byte	0x1bc
 2652 0c26 0C       		.uleb128 0xc
 2653 0c27 ED1D0000 		.4byte	.LASF397
 2654 0c2b BD01     		.2byte	0x1bd
 2655 0c2d 0C       		.uleb128 0xc
 2656 0c2e A1310000 		.4byte	.LASF398
 2657 0c32 BE01     		.2byte	0x1be
 2658 0c34 0C       		.uleb128 0xc
 2659 0c35 9A2A0000 		.4byte	.LASF399
 2660 0c39 BF01     		.2byte	0x1bf
 2661 0c3b 0C       		.uleb128 0xc
 2662 0c3c EA170000 		.4byte	.LASF400
 2663 0c40 C001     		.2byte	0x1c0
 2664 0c42 0C       		.uleb128 0xc
 2665 0c43 60030000 		.4byte	.LASF401
 2666 0c47 C101     		.2byte	0x1c1
 2667 0c49 0C       		.uleb128 0xc
 2668 0c4a C80B0000 		.4byte	.LASF402
 2669 0c4e C201     		.2byte	0x1c2
 2670 0c50 0C       		.uleb128 0xc
 2671 0c51 1D010000 		.4byte	.LASF403
 2672 0c55 C301     		.2byte	0x1c3
 2673 0c57 0C       		.uleb128 0xc
 2674 0c58 9B1E0000 		.4byte	.LASF404
 2675 0c5c C401     		.2byte	0x1c4
 2676 0c5e 0C       		.uleb128 0xc
 2677 0c5f 32040000 		.4byte	.LASF405
 2678 0c63 C501     		.2byte	0x1c5
 2679 0c65 0C       		.uleb128 0xc
 2680 0c66 14040000 		.4byte	.LASF406
 2681 0c6a C601     		.2byte	0x1c6
 2682 0c6c 0C       		.uleb128 0xc
 2683 0c6d 13200000 		.4byte	.LASF407
 2684 0c71 C701     		.2byte	0x1c7
 2685 0c73 0C       		.uleb128 0xc
 2686 0c74 A23F0000 		.4byte	.LASF408
 2687 0c78 C801     		.2byte	0x1c8
 2688 0c7a 0C       		.uleb128 0xc
 2689 0c7b D10F0000 		.4byte	.LASF409
 2690 0c7f C901     		.2byte	0x1c9
 2691 0c81 0C       		.uleb128 0xc
 2692 0c82 6B350000 		.4byte	.LASF410
 2693 0c86 CA01     		.2byte	0x1ca
 2694 0c88 0C       		.uleb128 0xc
 2695 0c89 14290000 		.4byte	.LASF411
 2696 0c8d CB01     		.2byte	0x1cb
 2697 0c8f 0C       		.uleb128 0xc
 2698 0c90 41090000 		.4byte	.LASF412
 2699 0c94 CC01     		.2byte	0x1cc
 2700 0c96 0C       		.uleb128 0xc
 2701 0c97 4D250000 		.4byte	.LASF413
 2702 0c9b CD01     		.2byte	0x1cd
 2703 0c9d 0C       		.uleb128 0xc
 2704 0c9e 00230000 		.4byte	.LASF414
ARM GAS  C:\Users\User\AppData\Local\Temp\cc96DgHN.s 			page 66


 2705 0ca2 CE01     		.2byte	0x1ce
 2706 0ca4 0C       		.uleb128 0xc
 2707 0ca5 E10A0000 		.4byte	.LASF415
 2708 0ca9 CF01     		.2byte	0x1cf
 2709 0cab 0C       		.uleb128 0xc
 2710 0cac 23260000 		.4byte	.LASF416
 2711 0cb0 D001     		.2byte	0x1d0
 2712 0cb2 0C       		.uleb128 0xc
 2713 0cb3 FA390000 		.4byte	.LASF417
 2714 0cb7 D101     		.2byte	0x1d1
 2715 0cb9 0C       		.uleb128 0xc
 2716 0cba 792F0000 		.4byte	.LASF418
 2717 0cbe D201     		.2byte	0x1d2
 2718 0cc0 0C       		.uleb128 0xc
 2719 0cc1 AB120000 		.4byte	.LASF419
 2720 0cc5 D301     		.2byte	0x1d3
 2721 0cc7 0C       		.uleb128 0xc
 2722 0cc8 0A0A0000 		.4byte	.LASF420
 2723 0ccc D401     		.2byte	0x1d4
 2724 0cce 0C       		.uleb128 0xc
 2725 0ccf B50C0000 		.4byte	.LASF421
 2726 0cd3 D501     		.2byte	0x1d5
 2727 0cd5 0C       		.uleb128 0xc
 2728 0cd6 DC190000 		.4byte	.LASF422
 2729 0cda D601     		.2byte	0x1d6
 2730 0cdc 0C       		.uleb128 0xc
 2731 0cdd BF400000 		.4byte	.LASF423
 2732 0ce1 D701     		.2byte	0x1d7
 2733 0ce3 0C       		.uleb128 0xc
 2734 0ce4 49240000 		.4byte	.LASF424
 2735 0ce8 D801     		.2byte	0x1d8
 2736 0cea 0C       		.uleb128 0xc
 2737 0ceb BA360000 		.4byte	.LASF425
 2738 0cef D901     		.2byte	0x1d9
 2739 0cf1 0C       		.uleb128 0xc
 2740 0cf2 4D2E0000 		.4byte	.LASF426
 2741 0cf6 DA01     		.2byte	0x1da
 2742 0cf8 0C       		.uleb128 0xc
 2743 0cf9 C81F0000 		.4byte	.LASF427
 2744 0cfd DB01     		.2byte	0x1db
 2745 0cff 0C       		.uleb128 0xc
 2746 0d00 3E030000 		.4byte	.LASF428
 2747 0d04 DC01     		.2byte	0x1dc
 2748 0d06 0C       		.uleb128 0xc
 2749 0d07 310B0000 		.4byte	.LASF429
 2750 0d0b DD01     		.2byte	0x1dd
 2751 0d0d 0C       		.uleb128 0xc
 2752 0d0e 8F380000 		.4byte	.LASF430
 2753 0d12 DE01     		.2byte	0x1de
 2754 0d14 0C       		.uleb128 0xc
 2755 0d15 74000000 		.4byte	.LASF431
 2756 0d19 DF01     		.2byte	0x1df
 2757 0d1b 0C       		.uleb128 0xc
 2758 0d1c F5270000 		.4byte	.LASF432
 2759 0d20 E001     		.2byte	0x1e0
 2760 0d22 0C       		.uleb128 0xc
 2761 0d23 171A0000 		.4byte	.LASF433
ARM GAS  C:\Users\User\AppData\Local\Temp\cc96DgHN.s 			page 67


 2762 0d27 E101     		.2byte	0x1e1
 2763 0d29 0C       		.uleb128 0xc
 2764 0d2a AB000000 		.4byte	.LASF434
 2765 0d2e E201     		.2byte	0x1e2
 2766 0d30 0C       		.uleb128 0xc
 2767 0d31 271F0000 		.4byte	.LASF435
 2768 0d35 E301     		.2byte	0x1e3
 2769 0d37 0C       		.uleb128 0xc
 2770 0d38 7F2B0000 		.4byte	.LASF436
 2771 0d3c E401     		.2byte	0x1e4
 2772 0d3e 0C       		.uleb128 0xc
 2773 0d3f D22D0000 		.4byte	.LASF437
 2774 0d43 E501     		.2byte	0x1e5
 2775 0d45 0C       		.uleb128 0xc
 2776 0d46 77010000 		.4byte	.LASF438
 2777 0d4a E601     		.2byte	0x1e6
 2778 0d4c 0C       		.uleb128 0xc
 2779 0d4d 8A2E0000 		.4byte	.LASF439
 2780 0d51 E701     		.2byte	0x1e7
 2781 0d53 0C       		.uleb128 0xc
 2782 0d54 E5090000 		.4byte	.LASF440
 2783 0d58 E801     		.2byte	0x1e8
 2784 0d5a 0C       		.uleb128 0xc
 2785 0d5b 732A0000 		.4byte	.LASF441
 2786 0d5f E901     		.2byte	0x1e9
 2787 0d61 0C       		.uleb128 0xc
 2788 0d62 7A0A0000 		.4byte	.LASF442
 2789 0d66 EA01     		.2byte	0x1ea
 2790 0d68 0C       		.uleb128 0xc
 2791 0d69 C8280000 		.4byte	.LASF443
 2792 0d6d EB01     		.2byte	0x1eb
 2793 0d6f 0C       		.uleb128 0xc
 2794 0d70 23370000 		.4byte	.LASF444
 2795 0d74 EC01     		.2byte	0x1ec
 2796 0d76 0C       		.uleb128 0xc
 2797 0d77 461D0000 		.4byte	.LASF445
 2798 0d7b ED01     		.2byte	0x1ed
 2799 0d7d 0C       		.uleb128 0xc
 2800 0d7e 6A0F0000 		.4byte	.LASF446
 2801 0d82 EE01     		.2byte	0x1ee
 2802 0d84 0C       		.uleb128 0xc
 2803 0d85 7F390000 		.4byte	.LASF447
 2804 0d89 EF01     		.2byte	0x1ef
 2805 0d8b 0C       		.uleb128 0xc
 2806 0d8c 0E120000 		.4byte	.LASF448
 2807 0d90 F001     		.2byte	0x1f0
 2808 0d92 0C       		.uleb128 0xc
 2809 0d93 9E200000 		.4byte	.LASF449
 2810 0d97 F101     		.2byte	0x1f1
 2811 0d99 0C       		.uleb128 0xc
 2812 0d9a 1C170000 		.4byte	.LASF450
 2813 0d9e F201     		.2byte	0x1f2
 2814 0da0 0C       		.uleb128 0xc
 2815 0da1 183F0000 		.4byte	.LASF451
 2816 0da5 F301     		.2byte	0x1f3
 2817 0da7 0C       		.uleb128 0xc
 2818 0da8 E6140000 		.4byte	.LASF452
ARM GAS  C:\Users\User\AppData\Local\Temp\cc96DgHN.s 			page 68


 2819 0dac F401     		.2byte	0x1f4
 2820 0dae 0C       		.uleb128 0xc
 2821 0daf 2C140000 		.4byte	.LASF453
 2822 0db3 F501     		.2byte	0x1f5
 2823 0db5 0C       		.uleb128 0xc
 2824 0db6 0C300000 		.4byte	.LASF454
 2825 0dba F601     		.2byte	0x1f6
 2826 0dbc 0C       		.uleb128 0xc
 2827 0dbd 46370000 		.4byte	.LASF455
 2828 0dc1 F701     		.2byte	0x1f7
 2829 0dc3 0C       		.uleb128 0xc
 2830 0dc4 BF330000 		.4byte	.LASF456
 2831 0dc8 F801     		.2byte	0x1f8
 2832 0dca 0C       		.uleb128 0xc
 2833 0dcb 42340000 		.4byte	.LASF457
 2834 0dcf F901     		.2byte	0x1f9
 2835 0dd1 0C       		.uleb128 0xc
 2836 0dd2 EF210000 		.4byte	.LASF458
 2837 0dd6 FA01     		.2byte	0x1fa
 2838 0dd8 0C       		.uleb128 0xc
 2839 0dd9 B72D0000 		.4byte	.LASF459
 2840 0ddd FB01     		.2byte	0x1fb
 2841 0ddf 0C       		.uleb128 0xc
 2842 0de0 BC160000 		.4byte	.LASF460
 2843 0de4 FC01     		.2byte	0x1fc
 2844 0de6 0C       		.uleb128 0xc
 2845 0de7 823A0000 		.4byte	.LASF461
 2846 0deb FD01     		.2byte	0x1fd
 2847 0ded 0C       		.uleb128 0xc
 2848 0dee 931C0000 		.4byte	.LASF462
 2849 0df2 FE01     		.2byte	0x1fe
 2850 0df4 0C       		.uleb128 0xc
 2851 0df5 AE2E0000 		.4byte	.LASF463
 2852 0df9 FF01     		.2byte	0x1ff
 2853 0dfb 0C       		.uleb128 0xc
 2854 0dfc EA110000 		.4byte	.LASF464
 2855 0e00 0002     		.2byte	0x200
 2856 0e02 0C       		.uleb128 0xc
 2857 0e03 B9390000 		.4byte	.LASF465
 2858 0e07 0102     		.2byte	0x201
 2859 0e09 0C       		.uleb128 0xc
 2860 0e0a 190C0000 		.4byte	.LASF466
 2861 0e0e 0202     		.2byte	0x202
 2862 0e10 0C       		.uleb128 0xc
 2863 0e11 36350000 		.4byte	.LASF467
 2864 0e15 0302     		.2byte	0x203
 2865 0e17 0C       		.uleb128 0xc
 2866 0e18 E72F0000 		.4byte	.LASF468
 2867 0e1c 0402     		.2byte	0x204
 2868 0e1e 0C       		.uleb128 0xc
 2869 0e1f FA2E0000 		.4byte	.LASF469
 2870 0e23 0502     		.2byte	0x205
 2871 0e25 0C       		.uleb128 0xc
 2872 0e26 52110000 		.4byte	.LASF470
 2873 0e2a 0602     		.2byte	0x206
 2874 0e2c 0C       		.uleb128 0xc
 2875 0e2d CE120000 		.4byte	.LASF471
ARM GAS  C:\Users\User\AppData\Local\Temp\cc96DgHN.s 			page 69


 2876 0e31 0702     		.2byte	0x207
 2877 0e33 0C       		.uleb128 0xc
 2878 0e34 83050000 		.4byte	.LASF472
 2879 0e38 0802     		.2byte	0x208
 2880 0e3a 0C       		.uleb128 0xc
 2881 0e3b 1A110000 		.4byte	.LASF473
 2882 0e3f 0902     		.2byte	0x209
 2883 0e41 0C       		.uleb128 0xc
 2884 0e42 DF230000 		.4byte	.LASF474
 2885 0e46 0A02     		.2byte	0x20a
 2886 0e48 0C       		.uleb128 0xc
 2887 0e49 C1050000 		.4byte	.LASF475
 2888 0e4d 0B02     		.2byte	0x20b
 2889 0e4f 0C       		.uleb128 0xc
 2890 0e50 EF2D0000 		.4byte	.LASF476
 2891 0e54 0C02     		.2byte	0x20c
 2892 0e56 0C       		.uleb128 0xc
 2893 0e57 9D400000 		.4byte	.LASF477
 2894 0e5b 0D02     		.2byte	0x20d
 2895 0e5d 0C       		.uleb128 0xc
 2896 0e5e 3F020000 		.4byte	.LASF478
 2897 0e62 0E02     		.2byte	0x20e
 2898 0e64 0C       		.uleb128 0xc
 2899 0e65 A8070000 		.4byte	.LASF479
 2900 0e69 0F02     		.2byte	0x20f
 2901 0e6b 0C       		.uleb128 0xc
 2902 0e6c 93140000 		.4byte	.LASF480
 2903 0e70 1002     		.2byte	0x210
 2904 0e72 0C       		.uleb128 0xc
 2905 0e73 573C0000 		.4byte	.LASF481
 2906 0e77 1102     		.2byte	0x211
 2907 0e79 0C       		.uleb128 0xc
 2908 0e7a 15180000 		.4byte	.LASF482
 2909 0e7e 1202     		.2byte	0x212
 2910 0e80 0C       		.uleb128 0xc
 2911 0e81 2B380000 		.4byte	.LASF483
 2912 0e85 1302     		.2byte	0x213
 2913 0e87 0C       		.uleb128 0xc
 2914 0e88 76080000 		.4byte	.LASF484
 2915 0e8c 1402     		.2byte	0x214
 2916 0e8e 0C       		.uleb128 0xc
 2917 0e8f 38330000 		.4byte	.LASF485
 2918 0e93 1502     		.2byte	0x215
 2919 0e95 0C       		.uleb128 0xc
 2920 0e96 40170000 		.4byte	.LASF486
 2921 0e9a 1602     		.2byte	0x216
 2922 0e9c 0C       		.uleb128 0xc
 2923 0e9d D2130000 		.4byte	.LASF487
 2924 0ea1 1702     		.2byte	0x217
 2925 0ea3 0C       		.uleb128 0xc
 2926 0ea4 D5410000 		.4byte	.LASF488
 2927 0ea8 1802     		.2byte	0x218
 2928 0eaa 0C       		.uleb128 0xc
 2929 0eab 13410000 		.4byte	.LASF489
 2930 0eaf 1902     		.2byte	0x219
 2931 0eb1 0C       		.uleb128 0xc
 2932 0eb2 26240000 		.4byte	.LASF490
ARM GAS  C:\Users\User\AppData\Local\Temp\cc96DgHN.s 			page 70


 2933 0eb6 1A02     		.2byte	0x21a
 2934 0eb8 0C       		.uleb128 0xc
 2935 0eb9 0B2E0000 		.4byte	.LASF491
 2936 0ebd 1B02     		.2byte	0x21b
 2937 0ebf 0C       		.uleb128 0xc
 2938 0ec0 BA1B0000 		.4byte	.LASF492
 2939 0ec4 1C02     		.2byte	0x21c
 2940 0ec6 0C       		.uleb128 0xc
 2941 0ec7 22210000 		.4byte	.LASF493
 2942 0ecb 1D02     		.2byte	0x21d
 2943 0ecd 0C       		.uleb128 0xc
 2944 0ece 86120000 		.4byte	.LASF494
 2945 0ed2 1E02     		.2byte	0x21e
 2946 0ed4 0C       		.uleb128 0xc
 2947 0ed5 BB0A0000 		.4byte	.LASF495
 2948 0ed9 1F02     		.2byte	0x21f
 2949 0edb 0C       		.uleb128 0xc
 2950 0edc C1200000 		.4byte	.LASF496
 2951 0ee0 2002     		.2byte	0x220
 2952 0ee2 0C       		.uleb128 0xc
 2953 0ee3 283B0000 		.4byte	.LASF497
 2954 0ee7 2102     		.2byte	0x221
 2955 0ee9 0C       		.uleb128 0xc
 2956 0eea 8E350000 		.4byte	.LASF498
 2957 0eee 2202     		.2byte	0x222
 2958 0ef0 0C       		.uleb128 0xc
 2959 0ef1 7E2C0000 		.4byte	.LASF499
 2960 0ef5 2302     		.2byte	0x223
 2961 0ef7 0C       		.uleb128 0xc
 2962 0ef8 663B0000 		.4byte	.LASF500
 2963 0efc 2402     		.2byte	0x224
 2964 0efe 0C       		.uleb128 0xc
 2965 0eff 94150000 		.4byte	.LASF501
 2966 0f03 2502     		.2byte	0x225
 2967 0f05 0C       		.uleb128 0xc
 2968 0f06 BD320000 		.4byte	.LASF502
 2969 0f0a 2602     		.2byte	0x226
 2970 0f0c 0C       		.uleb128 0xc
 2971 0f0d CC070000 		.4byte	.LASF503
 2972 0f11 2702     		.2byte	0x227
 2973 0f13 0C       		.uleb128 0xc
 2974 0f14 F43E0000 		.4byte	.LASF504
 2975 0f18 2802     		.2byte	0x228
 2976 0f1a 0C       		.uleb128 0xc
 2977 0f1b 5D3A0000 		.4byte	.LASF505
 2978 0f1f 2902     		.2byte	0x229
 2979 0f21 0C       		.uleb128 0xc
 2980 0f22 79300000 		.4byte	.LASF506
 2981 0f26 2A02     		.2byte	0x22a
 2982 0f28 0C       		.uleb128 0xc
 2983 0f29 DE1B0000 		.4byte	.LASF507
 2984 0f2d 2B02     		.2byte	0x22b
 2985 0f2f 0C       		.uleb128 0xc
 2986 0f30 39180000 		.4byte	.LASF508
 2987 0f34 2C02     		.2byte	0x22c
 2988 0f36 0C       		.uleb128 0xc
 2989 0f37 D1260000 		.4byte	.LASF509
ARM GAS  C:\Users\User\AppData\Local\Temp\cc96DgHN.s 			page 71


 2990 0f3b 2D02     		.2byte	0x22d
 2991 0f3d 0C       		.uleb128 0xc
 2992 0f3e BC2B0000 		.4byte	.LASF510
 2993 0f42 2E02     		.2byte	0x22e
 2994 0f44 0C       		.uleb128 0xc
 2995 0f45 E21F0000 		.4byte	.LASF511
 2996 0f49 2F02     		.2byte	0x22f
 2997 0f4b 0C       		.uleb128 0xc
 2998 0f4c 0F1C0000 		.4byte	.LASF512
 2999 0f50 3002     		.2byte	0x230
 3000 0f52 0C       		.uleb128 0xc
 3001 0f53 4E0B0000 		.4byte	.LASF513
 3002 0f57 00E0     		.2byte	0xe000
 3003 0f59 00       		.byte	0
 3004 0f5a 0A       		.uleb128 0xa
 3005 0f5b 01       		.byte	0x1
 3006 0f5c 2C000000 		.4byte	0x2c
 3007 0f60 0A       		.byte	0xa
 3008 0f61 A808     		.2byte	0x8a8
 3009 0f63 920F0000 		.4byte	0xf92
 3010 0f67 0B       		.uleb128 0xb
 3011 0f68 5D180000 		.4byte	.LASF514
 3012 0f6c 00       		.byte	0
 3013 0f6d 0B       		.uleb128 0xb
 3014 0f6e 9D3A0000 		.4byte	.LASF515
 3015 0f72 01       		.byte	0x1
 3016 0f73 0B       		.uleb128 0xb
 3017 0f74 D4110000 		.4byte	.LASF516
 3018 0f78 02       		.byte	0x2
 3019 0f79 0B       		.uleb128 0xb
 3020 0f7a A1020000 		.4byte	.LASF517
 3021 0f7e 03       		.byte	0x3
 3022 0f7f 0B       		.uleb128 0xb
 3023 0f80 C11A0000 		.4byte	.LASF518
 3024 0f84 04       		.byte	0x4
 3025 0f85 0B       		.uleb128 0xb
 3026 0f86 3D0D0000 		.4byte	.LASF519
 3027 0f8a 05       		.byte	0x5
 3028 0f8b 0B       		.uleb128 0xb
 3029 0f8c 7A1C0000 		.4byte	.LASF520
 3030 0f90 06       		.byte	0x6
 3031 0f91 00       		.byte	0
 3032 0f92 04       		.uleb128 0x4
 3033 0f93 05200000 		.4byte	.LASF521
 3034 0f97 0A       		.byte	0xa
 3035 0f98 B608     		.2byte	0x8b6
 3036 0f9a 5A0F0000 		.4byte	0xf5a
 3037 0f9e 0A       		.uleb128 0xa
 3038 0f9f 01       		.byte	0x1
 3039 0fa0 2C000000 		.4byte	0x2c
 3040 0fa4 0A       		.byte	0xa
 3041 0fa5 EB08     		.2byte	0x8eb
 3042 0fa7 D00F0000 		.4byte	0xfd0
 3043 0fab 0B       		.uleb128 0xb
 3044 0fac B9280000 		.4byte	.LASF522
 3045 0fb0 00       		.byte	0
 3046 0fb1 0B       		.uleb128 0xb
ARM GAS  C:\Users\User\AppData\Local\Temp\cc96DgHN.s 			page 72


 3047 0fb2 961B0000 		.4byte	.LASF523
 3048 0fb6 01       		.byte	0x1
 3049 0fb7 0B       		.uleb128 0xb
 3050 0fb8 1E1D0000 		.4byte	.LASF524
 3051 0fbc 02       		.byte	0x2
 3052 0fbd 0B       		.uleb128 0xb
 3053 0fbe 9B080000 		.4byte	.LASF525
 3054 0fc2 02       		.byte	0x2
 3055 0fc3 0B       		.uleb128 0xb
 3056 0fc4 50390000 		.4byte	.LASF526
 3057 0fc8 03       		.byte	0x3
 3058 0fc9 0B       		.uleb128 0xb
 3059 0fca AE330000 		.4byte	.LASF527
 3060 0fce 04       		.byte	0x4
 3061 0fcf 00       		.byte	0
 3062 0fd0 15       		.uleb128 0x15
 3063 0fd1 64210000 		.4byte	.LASF536
 3064 0fd5 01       		.byte	0x1
 3065 0fd6 3A       		.byte	0x3a
 3066 0fd7 00000000 		.4byte	.LFB36
 3067 0fdb 3E040000 		.4byte	.LFE36-.LFB36
 3068 0fdf 01       		.uleb128 0x1
 3069 0fe0 9C       		.byte	0x9c
 3070 0fe1 5B100000 		.4byte	0x105b
 3071 0fe5 16       		.uleb128 0x16
 3072 0fe6 97000000 		.4byte	.LASF528
 3073 0fea 01       		.byte	0x1
 3074 0feb 3A       		.byte	0x3a
 3075 0fec 83000000 		.4byte	0x83
 3076 0ff0 03       		.uleb128 0x3
 3077 0ff1 91       		.byte	0x91
 3078 0ff2 9C7F     		.sleb128 -100
 3079 0ff4 16       		.uleb128 0x16
 3080 0ff5 242C0000 		.4byte	.LASF529
 3081 0ff9 01       		.byte	0x1
 3082 0ffa 3A       		.byte	0x3a
 3083 0ffb ED000000 		.4byte	0xed
 3084 0fff 03       		.uleb128 0x3
 3085 1000 91       		.byte	0x91
 3086 1001 987F     		.sleb128 -104
 3087 1003 17       		.uleb128 0x17
 3088 1004 F50E0000 		.4byte	.LASF530
 3089 1008 01       		.byte	0x1
 3090 1009 3D       		.byte	0x3d
 3091 100a 84060000 		.4byte	0x684
 3092 100e 02       		.uleb128 0x2
 3093 100f 91       		.byte	0x91
 3094 1010 5C       		.sleb128 -36
 3095 1011 17       		.uleb128 0x17
 3096 1012 42050000 		.4byte	.LASF531
 3097 1016 01       		.byte	0x1
 3098 1017 3E       		.byte	0x3e
 3099 1018 9A060000 		.4byte	0x69a
 3100 101c 02       		.uleb128 0x2
 3101 101d 91       		.byte	0x91
 3102 101e 50       		.sleb128 -48
 3103 101f 17       		.uleb128 0x17
ARM GAS  C:\Users\User\AppData\Local\Temp\cc96DgHN.s 			page 73


 3104 1020 81410000 		.4byte	.LASF532
 3105 1024 01       		.byte	0x1
 3106 1025 3F       		.byte	0x3f
 3107 1026 6D040000 		.4byte	0x46d
 3108 102a 03       		.uleb128 0x3
 3109 102b 91       		.byte	0x91
 3110 102c BC7F     		.sleb128 -68
 3111 102e 17       		.uleb128 0x17
 3112 102f E0300000 		.4byte	.LASF533
 3113 1033 01       		.byte	0x1
 3114 1034 40       		.byte	0x40
 3115 1035 8F060000 		.4byte	0x68f
 3116 1039 03       		.uleb128 0x3
 3117 103a 91       		.byte	0x91
 3118 103b AC7F     		.sleb128 -84
 3119 103d 17       		.uleb128 0x17
 3120 103e B9180000 		.4byte	.LASF534
 3121 1042 01       		.byte	0x1
 3122 1043 41       		.byte	0x41
 3123 1044 92030000 		.4byte	0x392
 3124 1048 02       		.uleb128 0x2
 3125 1049 91       		.byte	0x91
 3126 104a 6E       		.sleb128 -18
 3127 104b 17       		.uleb128 0x17
 3128 104c DE1E0000 		.4byte	.LASF535
 3129 1050 01       		.byte	0x1
 3130 1051 42       		.byte	0x42
 3131 1052 9A060000 		.4byte	0x69a
 3132 1056 03       		.uleb128 0x3
 3133 1057 91       		.byte	0x91
 3134 1058 A07F     		.sleb128 -96
 3135 105a 00       		.byte	0
 3136 105b 18       		.uleb128 0x18
 3137 105c 603D0000 		.4byte	.LASF537
 3138 1060 01       		.byte	0x1
 3139 1061 0F02     		.2byte	0x20f
 3140 1063 00000000 		.4byte	.LFB37
 3141 1067 F8000000 		.4byte	.LFE37-.LFB37
 3142 106b 01       		.uleb128 0x1
 3143 106c 9C       		.byte	0x9c
 3144 106d 81100000 		.4byte	0x1081
 3145 1071 19       		.uleb128 0x19
 3146 1072 B9180000 		.4byte	.LASF534
 3147 1076 01       		.byte	0x1
 3148 1077 1102     		.2byte	0x211
 3149 1079 92030000 		.4byte	0x392
 3150 107d 02       		.uleb128 0x2
 3151 107e 91       		.byte	0x91
 3152 107f 6E       		.sleb128 -18
 3153 1080 00       		.byte	0
 3154 1081 18       		.uleb128 0x18
 3155 1082 73310000 		.4byte	.LASF538
 3156 1086 01       		.byte	0x1
 3157 1087 B702     		.2byte	0x2b7
 3158 1089 00000000 		.4byte	.LFB38
 3159 108d 48000000 		.4byte	.LFE38-.LFB38
 3160 1091 01       		.uleb128 0x1
ARM GAS  C:\Users\User\AppData\Local\Temp\cc96DgHN.s 			page 74


 3161 1092 9C       		.byte	0x9c
 3162 1093 A7100000 		.4byte	0x10a7
 3163 1097 19       		.uleb128 0x19
 3164 1098 B9180000 		.4byte	.LASF534
 3165 109c 01       		.byte	0x1
 3166 109d B902     		.2byte	0x2b9
 3167 109f 92030000 		.4byte	0x392
 3168 10a3 02       		.uleb128 0x2
 3169 10a4 91       		.byte	0x91
 3170 10a5 6E       		.sleb128 -18
 3171 10a6 00       		.byte	0
 3172 10a7 1A       		.uleb128 0x1a
 3173 10a8 13250000 		.4byte	.LASF563
 3174 10ac 01       		.byte	0x1
 3175 10ad FC02     		.2byte	0x2fc
 3176 10af 00000000 		.4byte	.LFB39
 3177 10b3 78000000 		.4byte	.LFE39-.LFB39
 3178 10b7 01       		.uleb128 0x1
 3179 10b8 9C       		.byte	0x9c
 3180 10b9 18       		.uleb128 0x18
 3181 10ba D8140000 		.4byte	.LASF539
 3182 10be 01       		.byte	0x1
 3183 10bf 3703     		.2byte	0x337
 3184 10c1 00000000 		.4byte	.LFB40
 3185 10c5 68000000 		.4byte	.LFE40-.LFB40
 3186 10c9 01       		.uleb128 0x1
 3187 10ca 9C       		.byte	0x9c
 3188 10cb 0C110000 		.4byte	0x110c
 3189 10cf 1B       		.uleb128 0x1b
 3190 10d0 992C0000 		.4byte	.LASF540
 3191 10d4 01       		.byte	0x1
 3192 10d5 3703     		.2byte	0x337
 3193 10d7 6B000000 		.4byte	0x6b
 3194 10db 02       		.uleb128 0x2
 3195 10dc 91       		.byte	0x91
 3196 10dd 67       		.sleb128 -25
 3197 10de 1B       		.uleb128 0x1b
 3198 10df 76400000 		.4byte	.LASF190
 3199 10e3 01       		.byte	0x1
 3200 10e4 3703     		.2byte	0x337
 3201 10e6 7C050000 		.4byte	0x57c
 3202 10ea 02       		.uleb128 0x2
 3203 10eb 91       		.byte	0x91
 3204 10ec 64       		.sleb128 -28
 3205 10ed 1B       		.uleb128 0x1b
 3206 10ee E5210000 		.4byte	.LASF193
 3207 10f2 01       		.byte	0x1
 3208 10f3 3703     		.2byte	0x337
 3209 10f5 70050000 		.4byte	0x570
 3210 10f9 02       		.uleb128 0x2
 3211 10fa 91       		.byte	0x91
 3212 10fb 66       		.sleb128 -26
 3213 10fc 19       		.uleb128 0x19
 3214 10fd C2290000 		.4byte	.LASF541
 3215 1101 01       		.byte	0x1
 3216 1102 3903     		.2byte	0x339
 3217 1104 58060000 		.4byte	0x658
ARM GAS  C:\Users\User\AppData\Local\Temp\cc96DgHN.s 			page 75


 3218 1108 02       		.uleb128 0x2
 3219 1109 91       		.byte	0x91
 3220 110a 6C       		.sleb128 -20
 3221 110b 00       		.byte	0
 3222 110c 17       		.uleb128 0x17
 3223 110d BB310000 		.4byte	.LASF542
 3224 1111 0B       		.byte	0xb
 3225 1112 14       		.byte	0x14
 3226 1113 B0000000 		.4byte	0xb0
 3227 1117 05       		.uleb128 0x5
 3228 1118 03       		.byte	0x3
 3229 1119 00000000 		.4byte	flag_Timer
 3230 111d 0F       		.uleb128 0xf
 3231 111e BA000000 		.4byte	0xba
 3232 1122 2D110000 		.4byte	0x112d
 3233 1126 10       		.uleb128 0x10
 3234 1127 E6000000 		.4byte	0xe6
 3235 112b 07       		.byte	0x7
 3236 112c 00       		.byte	0
 3237 112d 1C       		.uleb128 0x1c
 3238 112e 3C150000 		.4byte	.LASF543
 3239 1132 03       		.byte	0x3
 3240 1133 34       		.byte	0x34
 3241 1134 1D110000 		.4byte	0x111d
 3242 1138 05       		.uleb128 0x5
 3243 1139 03       		.byte	0x3
 3244 113a 00000000 		.4byte	OneWire_Sensor
 3245 113e 1C       		.uleb128 0x1c
 3246 113f 59350000 		.4byte	.LASF544
 3247 1143 03       		.byte	0x3
 3248 1144 39       		.byte	0x39
 3249 1145 B0000000 		.4byte	0xb0
 3250 1149 05       		.uleb128 0x5
 3251 114a 03       		.byte	0x3
 3252 114b 00000000 		.4byte	OneWire_DataReady
 3253 114f 1D       		.uleb128 0x1d
 3254 1150 95020000 		.4byte	.LASF545
 3255 1154 0A       		.byte	0xa
 3256 1155 160B     		.2byte	0xb16
 3257 1157 920F0000 		.4byte	0xf92
 3258 115b 1D       		.uleb128 0x1d
 3259 115c 452F0000 		.4byte	.LASF546
 3260 1160 0A       		.byte	0xa
 3261 1161 170B     		.2byte	0xb17
 3262 1163 AC050000 		.4byte	0x5ac
 3263 1167 1C       		.uleb128 0x1c
 3264 1168 7A110000 		.4byte	.LASF547
 3265 116c 01       		.byte	0x1
 3266 116d 12       		.byte	0x12
 3267 116e 6B000000 		.4byte	0x6b
 3268 1172 05       		.uleb128 0x5
 3269 1173 03       		.byte	0x3
 3270 1174 00000000 		.4byte	dataADVCounter
 3271 1178 1C       		.uleb128 0x1c
 3272 1179 D5240000 		.4byte	.LASF548
 3273 117d 0C       		.byte	0xc
 3274 117e 25       		.byte	0x25
ARM GAS  C:\Users\User\AppData\Local\Temp\cc96DgHN.s 			page 76


 3275 117f B5000000 		.4byte	0xb5
 3276 1183 05       		.uleb128 0x5
 3277 1184 03       		.byte	0x3
 3278 1185 00000000 		.4byte	current_watchdog_counter
 3279 1189 1C       		.uleb128 0x1c
 3280 118a 3E280000 		.4byte	.LASF549
 3281 118e 0C       		.byte	0xc
 3282 118f 26       		.byte	0x26
 3283 1190 84060000 		.4byte	0x684
 3284 1194 05       		.uleb128 0x5
 3285 1195 03       		.byte	0x3
 3286 1196 00000000 		.4byte	TemperatureStorage
 3287 119a 1C       		.uleb128 0x1c
 3288 119b E7310000 		.4byte	.LASF550
 3289 119f 0C       		.byte	0xc
 3290 11a0 27       		.byte	0x27
 3291 11a1 AB110000 		.4byte	0x11ab
 3292 11a5 05       		.uleb128 0x5
 3293 11a6 03       		.byte	0x3
 3294 11a7 00000000 		.4byte	deviceIndex
 3295 11ab 1E       		.uleb128 0x1e
 3296 11ac 5D000000 		.4byte	0x5d
 3297 11b0 1C       		.uleb128 0x1c
 3298 11b1 74230000 		.4byte	.LASF551
 3299 11b5 01       		.byte	0x1
 3300 11b6 13       		.byte	0x13
 3301 11b7 6B000000 		.4byte	0x6b
 3302 11bb 05       		.uleb128 0x5
 3303 11bc 03       		.byte	0x3
 3304 11bd 00000000 		.4byte	switch_Role
 3305 11c1 0F       		.uleb128 0xf
 3306 11c2 6B000000 		.4byte	0x6b
 3307 11c6 D1110000 		.4byte	0x11d1
 3308 11ca 10       		.uleb128 0x10
 3309 11cb E6000000 		.4byte	0xe6
 3310 11cf 13       		.byte	0x13
 3311 11d0 00       		.byte	0
 3312 11d1 1C       		.uleb128 0x1c
 3313 11d2 56050000 		.4byte	.LASF552
 3314 11d6 01       		.byte	0x1
 3315 11d7 1E       		.byte	0x1e
 3316 11d8 C1110000 		.4byte	0x11c1
 3317 11dc 05       		.uleb128 0x5
 3318 11dd 03       		.byte	0x3
 3319 11de 00000000 		.4byte	scan_tag
 3320 11e2 1C       		.uleb128 0x1c
 3321 11e3 9B320000 		.4byte	.LASF553
 3322 11e7 01       		.byte	0x1
 3323 11e8 22       		.byte	0x22
 3324 11e9 D2030000 		.4byte	0x3d2
 3325 11ed 05       		.uleb128 0x5
 3326 11ee 03       		.byte	0x3
 3327 11ef 00000000 		.4byte	peripAddr
 3328 11f3 1C       		.uleb128 0x1c
 3329 11f4 DE3E0000 		.4byte	.LASF554
 3330 11f8 01       		.byte	0x1
 3331 11f9 23       		.byte	0x23
ARM GAS  C:\Users\User\AppData\Local\Temp\cc96DgHN.s 			page 77


 3332 11fa 6B000000 		.4byte	0x6b
 3333 11fe 05       		.uleb128 0x5
 3334 11ff 03       		.byte	0x3
 3335 1200 00000000 		.4byte	clientConnectToDevice
 3336 1204 1C       		.uleb128 0x1c
 3337 1205 011C0000 		.4byte	.LASF555
 3338 1209 01       		.byte	0x1
 3339 120a 24       		.byte	0x24
 3340 120b 6B000000 		.4byte	0x6b
 3341 120f 05       		.uleb128 0x5
 3342 1210 03       		.byte	0x3
 3343 1211 00000000 		.4byte	ble_gap_state
 3344 1215 1C       		.uleb128 0x1c
 3345 1216 82260000 		.4byte	.LASF556
 3346 121a 01       		.byte	0x1
 3347 121b 26       		.byte	0x26
 3348 121c 6B000000 		.4byte	0x6b
 3349 1220 05       		.uleb128 0x5
 3350 1221 03       		.byte	0x3
 3351 1222 00000000 		.4byte	deviceConnected
 3352 1226 1C       		.uleb128 0x1c
 3353 1227 5D190000 		.4byte	.LASF557
 3354 122b 01       		.byte	0x1
 3355 122c 27       		.byte	0x27
 3356 122d 6B000000 		.4byte	0x6b
 3357 1231 05       		.uleb128 0x5
 3358 1232 03       		.byte	0x3
 3359 1233 00000000 		.4byte	restartScanning
 3360 1237 1C       		.uleb128 0x1c
 3361 1238 EF3B0000 		.4byte	.LASF558
 3362 123c 01       		.byte	0x1
 3363 123d 28       		.byte	0x28
 3364 123e B5000000 		.4byte	0xb5
 3365 1242 05       		.uleb128 0x5
 3366 1243 03       		.byte	0x3
 3367 1244 00000000 		.4byte	centralStartedTime
 3368 1248 00       		.byte	0
 3369              		.section	.debug_abbrev,"",%progbits
 3370              	.Ldebug_abbrev0:
 3371 0000 01       		.uleb128 0x1
 3372 0001 11       		.uleb128 0x11
 3373 0002 01       		.byte	0x1
 3374 0003 25       		.uleb128 0x25
 3375 0004 0E       		.uleb128 0xe
 3376 0005 13       		.uleb128 0x13
 3377 0006 0B       		.uleb128 0xb
 3378 0007 03       		.uleb128 0x3
 3379 0008 0E       		.uleb128 0xe
 3380 0009 1B       		.uleb128 0x1b
 3381 000a 0E       		.uleb128 0xe
 3382 000b 55       		.uleb128 0x55
 3383 000c 17       		.uleb128 0x17
 3384 000d 11       		.uleb128 0x11
 3385 000e 01       		.uleb128 0x1
 3386 000f 10       		.uleb128 0x10
 3387 0010 17       		.uleb128 0x17
 3388 0011 00       		.byte	0
ARM GAS  C:\Users\User\AppData\Local\Temp\cc96DgHN.s 			page 78


 3389 0012 00       		.byte	0
 3390 0013 02       		.uleb128 0x2
 3391 0014 24       		.uleb128 0x24
 3392 0015 00       		.byte	0
 3393 0016 0B       		.uleb128 0xb
 3394 0017 0B       		.uleb128 0xb
 3395 0018 3E       		.uleb128 0x3e
 3396 0019 0B       		.uleb128 0xb
 3397 001a 03       		.uleb128 0x3
 3398 001b 0E       		.uleb128 0xe
 3399 001c 00       		.byte	0
 3400 001d 00       		.byte	0
 3401 001e 03       		.uleb128 0x3
 3402 001f 24       		.uleb128 0x24
 3403 0020 00       		.byte	0
 3404 0021 0B       		.uleb128 0xb
 3405 0022 0B       		.uleb128 0xb
 3406 0023 3E       		.uleb128 0x3e
 3407 0024 0B       		.uleb128 0xb
 3408 0025 03       		.uleb128 0x3
 3409 0026 08       		.uleb128 0x8
 3410 0027 00       		.byte	0
 3411 0028 00       		.byte	0
 3412 0029 04       		.uleb128 0x4
 3413 002a 16       		.uleb128 0x16
 3414 002b 00       		.byte	0
 3415 002c 03       		.uleb128 0x3
 3416 002d 0E       		.uleb128 0xe
 3417 002e 3A       		.uleb128 0x3a
 3418 002f 0B       		.uleb128 0xb
 3419 0030 3B       		.uleb128 0x3b
 3420 0031 05       		.uleb128 0x5
 3421 0032 49       		.uleb128 0x49
 3422 0033 13       		.uleb128 0x13
 3423 0034 00       		.byte	0
 3424 0035 00       		.byte	0
 3425 0036 05       		.uleb128 0x5
 3426 0037 35       		.uleb128 0x35
 3427 0038 00       		.byte	0
 3428 0039 49       		.uleb128 0x49
 3429 003a 13       		.uleb128 0x13
 3430 003b 00       		.byte	0
 3431 003c 00       		.byte	0
 3432 003d 06       		.uleb128 0x6
 3433 003e 13       		.uleb128 0x13
 3434 003f 01       		.byte	0x1
 3435 0040 03       		.uleb128 0x3
 3436 0041 0E       		.uleb128 0xe
 3437 0042 0B       		.uleb128 0xb
 3438 0043 0B       		.uleb128 0xb
 3439 0044 3A       		.uleb128 0x3a
 3440 0045 0B       		.uleb128 0xb
 3441 0046 3B       		.uleb128 0x3b
 3442 0047 0B       		.uleb128 0xb
 3443 0048 01       		.uleb128 0x1
 3444 0049 13       		.uleb128 0x13
 3445 004a 00       		.byte	0
ARM GAS  C:\Users\User\AppData\Local\Temp\cc96DgHN.s 			page 79


 3446 004b 00       		.byte	0
 3447 004c 07       		.uleb128 0x7
 3448 004d 0D       		.uleb128 0xd
 3449 004e 00       		.byte	0
 3450 004f 03       		.uleb128 0x3
 3451 0050 0E       		.uleb128 0xe
 3452 0051 3A       		.uleb128 0x3a
 3453 0052 0B       		.uleb128 0xb
 3454 0053 3B       		.uleb128 0x3b
 3455 0054 0B       		.uleb128 0xb
 3456 0055 49       		.uleb128 0x49
 3457 0056 13       		.uleb128 0x13
 3458 0057 38       		.uleb128 0x38
 3459 0058 0B       		.uleb128 0xb
 3460 0059 00       		.byte	0
 3461 005a 00       		.byte	0
 3462 005b 08       		.uleb128 0x8
 3463 005c 0F       		.uleb128 0xf
 3464 005d 00       		.byte	0
 3465 005e 0B       		.uleb128 0xb
 3466 005f 0B       		.uleb128 0xb
 3467 0060 00       		.byte	0
 3468 0061 00       		.byte	0
 3469 0062 09       		.uleb128 0x9
 3470 0063 0F       		.uleb128 0xf
 3471 0064 00       		.byte	0
 3472 0065 0B       		.uleb128 0xb
 3473 0066 0B       		.uleb128 0xb
 3474 0067 49       		.uleb128 0x49
 3475 0068 13       		.uleb128 0x13
 3476 0069 00       		.byte	0
 3477 006a 00       		.byte	0
 3478 006b 0A       		.uleb128 0xa
 3479 006c 04       		.uleb128 0x4
 3480 006d 01       		.byte	0x1
 3481 006e 0B       		.uleb128 0xb
 3482 006f 0B       		.uleb128 0xb
 3483 0070 49       		.uleb128 0x49
 3484 0071 13       		.uleb128 0x13
 3485 0072 3A       		.uleb128 0x3a
 3486 0073 0B       		.uleb128 0xb
 3487 0074 3B       		.uleb128 0x3b
 3488 0075 05       		.uleb128 0x5
 3489 0076 01       		.uleb128 0x1
 3490 0077 13       		.uleb128 0x13
 3491 0078 00       		.byte	0
 3492 0079 00       		.byte	0
 3493 007a 0B       		.uleb128 0xb
 3494 007b 28       		.uleb128 0x28
 3495 007c 00       		.byte	0
 3496 007d 03       		.uleb128 0x3
 3497 007e 0E       		.uleb128 0xe
 3498 007f 1C       		.uleb128 0x1c
 3499 0080 0B       		.uleb128 0xb
 3500 0081 00       		.byte	0
 3501 0082 00       		.byte	0
 3502 0083 0C       		.uleb128 0xc
ARM GAS  C:\Users\User\AppData\Local\Temp\cc96DgHN.s 			page 80


 3503 0084 28       		.uleb128 0x28
 3504 0085 00       		.byte	0
 3505 0086 03       		.uleb128 0x3
 3506 0087 0E       		.uleb128 0xe
 3507 0088 1C       		.uleb128 0x1c
 3508 0089 05       		.uleb128 0x5
 3509 008a 00       		.byte	0
 3510 008b 00       		.byte	0
 3511 008c 0D       		.uleb128 0xd
 3512 008d 13       		.uleb128 0x13
 3513 008e 01       		.byte	0x1
 3514 008f 0B       		.uleb128 0xb
 3515 0090 0B       		.uleb128 0xb
 3516 0091 3A       		.uleb128 0x3a
 3517 0092 0B       		.uleb128 0xb
 3518 0093 3B       		.uleb128 0x3b
 3519 0094 05       		.uleb128 0x5
 3520 0095 01       		.uleb128 0x1
 3521 0096 13       		.uleb128 0x13
 3522 0097 00       		.byte	0
 3523 0098 00       		.byte	0
 3524 0099 0E       		.uleb128 0xe
 3525 009a 0D       		.uleb128 0xd
 3526 009b 00       		.byte	0
 3527 009c 03       		.uleb128 0x3
 3528 009d 0E       		.uleb128 0xe
 3529 009e 3A       		.uleb128 0x3a
 3530 009f 0B       		.uleb128 0xb
 3531 00a0 3B       		.uleb128 0x3b
 3532 00a1 05       		.uleb128 0x5
 3533 00a2 49       		.uleb128 0x49
 3534 00a3 13       		.uleb128 0x13
 3535 00a4 38       		.uleb128 0x38
 3536 00a5 0B       		.uleb128 0xb
 3537 00a6 00       		.byte	0
 3538 00a7 00       		.byte	0
 3539 00a8 0F       		.uleb128 0xf
 3540 00a9 01       		.uleb128 0x1
 3541 00aa 01       		.byte	0x1
 3542 00ab 49       		.uleb128 0x49
 3543 00ac 13       		.uleb128 0x13
 3544 00ad 01       		.uleb128 0x1
 3545 00ae 13       		.uleb128 0x13
 3546 00af 00       		.byte	0
 3547 00b0 00       		.byte	0
 3548 00b1 10       		.uleb128 0x10
 3549 00b2 21       		.uleb128 0x21
 3550 00b3 00       		.byte	0
 3551 00b4 49       		.uleb128 0x49
 3552 00b5 13       		.uleb128 0x13
 3553 00b6 2F       		.uleb128 0x2f
 3554 00b7 0B       		.uleb128 0xb
 3555 00b8 00       		.byte	0
 3556 00b9 00       		.byte	0
 3557 00ba 11       		.uleb128 0x11
 3558 00bb 04       		.uleb128 0x4
 3559 00bc 01       		.byte	0x1
ARM GAS  C:\Users\User\AppData\Local\Temp\cc96DgHN.s 			page 81


 3560 00bd 0B       		.uleb128 0xb
 3561 00be 0B       		.uleb128 0xb
 3562 00bf 49       		.uleb128 0x49
 3563 00c0 13       		.uleb128 0x13
 3564 00c1 3A       		.uleb128 0x3a
 3565 00c2 0B       		.uleb128 0xb
 3566 00c3 3B       		.uleb128 0x3b
 3567 00c4 0B       		.uleb128 0xb
 3568 00c5 01       		.uleb128 0x1
 3569 00c6 13       		.uleb128 0x13
 3570 00c7 00       		.byte	0
 3571 00c8 00       		.byte	0
 3572 00c9 12       		.uleb128 0x12
 3573 00ca 0D       		.uleb128 0xd
 3574 00cb 00       		.byte	0
 3575 00cc 03       		.uleb128 0x3
 3576 00cd 08       		.uleb128 0x8
 3577 00ce 3A       		.uleb128 0x3a
 3578 00cf 0B       		.uleb128 0xb
 3579 00d0 3B       		.uleb128 0x3b
 3580 00d1 05       		.uleb128 0x5
 3581 00d2 49       		.uleb128 0x49
 3582 00d3 13       		.uleb128 0x13
 3583 00d4 38       		.uleb128 0x38
 3584 00d5 0B       		.uleb128 0xb
 3585 00d6 00       		.byte	0
 3586 00d7 00       		.byte	0
 3587 00d8 13       		.uleb128 0x13
 3588 00d9 13       		.uleb128 0x13
 3589 00da 01       		.byte	0x1
 3590 00db 0B       		.uleb128 0xb
 3591 00dc 0B       		.uleb128 0xb
 3592 00dd 3A       		.uleb128 0x3a
 3593 00de 0B       		.uleb128 0xb
 3594 00df 3B       		.uleb128 0x3b
 3595 00e0 0B       		.uleb128 0xb
 3596 00e1 01       		.uleb128 0x1
 3597 00e2 13       		.uleb128 0x13
 3598 00e3 00       		.byte	0
 3599 00e4 00       		.byte	0
 3600 00e5 14       		.uleb128 0x14
 3601 00e6 16       		.uleb128 0x16
 3602 00e7 00       		.byte	0
 3603 00e8 03       		.uleb128 0x3
 3604 00e9 0E       		.uleb128 0xe
 3605 00ea 3A       		.uleb128 0x3a
 3606 00eb 0B       		.uleb128 0xb
 3607 00ec 3B       		.uleb128 0x3b
 3608 00ed 0B       		.uleb128 0xb
 3609 00ee 49       		.uleb128 0x49
 3610 00ef 13       		.uleb128 0x13
 3611 00f0 00       		.byte	0
 3612 00f1 00       		.byte	0
 3613 00f2 15       		.uleb128 0x15
 3614 00f3 2E       		.uleb128 0x2e
 3615 00f4 01       		.byte	0x1
 3616 00f5 3F       		.uleb128 0x3f
ARM GAS  C:\Users\User\AppData\Local\Temp\cc96DgHN.s 			page 82


 3617 00f6 19       		.uleb128 0x19
 3618 00f7 03       		.uleb128 0x3
 3619 00f8 0E       		.uleb128 0xe
 3620 00f9 3A       		.uleb128 0x3a
 3621 00fa 0B       		.uleb128 0xb
 3622 00fb 3B       		.uleb128 0x3b
 3623 00fc 0B       		.uleb128 0xb
 3624 00fd 27       		.uleb128 0x27
 3625 00fe 19       		.uleb128 0x19
 3626 00ff 11       		.uleb128 0x11
 3627 0100 01       		.uleb128 0x1
 3628 0101 12       		.uleb128 0x12
 3629 0102 06       		.uleb128 0x6
 3630 0103 40       		.uleb128 0x40
 3631 0104 18       		.uleb128 0x18
 3632 0105 9642     		.uleb128 0x2116
 3633 0107 19       		.uleb128 0x19
 3634 0108 01       		.uleb128 0x1
 3635 0109 13       		.uleb128 0x13
 3636 010a 00       		.byte	0
 3637 010b 00       		.byte	0
 3638 010c 16       		.uleb128 0x16
 3639 010d 05       		.uleb128 0x5
 3640 010e 00       		.byte	0
 3641 010f 03       		.uleb128 0x3
 3642 0110 0E       		.uleb128 0xe
 3643 0111 3A       		.uleb128 0x3a
 3644 0112 0B       		.uleb128 0xb
 3645 0113 3B       		.uleb128 0x3b
 3646 0114 0B       		.uleb128 0xb
 3647 0115 49       		.uleb128 0x49
 3648 0116 13       		.uleb128 0x13
 3649 0117 02       		.uleb128 0x2
 3650 0118 18       		.uleb128 0x18
 3651 0119 00       		.byte	0
 3652 011a 00       		.byte	0
 3653 011b 17       		.uleb128 0x17
 3654 011c 34       		.uleb128 0x34
 3655 011d 00       		.byte	0
 3656 011e 03       		.uleb128 0x3
 3657 011f 0E       		.uleb128 0xe
 3658 0120 3A       		.uleb128 0x3a
 3659 0121 0B       		.uleb128 0xb
 3660 0122 3B       		.uleb128 0x3b
 3661 0123 0B       		.uleb128 0xb
 3662 0124 49       		.uleb128 0x49
 3663 0125 13       		.uleb128 0x13
 3664 0126 02       		.uleb128 0x2
 3665 0127 18       		.uleb128 0x18
 3666 0128 00       		.byte	0
 3667 0129 00       		.byte	0
 3668 012a 18       		.uleb128 0x18
 3669 012b 2E       		.uleb128 0x2e
 3670 012c 01       		.byte	0x1
 3671 012d 3F       		.uleb128 0x3f
 3672 012e 19       		.uleb128 0x19
 3673 012f 03       		.uleb128 0x3
ARM GAS  C:\Users\User\AppData\Local\Temp\cc96DgHN.s 			page 83


 3674 0130 0E       		.uleb128 0xe
 3675 0131 3A       		.uleb128 0x3a
 3676 0132 0B       		.uleb128 0xb
 3677 0133 3B       		.uleb128 0x3b
 3678 0134 05       		.uleb128 0x5
 3679 0135 27       		.uleb128 0x27
 3680 0136 19       		.uleb128 0x19
 3681 0137 11       		.uleb128 0x11
 3682 0138 01       		.uleb128 0x1
 3683 0139 12       		.uleb128 0x12
 3684 013a 06       		.uleb128 0x6
 3685 013b 40       		.uleb128 0x40
 3686 013c 18       		.uleb128 0x18
 3687 013d 9642     		.uleb128 0x2116
 3688 013f 19       		.uleb128 0x19
 3689 0140 01       		.uleb128 0x1
 3690 0141 13       		.uleb128 0x13
 3691 0142 00       		.byte	0
 3692 0143 00       		.byte	0
 3693 0144 19       		.uleb128 0x19
 3694 0145 34       		.uleb128 0x34
 3695 0146 00       		.byte	0
 3696 0147 03       		.uleb128 0x3
 3697 0148 0E       		.uleb128 0xe
 3698 0149 3A       		.uleb128 0x3a
 3699 014a 0B       		.uleb128 0xb
 3700 014b 3B       		.uleb128 0x3b
 3701 014c 05       		.uleb128 0x5
 3702 014d 49       		.uleb128 0x49
 3703 014e 13       		.uleb128 0x13
 3704 014f 02       		.uleb128 0x2
 3705 0150 18       		.uleb128 0x18
 3706 0151 00       		.byte	0
 3707 0152 00       		.byte	0
 3708 0153 1A       		.uleb128 0x1a
 3709 0154 2E       		.uleb128 0x2e
 3710 0155 00       		.byte	0
 3711 0156 3F       		.uleb128 0x3f
 3712 0157 19       		.uleb128 0x19
 3713 0158 03       		.uleb128 0x3
 3714 0159 0E       		.uleb128 0xe
 3715 015a 3A       		.uleb128 0x3a
 3716 015b 0B       		.uleb128 0xb
 3717 015c 3B       		.uleb128 0x3b
 3718 015d 05       		.uleb128 0x5
 3719 015e 27       		.uleb128 0x27
 3720 015f 19       		.uleb128 0x19
 3721 0160 11       		.uleb128 0x11
 3722 0161 01       		.uleb128 0x1
 3723 0162 12       		.uleb128 0x12
 3724 0163 06       		.uleb128 0x6
 3725 0164 40       		.uleb128 0x40
 3726 0165 18       		.uleb128 0x18
 3727 0166 9642     		.uleb128 0x2116
 3728 0168 19       		.uleb128 0x19
 3729 0169 00       		.byte	0
 3730 016a 00       		.byte	0
ARM GAS  C:\Users\User\AppData\Local\Temp\cc96DgHN.s 			page 84


 3731 016b 1B       		.uleb128 0x1b
 3732 016c 05       		.uleb128 0x5
 3733 016d 00       		.byte	0
 3734 016e 03       		.uleb128 0x3
 3735 016f 0E       		.uleb128 0xe
 3736 0170 3A       		.uleb128 0x3a
 3737 0171 0B       		.uleb128 0xb
 3738 0172 3B       		.uleb128 0x3b
 3739 0173 05       		.uleb128 0x5
 3740 0174 49       		.uleb128 0x49
 3741 0175 13       		.uleb128 0x13
 3742 0176 02       		.uleb128 0x2
 3743 0177 18       		.uleb128 0x18
 3744 0178 00       		.byte	0
 3745 0179 00       		.byte	0
 3746 017a 1C       		.uleb128 0x1c
 3747 017b 34       		.uleb128 0x34
 3748 017c 00       		.byte	0
 3749 017d 03       		.uleb128 0x3
 3750 017e 0E       		.uleb128 0xe
 3751 017f 3A       		.uleb128 0x3a
 3752 0180 0B       		.uleb128 0xb
 3753 0181 3B       		.uleb128 0x3b
 3754 0182 0B       		.uleb128 0xb
 3755 0183 49       		.uleb128 0x49
 3756 0184 13       		.uleb128 0x13
 3757 0185 3F       		.uleb128 0x3f
 3758 0186 19       		.uleb128 0x19
 3759 0187 02       		.uleb128 0x2
 3760 0188 18       		.uleb128 0x18
 3761 0189 00       		.byte	0
 3762 018a 00       		.byte	0
 3763 018b 1D       		.uleb128 0x1d
 3764 018c 34       		.uleb128 0x34
 3765 018d 00       		.byte	0
 3766 018e 03       		.uleb128 0x3
 3767 018f 0E       		.uleb128 0xe
 3768 0190 3A       		.uleb128 0x3a
 3769 0191 0B       		.uleb128 0xb
 3770 0192 3B       		.uleb128 0x3b
 3771 0193 05       		.uleb128 0x5
 3772 0194 49       		.uleb128 0x49
 3773 0195 13       		.uleb128 0x13
 3774 0196 3F       		.uleb128 0x3f
 3775 0197 19       		.uleb128 0x19
 3776 0198 3C       		.uleb128 0x3c
 3777 0199 19       		.uleb128 0x19
 3778 019a 00       		.byte	0
 3779 019b 00       		.byte	0
 3780 019c 1E       		.uleb128 0x1e
 3781 019d 26       		.uleb128 0x26
 3782 019e 00       		.byte	0
 3783 019f 49       		.uleb128 0x49
 3784 01a0 13       		.uleb128 0x13
 3785 01a1 00       		.byte	0
 3786 01a2 00       		.byte	0
 3787 01a3 00       		.byte	0
ARM GAS  C:\Users\User\AppData\Local\Temp\cc96DgHN.s 			page 85


 3788              		.section	.debug_aranges,"",%progbits
 3789 0000 3C000000 		.4byte	0x3c
 3790 0004 0200     		.2byte	0x2
 3791 0006 00000000 		.4byte	.Ldebug_info0
 3792 000a 04       		.byte	0x4
 3793 000b 00       		.byte	0
 3794 000c 0000     		.2byte	0
 3795 000e 0000     		.2byte	0
 3796 0010 00000000 		.4byte	.LFB36
 3797 0014 3E040000 		.4byte	.LFE36-.LFB36
 3798 0018 00000000 		.4byte	.LFB37
 3799 001c F8000000 		.4byte	.LFE37-.LFB37
 3800 0020 00000000 		.4byte	.LFB38
 3801 0024 48000000 		.4byte	.LFE38-.LFB38
 3802 0028 00000000 		.4byte	.LFB39
 3803 002c 78000000 		.4byte	.LFE39-.LFB39
 3804 0030 00000000 		.4byte	.LFB40
 3805 0034 68000000 		.4byte	.LFE40-.LFB40
 3806 0038 00000000 		.4byte	0
 3807 003c 00000000 		.4byte	0
 3808              		.section	.debug_ranges,"",%progbits
 3809              	.Ldebug_ranges0:
 3810 0000 00000000 		.4byte	.LFB36
 3811 0004 3E040000 		.4byte	.LFE36
 3812 0008 00000000 		.4byte	.LFB37
 3813 000c F8000000 		.4byte	.LFE37
 3814 0010 00000000 		.4byte	.LFB38
 3815 0014 48000000 		.4byte	.LFE38
 3816 0018 00000000 		.4byte	.LFB39
 3817 001c 78000000 		.4byte	.LFE39
 3818 0020 00000000 		.4byte	.LFB40
 3819 0024 68000000 		.4byte	.LFE40
 3820 0028 00000000 		.4byte	0
 3821 002c 00000000 		.4byte	0
 3822              		.section	.debug_line,"",%progbits
 3823              	.Ldebug_line0:
 3824 0000 EA020000 		.section	.debug_str,"MS",%progbits,1
 3824      02006A01 
 3824      00000201 
 3824      FB0E0D00 
 3824      01010101 
 3825              	.LASF370:
 3826 0000 4359424C 		.ascii	"CYBLE_EVT_HPSS_NOTIFICATION_DISABLED\000"
 3826      455F4556 
 3826      545F4850 
 3826      53535F4E 
 3826      4F544946 
 3827              	.LASF106:
 3828 0025 4359424C 		.ascii	"CYBLE_ERROR_L2CAP_PSM_ALREADY_REGISTERED\000"
 3828      455F4552 
 3828      524F525F 
 3828      4C324341 
 3828      505F5053 
 3829              	.LASF312:
 3830 004e 4359424C 		.ascii	"CYBLE_EVT_CSCSS_NOTIFICATION_DISABLED\000"
 3830      455F4556 
 3830      545F4353 
ARM GAS  C:\Users\User\AppData\Local\Temp\cc96DgHN.s 			page 86


 3830      4353535F 
 3830      4E4F5449 
 3831              	.LASF431:
 3832 0074 4359424C 		.ascii	"CYBLE_EVT_OTSC_READ_DESCR_RESPONSE\000"
 3832      455F4556 
 3832      545F4F54 
 3832      53435F52 
 3832      4541445F 
 3833              	.LASF528:
 3834 0097 6576656E 		.ascii	"event\000"
 3834      7400
 3835              	.LASF91:
 3836 009d 4359424C 		.ascii	"CYBLE_EVT_MAX\000"
 3836      455F4556 
 3836      545F4D41 
 3836      5800
 3837              	.LASF434:
 3838 00ab 4359424C 		.ascii	"CYBLE_EVT_PASSS_NOTIFICATION_ENABLED\000"
 3838      455F4556 
 3838      545F5041 
 3838      5353535F 
 3838      4E4F5449 
 3839              	.LASF155:
 3840 00d0 4359424C 		.ascii	"CYBLE_GATT_ERR_INSUFFICIENT_ENC_KEY_SIZE\000"
 3840      455F4741 
 3840      54545F45 
 3840      52525F49 
 3840      4E535546 
 3841              	.LASF369:
 3842 00f9 4359424C 		.ascii	"CYBLE_EVT_HPSS_NOTIFICATION_ENABLED\000"
 3842      455F4556 
 3842      545F4850 
 3842      53535F4E 
 3842      4F544946 
 3843              	.LASF403:
 3844 011d 4359424C 		.ascii	"CYBLE_EVT_IPSC_WRITE_DESCR_RESPONSE\000"
 3844      455F4556 
 3844      545F4950 
 3844      53435F57 
 3844      52495445 
 3845              	.LASF203:
 3846 0141 4359424C 		.ascii	"CYBLE_HTS_MEASURE_INTERVAL\000"
 3846      455F4854 
 3846      535F4D45 
 3846      41535552 
 3846      455F494E 
 3847              	.LASF232:
 3848 015c 4359424C 		.ascii	"CYBLE_EVT_AIOSS_CHAR_WRITE\000"
 3848      455F4556 
 3848      545F4149 
 3848      4F53535F 
 3848      43484152 
 3849              	.LASF438:
 3850 0177 4359424C 		.ascii	"CYBLE_EVT_PASSC_READ_CHAR_RESPONSE\000"
 3850      455F4556 
 3850      545F5041 
 3850      5353435F 
ARM GAS  C:\Users\User\AppData\Local\Temp\cc96DgHN.s 			page 87


 3850      52454144 
 3851              	.LASF315:
 3852 019a 4359424C 		.ascii	"CYBLE_EVT_CSCSS_INDICATION_CONFIRMATION\000"
 3852      455F4556 
 3852      545F4353 
 3852      4353535F 
 3852      494E4449 
 3853              	.LASF293:
 3854 01c2 4359424C 		.ascii	"CYBLE_EVT_CGMSC_WRITE_CHAR_RESPONSE\000"
 3854      455F4556 
 3854      545F4347 
 3854      4D53435F 
 3854      57524954 
 3855              	.LASF31:
 3856 01e6 4359424C 		.ascii	"CYBLE_EVT_GAP_AUTH_COMPLETE\000"
 3856      455F4556 
 3856      545F4741 
 3856      505F4155 
 3856      54485F43 
 3857              	.LASF122:
 3858 0202 4359424C 		.ascii	"CYBLE_ERROR_IND_DISABLED\000"
 3858      455F4552 
 3858      524F525F 
 3858      494E445F 
 3858      44495341 
 3859              	.LASF320:
 3860 021b 4359424C 		.ascii	"CYBLE_EVT_CSCSC_WRITE_CHAR_RESPONSE\000"
 3860      455F4556 
 3860      545F4353 
 3860      4353435F 
 3860      57524954 
 3861              	.LASF478:
 3862 023f 4359424C 		.ascii	"CYBLE_EVT_TPSC_READ_DESCR_RESPONSE\000"
 3862      455F4556 
 3862      545F5450 
 3862      53435F52 
 3862      4541445F 
 3863              	.LASF384:
 3864 0262 4359424C 		.ascii	"CYBLE_EVT_HRSC_WRITE_DESCR_RESPONSE\000"
 3864      455F4556 
 3864      545F4852 
 3864      53435F57 
 3864      52495445 
 3865              	.LASF92:
 3866 0286 4359424C 		.ascii	"CYBLE_ERROR_OK\000"
 3866      455F4552 
 3866      524F525F 
 3866      4F4B00
 3867              	.LASF545:
 3868 0295 6379426C 		.ascii	"cyBle_state\000"
 3868      655F7374 
 3868      61746500 
 3869              	.LASF517:
 3870 02a1 4359424C 		.ascii	"CYBLE_STATE_ADVERTISING\000"
 3870      455F5354 
 3870      4154455F 
 3870      41445645 
ARM GAS  C:\Users\User\AppData\Local\Temp\cc96DgHN.s 			page 88


 3870      52544953 
 3871              	.LASF227:
 3872 02b9 4359424C 		.ascii	"CYBLE_EVT_AIOSS_NOTIFICATION_ENABLED\000"
 3872      455F4556 
 3872      545F4149 
 3872      4F53535F 
 3872      4E4F5449 
 3873              	.LASF103:
 3874 02de 4359424C 		.ascii	"CYBLE_ERROR_BT_ON_NOT_COMPLETED\000"
 3874      455F4552 
 3874      524F525F 
 3874      42545F4F 
 3874      4E5F4E4F 
 3875              	.LASF332:
 3876 02fe 4359424C 		.ascii	"CYBLE_EVT_ESSS_NOTIFICATION_ENABLED\000"
 3876      455F4556 
 3876      545F4553 
 3876      53535F4E 
 3876      4F544946 
 3877              	.LASF276:
 3878 0322 4359424C 		.ascii	"CYBLE_EVT_BLSC_NOTIFICATION\000"
 3878      455F4556 
 3878      545F424C 
 3878      53435F4E 
 3878      4F544946 
 3879              	.LASF428:
 3880 033e 4359424C 		.ascii	"CYBLE_EVT_OTSC_READ_CHAR_RESPONSE\000"
 3880      455F4556 
 3880      545F4F54 
 3880      53435F52 
 3880      4541445F 
 3881              	.LASF401:
 3882 0360 4359424C 		.ascii	"CYBLE_EVT_IPSC_WRITE_CHAR_RESPONSE\000"
 3882      455F4556 
 3882      545F4950 
 3882      53435F57 
 3882      52495445 
 3883              	.LASF345:
 3884 0383 4359424C 		.ascii	"CYBLE_EVT_GLSS_INDICATION_ENABLED\000"
 3884      455F4556 
 3884      545F474C 
 3884      53535F49 
 3884      4E444943 
 3885              	.LASF72:
 3886 03a5 4359424C 		.ascii	"CYBLE_EVT_GATTS_DATA_SIGNED_CMD_REQ\000"
 3886      455F4556 
 3886      545F4741 
 3886      5454535F 
 3886      44415441 
 3887              	.LASF242:
 3888 03c9 4359424C 		.ascii	"CYBLE_EVT_ANCSS_NOTIFICATION_DISABLED\000"
 3888      455F4556 
 3888      545F414E 
 3888      4353535F 
 3888      4E4F5449 
 3889              	.LASF239:
 3890 03ef 4359424C 		.ascii	"CYBLE_EVT_AIOSC_WRITE_DESCR_RESPONSE\000"
ARM GAS  C:\Users\User\AppData\Local\Temp\cc96DgHN.s 			page 89


 3890      455F4556 
 3890      545F4149 
 3890      4F53435F 
 3890      57524954 
 3891              	.LASF406:
 3892 0414 4359424C 		.ascii	"CYBLE_EVT_LLSS_WRITE_CHAR_REQ\000"
 3892      455F4556 
 3892      545F4C4C 
 3892      53535F57 
 3892      52495445 
 3893              	.LASF405:
 3894 0432 4359424C 		.ascii	"CYBLE_EVT_IPSC_READ_BLOB_RSP\000"
 3894      455F4556 
 3894      545F4950 
 3894      53435F52 
 3894      4541445F 
 3895              	.LASF21:
 3896 044f 4359424C 		.ascii	"CYBLE_EVT_STACK_ON\000"
 3896      455F4556 
 3896      545F5354 
 3896      41434B5F 
 3896      4F4E00
 3897              	.LASF336:
 3898 0462 4359424C 		.ascii	"CYBLE_EVT_ESSS_INDICATION_CONFIRMATION\000"
 3898      455F4556 
 3898      545F4553 
 3898      53535F49 
 3898      4E444943 
 3899              	.LASF313:
 3900 0489 4359424C 		.ascii	"CYBLE_EVT_CSCSS_INDICATION_ENABLED\000"
 3900      455F4556 
 3900      545F4353 
 3900      4353535F 
 3900      494E4449 
 3901              	.LASF137:
 3902 04ac 70656572 		.ascii	"peerAddrType\000"
 3902      41646472 
 3902      54797065 
 3902      00
 3903              	.LASF111:
 3904 04b9 4359424C 		.ascii	"CYBLE_ERROR_GATT_DB_INVALID_ATTR_HANDLE\000"
 3904      455F4552 
 3904      524F525F 
 3904      47415454 
 3904      5F44425F 
 3905              	.LASF180:
 3906 04e1 4359424C 		.ascii	"CYBLE_GATT_ERR_PROCEDURE_ALREADY_IN_PROGRESS\000"
 3906      455F4741 
 3906      54545F45 
 3906      52525F50 
 3906      524F4345 
 3907              	.LASF24:
 3908 050e 4359424C 		.ascii	"CYBLE_EVT_HCI_STATUS\000"
 3908      455F4556 
 3908      545F4843 
 3908      495F5354 
 3908      41545553 
ARM GAS  C:\Users\User\AppData\Local\Temp\cc96DgHN.s 			page 90


 3909              	.LASF130:
 3910 0523 4359424C 		.ascii	"CYBLE_GAPC_CONN_UNDIRECTED_ADV\000"
 3910      455F4741 
 3910      50435F43 
 3910      4F4E4E5F 
 3910      554E4449 
 3911              	.LASF531:
 3912 0542 77726974 		.ascii	"writeADVcounterdata\000"
 3912      65414456 
 3912      636F756E 
 3912      74657264 
 3912      61746100 
 3913              	.LASF552:
 3914 0556 7363616E 		.ascii	"scan_tag\000"
 3914      5F746167 
 3914      00
 3915              	.LASF29:
 3916 055f 4359424C 		.ascii	"CYBLE_EVT_GAP_PASSKEY_ENTRY_REQUEST\000"
 3916      455F4556 
 3916      545F4741 
 3916      505F5041 
 3916      53534B45 
 3917              	.LASF472:
 3918 0583 4359424C 		.ascii	"CYBLE_EVT_SCPSC_READ_DESCR_RESPONSE\000"
 3918      455F4556 
 3918      545F5343 
 3918      5053435F 
 3918      52454144 
 3919              	.LASF340:
 3920 05a7 4359424C 		.ascii	"CYBLE_EVT_ESSC_INDICATION\000"
 3920      455F4556 
 3920      545F4553 
 3920      53435F49 
 3920      4E444943 
 3921              	.LASF475:
 3922 05c1 4359424C 		.ascii	"CYBLE_EVT_TPSS_NOTIFICATION_DISABLED\000"
 3922      455F4556 
 3922      545F5450 
 3922      53535F4E 
 3922      4F544946 
 3923              	.LASF325:
 3924 05e6 4359424C 		.ascii	"CYBLE_EVT_CTSS_CHAR_WRITE\000"
 3924      455F4556 
 3924      545F4354 
 3924      53535F43 
 3924      4841525F 
 3925              	.LASF55:
 3926 0600 4359424C 		.ascii	"CYBLE_EVT_GATTC_XCHNG_MTU_RSP\000"
 3926      455F4556 
 3926      545F4741 
 3926      5454435F 
 3926      5843484E 
 3927              	.LASF169:
 3928 061e 4359424C 		.ascii	"CYBLE_GATTS_ERR_CCCD_IMPROPERLY_CONFIGURED\000"
 3928      455F4741 
 3928      5454535F 
 3928      4552525F 
ARM GAS  C:\Users\User\AppData\Local\Temp\cc96DgHN.s 			page 91


 3928      43434344 
 3929              	.LASF335:
 3930 0649 4359424C 		.ascii	"CYBLE_EVT_ESSS_INDICATION_DISABLED\000"
 3930      455F4556 
 3930      545F4553 
 3930      53535F49 
 3930      4E444943 
 3931              	.LASF244:
 3932 066c 4359424C 		.ascii	"CYBLE_EVT_ANCSC_NOTIFICATION\000"
 3932      455F4556 
 3932      545F414E 
 3932      4353435F 
 3932      4E4F5449 
 3933              	.LASF207:
 3934 0689 4359424C 		.ascii	"CYBLE_HTS_DESCR_COUNT\000"
 3934      455F4854 
 3934      535F4445 
 3934      5343525F 
 3934      434F554E 
 3935              	.LASF291:
 3936 069f 4359424C 		.ascii	"CYBLE_EVT_CGMSC_NOTIFICATION\000"
 3936      455F4556 
 3936      545F4347 
 3936      4D53435F 
 3936      4E4F5449 
 3937              	.LASF202:
 3938 06bc 4359424C 		.ascii	"CYBLE_HTS_INTERM_TEMP\000"
 3938      455F4854 
 3938      535F494E 
 3938      5445524D 
 3938      5F54454D 
 3939              	.LASF60:
 3940 06d2 4359424C 		.ascii	"CYBLE_EVT_GATTC_READ_RSP\000"
 3940      455F4556 
 3940      545F4741 
 3940      5454435F 
 3940      52454144 
 3941              	.LASF258:
 3942 06eb 4359424C 		.ascii	"CYBLE_EVT_BASS_NOTIFICATION_DISABLED\000"
 3942      455F4556 
 3942      545F4241 
 3942      53535F4E 
 3942      4F544946 
 3943              	.LASF391:
 3944 0710 4359424C 		.ascii	"CYBLE_EVT_HTSC_NOTIFICATION\000"
 3944      455F4556 
 3944      545F4854 
 3944      53435F4E 
 3944      4F544946 
 3945              	.LASF357:
 3946 072c 4359424C 		.ascii	"CYBLE_EVT_HIDSS_NOTIFICATION_ENABLED\000"
 3946      455F4556 
 3946      545F4849 
 3946      4453535F 
 3946      4E4F5449 
 3947              	.LASF192:
 3948 0751 6F70636F 		.ascii	"opcode\000"
ARM GAS  C:\Users\User\AppData\Local\Temp\cc96DgHN.s 			page 92


 3948      646500
 3949              	.LASF201:
 3950 0758 4359424C 		.ascii	"CYBLE_HTS_TEMP_TYPE\000"
 3950      455F4854 
 3950      535F5445 
 3950      4D505F54 
 3950      59504500 
 3951              	.LASF387:
 3952 076c 4359424C 		.ascii	"CYBLE_EVT_HTSS_INDICATION_ENABLED\000"
 3952      455F4556 
 3952      545F4854 
 3952      53535F49 
 3952      4E444943 
 3953              	.LASF390:
 3954 078e 4359424C 		.ascii	"CYBLE_EVT_HTSS_CHAR_WRITE\000"
 3954      455F4556 
 3954      545F4854 
 3954      53535F43 
 3954      4841525F 
 3955              	.LASF479:
 3956 07a8 4359424C 		.ascii	"CYBLE_EVT_TPSC_WRITE_DESCR_RESPONSE\000"
 3956      455F4556 
 3956      545F5450 
 3956      53435F57 
 3956      52495445 
 3957              	.LASF503:
 3958 07cc 4359424C 		.ascii	"CYBLE_EVT_WPTSC_READ_CHAR_RESPONSE\000"
 3958      455F4556 
 3958      545F5750 
 3958      5453435F 
 3958      52454144 
 3959              	.LASF45:
 3960 07ef 4359424C 		.ascii	"CYBLE_EVT_GAPC_DIRECT_ADV_REPORT\000"
 3960      455F4556 
 3960      545F4741 
 3960      50435F44 
 3960      49524543 
 3961              	.LASF334:
 3962 0810 4359424C 		.ascii	"CYBLE_EVT_ESSS_INDICATION_ENABLED\000"
 3962      455F4556 
 3962      545F4553 
 3962      53535F49 
 3962      4E444943 
 3963              	.LASF9:
 3964 0832 75696E74 		.ascii	"uint8\000"
 3964      3800
 3965              	.LASF280:
 3966 0838 4359424C 		.ascii	"CYBLE_EVT_BMSS_WRITE_CHAR\000"
 3966      455F4556 
 3966      545F424D 
 3966      53535F57 
 3966      52495445 
 3967              	.LASF314:
 3968 0852 4359424C 		.ascii	"CYBLE_EVT_CSCSS_INDICATION_DISABLED\000"
 3968      455F4556 
 3968      545F4353 
 3968      4353535F 
ARM GAS  C:\Users\User\AppData\Local\Temp\cc96DgHN.s 			page 93


 3968      494E4449 
 3969              	.LASF484:
 3970 0876 4359424C 		.ascii	"CYBLE_EVT_UDSS_NOTIFICATION_DISABLED\000"
 3970      455F4556 
 3970      545F5544 
 3970      53535F4E 
 3970      4F544946 
 3971              	.LASF525:
 3972 089b 4359424C 		.ascii	"CYBLE_SRVI_CUSTOMS_END\000"
 3972      455F5352 
 3972      56495F43 
 3972      5553544F 
 3972      4D535F45 
 3973              	.LASF123:
 3974 08b2 4359424C 		.ascii	"CYBLE_ERROR_CHAR_IS_NOT_DISCOVERED\000"
 3974      455F4552 
 3974      524F525F 
 3974      43484152 
 3974      5F49535F 
 3975              	.LASF375:
 3976 08d5 4359424C 		.ascii	"CYBLE_EVT_HPSC_WRITE_DESCR_RESPONSE\000"
 3976      455F4556 
 3976      545F4850 
 3976      53435F57 
 3976      52495445 
 3977              	.LASF262:
 3978 08f9 4359424C 		.ascii	"CYBLE_EVT_BASC_WRITE_DESCR_RESPONSE\000"
 3978      455F4556 
 3978      545F4241 
 3978      53435F57 
 3978      52495445 
 3979              	.LASF296:
 3980 091d 4359424C 		.ascii	"CYBLE_EVT_CPSS_NOTIFICATION_ENABLED\000"
 3980      455F4556 
 3980      545F4350 
 3980      53535F4E 
 3980      4F544946 
 3981              	.LASF412:
 3982 0941 4359424C 		.ascii	"CYBLE_EVT_LNSS_NOTIFICATION_ENABLED\000"
 3982      455F4556 
 3982      545F4C4E 
 3982      53535F4E 
 3982      4F544946 
 3983              	.LASF23:
 3984 0965 4359424C 		.ascii	"CYBLE_EVT_HARDWARE_ERROR\000"
 3984      455F4556 
 3984      545F4841 
 3984      52445741 
 3984      52455F45 
 3985              	.LASF286:
 3986 097e 4359424C 		.ascii	"CYBLE_EVT_CGMSS_INDICATION_CONFIRMED\000"
 3986      455F4556 
 3986      545F4347 
 3986      4D53535F 
 3986      494E4449 
 3987              	.LASF93:
 3988 09a3 4359424C 		.ascii	"CYBLE_ERROR_INVALID_PARAMETER\000"
ARM GAS  C:\Users\User\AppData\Local\Temp\cc96DgHN.s 			page 94


 3988      455F4552 
 3988      524F525F 
 3988      494E5641 
 3988      4C49445F 
 3989              	.LASF230:
 3990 09c1 4359424C 		.ascii	"CYBLE_EVT_AIOSS_INDICATION_DISABLED\000"
 3990      455F4556 
 3990      545F4149 
 3990      4F53535F 
 3990      494E4449 
 3991              	.LASF440:
 3992 09e5 4359424C 		.ascii	"CYBLE_EVT_PASSC_WRITE_DESCR_RESPONSE\000"
 3992      455F4556 
 3992      545F5041 
 3992      5353435F 
 3992      57524954 
 3993              	.LASF420:
 3994 0a0a 4359424C 		.ascii	"CYBLE_EVT_LNSC_WRITE_DESCR_RESPONSE\000"
 3994      455F4556 
 3994      545F4C4E 
 3994      53435F57 
 3994      52495445 
 3995              	.LASF222:
 3996 0a2e 4359424C 		.ascii	"CYBLE_EVT_GATTC_SRVC_DISCOVERY_COMPLETE\000"
 3996      455F4556 
 3996      545F4741 
 3996      5454435F 
 3996      53525643 
 3997              	.LASF294:
 3998 0a56 4359424C 		.ascii	"CYBLE_EVT_CGMSC_READ_DESCR_RESPONSE\000"
 3998      455F4556 
 3998      545F4347 
 3998      4D53435F 
 3998      52454144 
 3999              	.LASF442:
 4000 0a7a 4359424C 		.ascii	"CYBLE_EVT_PLXSS_NOTIFICATION_ENABLED\000"
 4000      455F4556 
 4000      545F504C 
 4000      5853535F 
 4000      4E4F5449 
 4001              	.LASF78:
 4002 0a9f 4359424C 		.ascii	"CYBLE_EVT_L2CAP_COMMAND_REJ\000"
 4002      455F4556 
 4002      545F4C32 
 4002      4341505F 
 4002      434F4D4D 
 4003              	.LASF495:
 4004 0abb 4359424C 		.ascii	"CYBLE_EVT_WPTSS_NOTIFICATION_DISABLED\000"
 4004      455F4556 
 4004      545F5750 
 4004      5453535F 
 4004      4E4F5449 
 4005              	.LASF415:
 4006 0ae1 4359424C 		.ascii	"CYBLE_EVT_LNSC_INDICATION\000"
 4006      455F4556 
 4006      545F4C4E 
 4006      53435F49 
ARM GAS  C:\Users\User\AppData\Local\Temp\cc96DgHN.s 			page 95


 4006      4E444943 
 4007              	.LASF321:
 4008 0afb 4359424C 		.ascii	"CYBLE_EVT_CSCSC_READ_DESCR_RESPONSE\000"
 4008      455F4556 
 4008      545F4353 
 4008      4353435F 
 4008      52454144 
 4009              	.LASF89:
 4010 0b1f 4359424C 		.ascii	"CYBLE_EVT_HCI_PKT\000"
 4010      455F4556 
 4010      545F4843 
 4010      495F504B 
 4010      5400
 4011              	.LASF429:
 4012 0b31 4359424C 		.ascii	"CYBLE_EVT_OTSC_READ_BLOB_RSP\000"
 4012      455F4556 
 4012      545F4F54 
 4012      53435F52 
 4012      4541445F 
 4013              	.LASF513:
 4014 0b4e 4359424C 		.ascii	"CYBLE_DEBUG_EVT_BLESS_INT\000"
 4014      455F4445 
 4014      4255475F 
 4014      4556545F 
 4014      424C4553 
 4015              	.LASF128:
 4016 0b68 74797065 		.ascii	"type\000"
 4016      00
 4017              	.LASF161:
 4018 0b6d 4359424C 		.ascii	"CYBLE_GATT_ERR_TRIGGER_CODITION_VALUE_NOT_SUPPORTED"
 4018      455F4741 
 4018      54545F45 
 4018      52525F54 
 4018      52494747 
 4019 0ba0 00       		.ascii	"\000"
 4020              	.LASF46:
 4021 0ba1 4359424C 		.ascii	"CYBLE_EVT_GAP_SMP_NEGOTIATED_AUTH_INFO\000"
 4021      455F4556 
 4021      545F4741 
 4021      505F534D 
 4021      505F4E45 
 4022              	.LASF402:
 4023 0bc8 4359424C 		.ascii	"CYBLE_EVT_IPSC_READ_DESCR_RESPONSE\000"
 4023      455F4556 
 4023      545F4950 
 4023      53435F52 
 4023      4541445F 
 4024              	.LASF235:
 4025 0beb 4359424C 		.ascii	"CYBLE_EVT_AIOSC_INDICATION\000"
 4025      455F4556 
 4025      545F4149 
 4025      4F53435F 
 4025      494E4449 
 4026              	.LASF188:
 4027 0c06 4359424C 		.ascii	"CYBLE_GATT_VALUE_T\000"
 4027      455F4741 
 4027      54545F56 
ARM GAS  C:\Users\User\AppData\Local\Temp\cc96DgHN.s 			page 96


 4027      414C5545 
 4027      5F5400
 4028              	.LASF466:
 4029 0c19 4359424C 		.ascii	"CYBLE_EVT_RTUSS_WRITE_CHAR_CMD\000"
 4029      455F4556 
 4029      545F5254 
 4029      5553535F 
 4029      57524954 
 4030              	.LASF224:
 4031 0c38 4359424C 		.ascii	"CYBLE_EVT_GATTC_CHAR_DISCOVERY_COMPLETE\000"
 4031      455F4556 
 4031      545F4741 
 4031      5454435F 
 4031      43484152 
 4032              	.LASF65:
 4033 0c60 4359424C 		.ascii	"CYBLE_EVT_GATTS_WRITE_CMD_REQ\000"
 4033      455F4556 
 4033      545F4741 
 4033      5454535F 
 4033      57524954 
 4034              	.LASF164:
 4035 0c7e 4359424C 		.ascii	"CYBLE_GATT_ERR_CPS_INAPPROPRIATE_CONNECTION_PARAMET"
 4035      455F4741 
 4035      54545F45 
 4035      52525F43 
 4035      50535F49 
 4036 0cb1 45525300 		.ascii	"ERS\000"
 4037              	.LASF421:
 4038 0cb5 4359424C 		.ascii	"CYBLE_EVT_NDCSC_READ_CHAR_RESPONSE\000"
 4038      455F4556 
 4038      545F4E44 
 4038      4353435F 
 4038      52454144 
 4039              	.LASF62:
 4040 0cd8 4359424C 		.ascii	"CYBLE_EVT_GATTC_READ_MULTI_RSP\000"
 4040      455F4556 
 4040      545F4741 
 4040      5454435F 
 4040      52454144 
 4041              	.LASF274:
 4042 0cf7 4359424C 		.ascii	"CYBLE_EVT_BLSS_NOTIFICATION_DISABLED\000"
 4042      455F4556 
 4042      545F424C 
 4042      53535F4E 
 4042      4F544946 
 4043              	.LASF170:
 4044 0d1c 4359424C 		.ascii	"CYBLE_GATTS_ERR_OPERATION_FAILED\000"
 4044      455F4741 
 4044      5454535F 
 4044      4552525F 
 4044      4F504552 
 4045              	.LASF519:
 4046 0d3d 4359424C 		.ascii	"CYBLE_STATE_CONNECTING\000"
 4046      455F5354 
 4046      4154455F 
 4046      434F4E4E 
 4046      45435449 
ARM GAS  C:\Users\User\AppData\Local\Temp\cc96DgHN.s 			page 97


 4047              	.LASF51:
 4048 0d54 4359424C 		.ascii	"CYBLE_EVT_GATTC_ERROR_RSP\000"
 4048      455F4556 
 4048      545F4741 
 4048      5454435F 
 4048      4552524F 
 4049              	.LASF211:
 4050 0d6e 4359424C 		.ascii	"CYBLE_KEY_EXCHANGE_INFO_REQUEST_REPLY\000"
 4050      455F4B45 
 4050      595F4558 
 4050      4348414E 
 4050      47455F49 
 4051              	.LASF197:
 4052 0d94 4359424C 		.ascii	"CYBLE_GATTS_WRITE_REQ_PARAM_T\000"
 4052      455F4741 
 4052      5454535F 
 4052      57524954 
 4052      455F5245 
 4053              	.LASF559:
 4054 0db2 474E5520 		.ascii	"GNU C11 5.4.1 20160609 (release) [ARM/embedded-5-br"
 4054      43313120 
 4054      352E342E 
 4054      31203230 
 4054      31363036 
 4055 0de5 616E6368 		.ascii	"anch revision 237715] -mcpu=cortex-m0 -mthumb -g -O"
 4055      20726576 
 4055      6973696F 
 4055      6E203233 
 4055      37373135 
 4056 0e18 30202D66 		.ascii	"0 -ffunction-sections -ffat-lto-objects\000"
 4056      66756E63 
 4056      74696F6E 
 4056      2D736563 
 4056      74696F6E 
 4057              	.LASF179:
 4058 0e40 4359424C 		.ascii	"CYBLE_GATT_ERR_CCCD_IMPROPERLY_CONFIGURED\000"
 4058      455F4741 
 4058      54545F45 
 4058      52525F43 
 4058      4343445F 
 4059              	.LASF1:
 4060 0e6a 756E7369 		.ascii	"unsigned char\000"
 4060      676E6564 
 4060      20636861 
 4060      7200
 4061              	.LASF33:
 4062 0e78 4359424C 		.ascii	"CYBLE_EVT_GAPP_ADVERTISEMENT_START_STOP\000"
 4062      455F4556 
 4062      545F4741 
 4062      50505F41 
 4062      44564552 
 4063              	.LASF171:
 4064 0ea0 4359424C 		.ascii	"CYBLE_GATT_ERR_INVALID_CRC\000"
 4064      455F4741 
 4064      54545F45 
 4064      52525F49 
 4064      4E56414C 
ARM GAS  C:\Users\User\AppData\Local\Temp\cc96DgHN.s 			page 98


 4065              	.LASF119:
 4066 0ebb 4359424C 		.ascii	"CYBLE_ERROR_CONTROLLER_BUSY\000"
 4066      455F4552 
 4066      524F525F 
 4066      434F4E54 
 4066      524F4C4C 
 4067              	.LASF199:
 4068 0ed7 4359424C 		.ascii	"CYBLE_GATTC_WRITE_REQ_T\000"
 4068      455F4741 
 4068      5454435F 
 4068      57524954 
 4068      455F5245 
 4069              	.LASF13:
 4070 0eef 666C6F61 		.ascii	"float\000"
 4070      7400
 4071              	.LASF530:
 4072 0ef5 77726974 		.ascii	"writeReqData\000"
 4072      65526571 
 4072      44617461 
 4072      00
 4073              	.LASF322:
 4074 0f02 4359424C 		.ascii	"CYBLE_EVT_CSCSC_WRITE_DESCR_RESPONSE\000"
 4074      455F4556 
 4074      545F4353 
 4074      4353435F 
 4074      57524954 
 4075              	.LASF368:
 4076 0f27 4359424C 		.ascii	"CYBLE_EVT_HIDSC_WRITE_DESCR_RESPONSE\000"
 4076      455F4556 
 4076      545F4849 
 4076      4453435F 
 4076      57524954 
 4077              	.LASF58:
 4078 0f4c 4359424C 		.ascii	"CYBLE_EVT_GATTC_FIND_INFO_RSP\000"
 4078      455F4556 
 4078      545F4741 
 4078      5454435F 
 4078      46494E44 
 4079              	.LASF446:
 4080 0f6a 4359424C 		.ascii	"CYBLE_EVT_PLXSS_INDICATION_CONFIRMED\000"
 4080      455F4556 
 4080      545F504C 
 4080      5853535F 
 4080      494E4449 
 4081              	.LASF79:
 4082 0f8f 4359424C 		.ascii	"CYBLE_EVT_L2CAP_CBFC_CONN_IND\000"
 4082      455F4556 
 4082      545F4C32 
 4082      4341505F 
 4082      43424643 
 4083              	.LASF245:
 4084 0fad 4359424C 		.ascii	"CYBLE_EVT_ANCSC_WRITE_CHAR_RESPONSE\000"
 4084      455F4556 
 4084      545F414E 
 4084      4353435F 
 4084      57524954 
 4085              	.LASF409:
ARM GAS  C:\Users\User\AppData\Local\Temp\cc96DgHN.s 			page 99


 4086 0fd1 4359424C 		.ascii	"CYBLE_EVT_LNSS_INDICATION_ENABLED\000"
 4086      455F4556 
 4086      545F4C4E 
 4086      53535F49 
 4086      4E444943 
 4087              	.LASF81:
 4088 0ff3 4359424C 		.ascii	"CYBLE_EVT_L2CAP_CBFC_DISCONN_IND\000"
 4088      455F4556 
 4088      545F4C32 
 4088      4341505F 
 4088      43424643 
 4089              	.LASF237:
 4090 1014 4359424C 		.ascii	"CYBLE_EVT_AIOSC_WRITE_CHAR_RESPONSE\000"
 4090      455F4556 
 4090      545F4149 
 4090      4F53435F 
 4090      57524954 
 4091              	.LASF307:
 4092 1038 4359424C 		.ascii	"CYBLE_EVT_CPSC_WRITE_CHAR_RESPONSE\000"
 4092      455F4556 
 4092      545F4350 
 4092      53435F57 
 4092      52495445 
 4093              	.LASF149:
 4094 105b 4359424C 		.ascii	"CYBLE_GATT_ERR_REQUEST_NOT_SUPPORTED\000"
 4094      455F4741 
 4094      54545F45 
 4094      52525F52 
 4094      45515545 
 4095              	.LASF28:
 4096 1080 4359424C 		.ascii	"CYBLE_EVT_GAP_AUTH_REQ\000"
 4096      455F4556 
 4096      545F4741 
 4096      505F4155 
 4096      54485F52 
 4097              	.LASF147:
 4098 1097 4359424C 		.ascii	"CYBLE_GATT_ERR_INVALID_PDU\000"
 4098      455F4741 
 4098      54545F45 
 4098      52525F49 
 4098      4E56414C 
 4099              	.LASF270:
 4100 10b2 4359424C 		.ascii	"CYBLE_EVT_BLSS_INDICATION_ENABLED\000"
 4100      455F4556 
 4100      545F424C 
 4100      53535F49 
 4100      4E444943 
 4101              	.LASF367:
 4102 10d4 4359424C 		.ascii	"CYBLE_EVT_HIDSC_READ_DESCR_RESPONSE\000"
 4102      455F4556 
 4102      545F4849 
 4102      4453435F 
 4102      52454144 
 4103              	.LASF178:
 4104 10f8 4359424C 		.ascii	"CYBLE_GATT_ERR_ANCS_ACTION_FAILED\000"
 4104      455F4741 
 4104      54545F45 
ARM GAS  C:\Users\User\AppData\Local\Temp\cc96DgHN.s 			page 100


 4104      52525F41 
 4104      4E43535F 
 4105              	.LASF473:
 4106 111a 4359424C 		.ascii	"CYBLE_EVT_SCPSC_WRITE_DESCR_RESPONSE\000"
 4106      455F4556 
 4106      545F5343 
 4106      5053435F 
 4106      57524954 
 4107              	.LASF139:
 4108 113f 64617461 		.ascii	"dataLen\000"
 4108      4C656E00 
 4109              	.LASF138:
 4110 1147 70656572 		.ascii	"peerBdAddr\000"
 4110      42644164 
 4110      647200
 4111              	.LASF470:
 4112 1152 4359424C 		.ascii	"CYBLE_EVT_SCPSS_SCAN_INT_WIN_CHAR_WRITE\000"
 4112      455F4556 
 4112      545F5343 
 4112      5053535F 
 4112      5343414E 
 4113              	.LASF547:
 4114 117a 64617461 		.ascii	"dataADVCounter\000"
 4114      41445643 
 4114      6F756E74 
 4114      657200
 4115              	.LASF282:
 4116 1189 4359424C 		.ascii	"CYBLE_EVT_BMSC_WRITE_CHAR_RESPONSE\000"
 4116      455F4556 
 4116      545F424D 
 4116      53435F57 
 4116      52495445 
 4117              	.LASF152:
 4118 11ac 4359424C 		.ascii	"CYBLE_GATT_ERR_PREPARE_WRITE_QUEUE_FULL\000"
 4118      455F4741 
 4118      54545F45 
 4118      52525F50 
 4118      52455041 
 4119              	.LASF516:
 4120 11d4 4359424C 		.ascii	"CYBLE_STATE_CONNECTED\000"
 4120      455F5354 
 4120      4154455F 
 4120      434F4E4E 
 4120      45435445 
 4121              	.LASF464:
 4122 11ea 4359424C 		.ascii	"CYBLE_EVT_RSCSC_READ_DESCR_RESPONSE\000"
 4122      455F4556 
 4122      545F5253 
 4122      4353435F 
 4122      52454144 
 4123              	.LASF448:
 4124 120e 4359424C 		.ascii	"CYBLE_EVT_PLXSC_INDICATION\000"
 4124      455F4556 
 4124      545F504C 
 4124      5853435F 
 4124      494E4449 
 4125              	.LASF330:
ARM GAS  C:\Users\User\AppData\Local\Temp\cc96DgHN.s 			page 101


 4126 1229 4359424C 		.ascii	"CYBLE_EVT_CTSC_WRITE_CHAR_RESPONSE\000"
 4126      455F4556 
 4126      545F4354 
 4126      53435F57 
 4126      52495445 
 4127              	.LASF110:
 4128 124c 4359424C 		.ascii	"CYBLE_ERROR_L2CAP_PSM_NOT_IN_RANGE\000"
 4128      455F4552 
 4128      524F525F 
 4128      4C324341 
 4128      505F5053 
 4129              	.LASF125:
 4130 126f 4359424C 		.ascii	"CYBLE_ERROR_STACK_BUSY\000"
 4130      455F4552 
 4130      524F525F 
 4130      53544143 
 4130      4B5F4255 
 4131              	.LASF494:
 4132 1286 4359424C 		.ascii	"CYBLE_EVT_WPTSS_NOTIFICATION_ENABLED\000"
 4132      455F4556 
 4132      545F5750 
 4132      5453535F 
 4132      4E4F5449 
 4133              	.LASF419:
 4134 12ab 4359424C 		.ascii	"CYBLE_EVT_LNSC_READ_DESCR_RESPONSE\000"
 4134      455F4556 
 4134      545F4C4E 
 4134      53435F52 
 4134      4541445F 
 4135              	.LASF471:
 4136 12ce 4359424C 		.ascii	"CYBLE_EVT_SCPSC_NOTIFICATION\000"
 4136      455F4556 
 4136      545F5343 
 4136      5053435F 
 4136      4E4F5449 
 4137              	.LASF560:
 4138 12eb 2E2E5C2E 		.ascii	"..\\..\\..\\PSoC-4-BLE-master\\100_Projects_in_100_"
 4138      2E5C2E2E 
 4138      5C50536F 
 4138      432D342D 
 4138      424C452D 
 4139 131a 44617973 		.ascii	"Days\\Day049_BLE_Mesh_Flood\\Mesh_Flood\\Mesh_Flood"
 4139      5C446179 
 4139      3034395F 
 4139      424C455F 
 4139      4D657368 
 4140 134a 5F50536F 		.ascii	"_PSoC4BLE.cydsn\\ble_process.c\000"
 4140      4334424C 
 4140      452E6379 
 4140      64736E5C 
 4140      626C655F 
 4141              	.LASF208:
 4142 1368 4359424C 		.ascii	"CYBLE_AUTHENTICATION_REQUEST_REPLY\000"
 4142      455F4155 
 4142      5448454E 
 4142      54494341 
 4142      54494F4E 
ARM GAS  C:\Users\User\AppData\Local\Temp\cc96DgHN.s 			page 102


 4143              	.LASF27:
 4144 138b 4359424C 		.ascii	"CYBLE_EVT_GAPC_SCAN_PROGRESS_RESULT\000"
 4144      455F4556 
 4144      545F4741 
 4144      50435F53 
 4144      43414E5F 
 4145              	.LASF153:
 4146 13af 4359424C 		.ascii	"CYBLE_GATT_ERR_ATTRIBUTE_NOT_FOUND\000"
 4146      455F4741 
 4146      54545F45 
 4146      52525F41 
 4146      54545249 
 4147              	.LASF487:
 4148 13d2 4359424C 		.ascii	"CYBLE_EVT_UDSC_INDICATION\000"
 4148      455F4556 
 4148      545F5544 
 4148      53435F49 
 4148      4E444943 
 4149              	.LASF310:
 4150 13ec 4359424C 		.ascii	"CYBLE_EVT_CPSC_SCAN_PROGRESS_RESULT\000"
 4150      455F4556 
 4150      545F4350 
 4150      53435F53 
 4150      43414E5F 
 4151              	.LASF326:
 4152 1410 4359424C 		.ascii	"CYBLE_EVT_CTSC_NOTIFICATION\000"
 4152      455F4556 
 4152      545F4354 
 4152      53435F4E 
 4152      4F544946 
 4153              	.LASF453:
 4154 142c 4359424C 		.ascii	"CYBLE_EVT_PLXSC_TIMEOUT\000"
 4154      455F4556 
 4154      545F504C 
 4154      5853435F 
 4154      54494D45 
 4155              	.LASF254:
 4156 1444 4359424C 		.ascii	"CYBLE_EVT_ANSC_WRITE_CHAR_RESPONSE\000"
 4156      455F4556 
 4156      545F414E 
 4156      53435F57 
 4156      52495445 
 4157              	.LASF392:
 4158 1467 4359424C 		.ascii	"CYBLE_EVT_HTSC_INDICATION\000"
 4158      455F4556 
 4158      545F4854 
 4158      53435F49 
 4158      4E444943 
 4159              	.LASF22:
 4160 1481 4359424C 		.ascii	"CYBLE_EVT_TIMEOUT\000"
 4160      455F4556 
 4160      545F5449 
 4160      4D454F55 
 4160      5400
 4161              	.LASF480:
 4162 1493 4359424C 		.ascii	"CYBLE_EVT_UDSS_INDICATION_ENABLED\000"
 4162      455F4556 
ARM GAS  C:\Users\User\AppData\Local\Temp\cc96DgHN.s 			page 103


 4162      545F5544 
 4162      53535F49 
 4162      4E444943 
 4163              	.LASF268:
 4164 14b5 4359424C 		.ascii	"CYBLE_EVT_BCSC_READ_DESCR_RESPONSE\000"
 4164      455F4556 
 4164      545F4243 
 4164      53435F52 
 4164      4541445F 
 4165              	.LASF539:
 4166 14d8 53656E64 		.ascii	"SendErrorCode\000"
 4166      4572726F 
 4166      72436F64 
 4166      6500
 4167              	.LASF452:
 4168 14e6 4359424C 		.ascii	"CYBLE_EVT_PLXSC_WRITE_DESCR_RESPONSE\000"
 4168      455F4556 
 4168      545F504C 
 4168      5853435F 
 4168      57524954 
 4169              	.LASF160:
 4170 150b 4359424C 		.ascii	"CYBLE_GATT_ERR_INSUFFICIENT_RESOURCE\000"
 4170      455F4741 
 4170      54545F45 
 4170      52525F49 
 4170      4E535546 
 4171              	.LASF16:
 4172 1530 54656D70 		.ascii	"Temperature\000"
 4172      65726174 
 4172      75726500 
 4173              	.LASF543:
 4174 153c 4F6E6557 		.ascii	"OneWire_Sensor\000"
 4174      6972655F 
 4174      53656E73 
 4174      6F7200
 4175              	.LASF226:
 4176 154b 4359424C 		.ascii	"CYBLE_EVT_GATTC_DISCOVERY_COMPLETE\000"
 4176      455F4556 
 4176      545F4741 
 4176      5454435F 
 4176      44495343 
 4177              	.LASF217:
 4178 156e 4359424C 		.ascii	"CYBLE_EVT_GATTC_CHAR_DISCOVERY_FAILED\000"
 4178      455F4556 
 4178      545F4741 
 4178      5454435F 
 4178      43484152 
 4179              	.LASF501:
 4180 1594 4359424C 		.ascii	"CYBLE_EVT_WPTSC_INDICATION\000"
 4180      455F4556 
 4180      545F5750 
 4180      5453435F 
 4180      494E4449 
 4181              	.LASF88:
 4182 15af 4359424C 		.ascii	"CYBLE_EVT_LE_PING_AUTH_TIMEOUT\000"
 4182      455F4556 
 4182      545F4C45 
ARM GAS  C:\Users\User\AppData\Local\Temp\cc96DgHN.s 			page 104


 4182      5F50494E 
 4182      475F4155 
 4183              	.LASF381:
 4184 15ce 4359424C 		.ascii	"CYBLE_EVT_HRSC_READ_CHAR_RESPONSE\000"
 4184      455F4556 
 4184      545F4852 
 4184      53435F52 
 4184      4541445F 
 4185              	.LASF100:
 4186 15f0 4359424C 		.ascii	"CYBLE_ERROR_REPEATED_ATTEMPTS\000"
 4186      455F4552 
 4186      524F525F 
 4186      52455045 
 4186      41544544 
 4187              	.LASF243:
 4188 160e 4359424C 		.ascii	"CYBLE_EVT_ANCSS_WRITE_CHAR\000"
 4188      455F4556 
 4188      545F414E 
 4188      4353535F 
 4188      57524954 
 4189              	.LASF86:
 4190 1629 4359424C 		.ascii	"CYBLE_EVT_L2CAP_CBFC_DATA_WRITE_IND\000"
 4190      455F4556 
 4190      545F4C32 
 4190      4341505F 
 4190      43424643 
 4191              	.LASF267:
 4192 164d 4359424C 		.ascii	"CYBLE_EVT_BCSC_READ_CHAR_RESPONSE\000"
 4192      455F4556 
 4192      545F4243 
 4192      53435F52 
 4192      4541445F 
 4193              	.LASF69:
 4194 166f 4359424C 		.ascii	"CYBLE_EVT_GATTC_HANDLE_VALUE_NTF\000"
 4194      455F4556 
 4194      545F4741 
 4194      5454435F 
 4194      48414E44 
 4195              	.LASF127:
 4196 1690 62644164 		.ascii	"bdAddr\000"
 4196      647200
 4197              	.LASF241:
 4198 1697 4359424C 		.ascii	"CYBLE_EVT_ANCSS_NOTIFICATION_ENABLED\000"
 4198      455F4556 
 4198      545F414E 
 4198      4353535F 
 4198      4E4F5449 
 4199              	.LASF460:
 4200 16bc 4359424C 		.ascii	"CYBLE_EVT_RSCSC_NOTIFICATION\000"
 4200      455F4556 
 4200      545F5253 
 4200      4353435F 
 4200      4E4F5449 
 4201              	.LASF347:
 4202 16d9 4359424C 		.ascii	"CYBLE_EVT_GLSS_INDICATION_CONFIRMED\000"
 4202      455F4556 
 4202      545F474C 
ARM GAS  C:\Users\User\AppData\Local\Temp\cc96DgHN.s 			page 105


 4202      53535F49 
 4202      4E444943 
 4203              	.LASF240:
 4204 16fd 4359424C 		.ascii	"CYBLE_EVT_AIOSC_ERROR_RESPONSE\000"
 4204      455F4556 
 4204      545F4149 
 4204      4F53435F 
 4204      4552524F 
 4205              	.LASF450:
 4206 171c 4359424C 		.ascii	"CYBLE_EVT_PLXSC_WRITE_CHAR_RESPONSE\000"
 4206      455F4556 
 4206      545F504C 
 4206      5853435F 
 4206      57524954 
 4207              	.LASF486:
 4208 1740 4359424C 		.ascii	"CYBLE_EVT_UDSS_WRITE_CHAR\000"
 4208      455F4556 
 4208      545F5544 
 4208      53535F57 
 4208      52495445 
 4209              	.LASF228:
 4210 175a 4359424C 		.ascii	"CYBLE_EVT_AIOSS_NOTIFICATION_DISABLED\000"
 4210      455F4556 
 4210      545F4149 
 4210      4F53535F 
 4210      4E4F5449 
 4211              	.LASF394:
 4212 1780 4359424C 		.ascii	"CYBLE_EVT_HTSC_WRITE_CHAR_RESPONSE\000"
 4212      455F4556 
 4212      545F4854 
 4212      53435F57 
 4212      52495445 
 4213              	.LASF121:
 4214 17a3 4359424C 		.ascii	"CYBLE_ERROR_NTF_DISABLED\000"
 4214      455F4552 
 4214      524F525F 
 4214      4E54465F 
 4214      44495341 
 4215              	.LASF316:
 4216 17bc 4359424C 		.ascii	"CYBLE_EVT_CSCSS_CHAR_WRITE\000"
 4216      455F4556 
 4216      545F4353 
 4216      4353535F 
 4216      43484152 
 4217              	.LASF126:
 4218 17d7 4359424C 		.ascii	"CYBLE_API_RESULT_T\000"
 4218      455F4150 
 4218      495F5245 
 4218      53554C54 
 4218      5F5400
 4219              	.LASF400:
 4220 17ea 4359424C 		.ascii	"CYBLE_EVT_IPSC_READ_MULTIPLE_CHAR_RESPONSE\000"
 4220      455F4556 
 4220      545F4950 
 4220      53435F52 
 4220      4541445F 
 4221              	.LASF482:
ARM GAS  C:\Users\User\AppData\Local\Temp\cc96DgHN.s 			page 106


 4222 1815 4359424C 		.ascii	"CYBLE_EVT_UDSS_INDICATION_CONFIRMED\000"
 4222      455F4556 
 4222      545F5544 
 4222      53535F49 
 4222      4E444943 
 4223              	.LASF508:
 4224 1839 4359424C 		.ascii	"CYBLE_EVT_WSSS_INDICATION_CONFIRMED\000"
 4224      455F4556 
 4224      545F5753 
 4224      53535F49 
 4224      4E444943 
 4225              	.LASF514:
 4226 185d 4359424C 		.ascii	"CYBLE_STATE_STOPPED\000"
 4226      455F5354 
 4226      4154455F 
 4226      53544F50 
 4226      50454400 
 4227              	.LASF218:
 4228 1871 4359424C 		.ascii	"CYBLE_EVT_GATTC_DESCR_DISCOVERY_FAILED\000"
 4228      455F4556 
 4228      545F4741 
 4228      5454435F 
 4228      44455343 
 4229              	.LASF43:
 4230 1898 4359424C 		.ascii	"CYBLE_EVT_GAP_DATA_LENGTH_CHANGE\000"
 4230      455F4556 
 4230      545F4741 
 4230      505F4441 
 4230      54415F4C 
 4231              	.LASF534:
 4232 18b9 61706952 		.ascii	"apiResult\000"
 4232      6573756C 
 4232      7400
 4233              	.LASF83:
 4234 18c3 4359424C 		.ascii	"CYBLE_EVT_L2CAP_CBFC_DATA_READ\000"
 4234      455F4556 
 4234      545F4C32 
 4234      4341505F 
 4234      43424643 
 4235              	.LASF114:
 4236 18e2 4359424C 		.ascii	"CYBLE_ERROR_MIC_AUTH_FAILED\000"
 4236      455F4552 
 4236      524F525F 
 4236      4D49435F 
 4236      41555448 
 4237              	.LASF154:
 4238 18fe 4359424C 		.ascii	"CYBLE_GATT_ERR_ATTRIBUTE_NOT_LONG\000"
 4238      455F4741 
 4238      54545F45 
 4238      52525F41 
 4238      54545249 
 4239              	.LASF157:
 4240 1920 4359424C 		.ascii	"CYBLE_GATT_ERR_UNLIKELY_ERROR\000"
 4240      455F4741 
 4240      54545F45 
 4240      52525F55 
 4240      4E4C494B 
ARM GAS  C:\Users\User\AppData\Local\Temp\cc96DgHN.s 			page 107


 4241              	.LASF191:
 4242 193e 4359424C 		.ascii	"CYBLE_GATT_HANDLE_VALUE_PAIR_T\000"
 4242      455F4741 
 4242      54545F48 
 4242      414E444C 
 4242      455F5641 
 4243              	.LASF557:
 4244 195d 72657374 		.ascii	"restartScanning\000"
 4244      61727453 
 4244      63616E6E 
 4244      696E6700 
 4245              	.LASF292:
 4246 196d 4359424C 		.ascii	"CYBLE_EVT_CGMSC_READ_CHAR_RESPONSE\000"
 4246      455F4556 
 4246      545F4347 
 4246      4D53435F 
 4246      52454144 
 4247              	.LASF136:
 4248 1990 6576656E 		.ascii	"eventType\000"
 4248      74547970 
 4248      6500
 4249              	.LASF61:
 4250 199a 4359424C 		.ascii	"CYBLE_EVT_GATTC_READ_BLOB_RSP\000"
 4250      455F4556 
 4250      545F4741 
 4250      5454435F 
 4250      52454144 
 4251              	.LASF356:
 4252 19b8 4359424C 		.ascii	"CYBLE_EVT_GLSC_WRITE_DESCR_RESPONSE\000"
 4252      455F4556 
 4252      545F474C 
 4252      53435F57 
 4252      52495445 
 4253              	.LASF422:
 4254 19dc 4359424C 		.ascii	"CYBLE_EVT_OTSS_INDICATION_ENABLED\000"
 4254      455F4556 
 4254      545F4F54 
 4254      53535F49 
 4254      4E444943 
 4255              	.LASF26:
 4256 19fe 4359424C 		.ascii	"CYBLE_EVT_MEMORY_REQUEST\000"
 4256      455F4556 
 4256      545F4D45 
 4256      4D4F5259 
 4256      5F524551 
 4257              	.LASF433:
 4258 1a17 4359424C 		.ascii	"CYBLE_EVT_OTSC_ERROR_RESPONSE\000"
 4258      455F4556 
 4258      545F4F54 
 4258      53435F45 
 4258      52524F52 
 4259              	.LASF67:
 4260 1a35 4359424C 		.ascii	"CYBLE_EVT_GATTS_EXEC_WRITE_REQ\000"
 4260      455F4556 
 4260      545F4741 
 4260      5454535F 
 4260      45584543 
ARM GAS  C:\Users\User\AppData\Local\Temp\cc96DgHN.s 			page 108


 4261              	.LASF273:
 4262 1a54 4359424C 		.ascii	"CYBLE_EVT_BLSS_NOTIFICATION_ENABLED\000"
 4262      455F4556 
 4262      545F424C 
 4262      53535F4E 
 4262      4F544946 
 4263              	.LASF377:
 4264 1a78 4359424C 		.ascii	"CYBLE_EVT_HRSS_ENERGY_EXPENDED_RESET\000"
 4264      455F4556 
 4264      545F4852 
 4264      53535F45 
 4264      4E455247 
 4265              	.LASF172:
 4266 1a9d 4359424C 		.ascii	"CYBLE_GATTS_ERR_HPS_INVALID_REQUEST\000"
 4266      455F4741 
 4266      5454535F 
 4266      4552525F 
 4266      4850535F 
 4267              	.LASF518:
 4268 1ac1 4359424C 		.ascii	"CYBLE_STATE_SCANNING\000"
 4268      455F5354 
 4268      4154455F 
 4268      5343414E 
 4268      4E494E47 
 4269              	.LASF112:
 4270 1ad6 4359424C 		.ascii	"CYBLE_ERROR_DEVICE_ALREADY_EXISTS\000"
 4270      455F4552 
 4270      524F525F 
 4270      44455649 
 4270      43455F41 
 4271              	.LASF196:
 4272 1af8 68616E64 		.ascii	"handleValPair\000"
 4272      6C655661 
 4272      6C506169 
 4272      7200
 4273              	.LASF376:
 4274 1b06 4359424C 		.ascii	"CYBLE_EVT_HPSC_WRITE_CHAR_RESPONSE\000"
 4274      455F4556 
 4274      545F4850 
 4274      53435F57 
 4274      52495445 
 4275              	.LASF108:
 4276 1b29 4359424C 		.ascii	"CYBLE_ERROR_L2CAP_CONNECTION_ENTITY_NOT_FOUND\000"
 4276      455F4552 
 4276      524F525F 
 4276      4C324341 
 4276      505F434F 
 4277              	.LASF101:
 4278 1b57 4359424C 		.ascii	"CYBLE_ERROR_GAP_ROLE\000"
 4278      455F4552 
 4278      524F525F 
 4278      4741505F 
 4278      524F4C45 
 4279              	.LASF389:
 4280 1b6c 4359424C 		.ascii	"CYBLE_EVT_HTSS_INDICATION_CONFIRMED\000"
 4280      455F4556 
 4280      545F4854 
ARM GAS  C:\Users\User\AppData\Local\Temp\cc96DgHN.s 			page 109


 4280      53535F49 
 4280      4E444943 
 4281              	.LASF189:
 4282 1b90 76616C75 		.ascii	"value\000"
 4282      6500
 4283              	.LASF523:
 4284 1b96 4359424C 		.ascii	"CYBLE_SRVI_GATT\000"
 4284      455F5352 
 4284      56495F47 
 4284      41545400 
 4285              	.LASF143:
 4286 1ba6 4359424C 		.ascii	"CYBLE_GATT_ERR_NONE\000"
 4286      455F4741 
 4286      54545F45 
 4286      52525F4E 
 4286      4F4E4500 
 4287              	.LASF492:
 4288 1bba 4359424C 		.ascii	"CYBLE_EVT_UDSC_WRITE_DESCR_RESPONSE\000"
 4288      455F4556 
 4288      545F5544 
 4288      53435F57 
 4288      52495445 
 4289              	.LASF507:
 4290 1bde 4359424C 		.ascii	"CYBLE_EVT_WSSS_INDICATION_DISABLED\000"
 4290      455F4556 
 4290      545F5753 
 4290      53535F49 
 4290      4E444943 
 4291              	.LASF555:
 4292 1c01 626C655F 		.ascii	"ble_gap_state\000"
 4292      6761705F 
 4292      73746174 
 4292      6500
 4293              	.LASF512:
 4294 1c0f 4359424C 		.ascii	"CYBLE_EVT_WSSC_WRITE_DESCR_RESPONSE\000"
 4294      455F4556 
 4294      545F5753 
 4294      53435F57 
 4294      52495445 
 4295              	.LASF283:
 4296 1c33 4359424C 		.ascii	"CYBLE_EVT_BMSC_READ_DESCR_RESPONSE\000"
 4296      455F4556 
 4296      545F424D 
 4296      53435F52 
 4296      4541445F 
 4297              	.LASF249:
 4298 1c56 4359424C 		.ascii	"CYBLE_EVT_ANSS_NOTIFICATION_ENABLED\000"
 4298      455F4556 
 4298      545F414E 
 4298      53535F4E 
 4298      4F544946 
 4299              	.LASF520:
 4300 1c7a 4359424C 		.ascii	"CYBLE_STATE_DISCONNECTED\000"
 4300      455F5354 
 4300      4154455F 
 4300      44495343 
 4300      4F4E4E45 
ARM GAS  C:\Users\User\AppData\Local\Temp\cc96DgHN.s 			page 110


 4301              	.LASF462:
 4302 1c93 4359424C 		.ascii	"CYBLE_EVT_RSCSC_READ_CHAR_RESPONSE\000"
 4302      455F4556 
 4302      545F5253 
 4302      4353435F 
 4302      52454144 
 4303              	.LASF53:
 4304 1cb6 4359424C 		.ascii	"CYBLE_EVT_GATT_DISCONNECT_IND\000"
 4304      455F4556 
 4304      545F4741 
 4304      54545F44 
 4304      4953434F 
 4305              	.LASF328:
 4306 1cd4 4359424C 		.ascii	"CYBLE_EVT_CTSC_READ_DESCR_RESPONSE\000"
 4306      455F4556 
 4306      545F4354 
 4306      53435F52 
 4306      4541445F 
 4307              	.LASF210:
 4308 1cf7 4359424C 		.ascii	"CYBLE_LONG_TERM_KEY_REQUEST_REPLY\000"
 4308      455F4C4F 
 4308      4E475F54 
 4308      45524D5F 
 4308      4B45595F 
 4309              	.LASF12:
 4310 1d19 696E7438 		.ascii	"int8\000"
 4310      00
 4311              	.LASF524:
 4312 1d1e 4359424C 		.ascii	"CYBLE_SRVI_CUSTOMS\000"
 4312      455F5352 
 4312      56495F43 
 4312      5553544F 
 4312      4D5300
 4313              	.LASF204:
 4314 1d31 4359424C 		.ascii	"CYBLE_HTS_CHAR_COUNT\000"
 4314      455F4854 
 4314      535F4348 
 4314      41525F43 
 4314      4F554E54 
 4315              	.LASF445:
 4316 1d46 4359424C 		.ascii	"CYBLE_EVT_PLXSS_INDICATION_DISABLED\000"
 4316      455F4556 
 4316      545F504C 
 4316      5853535F 
 4316      494E4449 
 4317              	.LASF48:
 4318 1d6a 4359424C 		.ascii	"CYBLE_EVT_GAP_SCAN_REQ_RECVD\000"
 4318      455F4556 
 4318      545F4741 
 4318      505F5343 
 4318      414E5F52 
 4319              	.LASF324:
 4320 1d87 4359424C 		.ascii	"CYBLE_EVT_CTSS_NOTIFICATION_DISABLED\000"
 4320      455F4556 
 4320      545F4354 
 4320      53535F4E 
 4320      4F544946 
ARM GAS  C:\Users\User\AppData\Local\Temp\cc96DgHN.s 			page 111


 4321              	.LASF362:
 4322 1dac 4359424C 		.ascii	"CYBLE_EVT_HIDSS_EXIT_SUSPEND\000"
 4322      455F4556 
 4322      545F4849 
 4322      4453535F 
 4322      45584954 
 4323              	.LASF385:
 4324 1dc9 4359424C 		.ascii	"CYBLE_EVT_HTSS_NOTIFICATION_ENABLED\000"
 4324      455F4556 
 4324      545F4854 
 4324      53535F4E 
 4324      4F544946 
 4325              	.LASF397:
 4326 1ded 4359424C 		.ascii	"CYBLE_EVT_IASS_WRITE_CHAR_CMD\000"
 4326      455F4556 
 4326      545F4941 
 4326      53535F57 
 4326      52495445 
 4327              	.LASF388:
 4328 1e0b 4359424C 		.ascii	"CYBLE_EVT_HTSS_INDICATION_DISABLED\000"
 4328      455F4556 
 4328      545F4854 
 4328      53535F49 
 4328      4E444943 
 4329              	.LASF77:
 4330 1e2e 4359424C 		.ascii	"CYBLE_EVT_L2CAP_CONN_PARAM_UPDATE_RSP\000"
 4330      455F4556 
 4330      545F4C32 
 4330      4341505F 
 4330      434F4E4E 
 4331              	.LASF378:
 4332 1e54 4359424C 		.ascii	"CYBLE_EVT_HRSS_NOTIFICATION_ENABLED\000"
 4332      455F4556 
 4332      545F4852 
 4332      53535F4E 
 4332      4F544946 
 4333              	.LASF236:
 4334 1e78 4359424C 		.ascii	"CYBLE_EVT_AIOSC_READ_CHAR_RESPONSE\000"
 4334      455F4556 
 4334      545F4149 
 4334      4F53435F 
 4334      52454144 
 4335              	.LASF404:
 4336 1e9b 4359424C 		.ascii	"CYBLE_EVT_IPSC_ERROR_RESPONSE\000"
 4336      455F4556 
 4336      545F4950 
 4336      53435F45 
 4336      52524F52 
 4337              	.LASF297:
 4338 1eb9 4359424C 		.ascii	"CYBLE_EVT_CPSS_NOTIFICATION_DISABLED\000"
 4338      455F4556 
 4338      545F4350 
 4338      53535F4E 
 4338      4F544946 
 4339              	.LASF535:
 4340 1ede 77726974 		.ascii	"writeRGBdata\000"
 4340      65524742 
ARM GAS  C:\Users\User\AppData\Local\Temp\cc96DgHN.s 			page 112


 4340      64617461 
 4340      00
 4341              	.LASF134:
 4342 1eeb 4359424C 		.ascii	"CYBLE_GAPC_SCAN_RSP\000"
 4342      455F4741 
 4342      50435F53 
 4342      43414E5F 
 4342      52535000 
 4343              	.LASF223:
 4344 1eff 4359424C 		.ascii	"CYBLE_EVT_GATTC_INCL_DISCOVERY_COMPLETE\000"
 4344      455F4556 
 4344      545F4741 
 4344      5454435F 
 4344      494E434C 
 4345              	.LASF435:
 4346 1f27 4359424C 		.ascii	"CYBLE_EVT_PASSS_NOTIFICATION_DISABLED\000"
 4346      455F4556 
 4346      545F5041 
 4346      5353535F 
 4346      4E4F5449 
 4347              	.LASF255:
 4348 1f4d 4359424C 		.ascii	"CYBLE_EVT_ANSC_READ_DESCR_RESPONSE\000"
 4348      455F4556 
 4348      545F414E 
 4348      53435F52 
 4348      4541445F 
 4349              	.LASF360:
 4350 1f70 4359424C 		.ascii	"CYBLE_EVT_HIDSS_REPORT_MODE_ENTER\000"
 4350      455F4556 
 4350      545F4849 
 4350      4453535F 
 4350      5245504F 
 4351              	.LASF162:
 4352 1f92 4359424C 		.ascii	"CYBLE_GATT_ERR_HEART_RATE_CONTROL_POINT_NOT_SUPPORT"
 4352      455F4741 
 4352      54545F45 
 4352      52525F48 
 4352      45415254 
 4353 1fc5 454400   		.ascii	"ED\000"
 4354              	.LASF427:
 4355 1fc8 4359424C 		.ascii	"CYBLE_EVT_OTSC_INDICATION\000"
 4355      455F4556 
 4355      545F4F54 
 4355      53435F49 
 4355      4E444943 
 4356              	.LASF511:
 4357 1fe2 4359424C 		.ascii	"CYBLE_EVT_WSSC_READ_DESCR_RESPONSE\000"
 4357      455F4556 
 4357      545F5753 
 4357      53435F52 
 4357      4541445F 
 4358              	.LASF521:
 4359 2005 4359424C 		.ascii	"CYBLE_STATE_T\000"
 4359      455F5354 
 4359      4154455F 
 4359      5400
 4360              	.LASF407:
ARM GAS  C:\Users\User\AppData\Local\Temp\cc96DgHN.s 			page 113


 4361 2013 4359424C 		.ascii	"CYBLE_EVT_LLSC_READ_CHAR_RESPONSE\000"
 4361      455F4556 
 4361      545F4C4C 
 4361      53435F52 
 4361      4541445F 
 4362              	.LASF374:
 4363 2035 4359424C 		.ascii	"CYBLE_EVT_HPSC_READ_DESCR_RESPONSE\000"
 4363      455F4556 
 4363      545F4850 
 4363      53435F52 
 4363      4541445F 
 4364              	.LASF219:
 4365 2058 4359424C 		.ascii	"CYBLE_EVT_GATTC_SRVC_DUPLICATION\000"
 4365      455F4556 
 4365      545F4741 
 4365      5454435F 
 4365      53525643 
 4366              	.LASF247:
 4367 2079 4359424C 		.ascii	"CYBLE_EVT_ANCSC_WRITE_DESCR_RESPONSE\000"
 4367      455F4556 
 4367      545F414E 
 4367      4353435F 
 4367      57524954 
 4368              	.LASF449:
 4369 209e 4359424C 		.ascii	"CYBLE_EVT_PLXSC_READ_CHAR_RESPONSE\000"
 4369      455F4556 
 4369      545F504C 
 4369      5853435F 
 4369      52454144 
 4370              	.LASF496:
 4371 20c1 4359424C 		.ascii	"CYBLE_EVT_WPTSS_INDICATION_ENABLED\000"
 4371      455F4556 
 4371      545F5750 
 4371      5453535F 
 4371      494E4449 
 4372              	.LASF275:
 4373 20e4 4359424C 		.ascii	"CYBLE_EVT_BLSC_INDICATION\000"
 4373      455F4556 
 4373      545F424C 
 4373      53435F49 
 4373      4E444943 
 4374              	.LASF396:
 4375 20fe 4359424C 		.ascii	"CYBLE_EVT_HTSC_WRITE_DESCR_RESPONSE\000"
 4375      455F4556 
 4375      545F4854 
 4375      53435F57 
 4375      52495445 
 4376              	.LASF493:
 4377 2122 4359424C 		.ascii	"CYBLE_EVT_UDSC_ERROR_RESPONSE\000"
 4377      455F4556 
 4377      545F5544 
 4377      53435F45 
 4377      52524F52 
 4378              	.LASF323:
 4379 2140 4359424C 		.ascii	"CYBLE_EVT_CTSS_NOTIFICATION_ENABLED\000"
 4379      455F4556 
 4379      545F4354 
ARM GAS  C:\Users\User\AppData\Local\Temp\cc96DgHN.s 			page 114


 4379      53535F4E 
 4379      4F544946 
 4380              	.LASF536:
 4381 2164 47656E65 		.ascii	"GenericEventHandler\000"
 4381      72696345 
 4381      76656E74 
 4381      48616E64 
 4381      6C657200 
 4382              	.LASF395:
 4383 2178 4359424C 		.ascii	"CYBLE_EVT_HTSC_READ_DESCR_RESPONSE\000"
 4383      455F4556 
 4383      545F4854 
 4383      53435F52 
 4383      4541445F 
 4384              	.LASF36:
 4385 219b 4359424C 		.ascii	"CYBLE_EVT_GAP_ENCRYPT_CHANGE\000"
 4385      455F4556 
 4385      545F4741 
 4385      505F454E 
 4385      43525950 
 4386              	.LASF206:
 4387 21b8 4359424C 		.ascii	"CYBLE_HTS_VRD\000"
 4387      455F4854 
 4387      535F5652 
 4387      4400
 4388              	.LASF34:
 4389 21c6 4359424C 		.ascii	"CYBLE_EVT_GAP_DEVICE_CONNECTED\000"
 4389      455F4556 
 4389      545F4741 
 4389      505F4445 
 4389      56494345 
 4390              	.LASF193:
 4391 21e5 6572726F 		.ascii	"errorCode\000"
 4391      72436F64 
 4391      6500
 4392              	.LASF458:
 4393 21ef 4359424C 		.ascii	"CYBLE_EVT_RSCSS_INDICATION_CONFIRMATION\000"
 4393      455F4556 
 4393      545F5253 
 4393      4353535F 
 4393      494E4449 
 4394              	.LASF305:
 4395 2217 4359424C 		.ascii	"CYBLE_EVT_CPSC_INDICATION\000"
 4395      455F4556 
 4395      545F4350 
 4395      53435F49 
 4395      4E444943 
 4396              	.LASF150:
 4397 2231 4359424C 		.ascii	"CYBLE_GATT_ERR_INVALID_OFFSET\000"
 4397      455F4741 
 4397      54545F45 
 4397      52525F49 
 4397      4E56414C 
 4398              	.LASF333:
 4399 224f 4359424C 		.ascii	"CYBLE_EVT_ESSS_NOTIFICATION_DISABLED\000"
 4399      455F4556 
 4399      545F4553 
ARM GAS  C:\Users\User\AppData\Local\Temp\cc96DgHN.s 			page 115


 4399      53535F4E 
 4399      4F544946 
 4400              	.LASF151:
 4401 2274 4359424C 		.ascii	"CYBLE_GATT_ERR_INSUFFICIENT_AUTHORIZATION\000"
 4401      455F4741 
 4401      54545F45 
 4401      52525F49 
 4401      4E535546 
 4402              	.LASF19:
 4403 229e 73697A65 		.ascii	"sizetype\000"
 4403      74797065 
 4403      00
 4404              	.LASF366:
 4405 22a7 4359424C 		.ascii	"CYBLE_EVT_HIDSC_WRITE_CHAR_RESPONSE\000"
 4405      455F4556 
 4405      545F4849 
 4405      4453435F 
 4405      57524954 
 4406              	.LASF87:
 4407 22cb 4359424C 		.ascii	"CYBLE_EVT_PENDING_FLASH_WRITE\000"
 4407      455F4556 
 4407      545F5045 
 4407      4E44494E 
 4407      475F464C 
 4408              	.LASF20:
 4409 22e9 4359424C 		.ascii	"CYBLE_EVT_HOST_INVALID\000"
 4409      455F4556 
 4409      545F484F 
 4409      53545F49 
 4409      4E56414C 
 4410              	.LASF414:
 4411 2300 4359424C 		.ascii	"CYBLE_EVT_LNSS_WRITE_CHAR\000"
 4411      455F4556 
 4411      545F4C4E 
 4411      53535F57 
 4411      52495445 
 4412              	.LASF3:
 4413 231a 73686F72 		.ascii	"short unsigned int\000"
 4413      7420756E 
 4413      7369676E 
 4413      65642069 
 4413      6E7400
 4414              	.LASF351:
 4415 232d 4359424C 		.ascii	"CYBLE_EVT_GLSC_INDICATION\000"
 4415      455F4556 
 4415      545F474C 
 4415      53435F49 
 4415      4E444943 
 4416              	.LASF0:
 4417 2347 7369676E 		.ascii	"signed char\000"
 4417      65642063 
 4417      68617200 
 4418              	.LASF301:
 4419 2353 4359424C 		.ascii	"CYBLE_EVT_CPSS_BROADCAST_ENABLED\000"
 4419      455F4556 
 4419      545F4350 
 4419      53535F42 
ARM GAS  C:\Users\User\AppData\Local\Temp\cc96DgHN.s 			page 116


 4419      524F4144 
 4420              	.LASF551:
 4421 2374 73776974 		.ascii	"switch_Role\000"
 4421      63685F52 
 4421      6F6C6500 
 4422              	.LASF181:
 4423 2380 4359424C 		.ascii	"CYBLE_GATT_ERR_OUT_OF_RANGE\000"
 4423      455F4741 
 4423      54545F45 
 4423      52525F4F 
 4423      55545F4F 
 4424              	.LASF265:
 4425 239c 4359424C 		.ascii	"CYBLE_EVT_BCSS_INDICATION_CONFIRMED\000"
 4425      455F4556 
 4425      545F4243 
 4425      53535F49 
 4425      4E444943 
 4426              	.LASF68:
 4427 23c0 4359424C 		.ascii	"CYBLE_EVT_GATTC_EXEC_WRITE_RSP\000"
 4427      455F4556 
 4427      545F4741 
 4427      5454435F 
 4427      45584543 
 4428              	.LASF474:
 4429 23df 4359424C 		.ascii	"CYBLE_EVT_TPSS_NOTIFICATION_ENABLED\000"
 4429      455F4556 
 4429      545F5450 
 4429      53535F4E 
 4429      4F544946 
 4430              	.LASF278:
 4431 2403 4359424C 		.ascii	"CYBLE_EVT_BLSC_READ_DESCR_RESPONSE\000"
 4431      455F4556 
 4431      545F424C 
 4431      53435F52 
 4431      4541445F 
 4432              	.LASF490:
 4433 2426 4359424C 		.ascii	"CYBLE_EVT_UDSC_WRITE_CHAR_RESPONSE\000"
 4433      455F4556 
 4433      545F5544 
 4433      53435F57 
 4433      52495445 
 4434              	.LASF424:
 4435 2449 4359424C 		.ascii	"CYBLE_EVT_OTSS_INDICATION_CONFIRMED\000"
 4435      455F4556 
 4435      545F4F54 
 4435      53535F49 
 4435      4E444943 
 4436              	.LASF176:
 4437 246d 4359424C 		.ascii	"CYBLE_GATT_ERR_ANCS_INVALID_COMMAND\000"
 4437      455F4741 
 4437      54545F45 
 4437      52525F41 
 4437      4E43535F 
 4438              	.LASF306:
 4439 2491 4359424C 		.ascii	"CYBLE_EVT_CPSC_READ_CHAR_RESPONSE\000"
 4439      455F4556 
 4439      545F4350 
ARM GAS  C:\Users\User\AppData\Local\Temp\cc96DgHN.s 			page 117


 4439      53435F52 
 4439      4541445F 
 4440              	.LASF363:
 4441 24b3 4359424C 		.ascii	"CYBLE_EVT_HIDSS_REPORT_CHAR_WRITE\000"
 4441      455F4556 
 4441      545F4849 
 4441      4453535F 
 4441      5245504F 
 4442              	.LASF548:
 4443 24d5 63757272 		.ascii	"current_watchdog_counter\000"
 4443      656E745F 
 4443      77617463 
 4443      68646F67 
 4443      5F636F75 
 4444              	.LASF231:
 4445 24ee 4359424C 		.ascii	"CYBLE_EVT_AIOSS_INDICATION_CONFIRMED\000"
 4445      455F4556 
 4445      545F4149 
 4445      4F53535F 
 4445      494E4449 
 4446              	.LASF563:
 4447 2513 52657374 		.ascii	"RestartCentralScanning\000"
 4447      61727443 
 4447      656E7472 
 4447      616C5363 
 4447      616E6E69 
 4448              	.LASF343:
 4449 252a 4359424C 		.ascii	"CYBLE_EVT_ESSC_READ_DESCR_RESPONSE\000"
 4449      455F4556 
 4449      545F4553 
 4449      53435F52 
 4449      4541445F 
 4450              	.LASF413:
 4451 254d 4359424C 		.ascii	"CYBLE_EVT_LNSS_NOTIFICATION_DISABLED\000"
 4451      455F4556 
 4451      545F4C4E 
 4451      53535F4E 
 4451      4F544946 
 4452              	.LASF257:
 4453 2572 4359424C 		.ascii	"CYBLE_EVT_BASS_NOTIFICATION_ENABLED\000"
 4453      455F4556 
 4453      545F4241 
 4453      53535F4E 
 4453      4F544946 
 4454              	.LASF194:
 4455 2596 4359424C 		.ascii	"CYBLE_GATTS_ERR_PARAM_T\000"
 4455      455F4741 
 4455      5454535F 
 4455      4552525F 
 4455      50415241 
 4456              	.LASF256:
 4457 25ae 4359424C 		.ascii	"CYBLE_EVT_ANSC_WRITE_DESCR_RESPONSE\000"
 4457      455F4556 
 4457      545F414E 
 4457      53435F57 
 4457      52495445 
 4458              	.LASF187:
ARM GAS  C:\Users\User\AppData\Local\Temp\cc96DgHN.s 			page 118


 4459 25d2 61637475 		.ascii	"actualLen\000"
 4459      616C4C65 
 4459      6E00
 4460              	.LASF354:
 4461 25dc 4359424C 		.ascii	"CYBLE_EVT_GLSC_WRITE_CHAR_RESPONSE\000"
 4461      455F4556 
 4461      545F474C 
 4461      53435F57 
 4461      52495445 
 4462              	.LASF41:
 4463 25ff 4359424C 		.ascii	"CYBLE_EVT_GAP_KEYPRESS_NOTIFICATION\000"
 4463      455F4556 
 4463      545F4741 
 4463      505F4B45 
 4463      59505245 
 4464              	.LASF416:
 4465 2623 4359424C 		.ascii	"CYBLE_EVT_LNSC_NOTIFICATION\000"
 4465      455F4556 
 4465      545F4C4E 
 4465      53435F4E 
 4465      4F544946 
 4466              	.LASF259:
 4467 263f 4359424C 		.ascii	"CYBLE_EVT_BASC_NOTIFICATION\000"
 4467      455F4556 
 4467      545F4241 
 4467      53435F4E 
 4467      4F544946 
 4468              	.LASF59:
 4469 265b 4359424C 		.ascii	"CYBLE_EVT_GATTC_FIND_BY_TYPE_VALUE_RSP\000"
 4469      455F4556 
 4469      545F4741 
 4469      5454435F 
 4469      46494E44 
 4470              	.LASF556:
 4471 2682 64657669 		.ascii	"deviceConnected\000"
 4471      6365436F 
 4471      6E6E6563 
 4471      74656400 
 4472              	.LASF225:
 4473 2692 4359424C 		.ascii	"CYBLE_EVT_GATTC_DISC_SKIPPED_SERVICE\000"
 4473      455F4556 
 4473      545F4741 
 4473      5454435F 
 4473      44495343 
 4474              	.LASF124:
 4475 26b7 4359424C 		.ascii	"CYBLE_ERROR_INVALID_STATE\000"
 4475      455F4552 
 4475      524F525F 
 4475      494E5641 
 4475      4C49445F 
 4476              	.LASF509:
 4477 26d1 4359424C 		.ascii	"CYBLE_EVT_WSSC_INDICATION\000"
 4477      455F4556 
 4477      545F5753 
 4477      53435F49 
 4477      4E444943 
 4478              	.LASF269:
ARM GAS  C:\Users\User\AppData\Local\Temp\cc96DgHN.s 			page 119


 4479 26eb 4359424C 		.ascii	"CYBLE_EVT_BCSC_WRITE_DESCR_RESPONSE\000"
 4479      455F4556 
 4479      545F4243 
 4479      53435F57 
 4479      52495445 
 4480              	.LASF380:
 4481 270f 4359424C 		.ascii	"CYBLE_EVT_HRSC_NOTIFICATION\000"
 4481      455F4556 
 4481      545F4852 
 4481      53435F4E 
 4481      4F544946 
 4482              	.LASF253:
 4483 272b 4359424C 		.ascii	"CYBLE_EVT_ANSC_READ_CHAR_RESPONSE\000"
 4483      455F4556 
 4483      545F414E 
 4483      53435F52 
 4483      4541445F 
 4484              	.LASF4:
 4485 274d 6C6F6E67 		.ascii	"long int\000"
 4485      20696E74 
 4485      00
 4486              	.LASF299:
 4487 2756 4359424C 		.ascii	"CYBLE_EVT_CPSS_INDICATION_DISABLED\000"
 4487      455F4556 
 4487      545F4350 
 4487      53535F49 
 4487      4E444943 
 4488              	.LASF561:
 4489 2779 433A5C55 		.ascii	"C:\\Users\\User\\Desktop\\Hi\\Demo1\\TM_Mesh_System"
 4489      73657273 
 4489      5C557365 
 4489      725C4465 
 4489      736B746F 
 4490 27a6 2E637964 		.ascii	".cydsn\000"
 4490      736E00
 4491              	.LASF146:
 4492 27ad 4359424C 		.ascii	"CYBLE_GATT_ERR_WRITE_NOT_PERMITTED\000"
 4492      455F4741 
 4492      54545F45 
 4492      52525F57 
 4492      52495445 
 4493              	.LASF295:
 4494 27d0 4359424C 		.ascii	"CYBLE_EVT_CGMSC_WRITE_DESCR_RESPONSE\000"
 4494      455F4556 
 4494      545F4347 
 4494      4D53435F 
 4494      57524954 
 4495              	.LASF432:
 4496 27f5 4359424C 		.ascii	"CYBLE_EVT_OTSC_WRITE_DESCR_RESPONSE\000"
 4496      455F4556 
 4496      545F4F54 
 4496      53435F57 
 4496      52495445 
 4497              	.LASF107:
 4498 2819 4359424C 		.ascii	"CYBLE_ERROR_L2CAP_PSM_NOT_REGISTERED\000"
 4498      455F4552 
 4498      524F525F 
ARM GAS  C:\Users\User\AppData\Local\Temp\cc96DgHN.s 			page 120


 4498      4C324341 
 4498      505F5053 
 4499              	.LASF549:
 4500 283e 54656D70 		.ascii	"TemperatureStorage\000"
 4500      65726174 
 4500      75726553 
 4500      746F7261 
 4500      676500
 4501              	.LASF251:
 4502 2851 4359424C 		.ascii	"CYBLE_EVT_ANSS_CHAR_WRITE\000"
 4502      455F4556 
 4502      545F414E 
 4502      53535F43 
 4502      4841525F 
 4503              	.LASF39:
 4504 286b 4359424C 		.ascii	"CYBLE_EVT_GAP_KEYINFO_EXCHNGE_CMPLT\000"
 4504      455F4556 
 4504      545F4741 
 4504      505F4B45 
 4504      59494E46 
 4505              	.LASF185:
 4506 288f 61747449 		.ascii	"attId\000"
 4506      6400
 4507              	.LASF344:
 4508 2895 4359424C 		.ascii	"CYBLE_EVT_ESSC_WRITE_DESCR_RESPONSE\000"
 4508      455F4556 
 4508      545F4553 
 4508      53435F57 
 4508      52495445 
 4509              	.LASF522:
 4510 28b9 4359424C 		.ascii	"CYBLE_SRVI_GAP\000"
 4510      455F5352 
 4510      56495F47 
 4510      415000
 4511              	.LASF443:
 4512 28c8 4359424C 		.ascii	"CYBLE_EVT_PLXSS_NOTIFICATION_DISABLED\000"
 4512      455F4556 
 4512      545F504C 
 4512      5853535F 
 4512      4E4F5449 
 4513              	.LASF215:
 4514 28ee 4359424C 		.ascii	"CYBLE_EVT_GATTC_SRVC_DISCOVERY_FAILED\000"
 4514      455F4556 
 4514      545F4741 
 4514      5454435F 
 4514      53525643 
 4515              	.LASF411:
 4516 2914 4359424C 		.ascii	"CYBLE_EVT_LNSS_INDICATION_CONFIRMED\000"
 4516      455F4556 
 4516      545F4C4E 
 4516      53535F49 
 4516      4E444943 
 4517              	.LASF96:
 4518 2938 4359424C 		.ascii	"CYBLE_ERROR_INSUFFICIENT_RESOURCES\000"
 4518      455F4552 
 4518      524F525F 
 4518      494E5355 
ARM GAS  C:\Users\User\AppData\Local\Temp\cc96DgHN.s 			page 121


 4518      46464943 
 4519              	.LASF25:
 4520 295b 4359424C 		.ascii	"CYBLE_EVT_STACK_BUSY_STATUS\000"
 4520      455F4556 
 4520      545F5354 
 4520      41434B5F 
 4520      42555359 
 4521              	.LASF329:
 4522 2977 4359424C 		.ascii	"CYBLE_EVT_CTSC_WRITE_DESCR_RESPONSE\000"
 4522      455F4556 
 4522      545F4354 
 4522      53435F57 
 4522      52495445 
 4523              	.LASF56:
 4524 299b 4359424C 		.ascii	"CYBLE_EVT_GATTC_READ_BY_GROUP_TYPE_RSP\000"
 4524      455F4556 
 4524      545F4741 
 4524      5454435F 
 4524      52454144 
 4525              	.LASF541:
 4526 29c2 6572725F 		.ascii	"err_param\000"
 4526      70617261 
 4526      6D00
 4527              	.LASF117:
 4528 29cc 4359424C 		.ascii	"CYBLE_ERROR_FLASH_WRITE\000"
 4528      455F4552 
 4528      524F525F 
 4528      464C4153 
 4528      485F5752 
 4529              	.LASF159:
 4530 29e4 4359424C 		.ascii	"CYBLE_GATT_ERR_UNSUPPORTED_GROUP_TYPE\000"
 4530      455F4741 
 4530      54545F45 
 4530      52525F55 
 4530      4E535550 
 4531              	.LASF95:
 4532 2a0a 4359424C 		.ascii	"CYBLE_ERROR_MEMORY_ALLOCATION_FAILED\000"
 4532      455F4552 
 4532      524F525F 
 4532      4D454D4F 
 4532      52595F41 
 4533              	.LASF281:
 4534 2a2f 4359424C 		.ascii	"CYBLE_EVT_BMSC_READ_CHAR_RESPONSE\000"
 4534      455F4556 
 4534      545F424D 
 4534      53435F52 
 4534      4541445F 
 4535              	.LASF35:
 4536 2a51 4359424C 		.ascii	"CYBLE_EVT_GAP_DEVICE_DISCONNECTED\000"
 4536      455F4556 
 4536      545F4741 
 4536      505F4445 
 4536      56494345 
 4537              	.LASF441:
 4538 2a73 4359424C 		.ascii	"CYBLE_EVT_PLXSS_WRITE_CHAR\000"
 4538      455F4556 
 4538      545F504C 
ARM GAS  C:\Users\User\AppData\Local\Temp\cc96DgHN.s 			page 122


 4538      5853535F 
 4538      57524954 
 4539              	.LASF18:
 4540 2a8e 6C6F6E67 		.ascii	"long double\000"
 4540      20646F75 
 4540      626C6500 
 4541              	.LASF399:
 4542 2a9a 4359424C 		.ascii	"CYBLE_EVT_IPSC_READ_CHAR_RESPONSE\000"
 4542      455F4556 
 4542      545F4950 
 4542      53435F52 
 4542      4541445F 
 4543              	.LASF98:
 4544 2abc 4359424C 		.ascii	"CYBLE_ERROR_NO_CONNECTION\000"
 4544      455F4552 
 4544      524F525F 
 4544      4E4F5F43 
 4544      4F4E4E45 
 4545              	.LASF64:
 4546 2ad6 4359424C 		.ascii	"CYBLE_EVT_GATTC_WRITE_RSP\000"
 4546      455F4556 
 4546      545F4741 
 4546      5454435F 
 4546      57524954 
 4547              	.LASF10:
 4548 2af0 75696E74 		.ascii	"uint16\000"
 4548      313600
 4549              	.LASF104:
 4550 2af7 4359424C 		.ascii	"CYBLE_ERROR_SEC_FAILED\000"
 4550      455F4552 
 4550      524F525F 
 4550      5345435F 
 4550      4641494C 
 4551              	.LASF148:
 4552 2b0e 4359424C 		.ascii	"CYBLE_GATT_ERR_INSUFFICIENT_AUTHENTICATION\000"
 4552      455F4741 
 4552      54545F45 
 4552      52525F49 
 4552      4E535546 
 4553              	.LASF200:
 4554 2b39 4359424C 		.ascii	"CYBLE_HTS_TEMP_MEASURE\000"
 4554      455F4854 
 4554      535F5445 
 4554      4D505F4D 
 4554      45415355 
 4555              	.LASF364:
 4556 2b50 4359424C 		.ascii	"CYBLE_EVT_HIDSC_NOTIFICATION\000"
 4556      455F4556 
 4556      545F4849 
 4556      4453435F 
 4556      4E4F5449 
 4557              	.LASF5:
 4558 2b6d 6C6F6E67 		.ascii	"long unsigned int\000"
 4558      20756E73 
 4558      69676E65 
 4558      6420696E 
 4558      7400
ARM GAS  C:\Users\User\AppData\Local\Temp\cc96DgHN.s 			page 123


 4559              	.LASF436:
 4560 2b7f 4359424C 		.ascii	"CYBLE_EVT_PASSS_WRITE_CHAR\000"
 4560      455F4556 
 4560      545F5041 
 4560      5353535F 
 4560      57524954 
 4561              	.LASF73:
 4562 2b9a 4359424C 		.ascii	"CYBLE_EVT_GATTC_STOP_CMD_COMPLETE\000"
 4562      455F4556 
 4562      545F4741 
 4562      5454435F 
 4562      53544F50 
 4563              	.LASF510:
 4564 2bbc 4359424C 		.ascii	"CYBLE_EVT_WSSC_READ_CHAR_RESPONSE\000"
 4564      455F4556 
 4564      545F5753 
 4564      53435F52 
 4564      4541445F 
 4565              	.LASF372:
 4566 2bde 4359424C 		.ascii	"CYBLE_EVT_HPSC_NOTIFICATION\000"
 4566      455F4556 
 4566      545F4850 
 4566      53435F4E 
 4566      4F544946 
 4567              	.LASF311:
 4568 2bfa 4359424C 		.ascii	"CYBLE_EVT_CSCSS_NOTIFICATION_ENABLED\000"
 4568      455F4556 
 4568      545F4353 
 4568      4353535F 
 4568      4E4F5449 
 4569              	.LASF15:
 4570 2c1f 63686172 		.ascii	"char\000"
 4570      00
 4571              	.LASF529:
 4572 2c24 6576656E 		.ascii	"eventParam\000"
 4572      74506172 
 4572      616D00
 4573              	.LASF135:
 4574 2c2f 4359424C 		.ascii	"CYBLE_GAPC_ADV_EVENT_T\000"
 4574      455F4741 
 4574      50435F41 
 4574      44565F45 
 4574      56454E54 
 4575              	.LASF266:
 4576 2c46 4359424C 		.ascii	"CYBLE_EVT_BCSC_INDICATION\000"
 4576      455F4556 
 4576      545F4243 
 4576      53435F49 
 4576      4E444943 
 4577              	.LASF80:
 4578 2c60 4359424C 		.ascii	"CYBLE_EVT_L2CAP_CBFC_CONN_CNF\000"
 4578      455F4556 
 4578      545F4C32 
 4578      4341505F 
 4578      43424643 
 4579              	.LASF499:
 4580 2c7e 4359424C 		.ascii	"CYBLE_EVT_WPTSS_WRITE_CHAR\000"
ARM GAS  C:\Users\User\AppData\Local\Temp\cc96DgHN.s 			page 124


 4580      455F4556 
 4580      545F5750 
 4580      5453535F 
 4580      57524954 
 4581              	.LASF540:
 4582 2c99 6F70436F 		.ascii	"opCode\000"
 4582      646500
 4583              	.LASF300:
 4584 2ca0 4359424C 		.ascii	"CYBLE_EVT_CPSS_INDICATION_CONFIRMED\000"
 4584      455F4556 
 4584      545F4350 
 4584      53535F49 
 4584      4E444943 
 4585              	.LASF94:
 4586 2cc4 4359424C 		.ascii	"CYBLE_ERROR_INVALID_OPERATION\000"
 4586      455F4552 
 4586      524F525F 
 4586      494E5641 
 4586      4C49445F 
 4587              	.LASF11:
 4588 2ce2 75696E74 		.ascii	"uint32\000"
 4588      333200
 4589              	.LASF263:
 4590 2ce9 4359424C 		.ascii	"CYBLE_EVT_BCSS_INDICATION_ENABLED\000"
 4590      455F4556 
 4590      545F4243 
 4590      53535F49 
 4590      4E444943 
 4591              	.LASF184:
 4592 2d0b 62644861 		.ascii	"bdHandle\000"
 4592      6E646C65 
 4592      00
 4593              	.LASF99:
 4594 2d14 4359424C 		.ascii	"CYBLE_ERROR_NO_DEVICE_ENTITY\000"
 4594      455F4552 
 4594      524F525F 
 4594      4E4F5F44 
 4594      45564943 
 4595              	.LASF82:
 4596 2d31 4359424C 		.ascii	"CYBLE_EVT_L2CAP_CBFC_DISCONN_CNF\000"
 4596      455F4556 
 4596      545F4C32 
 4596      4341505F 
 4596      43424643 
 4597              	.LASF346:
 4598 2d52 4359424C 		.ascii	"CYBLE_EVT_GLSS_INDICATION_DISABLED\000"
 4598      455F4556 
 4598      545F474C 
 4598      53535F49 
 4598      4E444943 
 4599              	.LASF144:
 4600 2d75 4359424C 		.ascii	"CYBLE_GATT_ERR_INVALID_HANDLE\000"
 4600      455F4741 
 4600      54545F45 
 4600      52525F49 
 4600      4E56414C 
 4601              	.LASF285:
ARM GAS  C:\Users\User\AppData\Local\Temp\cc96DgHN.s 			page 125


 4602 2d93 4359424C 		.ascii	"CYBLE_EVT_CGMSS_INDICATION_DISABLED\000"
 4602      455F4556 
 4602      545F4347 
 4602      4D53535F 
 4602      494E4449 
 4603              	.LASF459:
 4604 2db7 4359424C 		.ascii	"CYBLE_EVT_RSCSS_CHAR_WRITE\000"
 4604      455F4556 
 4604      545F5253 
 4604      4353535F 
 4604      43484152 
 4605              	.LASF437:
 4606 2dd2 4359424C 		.ascii	"CYBLE_EVT_PASSC_NOTIFICATION\000"
 4606      455F4556 
 4606      545F5041 
 4606      5353435F 
 4606      4E4F5449 
 4607              	.LASF476:
 4608 2def 4359424C 		.ascii	"CYBLE_EVT_TPSC_NOTIFICATION\000"
 4608      455F4556 
 4608      545F5450 
 4608      53435F4E 
 4608      4F544946 
 4609              	.LASF491:
 4610 2e0b 4359424C 		.ascii	"CYBLE_EVT_UDSC_READ_DESCR_RESPONSE\000"
 4610      455F4556 
 4610      545F5544 
 4610      53435F52 
 4610      4541445F 
 4611              	.LASF66:
 4612 2e2e 4359424C 		.ascii	"CYBLE_EVT_GATTS_PREP_WRITE_REQ\000"
 4612      455F4556 
 4612      545F4741 
 4612      5454535F 
 4612      50524550 
 4613              	.LASF426:
 4614 2e4d 4359424C 		.ascii	"CYBLE_EVT_OTSS_WRITE_DESCR\000"
 4614      455F4556 
 4614      545F4F54 
 4614      53535F57 
 4614      52495445 
 4615              	.LASF353:
 4616 2e68 4359424C 		.ascii	"CYBLE_EVT_GLSC_READ_CHAR_RESPONSE\000"
 4616      455F4556 
 4616      545F474C 
 4616      53435F52 
 4616      4541445F 
 4617              	.LASF439:
 4618 2e8a 4359424C 		.ascii	"CYBLE_EVT_PASSC_READ_DESCR_RESPONSE\000"
 4618      455F4556 
 4618      545F5041 
 4618      5353435F 
 4618      52454144 
 4619              	.LASF463:
 4620 2eae 4359424C 		.ascii	"CYBLE_EVT_RSCSC_WRITE_CHAR_RESPONSE\000"
 4620      455F4556 
 4620      545F5253 
ARM GAS  C:\Users\User\AppData\Local\Temp\cc96DgHN.s 			page 126


 4620      4353435F 
 4620      57524954 
 4621              	.LASF141:
 4622 2ed2 72737369 		.ascii	"rssi\000"
 4622      00
 4623              	.LASF271:
 4624 2ed7 4359424C 		.ascii	"CYBLE_EVT_BLSS_INDICATION_DISABLED\000"
 4624      455F4556 
 4624      545F424C 
 4624      53535F49 
 4624      4E444943 
 4625              	.LASF469:
 4626 2efa 4359424C 		.ascii	"CYBLE_EVT_SCPSS_NOTIFICATION_DISABLED\000"
 4626      455F4556 
 4626      545F5343 
 4626      5053535F 
 4626      4E4F5449 
 4627              	.LASF379:
 4628 2f20 4359424C 		.ascii	"CYBLE_EVT_HRSS_NOTIFICATION_DISABLED\000"
 4628      455F4556 
 4628      545F4852 
 4628      53535F4E 
 4628      4F544946 
 4629              	.LASF546:
 4630 2f45 6379426C 		.ascii	"cyBle_connHandle\000"
 4630      655F636F 
 4630      6E6E4861 
 4630      6E646C65 
 4630      00
 4631              	.LASF319:
 4632 2f56 4359424C 		.ascii	"CYBLE_EVT_CSCSC_READ_CHAR_RESPONSE\000"
 4632      455F4556 
 4632      545F4353 
 4632      4353435F 
 4632      52454144 
 4633              	.LASF418:
 4634 2f79 4359424C 		.ascii	"CYBLE_EVT_LNSC_WRITE_CHAR_RESPONSE\000"
 4634      455F4556 
 4634      545F4C4E 
 4634      53435F57 
 4634      52495445 
 4635              	.LASF174:
 4636 2f9c 4359424C 		.ascii	"CYBLE_GATT_ERR_ANS_COMMAND_NOT_SUPPORTED\000"
 4636      455F4741 
 4636      54545F45 
 4636      52525F41 
 4636      4E535F43 
 4637              	.LASF331:
 4638 2fc5 4359424C 		.ascii	"CYBLE_EVT_DISC_READ_CHAR_RESPONSE\000"
 4638      455F4556 
 4638      545F4449 
 4638      53435F52 
 4638      4541445F 
 4639              	.LASF468:
 4640 2fe7 4359424C 		.ascii	"CYBLE_EVT_SCPSS_NOTIFICATION_ENABLED\000"
 4640      455F4556 
 4640      545F5343 
ARM GAS  C:\Users\User\AppData\Local\Temp\cc96DgHN.s 			page 127


 4640      5053535F 
 4640      4E4F5449 
 4641              	.LASF454:
 4642 300c 4359424C 		.ascii	"CYBLE_EVT_RSCSS_NOTIFICATION_ENABLED\000"
 4642      455F4556 
 4642      545F5253 
 4642      4353535F 
 4642      4E4F5449 
 4643              	.LASF54:
 4644 3031 4359424C 		.ascii	"CYBLE_EVT_GATTS_XCNHG_MTU_REQ\000"
 4644      455F4556 
 4644      545F4741 
 4644      5454535F 
 4644      58434E48 
 4645              	.LASF120:
 4646 304f 4359424C 		.ascii	"CYBLE_ERROR_MAX\000"
 4646      455F4552 
 4646      524F525F 
 4646      4D415800 
 4647              	.LASF102:
 4648 305f 4359424C 		.ascii	"CYBLE_ERROR_TX_POWER_READ\000"
 4648      455F4552 
 4648      524F525F 
 4648      54585F50 
 4648      4F574552 
 4649              	.LASF506:
 4650 3079 4359424C 		.ascii	"CYBLE_EVT_WSSS_INDICATION_ENABLED\000"
 4650      455F4556 
 4650      545F5753 
 4650      53535F49 
 4650      4E444943 
 4651              	.LASF221:
 4652 309b 4359424C 		.ascii	"CYBLE_EVT_GATTC_DESCR_DUPLICATION\000"
 4652      455F4556 
 4652      545F4741 
 4652      5454435F 
 4652      44455343 
 4653              	.LASF355:
 4654 30bd 4359424C 		.ascii	"CYBLE_EVT_GLSC_READ_DESCR_RESPONSE\000"
 4654      455F4556 
 4654      545F474C 
 4654      53435F52 
 4654      4541445F 
 4655              	.LASF533:
 4656 30e0 77726974 		.ascii	"writeCmdData\000"
 4656      65436D64 
 4656      44617461 
 4656      00
 4657              	.LASF309:
 4658 30ed 4359424C 		.ascii	"CYBLE_EVT_CPSC_WRITE_DESCR_RESPONSE\000"
 4658      455F4556 
 4658      545F4350 
 4658      53435F57 
 4658      52495445 
 4659              	.LASF175:
 4660 3111 4359424C 		.ascii	"CYBLE_GATT_ERR_ANCS_UNKNOWN_COMMAND\000"
 4660      455F4741 
ARM GAS  C:\Users\User\AppData\Local\Temp\cc96DgHN.s 			page 128


 4660      54545F45 
 4660      52525F41 
 4660      4E43535F 
 4661              	.LASF338:
 4662 3135 4359424C 		.ascii	"CYBLE_EVT_ESSS_DESCR_WRITE\000"
 4662      455F4556 
 4662      545F4553 
 4662      53535F44 
 4662      45534352 
 4663              	.LASF284:
 4664 3150 4359424C 		.ascii	"CYBLE_EVT_CGMSS_INDICATION_ENABLED\000"
 4664      455F4556 
 4664      545F4347 
 4664      4D53535F 
 4664      494E4449 
 4665              	.LASF538:
 4666 3173 436F6E6E 		.ascii	"ConnectToPeripheralDevice\000"
 4666      65637454 
 4666      6F506572 
 4666      69706865 
 4666      72616C44 
 4667              	.LASF186:
 4668 318d 4359424C 		.ascii	"CYBLE_CONN_HANDLE_T\000"
 4668      455F434F 
 4668      4E4E5F48 
 4668      414E444C 
 4668      455F5400 
 4669              	.LASF398:
 4670 31a1 4359424C 		.ascii	"CYBLE_EVT_IPSS_WRITE_CHAR\000"
 4670      455F4556 
 4670      545F4950 
 4670      53535F57 
 4670      52495445 
 4671              	.LASF542:
 4672 31bb 666C6167 		.ascii	"flag_Timer\000"
 4672      5F54696D 
 4672      657200
 4673              	.LASF70:
 4674 31c6 4359424C 		.ascii	"CYBLE_EVT_GATTC_HANDLE_VALUE_IND\000"
 4674      455F4556 
 4674      545F4741 
 4674      5454435F 
 4674      48414E44 
 4675              	.LASF550:
 4676 31e7 64657669 		.ascii	"deviceIndex\000"
 4676      6365496E 
 4676      64657800 
 4677              	.LASF349:
 4678 31f3 4359424C 		.ascii	"CYBLE_EVT_GLSS_NOTIFICATION_DISABLED\000"
 4678      455F4556 
 4678      545F474C 
 4678      53535F4E 
 4678      4F544946 
 4679              	.LASF361:
 4680 3218 4359424C 		.ascii	"CYBLE_EVT_HIDSS_SUSPEND\000"
 4680      455F4556 
 4680      545F4849 
ARM GAS  C:\Users\User\AppData\Local\Temp\cc96DgHN.s 			page 129


 4680      4453535F 
 4680      53555350 
 4681              	.LASF14:
 4682 3230 646F7562 		.ascii	"double\000"
 4682      6C6500
 4683              	.LASF393:
 4684 3237 4359424C 		.ascii	"CYBLE_EVT_HTSC_READ_CHAR_RESPONSE\000"
 4684      455F4556 
 4684      545F4854 
 4684      53435F52 
 4684      4541445F 
 4685              	.LASF17:
 4686 3259 70726573 		.ascii	"present\000"
 4686      656E7400 
 4687              	.LASF248:
 4688 3261 4359424C 		.ascii	"CYBLE_EVT_ANCSC_ERROR_RESPONSE\000"
 4688      455F4556 
 4688      545F414E 
 4688      4353435F 
 4688      4552524F 
 4689              	.LASF52:
 4690 3280 4359424C 		.ascii	"CYBLE_EVT_GATT_CONNECT_IND\000"
 4690      455F4556 
 4690      545F4741 
 4690      54545F43 
 4690      4F4E4E45 
 4691              	.LASF553:
 4692 329b 70657269 		.ascii	"peripAddr\000"
 4692      70416464 
 4692      7200
 4693              	.LASF47:
 4694 32a5 4359424C 		.ascii	"CYBLE_EVT_GAP_CONN_ESTB\000"
 4694      455F4556 
 4694      545F4741 
 4694      505F434F 
 4694      4E4E5F45 
 4695              	.LASF502:
 4696 32bd 4359424C 		.ascii	"CYBLE_EVT_WPTSC_WRITE_CHAR_RESPONSE\000"
 4696      455F4556 
 4696      545F5750 
 4696      5453435F 
 4696      57524954 
 4697              	.LASF341:
 4698 32e1 4359424C 		.ascii	"CYBLE_EVT_ESSC_READ_CHAR_RESPONSE\000"
 4698      455F4556 
 4698      545F4553 
 4698      53435F52 
 4698      4541445F 
 4699              	.LASF50:
 4700 3303 4359424C 		.ascii	"CYBLE_EVT_GAP_SMP_LOC_P256_KEYS_GEN_AND_SET_COMPLET"
 4700      455F4556 
 4700      545F4741 
 4700      505F534D 
 4700      505F4C4F 
 4701 3336 4500     		.ascii	"E\000"
 4702              	.LASF485:
 4703 3338 4359424C 		.ascii	"CYBLE_EVT_UDSS_READ_CHAR\000"
ARM GAS  C:\Users\User\AppData\Local\Temp\cc96DgHN.s 			page 130


 4703      455F4556 
 4703      545F5544 
 4703      53535F52 
 4703      4541445F 
 4704              	.LASF129:
 4705 3351 4359424C 		.ascii	"CYBLE_GAP_BD_ADDR_T\000"
 4705      455F4741 
 4705      505F4244 
 4705      5F414444 
 4705      525F5400 
 4706              	.LASF140:
 4707 3365 64617461 		.ascii	"data\000"
 4707      00
 4708              	.LASF308:
 4709 336a 4359424C 		.ascii	"CYBLE_EVT_CPSC_READ_DESCR_RESPONSE\000"
 4709      455F4556 
 4709      545F4350 
 4709      53435F52 
 4709      4541445F 
 4710              	.LASF220:
 4711 338d 4359424C 		.ascii	"CYBLE_EVT_GATTC_CHAR_DUPLICATION\000"
 4711      455F4556 
 4711      545F4741 
 4711      5454435F 
 4711      43484152 
 4712              	.LASF527:
 4713 33ae 4359424C 		.ascii	"CYBLE_SRVI_COUNT\000"
 4713      455F5352 
 4713      56495F43 
 4713      4F554E54 
 4713      00
 4714              	.LASF456:
 4715 33bf 4359424C 		.ascii	"CYBLE_EVT_RSCSS_INDICATION_ENABLED\000"
 4715      455F4556 
 4715      545F5253 
 4715      4353535F 
 4715      494E4449 
 4716              	.LASF289:
 4717 33e2 4359424C 		.ascii	"CYBLE_EVT_CGMSS_WRITE_CHAR\000"
 4717      455F4556 
 4717      545F4347 
 4717      4D53535F 
 4717      57524954 
 4718              	.LASF132:
 4719 33fd 4359424C 		.ascii	"CYBLE_GAPC_SCAN_UNDIRECTED_ADV\000"
 4719      455F4741 
 4719      50435F53 
 4719      43414E5F 
 4719      554E4449 
 4720              	.LASF177:
 4721 341c 4359424C 		.ascii	"CYBLE_GATT_ERR_ANCS_INVALID_PARAMETER\000"
 4721      455F4741 
 4721      54545F45 
 4721      52525F41 
 4721      4E43535F 
 4722              	.LASF457:
 4723 3442 4359424C 		.ascii	"CYBLE_EVT_RSCSS_INDICATION_DISABLED\000"
ARM GAS  C:\Users\User\AppData\Local\Temp\cc96DgHN.s 			page 131


 4723      455F4556 
 4723      545F5253 
 4723      4353535F 
 4723      494E4449 
 4724              	.LASF261:
 4725 3466 4359424C 		.ascii	"CYBLE_EVT_BASC_READ_DESCR_RESPONSE\000"
 4725      455F4556 
 4725      545F4241 
 4725      53435F52 
 4725      4541445F 
 4726              	.LASF229:
 4727 3489 4359424C 		.ascii	"CYBLE_EVT_AIOSS_INDICATION_ENABLED\000"
 4727      455F4556 
 4727      545F4149 
 4727      4F53535F 
 4727      494E4449 
 4728              	.LASF167:
 4729 34ac 4359424C 		.ascii	"CYBLE_GATT_ERR_OP_CODE_NOT_SUPPORTED\000"
 4729      455F4741 
 4729      54545F45 
 4729      52525F4F 
 4729      505F434F 
 4730              	.LASF287:
 4731 34d1 4359424C 		.ascii	"CYBLE_EVT_CGMSS_NOTIFICATION_ENABLED\000"
 4731      455F4556 
 4731      545F4347 
 4731      4D53535F 
 4731      4E4F5449 
 4732              	.LASF302:
 4733 34f6 4359424C 		.ascii	"CYBLE_EVT_CPSS_BROADCAST_DISABLED\000"
 4733      455F4556 
 4733      545F4350 
 4733      53535F42 
 4733      524F4144 
 4734              	.LASF97:
 4735 3518 4359424C 		.ascii	"CYBLE_ERROR_OOB_NOT_AVAILABLE\000"
 4735      455F4552 
 4735      524F525F 
 4735      4F4F425F 
 4735      4E4F545F 
 4736              	.LASF467:
 4737 3536 4359424C 		.ascii	"CYBLE_EVT_RTUSC_READ_CHAR_RESPONSE\000"
 4737      455F4556 
 4737      545F5254 
 4737      5553435F 
 4737      52454144 
 4738              	.LASF544:
 4739 3559 4F6E6557 		.ascii	"OneWire_DataReady\000"
 4739      6972655F 
 4739      44617461 
 4739      52656164 
 4739      7900
 4740              	.LASF410:
 4741 356b 4359424C 		.ascii	"CYBLE_EVT_LNSS_INDICATION_DISABLED\000"
 4741      455F4556 
 4741      545F4C4E 
 4741      53535F49 
ARM GAS  C:\Users\User\AppData\Local\Temp\cc96DgHN.s 			page 132


 4741      4E444943 
 4742              	.LASF498:
 4743 358e 4359424C 		.ascii	"CYBLE_EVT_WPTSS_INDICATION_CONFIRMED\000"
 4743      455F4556 
 4743      545F5750 
 4743      5453535F 
 4743      494E4449 
 4744              	.LASF250:
 4745 35b3 4359424C 		.ascii	"CYBLE_EVT_ANSS_NOTIFICATION_DISABLED\000"
 4745      455F4556 
 4745      545F414E 
 4745      53535F4E 
 4745      4F544946 
 4746              	.LASF32:
 4747 35d8 4359424C 		.ascii	"CYBLE_EVT_GAP_AUTH_FAILED\000"
 4747      455F4556 
 4747      545F4741 
 4747      505F4155 
 4747      54485F46 
 4748              	.LASF173:
 4749 35f2 4359424C 		.ascii	"CYBLE_GATTS_ERR_NETWORK_NOT_AVAILABLE\000"
 4749      455F4741 
 4749      5454535F 
 4749      4552525F 
 4749      4E455457 
 4750              	.LASF288:
 4751 3618 4359424C 		.ascii	"CYBLE_EVT_CGMSS_NOTIFICATION_DISABLED\000"
 4751      455F4556 
 4751      545F4347 
 4751      4D53535F 
 4751      4E4F5449 
 4752              	.LASF166:
 4753 363e 4359424C 		.ascii	"CYBLE_GATTS_ERR_PROCEDURE_ALREADY_IN_PROGRESS\000"
 4753      455F4741 
 4753      5454535F 
 4753      4552525F 
 4753      50524F43 
 4754              	.LASF348:
 4755 366c 4359424C 		.ascii	"CYBLE_EVT_GLSS_NOTIFICATION_ENABLED\000"
 4755      455F4556 
 4755      545F474C 
 4755      53535F4E 
 4755      4F544946 
 4756              	.LASF118:
 4757 3690 4359424C 		.ascii	"CYBLE_ERROR_LL_SAME_TRANSACTION_COLLISION\000"
 4757      455F4552 
 4757      524F525F 
 4757      4C4C5F53 
 4757      414D455F 
 4758              	.LASF425:
 4759 36ba 4359424C 		.ascii	"CYBLE_EVT_OTSS_WRITE_CHAR\000"
 4759      455F4556 
 4759      545F4F54 
 4759      53535F57 
 4759      52495445 
 4760              	.LASF74:
 4761 36d4 4359424C 		.ascii	"CYBLE_EVT_GATTS_READ_CHAR_VAL_ACCESS_REQ\000"
ARM GAS  C:\Users\User\AppData\Local\Temp\cc96DgHN.s 			page 133


 4761      455F4556 
 4761      545F4741 
 4761      5454535F 
 4761      52454144 
 4762              	.LASF76:
 4763 36fd 4359424C 		.ascii	"CYBLE_EVT_L2CAP_CONN_PARAM_UPDATE_REQ\000"
 4763      455F4556 
 4763      545F4C32 
 4763      4341505F 
 4763      434F4E4E 
 4764              	.LASF444:
 4765 3723 4359424C 		.ascii	"CYBLE_EVT_PLXSS_INDICATION_ENABLED\000"
 4765      455F4556 
 4765      545F504C 
 4765      5853535F 
 4765      494E4449 
 4766              	.LASF455:
 4767 3746 4359424C 		.ascii	"CYBLE_EVT_RSCSS_NOTIFICATION_DISABLED\000"
 4767      455F4556 
 4767      545F5253 
 4767      4353535F 
 4767      4E4F5449 
 4768              	.LASF7:
 4769 376c 6C6F6E67 		.ascii	"long long unsigned int\000"
 4769      206C6F6E 
 4769      6720756E 
 4769      7369676E 
 4769      65642069 
 4770              	.LASF252:
 4771 3783 4359424C 		.ascii	"CYBLE_EVT_ANSC_NOTIFICATION\000"
 4771      455F4556 
 4771      545F414E 
 4771      53435F4E 
 4771      4F544946 
 4772              	.LASF264:
 4773 379f 4359424C 		.ascii	"CYBLE_EVT_BCSS_INDICATION_DISABLED\000"
 4773      455F4556 
 4773      545F4243 
 4773      53535F49 
 4773      4E444943 
 4774              	.LASF382:
 4775 37c2 4359424C 		.ascii	"CYBLE_EVT_HRSC_WRITE_CHAR_RESPONSE\000"
 4775      455F4556 
 4775      545F4852 
 4775      53435F57 
 4775      52495445 
 4776              	.LASF198:
 4777 37e5 4359424C 		.ascii	"CYBLE_GATTS_WRITE_CMD_REQ_PARAM_T\000"
 4777      455F4741 
 4777      5454535F 
 4777      57524954 
 4777      455F434D 
 4778              	.LASF109:
 4779 3807 4359424C 		.ascii	"CYBLE_ERROR_L2CAP_CHANNEL_NOT_FOUND\000"
 4779      455F4552 
 4779      524F525F 
 4779      4C324341 
ARM GAS  C:\Users\User\AppData\Local\Temp\cc96DgHN.s 			page 134


 4779      505F4348 
 4780              	.LASF483:
 4781 382b 4359424C 		.ascii	"CYBLE_EVT_UDSS_NOTIFICATION_ENABLED\000"
 4781      455F4556 
 4781      545F5544 
 4781      53535F4E 
 4781      4F544946 
 4782              	.LASF352:
 4783 384f 4359424C 		.ascii	"CYBLE_EVT_GLSC_NOTIFICATION\000"
 4783      455F4556 
 4783      545F474C 
 4783      53435F4E 
 4783      4F544946 
 4784              	.LASF246:
 4785 386b 4359424C 		.ascii	"CYBLE_EVT_ANCSC_READ_DESCR_RESPONSE\000"
 4785      455F4556 
 4785      545F414E 
 4785      4353435F 
 4785      52454144 
 4786              	.LASF430:
 4787 388f 4359424C 		.ascii	"CYBLE_EVT_OTSC_WRITE_CHAR_RESPONSE\000"
 4787      455F4556 
 4787      545F4F54 
 4787      53435F57 
 4787      52495445 
 4788              	.LASF562:
 4789 38b2 4F6E6557 		.ascii	"OneWire_TSensor\000"
 4789      6972655F 
 4789      5453656E 
 4789      736F7200 
 4790              	.LASF113:
 4791 38c2 4359424C 		.ascii	"CYBLE_ERROR_FLASH_WRITE_NOT_PERMITED\000"
 4791      455F4552 
 4791      524F525F 
 4791      464C4153 
 4791      485F5752 
 4792              	.LASF233:
 4793 38e7 4359424C 		.ascii	"CYBLE_EVT_AIOSS_DESCR_WRITE\000"
 4793      455F4556 
 4793      545F4149 
 4793      4F53535F 
 4793      44455343 
 4794              	.LASF37:
 4795 3903 4359424C 		.ascii	"CYBLE_EVT_GAP_CONNECTION_UPDATE_COMPLETE\000"
 4795      455F4556 
 4795      545F4741 
 4795      505F434F 
 4795      4E4E4543 
 4796              	.LASF238:
 4797 392c 4359424C 		.ascii	"CYBLE_EVT_AIOSC_READ_DESCR_RESPONSE\000"
 4797      455F4556 
 4797      545F4149 
 4797      4F53435F 
 4797      52454144 
 4798              	.LASF526:
 4799 3950 4359424C 		.ascii	"CYBLE_SRVI_HTS\000"
 4799      455F5352 
ARM GAS  C:\Users\User\AppData\Local\Temp\cc96DgHN.s 			page 135


 4799      56495F48 
 4799      545300
 4800              	.LASF165:
 4801 395f 4359424C 		.ascii	"CYBLE_GATT_ERR_HTS_OUT_OF_RANGE\000"
 4801      455F4741 
 4801      54545F45 
 4801      52525F48 
 4801      54535F4F 
 4802              	.LASF447:
 4803 397f 4359424C 		.ascii	"CYBLE_EVT_PLXSC_NOTIFICATION\000"
 4803      455F4556 
 4803      545F504C 
 4803      5853435F 
 4803      4E4F5449 
 4804              	.LASF317:
 4805 399c 4359424C 		.ascii	"CYBLE_EVT_CSCSC_NOTIFICATION\000"
 4805      455F4556 
 4805      545F4353 
 4805      4353435F 
 4805      4E4F5449 
 4806              	.LASF465:
 4807 39b9 4359424C 		.ascii	"CYBLE_EVT_RSCSC_WRITE_DESCR_RESPONSE\000"
 4807      455F4556 
 4807      545F5253 
 4807      4353435F 
 4807      57524954 
 4808              	.LASF304:
 4809 39de 4359424C 		.ascii	"CYBLE_EVT_CPSC_NOTIFICATION\000"
 4809      455F4556 
 4809      545F4350 
 4809      53435F4E 
 4809      4F544946 
 4810              	.LASF417:
 4811 39fa 4359424C 		.ascii	"CYBLE_EVT_LNSC_READ_CHAR_RESPONSE\000"
 4811      455F4556 
 4811      545F4C4E 
 4811      53435F52 
 4811      4541445F 
 4812              	.LASF195:
 4813 3a1c 636F6E6E 		.ascii	"connHandle\000"
 4813      48616E64 
 4813      6C6500
 4814              	.LASF214:
 4815 3a27 4359424C 		.ascii	"CYBLE_EVT_GATTC_INDICATION\000"
 4815      455F4556 
 4815      545F4741 
 4815      5454435F 
 4815      494E4449 
 4816              	.LASF290:
 4817 3a42 4359424C 		.ascii	"CYBLE_EVT_CGMSC_INDICATION\000"
 4817      455F4556 
 4817      545F4347 
 4817      4D53435F 
 4817      494E4449 
 4818              	.LASF505:
 4819 3a5d 4359424C 		.ascii	"CYBLE_EVT_WPTSC_WRITE_DESCR_RESPONSE\000"
 4819      455F4556 
ARM GAS  C:\Users\User\AppData\Local\Temp\cc96DgHN.s 			page 136


 4819      545F5750 
 4819      5453435F 
 4819      57524954 
 4820              	.LASF461:
 4821 3a82 4359424C 		.ascii	"CYBLE_EVT_RSCSC_INDICATION\000"
 4821      455F4556 
 4821      545F5253 
 4821      4353435F 
 4821      494E4449 
 4822              	.LASF515:
 4823 3a9d 4359424C 		.ascii	"CYBLE_STATE_INITIALIZING\000"
 4823      455F5354 
 4823      4154455F 
 4823      494E4954 
 4823      49414C49 
 4824              	.LASF216:
 4825 3ab6 4359424C 		.ascii	"CYBLE_EVT_GATTC_INCL_DISCOVERY_FAILED\000"
 4825      455F4556 
 4825      545F4741 
 4825      5454435F 
 4825      494E434C 
 4826              	.LASF303:
 4827 3adc 4359424C 		.ascii	"CYBLE_EVT_CPSS_CHAR_WRITE\000"
 4827      455F4556 
 4827      545F4350 
 4827      53535F43 
 4827      4841525F 
 4828              	.LASF90:
 4829 3af6 4359424C 		.ascii	"CYBLE_EVT_FLASH_CORRUPT\000"
 4829      455F4556 
 4829      545F464C 
 4829      4153485F 
 4829      434F5252 
 4830              	.LASF337:
 4831 3b0e 4359424C 		.ascii	"CYBLE_EVT_ESSS_CHAR_WRITE\000"
 4831      455F4556 
 4831      545F4553 
 4831      53535F43 
 4831      4841525F 
 4832              	.LASF497:
 4833 3b28 4359424C 		.ascii	"CYBLE_EVT_WPTSS_INDICATION_DISABLED\000"
 4833      455F4556 
 4833      545F5750 
 4833      5453535F 
 4833      494E4449 
 4834              	.LASF350:
 4835 3b4c 4359424C 		.ascii	"CYBLE_EVT_GLSS_WRITE_CHAR\000"
 4835      455F4556 
 4835      545F474C 
 4835      53535F57 
 4835      52495445 
 4836              	.LASF500:
 4837 3b66 4359424C 		.ascii	"CYBLE_EVT_WPTSC_NOTIFICATION\000"
 4837      455F4556 
 4837      545F5750 
 4837      5453435F 
 4837      4E4F5449 
ARM GAS  C:\Users\User\AppData\Local\Temp\cc96DgHN.s 			page 137


 4838              	.LASF40:
 4839 3b83 4359424C 		.ascii	"CYBLE_EVT_GAP_NUMERIC_COMPARISON_REQUEST\000"
 4839      455F4556 
 4839      545F4741 
 4839      505F4E55 
 4839      4D455249 
 4840              	.LASF373:
 4841 3bac 4359424C 		.ascii	"CYBLE_EVT_HPSC_READ_CHAR_RESPONSE\000"
 4841      455F4556 
 4841      545F4850 
 4841      53435F52 
 4841      4541445F 
 4842              	.LASF49:
 4843 3bce 4359424C 		.ascii	"CYBLE_EVT_GAP_AUTH_REQ_REPLY_ERR\000"
 4843      455F4556 
 4843      545F4741 
 4843      505F4155 
 4843      54485F52 
 4844              	.LASF558:
 4845 3bef 63656E74 		.ascii	"centralStartedTime\000"
 4845      72616C53 
 4845      74617274 
 4845      65645469 
 4845      6D6500
 4846              	.LASF260:
 4847 3c02 4359424C 		.ascii	"CYBLE_EVT_BASC_READ_CHAR_RESPONSE\000"
 4847      455F4556 
 4847      545F4241 
 4847      53435F52 
 4847      4541445F 
 4848              	.LASF156:
 4849 3c24 4359424C 		.ascii	"CYBLE_GATT_ERR_INVALID_ATTRIBUTE_LEN\000"
 4849      455F4741 
 4849      54545F45 
 4849      52525F49 
 4849      4E56414C 
 4850              	.LASF6:
 4851 3c49 6C6F6E67 		.ascii	"long long int\000"
 4851      206C6F6E 
 4851      6720696E 
 4851      7400
 4852              	.LASF481:
 4853 3c57 4359424C 		.ascii	"CYBLE_EVT_UDSS_INDICATION_DISABLED\000"
 4853      455F4556 
 4853      545F5544 
 4853      53535F49 
 4853      4E444943 
 4854              	.LASF298:
 4855 3c7a 4359424C 		.ascii	"CYBLE_EVT_CPSS_INDICATION_ENABLED\000"
 4855      455F4556 
 4855      545F4350 
 4855      53535F49 
 4855      4E444943 
 4856              	.LASF212:
 4857 3c9c 4359424C 		.ascii	"CYBLE_EVT_GATTS_INDICATION_ENABLED\000"
 4857      455F4556 
 4857      545F4741 
ARM GAS  C:\Users\User\AppData\Local\Temp\cc96DgHN.s 			page 138


 4857      5454535F 
 4857      494E4449 
 4858              	.LASF38:
 4859 3cbf 4359424C 		.ascii	"CYBLE_EVT_GAPC_SCAN_START_STOP\000"
 4859      455F4556 
 4859      545F4741 
 4859      50435F53 
 4859      43414E5F 
 4860              	.LASF142:
 4861 3cde 4359424C 		.ascii	"CYBLE_GAPC_ADV_REPORT_T\000"
 4861      455F4741 
 4861      50435F41 
 4861      44565F52 
 4861      45504F52 
 4862              	.LASF71:
 4863 3cf6 4359424C 		.ascii	"CYBLE_EVT_GATTS_HANDLE_VALUE_CNF\000"
 4863      455F4556 
 4863      545F4741 
 4863      5454535F 
 4863      48414E44 
 4864              	.LASF213:
 4865 3d17 4359424C 		.ascii	"CYBLE_EVT_GATTS_INDICATION_DISABLED\000"
 4865      455F4556 
 4865      545F4741 
 4865      5454535F 
 4865      494E4449 
 4866              	.LASF105:
 4867 3d3b 4359424C 		.ascii	"CYBLE_ERROR_L2CAP_PSM_WRONG_ENCODING\000"
 4867      455F4552 
 4867      524F525F 
 4867      4C324341 
 4867      505F5053 
 4868              	.LASF537:
 4869 3d60 53776974 		.ascii	"SwitchRole\000"
 4869      6368526F 
 4869      6C6500
 4870              	.LASF163:
 4871 3d6b 4359424C 		.ascii	"CYBLE_GATT_ERR_USER_DATA_ACCESS_NOT_PERMITTED\000"
 4871      455F4741 
 4871      54545F45 
 4871      52525F55 
 4871      5345525F 
 4872              	.LASF358:
 4873 3d99 4359424C 		.ascii	"CYBLE_EVT_HIDSS_NOTIFICATION_DISABLED\000"
 4873      455F4556 
 4873      545F4849 
 4873      4453535F 
 4873      4E4F5449 
 4874              	.LASF168:
 4875 3dbf 4359424C 		.ascii	"CYBLE_GATT_ERR_MISSING_CRC\000"
 4875      455F4741 
 4875      54545F45 
 4875      52525F4D 
 4875      49535349 
 4876              	.LASF63:
 4877 3dda 4359424C 		.ascii	"CYBLE_EVT_GATTS_WRITE_REQ\000"
 4877      455F4556 
ARM GAS  C:\Users\User\AppData\Local\Temp\cc96DgHN.s 			page 139


 4877      545F4741 
 4877      5454535F 
 4877      57524954 
 4878              	.LASF75:
 4879 3df4 4359424C 		.ascii	"CYBLE_EVT_GATTC_LONG_PROCEDURE_END\000"
 4879      455F4556 
 4879      545F4741 
 4879      5454435F 
 4879      4C4F4E47 
 4880              	.LASF277:
 4881 3e17 4359424C 		.ascii	"CYBLE_EVT_BLSC_READ_CHAR_RESPONSE\000"
 4881      455F4556 
 4881      545F424C 
 4881      53435F52 
 4881      4541445F 
 4882              	.LASF57:
 4883 3e39 4359424C 		.ascii	"CYBLE_EVT_GATTC_READ_BY_TYPE_RSP\000"
 4883      455F4556 
 4883      545F4741 
 4883      5454435F 
 4883      52454144 
 4884              	.LASF115:
 4885 3e5a 4359424C 		.ascii	"CYBLE_ERROR_HARDWARE_FAILURE\000"
 4885      455F4552 
 4885      524F525F 
 4885      48415244 
 4885      57415245 
 4886              	.LASF84:
 4887 3e77 4359424C 		.ascii	"CYBLE_EVT_L2CAP_CBFC_RX_CREDIT_IND\000"
 4887      455F4556 
 4887      545F4C32 
 4887      4341505F 
 4887      43424643 
 4888              	.LASF272:
 4889 3e9a 4359424C 		.ascii	"CYBLE_EVT_BLSS_INDICATION_CONFIRMED\000"
 4889      455F4556 
 4889      545F424C 
 4889      53535F49 
 4889      4E444943 
 4890              	.LASF359:
 4891 3ebe 4359424C 		.ascii	"CYBLE_EVT_HIDSS_BOOT_MODE_ENTER\000"
 4891      455F4556 
 4891      545F4849 
 4891      4453535F 
 4891      424F4F54 
 4892              	.LASF554:
 4893 3ede 636C6965 		.ascii	"clientConnectToDevice\000"
 4893      6E74436F 
 4893      6E6E6563 
 4893      74546F44 
 4893      65766963 
 4894              	.LASF504:
 4895 3ef4 4359424C 		.ascii	"CYBLE_EVT_WPTSC_READ_DESCR_RESPONSE\000"
 4895      455F4556 
 4895      545F5750 
 4895      5453435F 
 4895      52454144 
ARM GAS  C:\Users\User\AppData\Local\Temp\cc96DgHN.s 			page 140


 4896              	.LASF451:
 4897 3f18 4359424C 		.ascii	"CYBLE_EVT_PLXSC_READ_DESCR_RESPONSE\000"
 4897      455F4556 
 4897      545F504C 
 4897      5853435F 
 4897      52454144 
 4898              	.LASF365:
 4899 3f3c 4359424C 		.ascii	"CYBLE_EVT_HIDSC_READ_CHAR_RESPONSE\000"
 4899      455F4556 
 4899      545F4849 
 4899      4453435F 
 4899      52454144 
 4900              	.LASF42:
 4901 3f5f 4359424C 		.ascii	"CYBLE_EVT_GAP_OOB_GENERATED_NOTIFICATION\000"
 4901      455F4556 
 4901      545F4741 
 4901      505F4F4F 
 4901      425F4745 
 4902              	.LASF371:
 4903 3f88 4359424C 		.ascii	"CYBLE_EVT_HPSS_CHAR_WRITE\000"
 4903      455F4556 
 4903      545F4850 
 4903      53535F43 
 4903      4841525F 
 4904              	.LASF408:
 4905 3fa2 4359424C 		.ascii	"CYBLE_EVT_LLSC_WRITE_CHAR_RESPONSE\000"
 4905      455F4556 
 4905      545F4C4C 
 4905      53435F57 
 4905      52495445 
 4906              	.LASF131:
 4907 3fc5 4359424C 		.ascii	"CYBLE_GAPC_CONN_DIRECTED_ADV\000"
 4907      455F4741 
 4907      50435F43 
 4907      4F4E4E5F 
 4907      44495245 
 4908              	.LASF205:
 4909 3fe2 4359424C 		.ascii	"CYBLE_HTS_CCCD\000"
 4909      455F4854 
 4909      535F4343 
 4909      434400
 4910              	.LASF133:
 4911 3ff1 4359424C 		.ascii	"CYBLE_GAPC_NON_CONN_UNDIRECTED_ADV\000"
 4911      455F4741 
 4911      50435F4E 
 4911      4F4E5F43 
 4911      4F4E4E5F 
 4912              	.LASF209:
 4913 4014 4359424C 		.ascii	"CYBLE_PASSKEY_ENTRY_REQUEST_REPLY\000"
 4913      455F5041 
 4913      53534B45 
 4913      595F454E 
 4913      5452595F 
 4914              	.LASF85:
 4915 4036 4359424C 		.ascii	"CYBLE_EVT_L2CAP_CBFC_TX_CREDIT_IND\000"
 4915      455F4556 
 4915      545F4C32 
ARM GAS  C:\Users\User\AppData\Local\Temp\cc96DgHN.s 			page 141


 4915      4341505F 
 4915      43424643 
 4916              	.LASF234:
 4917 4059 4359424C 		.ascii	"CYBLE_EVT_AIOSC_NOTIFICATION\000"
 4917      455F4556 
 4917      545F4149 
 4917      4F53435F 
 4917      4E4F5449 
 4918              	.LASF190:
 4919 4076 61747472 		.ascii	"attrHandle\000"
 4919      48616E64 
 4919      6C6500
 4920              	.LASF183:
 4921 4081 4359424C 		.ascii	"CYBLE_GATT_DB_ATTR_HANDLE_T\000"
 4921      455F4741 
 4921      54545F44 
 4921      425F4154 
 4921      54525F48 
 4922              	.LASF477:
 4923 409d 4359424C 		.ascii	"CYBLE_EVT_TPSC_READ_CHAR_RESPONSE\000"
 4923      455F4556 
 4923      545F5450 
 4923      53435F52 
 4923      4541445F 
 4924              	.LASF423:
 4925 40bf 4359424C 		.ascii	"CYBLE_EVT_OTSS_INDICATION_DISABLED\000"
 4925      455F4556 
 4925      545F4F54 
 4925      53535F49 
 4925      4E444943 
 4926              	.LASF8:
 4927 40e2 756E7369 		.ascii	"unsigned int\000"
 4927      676E6564 
 4927      20696E74 
 4927      00
 4928              	.LASF44:
 4929 40ef 4359424C 		.ascii	"CYBLE_EVT_GAP_ENHANCE_CONN_COMPLETE\000"
 4929      455F4556 
 4929      545F4741 
 4929      505F454E 
 4929      48414E43 
 4930              	.LASF489:
 4931 4113 4359424C 		.ascii	"CYBLE_EVT_UDSC_READ_CHAR_RESPONSE\000"
 4931      455F4556 
 4931      545F5544 
 4931      53435F52 
 4931      4541445F 
 4932              	.LASF158:
 4933 4135 4359424C 		.ascii	"CYBLE_GATT_ERR_INSUFFICIENT_ENCRYPTION\000"
 4933      455F4741 
 4933      54545F45 
 4933      52525F49 
 4933      4E535546 
 4934              	.LASF2:
 4935 415c 73686F72 		.ascii	"short int\000"
 4935      7420696E 
 4935      7400
ARM GAS  C:\Users\User\AppData\Local\Temp\cc96DgHN.s 			page 142


 4936              	.LASF318:
 4937 4166 4359424C 		.ascii	"CYBLE_EVT_CSCSC_INDICATION\000"
 4937      455F4556 
 4937      545F4353 
 4937      4353435F 
 4937      494E4449 
 4938              	.LASF532:
 4939 4181 7363616E 		.ascii	"scan_report\000"
 4939      5F726570 
 4939      6F727400 
 4940              	.LASF145:
 4941 418d 4359424C 		.ascii	"CYBLE_GATT_ERR_READ_NOT_PERMITTED\000"
 4941      455F4741 
 4941      54545F45 
 4941      52525F52 
 4941      4541445F 
 4942              	.LASF30:
 4943 41af 4359424C 		.ascii	"CYBLE_EVT_GAP_PASSKEY_DISPLAY_REQUEST\000"
 4943      455F4556 
 4943      545F4741 
 4943      505F5041 
 4943      53534B45 
 4944              	.LASF488:
 4945 41d5 4359424C 		.ascii	"CYBLE_EVT_UDSC_NOTIFICATION\000"
 4945      455F4556 
 4945      545F5544 
 4945      53435F4E 
 4945      4F544946 
 4946              	.LASF342:
 4947 41f1 4359424C 		.ascii	"CYBLE_EVT_ESSC_WRITE_CHAR_RESPONSE\000"
 4947      455F4556 
 4947      545F4553 
 4947      53435F57 
 4947      52495445 
 4948              	.LASF182:
 4949 4214 4359424C 		.ascii	"CYBLE_GATT_ERR_CODE_T\000"
 4949      455F4741 
 4949      54545F45 
 4949      52525F43 
 4949      4F44455F 
 4950              	.LASF386:
 4951 422a 4359424C 		.ascii	"CYBLE_EVT_HTSS_NOTIFICATION_DISABLED\000"
 4951      455F4556 
 4951      545F4854 
 4951      53535F4E 
 4951      4F544946 
 4952              	.LASF383:
 4953 424f 4359424C 		.ascii	"CYBLE_EVT_HRSC_READ_DESCR_RESPONSE\000"
 4953      455F4556 
 4953      545F4852 
 4953      53435F52 
 4953      4541445F 
 4954              	.LASF327:
 4955 4272 4359424C 		.ascii	"CYBLE_EVT_CTSC_READ_CHAR_RESPONSE\000"
 4955      455F4556 
 4955      545F4354 
 4955      53435F52 
ARM GAS  C:\Users\User\AppData\Local\Temp\cc96DgHN.s 			page 143


 4955      4541445F 
 4956              	.LASF339:
 4957 4294 4359424C 		.ascii	"CYBLE_EVT_ESSC_NOTIFICATION\000"
 4957      455F4556 
 4957      545F4553 
 4957      53435F4E 
 4957      4F544946 
 4958              	.LASF279:
 4959 42b0 4359424C 		.ascii	"CYBLE_EVT_BLSC_WRITE_DESCR_RESPONSE\000"
 4959      455F4556 
 4959      545F424C 
 4959      53435F57 
 4959      52495445 
 4960              	.LASF116:
 4961 42d4 4359424C 		.ascii	"CYBLE_ERROR_UNSUPPORTED_FEATURE_OR_PARAMETER_VALUE\000"
 4961      455F4552 
 4961      524F525F 
 4961      554E5355 
 4961      50504F52 
 4962              		.ident	"GCC: (GNU Tools for ARM Embedded Processors) 5.4.1 20160609 (release) [ARM/embedded-5-bran
