ARM GAS  C:\Users\User\AppData\Local\Temp\ccMn0wdH.s 			page 1


   1              		.syntax unified
   2              		.cpu cortex-m0
   3              		.fpu softvfp
   4              		.eabi_attribute 20, 1
   5              		.eabi_attribute 21, 1
   6              		.eabi_attribute 23, 3
   7              		.eabi_attribute 24, 1
   8              		.eabi_attribute 25, 1
   9              		.eabi_attribute 26, 1
  10              		.eabi_attribute 30, 6
  11              		.eabi_attribute 34, 0
  12              		.eabi_attribute 18, 4
  13              		.thumb
  14              		.syntax unified
  15              		.file	"BLE_gatt.c"
  16              		.text
  17              	.Ltext0:
  18              		.cfi_sections	.debug_frame
  19              		.comm	cyBle_state,1,1
  20              		.global	cyBle_flashStorage
  21              		.section	.cy_checksum_exclude,"a",%progbits
  22              		.align	8
  23              		.type	cyBle_flashStorage, %object
  24              		.size	cyBle_flashStorage, 675
  25              	cyBle_flashStorage:
  26 0000 00       		.byte	0
  27 0001 00       		.byte	0
  28 0002 00       		.byte	0
  29 0003 00       		.byte	0
  30 0004 00       		.byte	0
  31 0005 00       		.byte	0
  32 0006 00       		.byte	0
  33 0007 00       		.byte	0
  34 0008 00       		.byte	0
  35 0009 00       		.byte	0
  36 000a 00       		.byte	0
  37 000b 00       		.byte	0
  38 000c 00       		.byte	0
  39 000d 00       		.byte	0
  40 000e 00       		.byte	0
  41 000f 00       		.byte	0
  42 0010 00       		.byte	0
  43 0011 00       		.byte	0
  44 0012 00       		.byte	0
  45 0013 00       		.byte	0
  46 0014 00       		.byte	0
  47 0015 00       		.byte	0
  48 0016 00       		.byte	0
  49 0017 00       		.byte	0
  50 0018 00       		.byte	0
  51 0019 00       		.byte	0
  52 001a 00       		.byte	0
  53 001b 00       		.byte	0
  54 001c 00       		.byte	0
  55 001d 00       		.byte	0
  56 001e 00       		.byte	0
  57 001f 00       		.byte	0
ARM GAS  C:\Users\User\AppData\Local\Temp\ccMn0wdH.s 			page 2


  58 0020 00       		.byte	0
  59 0021 00       		.byte	0
  60 0022 00       		.byte	0
  61 0023 00       		.byte	0
  62 0024 00       		.byte	0
  63 0025 00       		.byte	0
  64 0026 00       		.byte	0
  65 0027 00       		.byte	0
  66 0028 00       		.byte	0
  67 0029 00       		.byte	0
  68 002a 00       		.byte	0
  69 002b 00       		.byte	0
  70 002c 00       		.byte	0
  71 002d 00       		.byte	0
  72 002e 00       		.byte	0
  73 002f 00       		.byte	0
  74 0030 00       		.byte	0
  75 0031 00       		.byte	0
  76 0032 00       		.byte	0
  77 0033 00       		.byte	0
  78 0034 00       		.byte	0
  79 0035 00       		.byte	0
  80 0036 00       		.byte	0
  81 0037 00       		.byte	0
  82 0038 00       		.byte	0
  83 0039 00       		.byte	0
  84 003a 00       		.byte	0
  85 003b 00       		.byte	0
  86 003c 00       		.byte	0
  87 003d 00       		.byte	0
  88 003e 00       		.byte	0
  89 003f 00       		.byte	0
  90 0040 00       		.byte	0
  91 0041 00       		.byte	0
  92 0042 00       		.byte	0
  93 0043 00       		.byte	0
  94 0044 00       		.byte	0
  95 0045 00       		.byte	0
  96 0046 00       		.byte	0
  97 0047 00       		.byte	0
  98 0048 00       		.byte	0
  99 0049 00       		.byte	0
 100 004a 00       		.byte	0
 101 004b 00       		.byte	0
 102 004c 00       		.byte	0
 103 004d 00       		.byte	0
 104 004e 00       		.byte	0
 105 004f 00       		.byte	0
 106 0050 00       		.byte	0
 107 0051 00       		.byte	0
 108 0052 00       		.byte	0
 109 0053 00       		.byte	0
 110 0054 00       		.byte	0
 111 0055 00       		.byte	0
 112 0056 00       		.byte	0
 113 0057 00       		.byte	0
 114 0058 00       		.byte	0
ARM GAS  C:\Users\User\AppData\Local\Temp\ccMn0wdH.s 			page 3


 115 0059 00       		.byte	0
 116 005a 00       		.byte	0
 117 005b 00       		.byte	0
 118 005c 00       		.byte	0
 119 005d 00       		.byte	0
 120 005e 00       		.byte	0
 121 005f 00       		.byte	0
 122 0060 00       		.byte	0
 123 0061 00       		.byte	0
 124 0062 00       		.byte	0
 125 0063 00       		.byte	0
 126 0064 00       		.byte	0
 127 0065 00       		.byte	0
 128 0066 00       		.byte	0
 129 0067 00       		.byte	0
 130 0068 00       		.byte	0
 131 0069 00       		.byte	0
 132 006a 00       		.byte	0
 133 006b 00       		.byte	0
 134 006c 00       		.byte	0
 135 006d 00       		.byte	0
 136 006e 00       		.byte	0
 137 006f 00       		.byte	0
 138 0070 00       		.byte	0
 139 0071 00       		.byte	0
 140 0072 00       		.byte	0
 141 0073 00       		.byte	0
 142 0074 00       		.byte	0
 143 0075 00       		.byte	0
 144 0076 00       		.byte	0
 145 0077 00       		.byte	0
 146 0078 00       		.byte	0
 147 0079 00       		.byte	0
 148 007a 00       		.byte	0
 149 007b 00       		.byte	0
 150 007c 00       		.byte	0
 151 007d 00       		.byte	0
 152 007e 00       		.byte	0
 153 007f 00       		.byte	0
 154 0080 00       		.byte	0
 155 0081 00       		.byte	0
 156 0082 00       		.byte	0
 157 0083 00       		.byte	0
 158 0084 00       		.byte	0
 159 0085 00       		.byte	0
 160 0086 00       		.byte	0
 161 0087 00       		.byte	0
 162 0088 00       		.byte	0
 163 0089 00       		.byte	0
 164 008a 00       		.byte	0
 165 008b 00       		.byte	0
 166 008c 00       		.byte	0
 167 008d 00       		.byte	0
 168 008e 00       		.byte	0
 169 008f 00       		.byte	0
 170 0090 00       		.byte	0
 171 0091 00       		.byte	0
ARM GAS  C:\Users\User\AppData\Local\Temp\ccMn0wdH.s 			page 4


 172 0092 00       		.byte	0
 173 0093 00       		.byte	0
 174 0094 00       		.byte	0
 175 0095 00       		.byte	0
 176 0096 00       		.byte	0
 177 0097 00       		.byte	0
 178 0098 00       		.byte	0
 179 0099 00       		.byte	0
 180 009a 00       		.byte	0
 181 009b 00       		.byte	0
 182 009c 00       		.byte	0
 183 009d 00       		.byte	0
 184 009e 00       		.byte	0
 185 009f 00       		.byte	0
 186 00a0 00       		.byte	0
 187 00a1 00       		.byte	0
 188 00a2 00       		.byte	0
 189 00a3 00       		.byte	0
 190 00a4 00       		.byte	0
 191 00a5 00       		.byte	0
 192 00a6 00       		.byte	0
 193 00a7 00       		.byte	0
 194 00a8 00       		.byte	0
 195 00a9 00       		.byte	0
 196 00aa 00       		.byte	0
 197 00ab 00       		.byte	0
 198 00ac 00       		.byte	0
 199 00ad 00       		.byte	0
 200 00ae 00       		.byte	0
 201 00af 00       		.byte	0
 202 00b0 00       		.byte	0
 203 00b1 00       		.byte	0
 204 00b2 00       		.byte	0
 205 00b3 00       		.byte	0
 206 00b4 00       		.byte	0
 207 00b5 00       		.byte	0
 208 00b6 00       		.byte	0
 209 00b7 00       		.byte	0
 210 00b8 00       		.byte	0
 211 00b9 00       		.byte	0
 212 00ba 00       		.byte	0
 213 00bb 00       		.byte	0
 214 00bc 00       		.byte	0
 215 00bd 00       		.byte	0
 216 00be 00       		.byte	0
 217 00bf 00       		.byte	0
 218 00c0 00       		.byte	0
 219 00c1 00       		.byte	0
 220 00c2 00       		.byte	0
 221 00c3 00       		.byte	0
 222 00c4 00       		.byte	0
 223 00c5 00       		.byte	0
 224 00c6 00       		.byte	0
 225 00c7 00       		.byte	0
 226 00c8 00       		.byte	0
 227 00c9 00       		.byte	0
 228 00ca 00       		.byte	0
ARM GAS  C:\Users\User\AppData\Local\Temp\ccMn0wdH.s 			page 5


 229 00cb 00       		.byte	0
 230 00cc 00       		.byte	0
 231 00cd 00       		.byte	0
 232 00ce 00       		.byte	0
 233 00cf 00       		.byte	0
 234 00d0 00       		.byte	0
 235 00d1 00       		.byte	0
 236 00d2 00       		.byte	0
 237 00d3 00       		.byte	0
 238 00d4 00       		.byte	0
 239 00d5 00       		.byte	0
 240 00d6 00       		.byte	0
 241 00d7 00       		.byte	0
 242 00d8 00       		.byte	0
 243 00d9 00       		.byte	0
 244 00da 00       		.byte	0
 245 00db 00       		.byte	0
 246 00dc 00       		.byte	0
 247 00dd 00       		.byte	0
 248 00de 00       		.byte	0
 249 00df 00       		.byte	0
 250 00e0 00       		.byte	0
 251 00e1 00       		.byte	0
 252 00e2 00       		.byte	0
 253 00e3 00       		.byte	0
 254 00e4 00       		.byte	0
 255 00e5 00       		.byte	0
 256 00e6 00       		.byte	0
 257 00e7 00       		.byte	0
 258 00e8 00       		.byte	0
 259 00e9 00       		.byte	0
 260 00ea 00       		.byte	0
 261 00eb 00       		.byte	0
 262 00ec 00       		.byte	0
 263 00ed 00       		.byte	0
 264 00ee 00       		.byte	0
 265 00ef 00       		.byte	0
 266 00f0 00       		.byte	0
 267 00f1 00       		.byte	0
 268 00f2 00       		.byte	0
 269 00f3 00       		.byte	0
 270 00f4 00       		.byte	0
 271 00f5 00       		.byte	0
 272 00f6 00       		.byte	0
 273 00f7 00       		.byte	0
 274 00f8 00       		.byte	0
 275 00f9 00       		.byte	0
 276 00fa 00       		.byte	0
 277 00fb 00       		.byte	0
 278 00fc 00       		.byte	0
 279 00fd 00       		.byte	0
 280 00fe 00       		.byte	0
 281 00ff 00       		.byte	0
 282 0100 00       		.byte	0
 283 0101 00       		.byte	0
 284 0102 00       		.byte	0
 285 0103 00       		.byte	0
ARM GAS  C:\Users\User\AppData\Local\Temp\ccMn0wdH.s 			page 6


 286 0104 00       		.byte	0
 287 0105 00       		.byte	0
 288 0106 00       		.byte	0
 289 0107 00       		.byte	0
 290 0108 00       		.byte	0
 291 0109 00       		.byte	0
 292 010a 00       		.byte	0
 293 010b 00       		.byte	0
 294 010c 00       		.byte	0
 295 010d 00       		.byte	0
 296 010e 00       		.byte	0
 297 010f 00       		.byte	0
 298 0110 00       		.byte	0
 299 0111 00       		.byte	0
 300 0112 00       		.byte	0
 301 0113 00       		.byte	0
 302 0114 00       		.byte	0
 303 0115 00       		.byte	0
 304 0116 00       		.byte	0
 305 0117 00       		.byte	0
 306 0118 00       		.byte	0
 307 0119 00       		.byte	0
 308 011a 00       		.byte	0
 309 011b 00       		.byte	0
 310 011c 00       		.byte	0
 311 011d 00       		.byte	0
 312 011e 00       		.byte	0
 313 011f 00       		.byte	0
 314 0120 00       		.byte	0
 315 0121 00       		.byte	0
 316 0122 00       		.byte	0
 317 0123 00       		.byte	0
 318 0124 00       		.byte	0
 319 0125 00       		.byte	0
 320 0126 00       		.byte	0
 321 0127 00       		.byte	0
 322 0128 00       		.byte	0
 323 0129 00       		.byte	0
 324 012a 00       		.byte	0
 325 012b 00       		.byte	0
 326 012c 00       		.byte	0
 327 012d 00       		.byte	0
 328 012e 00       		.byte	0
 329 012f 00       		.byte	0
 330 0130 00       		.byte	0
 331 0131 00       		.byte	0
 332 0132 00       		.byte	0
 333 0133 00       		.byte	0
 334 0134 00       		.byte	0
 335 0135 00       		.byte	0
 336 0136 00       		.byte	0
 337 0137 00       		.byte	0
 338 0138 00       		.byte	0
 339 0139 00       		.byte	0
 340 013a 00       		.byte	0
 341 013b 00       		.byte	0
 342 013c 00       		.byte	0
ARM GAS  C:\Users\User\AppData\Local\Temp\ccMn0wdH.s 			page 7


 343 013d 00       		.byte	0
 344 013e 00       		.byte	0
 345 013f 00       		.byte	0
 346 0140 00       		.byte	0
 347 0141 00       		.byte	0
 348 0142 00       		.byte	0
 349 0143 00       		.byte	0
 350 0144 00       		.byte	0
 351 0145 00       		.byte	0
 352 0146 00       		.byte	0
 353 0147 00       		.byte	0
 354 0148 00       		.byte	0
 355 0149 00       		.byte	0
 356 014a 00       		.byte	0
 357 014b 00       		.byte	0
 358 014c 00       		.byte	0
 359 014d 00       		.byte	0
 360 014e 00       		.byte	0
 361 014f 00       		.byte	0
 362 0150 00       		.byte	0
 363 0151 00       		.byte	0
 364 0152 00       		.byte	0
 365 0153 00       		.byte	0
 366 0154 00       		.byte	0
 367 0155 00       		.byte	0
 368 0156 00       		.byte	0
 369 0157 00       		.byte	0
 370 0158 00       		.byte	0
 371 0159 00       		.byte	0
 372 015a 00       		.byte	0
 373 015b 00       		.byte	0
 374 015c 00       		.byte	0
 375 015d 00       		.byte	0
 376 015e 00       		.byte	0
 377 015f 00       		.byte	0
 378 0160 00       		.byte	0
 379 0161 00       		.byte	0
 380 0162 00       		.byte	0
 381 0163 00       		.byte	0
 382 0164 00       		.byte	0
 383 0165 00       		.byte	0
 384 0166 00       		.byte	0
 385 0167 00       		.byte	0
 386 0168 00       		.byte	0
 387 0169 00       		.byte	0
 388 016a 00       		.byte	0
 389 016b 00       		.byte	0
 390 016c 00       		.byte	0
 391 016d 00       		.byte	0
 392 016e 00       		.byte	0
 393 016f 00       		.byte	0
 394 0170 00       		.byte	0
 395 0171 00       		.byte	0
 396 0172 00       		.byte	0
 397 0173 00       		.byte	0
 398 0174 00       		.byte	0
 399 0175 00       		.byte	0
ARM GAS  C:\Users\User\AppData\Local\Temp\ccMn0wdH.s 			page 8


 400 0176 00       		.byte	0
 401 0177 00       		.byte	0
 402 0178 00       		.byte	0
 403 0179 00       		.byte	0
 404 017a 00       		.byte	0
 405 017b 00       		.byte	0
 406 017c 00       		.byte	0
 407 017d 00       		.byte	0
 408 017e 00       		.byte	0
 409 017f 00       		.byte	0
 410 0180 00       		.byte	0
 411 0181 00       		.byte	0
 412 0182 00       		.byte	0
 413 0183 00       		.byte	0
 414 0184 00       		.byte	0
 415 0185 00       		.byte	0
 416 0186 00       		.byte	0
 417 0187 00       		.byte	0
 418 0188 00       		.byte	0
 419 0189 00       		.byte	0
 420 018a 00       		.byte	0
 421 018b 00       		.byte	0
 422 018c 00       		.byte	0
 423 018d 00       		.byte	0
 424 018e 00       		.byte	0
 425 018f 00       		.byte	0
 426 0190 00       		.byte	0
 427 0191 00       		.byte	0
 428 0192 00       		.byte	0
 429 0193 00       		.byte	0
 430 0194 00       		.byte	0
 431 0195 00       		.byte	0
 432 0196 00       		.byte	0
 433 0197 00       		.byte	0
 434 0198 00       		.byte	0
 435 0199 00       		.byte	0
 436 019a 00       		.byte	0
 437 019b 00       		.byte	0
 438 019c 00       		.byte	0
 439 019d 00       		.byte	0
 440 019e 00       		.byte	0
 441 019f 00       		.byte	0
 442 01a0 00       		.byte	0
 443 01a1 00       		.byte	0
 444 01a2 00       		.byte	0
 445 01a3 00       		.byte	0
 446 01a4 00       		.byte	0
 447 01a5 00       		.byte	0
 448 01a6 00       		.byte	0
 449 01a7 00       		.byte	0
 450 01a8 00       		.byte	0
 451 01a9 00       		.byte	0
 452 01aa 00       		.byte	0
 453 01ab 00       		.byte	0
 454 01ac 00       		.byte	0
 455 01ad 00       		.byte	0
 456 01ae 00       		.byte	0
ARM GAS  C:\Users\User\AppData\Local\Temp\ccMn0wdH.s 			page 9


 457 01af 00       		.byte	0
 458 01b0 00       		.byte	0
 459 01b1 00       		.byte	0
 460 01b2 00       		.byte	0
 461 01b3 00       		.byte	0
 462 01b4 00       		.byte	0
 463 01b5 00       		.byte	0
 464 01b6 00       		.byte	0
 465 01b7 00       		.byte	0
 466 01b8 00       		.byte	0
 467 01b9 00       		.byte	0
 468 01ba 00       		.byte	0
 469 01bb 00       		.byte	0
 470 01bc 00       		.byte	0
 471 01bd 00       		.byte	0
 472 01be 00       		.byte	0
 473 01bf 00       		.byte	0
 474 01c0 00       		.byte	0
 475 01c1 00       		.byte	0
 476 01c2 00       		.byte	0
 477 01c3 00       		.byte	0
 478 01c4 00       		.byte	0
 479 01c5 00       		.byte	0
 480 01c6 00       		.byte	0
 481 01c7 00       		.byte	0
 482 01c8 00       		.byte	0
 483 01c9 00       		.byte	0
 484 01ca 00       		.byte	0
 485 01cb 00       		.byte	0
 486 01cc 00       		.byte	0
 487 01cd 00       		.byte	0
 488 01ce 00       		.byte	0
 489 01cf 00       		.byte	0
 490 01d0 00       		.byte	0
 491 01d1 00       		.byte	0
 492 01d2 00       		.byte	0
 493 01d3 00       		.byte	0
 494 01d4 00       		.byte	0
 495 01d5 00       		.byte	0
 496 01d6 00       		.byte	0
 497 01d7 00       		.byte	0
 498 01d8 00       		.byte	0
 499 01d9 00       		.byte	0
 500 01da 00       		.byte	0
 501 01db 00       		.byte	0
 502 01dc 00       		.byte	0
 503 01dd 00       		.byte	0
 504 01de 00       		.byte	0
 505 01df 00       		.byte	0
 506 01e0 00       		.byte	0
 507 01e1 00       		.byte	0
 508 01e2 00       		.byte	0
 509 01e3 00       		.byte	0
 510 01e4 00       		.byte	0
 511 01e5 00       		.byte	0
 512 01e6 00       		.byte	0
 513 01e7 00       		.byte	0
ARM GAS  C:\Users\User\AppData\Local\Temp\ccMn0wdH.s 			page 10


 514 01e8 00       		.byte	0
 515 01e9 00       		.byte	0
 516 01ea 00       		.byte	0
 517 01eb 00       		.byte	0
 518 01ec 00       		.byte	0
 519 01ed 00       		.byte	0
 520 01ee 00       		.byte	0
 521 01ef 00       		.byte	0
 522 01f0 00       		.byte	0
 523 01f1 00       		.byte	0
 524 01f2 00       		.byte	0
 525 01f3 00       		.byte	0
 526 01f4 00       		.byte	0
 527 01f5 00       		.byte	0
 528 01f6 00       		.byte	0
 529 01f7 00       		.byte	0
 530 01f8 00       		.byte	0
 531 01f9 00       		.byte	0
 532 01fa 00       		.byte	0
 533 01fb 00       		.byte	0
 534 01fc 00       		.byte	0
 535 01fd 00       		.byte	0
 536 01fe 00       		.byte	0
 537 01ff 00       		.byte	0
 538 0200 00       		.byte	0
 539 0201 00       		.byte	0
 540 0202 00       		.byte	0
 541 0203 00       		.byte	0
 542 0204 00       		.byte	0
 543 0205 00       		.byte	0
 544 0206 00       		.byte	0
 545 0207 00       		.byte	0
 546 0208 00       		.byte	0
 547 0209 00       		.byte	0
 548 020a 00       		.byte	0
 549 020b 00       		.byte	0
 550 020c 00       		.byte	0
 551 020d 00       		.byte	0
 552 020e 00       		.byte	0
 553 020f 00       		.byte	0
 554 0210 00       		.byte	0
 555 0211 00       		.byte	0
 556 0212 00       		.byte	0
 557 0213 00       		.byte	0
 558 0214 00       		.byte	0
 559 0215 00       		.byte	0
 560 0216 00       		.byte	0
 561 0217 00       		.byte	0
 562 0218 00       		.byte	0
 563 0219 00       		.byte	0
 564 021a 00       		.byte	0
 565 021b 00       		.byte	0
 566 021c 00       		.byte	0
 567 021d 00       		.byte	0
 568 021e 00       		.byte	0
 569 021f 00       		.byte	0
 570 0220 00       		.byte	0
ARM GAS  C:\Users\User\AppData\Local\Temp\ccMn0wdH.s 			page 11


 571 0221 00       		.byte	0
 572 0222 00       		.byte	0
 573 0223 00       		.byte	0
 574 0224 00       		.byte	0
 575 0225 00       		.byte	0
 576 0226 00       		.byte	0
 577 0227 00       		.byte	0
 578 0228 00       		.byte	0
 579 0229 00       		.byte	0
 580 022a 00       		.byte	0
 581 022b 00       		.byte	0
 582 022c 00       		.byte	0
 583 022d 00       		.byte	0
 584 022e 00       		.byte	0
 585 022f 00       		.byte	0
 586 0230 00       		.byte	0
 587 0231 00       		.byte	0
 588 0232 00       		.byte	0
 589 0233 00       		.byte	0
 590 0234 00       		.byte	0
 591 0235 00       		.byte	0
 592 0236 00       		.byte	0
 593 0237 00       		.byte	0
 594 0238 00       		.byte	0
 595 0239 00       		.byte	0
 596 023a 00       		.byte	0
 597 023b 00       		.byte	0
 598 023c 00       		.byte	0
 599 023d 00       		.byte	0
 600 023e 00       		.byte	0
 601 023f 00       		.byte	0
 602 0240 00       		.byte	0
 603 0241 00       		.byte	0
 604 0242 00       		.byte	0
 605 0243 00       		.byte	0
 606 0244 00       		.byte	0
 607 0245 00       		.byte	0
 608 0246 00       		.byte	0
 609 0247 00       		.byte	0
 610 0248 00       		.byte	0
 611 0249 00       		.byte	0
 612 024a 00       		.byte	0
 613 024b 00       		.byte	0
 614 024c 00       		.byte	0
 615 024d 00       		.byte	0
 616 024e 00       		.byte	0
 617 024f 00       		.byte	0
 618 0250 00       		.byte	0
 619 0251 00       		.byte	0
 620 0252 00       		.byte	0
 621 0253 00       		.byte	0
 622 0254 00       		.byte	0
 623 0255 00       		.byte	0
 624 0256 00       		.byte	0
 625 0257 00       		.byte	0
 626 0258 00       		.byte	0
 627 0259 00       		.byte	0
ARM GAS  C:\Users\User\AppData\Local\Temp\ccMn0wdH.s 			page 12


 628 025a 00       		.byte	0
 629 025b 00       		.byte	0
 630 025c 00       		.byte	0
 631 025d 00       		.byte	0
 632 025e 00       		.byte	0
 633 025f 00       		.byte	0
 634 0260 00       		.byte	0
 635 0261 00       		.byte	0
 636 0262 00       		.byte	0
 637 0263 00       		.byte	0
 638 0264 00       		.byte	0
 639 0265 00       		.byte	0
 640 0266 00       		.byte	0
 641 0267 00       		.byte	0
 642 0268 00       		.byte	0
 643 0269 00       		.byte	0
 644 026a 00       		.byte	0
 645 026b 00       		.byte	0
 646 026c 00       		.byte	0
 647 026d 00       		.byte	0
 648 026e 00       		.byte	0
 649 026f 00       		.byte	0
 650 0270 00       		.byte	0
 651 0271 00       		.byte	0
 652 0272 00       		.byte	0
 653 0273 00       		.byte	0
 654 0274 00       		.byte	0
 655 0275 00       		.byte	0
 656 0276 00       		.byte	0
 657 0277 00       		.byte	0
 658 0278 00       		.byte	0
 659 0279 00       		.byte	0
 660 027a 00       		.byte	0
 661 027b 00       		.byte	0
 662 027c 00       		.byte	0
 663 027d 00       		.byte	0
 664 027e 00       		.byte	0
 665 027f 00       		.byte	0
 666 0280 00       		.byte	0
 667 0281 00       		.byte	0
 668 0282 00       		.byte	0
 669 0283 00       		.byte	0
 670 0284 00       		.byte	0
 671 0285 00       		.byte	0
 672 0286 00       		.byte	0
 673 0287 00       		.byte	0
 674 0288 00       		.byte	0
 675 0289 00       		.byte	0
 676 028a 00       		.byte	0
 677 028b 00       		.byte	0
 678 028c 00       		.byte	0
 679 028d 00       		.byte	0
 680 028e 00       		.byte	0
 681 028f 00       		.byte	0
 682 0290 00       		.byte	0
 683 0291 00       		.byte	0
 684 0292 00       		.byte	0
ARM GAS  C:\Users\User\AppData\Local\Temp\ccMn0wdH.s 			page 13


 685 0293 00       		.byte	0
 686 0294 00       		.byte	0
 687 0295 00       		.byte	0
 688 0296 00       		.byte	0
 689 0297 00       		.byte	0
 690 0298 00       		.byte	0
 691 0299 00       		.byte	0
 692 029a 00       		.byte	0
 693 029b 00       		.byte	0
 694 029c 00       		.byte	0
 695 029d 00       		.byte	0
 696 029e 00       		.byte	0
 697 029f 00       		.byte	0
 698 02a0 00       		.byte	0
 699 02a1 08       		.byte	8
 700 02a2 05       		.byte	5
 701              		.global	cyBle_gatts
 702              		.section	.rodata
 703              		.align	2
 704              		.type	cyBle_gatts, %object
 705              		.size	cyBle_gatts, 6
 706              	cyBle_gatts:
 707 0000 0C00     		.short	12
 708 0002 0E00     		.short	14
 709 0004 0F00     		.short	15
 710              		.data
 711              		.align	2
 712              		.type	cyBle_attValues, %object
 713              		.size	cyBle_attValues, 64
 714              	cyBle_attValues:
 715 0000 4D       		.byte	77
 716 0001 79       		.byte	121
 717 0002 54       		.byte	84
 718 0003 68       		.byte	104
 719 0004 65       		.byte	101
 720 0005 72       		.byte	114
 721 0006 6D       		.byte	109
 722 0007 6F       		.byte	111
 723 0008 6D       		.byte	109
 724 0009 65       		.byte	101
 725 000a 74       		.byte	116
 726 000b 65       		.byte	101
 727 000c 72       		.byte	114
 728 000d 00       		.byte	0
 729 000e 03       		.byte	3
 730 000f 06       		.byte	6
 731 0010 00       		.byte	0
 732 0011 28       		.byte	40
 733 0012 00       		.byte	0
 734 0013 00       		.byte	0
 735 0014 00       		.byte	0
 736 0015 E8       		.byte	-24
 737 0016 03       		.byte	3
 738 0017 00       		.byte	0
 739 0018 00       		.byte	0
 740 0019 00       		.byte	0
 741 001a 00       		.byte	0
ARM GAS  C:\Users\User\AppData\Local\Temp\ccMn0wdH.s 			page 14


 742 001b 00       		.byte	0
 743 001c 00       		.byte	0
 744 001d 00       		.byte	0
 745 001e 00       		.byte	0
 746 001f B4       		.byte	-76
 747 0020 85       		.byte	-123
 748 0021 0E       		.byte	14
 749 0022 0A       		.byte	10
 750 0023 EF       		.byte	-17
 751 0024 7A       		.byte	122
 752 0025 87       		.byte	-121
 753 0026 9C       		.byte	-100
 754 0027 33       		.byte	51
 755 0028 47       		.byte	71
 756 0029 E5       		.byte	-27
 757 002a 56       		.byte	86
 758 002b 45       		.byte	69
 759 002c A6       		.byte	-90
 760 002d D0       		.byte	-48
 761 002e FC       		.byte	-4
 762 002f 00       		.byte	0
 763 0030 00       		.byte	0
 764 0031 00       		.byte	0
 765 0032 00       		.byte	0
 766 0033 00       		.byte	0
 767 0034 01       		.byte	1
 768 0035 00       		.byte	0
 769 0036 00       		.byte	0
 770 0037 00       		.byte	0
 771 0038 00       		.byte	0
 772 0039 00       		.byte	0
 773 003a 00       		.byte	0
 774 003b 00       		.byte	0
 775 003c 00       		.byte	0
 776 003d 00       		.byte	0
 777 003e FF       		.byte	-1
 778 003f FF       		.byte	-1
 779              		.comm	cyBle_attValuesCCCD,8,4
 780              		.global	cyBle_attUuid128
 781              		.section	.rodata
 782 0006 0000     		.align	2
 783              		.type	cyBle_attUuid128, %object
 784              		.size	cyBle_attUuid128, 32
 785              	cyBle_attUuid128:
 786 0008 97       		.byte	-105
 787 0009 1B       		.byte	27
 788 000a D9       		.byte	-39
 789 000b 52       		.byte	82
 790 000c FE       		.byte	-2
 791 000d E9       		.byte	-23
 792 000e D5       		.byte	-43
 793 000f BE       		.byte	-66
 794 0010 CF       		.byte	-49
 795 0011 4E       		.byte	78
 796 0012 94       		.byte	-108
 797 0013 05       		.byte	5
 798 0014 54       		.byte	84
ARM GAS  C:\Users\User\AppData\Local\Temp\ccMn0wdH.s 			page 15


 799 0015 56       		.byte	86
 800 0016 3A       		.byte	58
 801 0017 5B       		.byte	91
 802 0018 DD       		.byte	-35
 803 0019 94       		.byte	-108
 804 001a 78       		.byte	120
 805 001b 38       		.byte	56
 806 001c 70       		.byte	112
 807 001d EC       		.byte	-20
 808 001e 64       		.byte	100
 809 001f B7       		.byte	-73
 810 0020 8E       		.byte	-114
 811 0021 42       		.byte	66
 812 0022 CA       		.byte	-54
 813 0023 18       		.byte	24
 814 0024 63       		.byte	99
 815 0025 73       		.byte	115
 816 0026 96       		.byte	-106
 817 0027 A4       		.byte	-92
 818              		.global	cyBle_attValuesLen
 819              		.data
 820              		.align	2
 821              		.type	cyBle_attValuesLen, %object
 822              		.size	cyBle_attValuesLen, 152
 823              	cyBle_attValuesLen:
 824 0040 0D00     		.short	13
 825 0042 0000     		.space	2
 826 0044 00000000 		.word	cyBle_attValues
 827 0048 0200     		.short	2
 828 004a 0000     		.space	2
 829 004c 0D000000 		.word	cyBle_attValues+13
 830 0050 0800     		.short	8
 831 0052 0000     		.space	2
 832 0054 0F000000 		.word	cyBle_attValues+15
 833 0058 0100     		.short	1
 834 005a 0000     		.space	2
 835 005c 17000000 		.word	cyBle_attValues+23
 836 0060 0100     		.short	1
 837 0062 0000     		.space	2
 838 0064 18000000 		.word	cyBle_attValues+24
 839 0068 0400     		.short	4
 840 006a 0000     		.space	2
 841 006c 19000000 		.word	cyBle_attValues+25
 842 0070 0200     		.short	2
 843 0072 0000     		.space	2
 844 0074 00000000 		.word	cyBle_attValuesCCCD
 845 0078 1000     		.short	16
 846 007a 0000     		.space	2
 847 007c 00000000 		.word	cyBle_attUuid128
 848 0080 1000     		.short	16
 849 0082 0000     		.space	2
 850 0084 10000000 		.word	cyBle_attUuid128+16
 851 0088 0100     		.short	1
 852 008a 0000     		.space	2
 853 008c 1D000000 		.word	cyBle_attValues+29
 854 0090 0100     		.short	1
 855 0092 0000     		.space	2
ARM GAS  C:\Users\User\AppData\Local\Temp\ccMn0wdH.s 			page 16


 856 0094 1E000000 		.word	cyBle_attValues+30
 857 0098 0500     		.short	5
 858 009a 0000     		.space	2
 859 009c 2F000000 		.word	cyBle_attValues+47
 860 00a0 0200     		.short	2
 861 00a2 0000     		.space	2
 862 00a4 02000000 		.word	cyBle_attValuesCCCD+2
 863 00a8 0100     		.short	1
 864 00aa 0000     		.space	2
 865 00ac 34000000 		.word	cyBle_attValues+52
 866 00b0 0500     		.short	5
 867 00b2 0000     		.space	2
 868 00b4 35000000 		.word	cyBle_attValues+53
 869 00b8 0200     		.short	2
 870 00ba 0000     		.space	2
 871 00bc 04000000 		.word	cyBle_attValuesCCCD+4
 872 00c0 0200     		.short	2
 873 00c2 0000     		.space	2
 874 00c4 3A000000 		.word	cyBle_attValues+58
 875 00c8 0200     		.short	2
 876 00ca 0000     		.space	2
 877 00cc 06000000 		.word	cyBle_attValuesCCCD+6
 878 00d0 0400     		.short	4
 879 00d2 0000     		.space	2
 880 00d4 3C000000 		.word	cyBle_attValues+60
 881              		.global	cyBle_gattDB
 882              		.section	.rodata
 883              		.align	2
 884              		.type	cyBle_gattDB, %object
 885              		.size	cyBle_gattDB, 640
 886              	cyBle_gattDB:
 887 0028 0100     		.short	1
 888 002a 0028     		.short	10240
 889 002c 01000000 		.word	1
 890 0030 0B00     		.short	11
 891 0032 0000     		.space	2
 892 0034 0018     		.short	6144
 893 0036 0000     		.space	2
 894 0038 00000000 		.word	0
 895 003c 0200     		.short	2
 896 003e 0328     		.short	10243
 897 0040 01000200 		.word	131073
 898 0044 0300     		.short	3
 899 0046 0000     		.space	2
 900 0048 002A     		.short	10752
 901 004a 0000     		.space	2
 902 004c 00000000 		.word	0
 903 0050 0300     		.short	3
 904 0052 002A     		.short	10752
 905 0054 01000201 		.word	16908289
 906 0058 0300     		.short	3
 907 005a 0000     		.space	2
 908 005c 0D00     		.short	13
 909 005e 0000     		.space	2
 910 0060 00000000 		.word	cyBle_attValuesLen
 911 0064 0400     		.short	4
 912 0066 0328     		.short	10243
ARM GAS  C:\Users\User\AppData\Local\Temp\ccMn0wdH.s 			page 17


 913 0068 01000200 		.word	131073
 914 006c 0500     		.short	5
 915 006e 0000     		.space	2
 916 0070 012A     		.short	10753
 917 0072 0000     		.space	2
 918 0074 00000000 		.word	0
 919 0078 0500     		.short	5
 920 007a 012A     		.short	10753
 921 007c 01000201 		.word	16908289
 922 0080 0500     		.short	5
 923 0082 0000     		.space	2
 924 0084 0200     		.short	2
 925 0086 0000     		.space	2
 926 0088 08000000 		.word	cyBle_attValuesLen+8
 927 008c 0600     		.short	6
 928 008e 0328     		.short	10243
 929 0090 01000200 		.word	131073
 930 0094 0700     		.short	7
 931 0096 0000     		.space	2
 932 0098 042A     		.short	10756
 933 009a 0000     		.space	2
 934 009c 00000000 		.word	0
 935 00a0 0700     		.short	7
 936 00a2 042A     		.short	10756
 937 00a4 01000201 		.word	16908289
 938 00a8 0700     		.short	7
 939 00aa 0000     		.space	2
 940 00ac 0800     		.short	8
 941 00ae 0000     		.space	2
 942 00b0 10000000 		.word	cyBle_attValuesLen+16
 943 00b4 0800     		.short	8
 944 00b6 0328     		.short	10243
 945 00b8 01000200 		.word	131073
 946 00bc 0900     		.short	9
 947 00be 0000     		.space	2
 948 00c0 A62A     		.short	10918
 949 00c2 0000     		.space	2
 950 00c4 00000000 		.word	0
 951 00c8 0900     		.short	9
 952 00ca A62A     		.short	10918
 953 00cc 01000201 		.word	16908289
 954 00d0 0900     		.short	9
 955 00d2 0000     		.space	2
 956 00d4 0100     		.short	1
 957 00d6 0000     		.space	2
 958 00d8 18000000 		.word	cyBle_attValuesLen+24
 959 00dc 0A00     		.short	10
 960 00de 0328     		.short	10243
 961 00e0 01000200 		.word	131073
 962 00e4 0B00     		.short	11
 963 00e6 0000     		.space	2
 964 00e8 C92A     		.short	10953
 965 00ea 0000     		.space	2
 966 00ec 00000000 		.word	0
 967 00f0 0B00     		.short	11
 968 00f2 C92A     		.short	10953
 969 00f4 01000201 		.word	16908289
ARM GAS  C:\Users\User\AppData\Local\Temp\ccMn0wdH.s 			page 18


 970 00f8 0B00     		.short	11
 971 00fa 0000     		.space	2
 972 00fc 0100     		.short	1
 973 00fe 0000     		.space	2
 974 0100 20000000 		.word	cyBle_attValuesLen+32
 975 0104 0C00     		.short	12
 976 0106 0028     		.short	10240
 977 0108 01000000 		.word	1
 978 010c 0F00     		.short	15
 979 010e 0000     		.space	2
 980 0110 0118     		.short	6145
 981 0112 0000     		.space	2
 982 0114 00000000 		.word	0
 983 0118 0D00     		.short	13
 984 011a 0328     		.short	10243
 985 011c 01002000 		.word	2097153
 986 0120 0F00     		.short	15
 987 0122 0000     		.space	2
 988 0124 052A     		.short	10757
 989 0126 0000     		.space	2
 990 0128 00000000 		.word	0
 991 012c 0E00     		.short	14
 992 012e 052A     		.short	10757
 993 0130 00002001 		.word	18874368
 994 0134 0F00     		.short	15
 995 0136 0000     		.space	2
 996 0138 0400     		.short	4
 997 013a 0000     		.space	2
 998 013c 28000000 		.word	cyBle_attValuesLen+40
 999 0140 0F00     		.short	15
 1000 0142 0229     		.short	10498
 1001 0144 01010A01 		.word	17432833
 1002 0148 0F00     		.short	15
 1003 014a 0000     		.space	2
 1004 014c 0200     		.short	2
 1005 014e 0000     		.space	2
 1006 0150 30000000 		.word	cyBle_attValuesLen+48
 1007 0154 1000     		.short	16
 1008 0156 0028     		.short	10240
 1009 0158 01000008 		.word	134217729
 1010 015c 1300     		.short	19
 1011 015e 0000     		.space	2
 1012 0160 1000     		.short	16
 1013 0162 0000     		.space	2
 1014 0164 38000000 		.word	cyBle_attValuesLen+56
 1015 0168 1100     		.short	17
 1016 016a 0328     		.short	10243
 1017 016c 01000000 		.word	1
 1018 0170 1300     		.short	19
 1019 0172 0000     		.space	2
 1020 0174 1000     		.short	16
 1021 0176 0000     		.space	2
 1022 0178 40000000 		.word	cyBle_attValuesLen+64
 1023 017c 1200     		.short	18
 1024 017e 6373     		.short	29539
 1025 0180 00000009 		.word	150994944
 1026 0184 1300     		.short	19
ARM GAS  C:\Users\User\AppData\Local\Temp\ccMn0wdH.s 			page 19


 1027 0186 0000     		.space	2
 1028 0188 0100     		.short	1
 1029 018a 0000     		.space	2
 1030 018c 48000000 		.word	cyBle_attValuesLen+72
 1031 0190 1300     		.short	19
 1032 0192 45A6     		.short	-22971
 1033 0194 01000009 		.word	150994945
 1034 0198 1300     		.short	19
 1035 019a 0000     		.space	2
 1036 019c 0100     		.short	1
 1037 019e 0000     		.space	2
 1038 01a0 50000000 		.word	cyBle_attValuesLen+80
 1039 01a4 1400     		.short	20
 1040 01a6 0028     		.short	10240
 1041 01a8 01000000 		.word	1
 1042 01ac 2000     		.short	32
 1043 01ae 0000     		.space	2
 1044 01b0 0918     		.short	6153
 1045 01b2 0000     		.space	2
 1046 01b4 00000000 		.word	0
 1047 01b8 1500     		.short	21
 1048 01ba 0328     		.short	10243
 1049 01bc 01002000 		.word	2097153
 1050 01c0 1700     		.short	23
 1051 01c2 0000     		.space	2
 1052 01c4 1C2A     		.short	10780
 1053 01c6 0000     		.space	2
 1054 01c8 00000000 		.word	0
 1055 01cc 1600     		.short	22
 1056 01ce 1C2A     		.short	10780
 1057 01d0 00002001 		.word	18874368
 1058 01d4 1700     		.short	23
 1059 01d6 0000     		.space	2
 1060 01d8 0500     		.short	5
 1061 01da 0000     		.space	2
 1062 01dc 58000000 		.word	cyBle_attValuesLen+88
 1063 01e0 1700     		.short	23
 1064 01e2 0229     		.short	10498
 1065 01e4 01010A01 		.word	17432833
 1066 01e8 1700     		.short	23
 1067 01ea 0000     		.space	2
 1068 01ec 0200     		.short	2
 1069 01ee 0000     		.space	2
 1070 01f0 60000000 		.word	cyBle_attValuesLen+96
 1071 01f4 1800     		.short	24
 1072 01f6 0328     		.short	10243
 1073 01f8 01000200 		.word	131073
 1074 01fc 1900     		.short	25
 1075 01fe 0000     		.space	2
 1076 0200 1D2A     		.short	10781
 1077 0202 0000     		.space	2
 1078 0204 00000000 		.word	0
 1079 0208 1900     		.short	25
 1080 020a 1D2A     		.short	10781
 1081 020c 01000201 		.word	16908289
 1082 0210 1900     		.short	25
 1083 0212 0000     		.space	2
ARM GAS  C:\Users\User\AppData\Local\Temp\ccMn0wdH.s 			page 20


 1084 0214 0100     		.short	1
 1085 0216 0000     		.space	2
 1086 0218 68000000 		.word	cyBle_attValuesLen+104
 1087 021c 1A00     		.short	26
 1088 021e 0328     		.short	10243
 1089 0220 01001000 		.word	1048577
 1090 0224 1C00     		.short	28
 1091 0226 0000     		.space	2
 1092 0228 1E2A     		.short	10782
 1093 022a 0000     		.space	2
 1094 022c 00000000 		.word	0
 1095 0230 1B00     		.short	27
 1096 0232 1E2A     		.short	10782
 1097 0234 00001001 		.word	17825792
 1098 0238 1C00     		.short	28
 1099 023a 0000     		.space	2
 1100 023c 0500     		.short	5
 1101 023e 0000     		.space	2
 1102 0240 70000000 		.word	cyBle_attValuesLen+112
 1103 0244 1C00     		.short	28
 1104 0246 0229     		.short	10498
 1105 0248 01010A01 		.word	17432833
 1106 024c 1C00     		.short	28
 1107 024e 0000     		.space	2
 1108 0250 0200     		.short	2
 1109 0252 0000     		.space	2
 1110 0254 78000000 		.word	cyBle_attValuesLen+120
 1111 0258 1D00     		.short	29
 1112 025a 0328     		.short	10243
 1113 025c 01000200 		.word	131073
 1114 0260 2000     		.short	32
 1115 0262 0000     		.space	2
 1116 0264 212A     		.short	10785
 1117 0266 0000     		.space	2
 1118 0268 00000000 		.word	0
 1119 026c 1E00     		.short	30
 1120 026e 212A     		.short	10785
 1121 0270 01000201 		.word	16908289
 1122 0274 2000     		.short	32
 1123 0276 0000     		.space	2
 1124 0278 0200     		.short	2
 1125 027a 0000     		.space	2
 1126 027c 80000000 		.word	cyBle_attValuesLen+128
 1127 0280 1F00     		.short	31
 1128 0282 0229     		.short	10498
 1129 0284 01010A01 		.word	17432833
 1130 0288 1F00     		.short	31
 1131 028a 0000     		.space	2
 1132 028c 0200     		.short	2
 1133 028e 0000     		.space	2
 1134 0290 88000000 		.word	cyBle_attValuesLen+136
 1135 0294 2000     		.short	32
 1136 0296 0629     		.short	10502
 1137 0298 01000201 		.word	16908289
 1138 029c 2000     		.short	32
 1139 029e 0000     		.space	2
 1140 02a0 0400     		.short	4
ARM GAS  C:\Users\User\AppData\Local\Temp\ccMn0wdH.s 			page 21


 1141 02a2 0000     		.space	2
 1142 02a4 90000000 		.word	cyBle_attValuesLen+144
 1143              		.comm	cyBle_clientState,1,1
 1144              		.comm	cyBle_gattc,6,4
 1145              		.comm	cyBle_gattcDiscoveryRange,4,4
 1146              		.section	.text.CyBle_GattsReInitGattDb,"ax",%progbits
 1147              		.align	2
 1148              		.global	CyBle_GattsReInitGattDb
 1149              		.code	16
 1150              		.thumb_func
 1151              		.type	CyBle_GattsReInitGattDb, %function
 1152              	CyBle_GattsReInitGattDb:
 1153              	.LFB2:
 1154              		.file 1 "Generated_Source\\PSoC4\\BLE_gatt.c"
   1:Generated_Source\PSoC4/BLE_gatt.c **** /***************************************************************************//**
   2:Generated_Source\PSoC4/BLE_gatt.c **** * \file CYBLE_gatt.c
   3:Generated_Source\PSoC4/BLE_gatt.c **** * \version 3.66
   4:Generated_Source\PSoC4/BLE_gatt.c **** * 
   5:Generated_Source\PSoC4/BLE_gatt.c **** * \brief
   6:Generated_Source\PSoC4/BLE_gatt.c **** *  This file contains the source code for the GATT API of the BLE Component.
   7:Generated_Source\PSoC4/BLE_gatt.c **** * 
   8:Generated_Source\PSoC4/BLE_gatt.c **** ********************************************************************************
   9:Generated_Source\PSoC4/BLE_gatt.c **** * \copyright
  10:Generated_Source\PSoC4/BLE_gatt.c **** * Copyright 2014-2020, Cypress Semiconductor Corporation.  All rights reserved.
  11:Generated_Source\PSoC4/BLE_gatt.c **** * You may use this file only in accordance with the license, terms, conditions,
  12:Generated_Source\PSoC4/BLE_gatt.c **** * disclaimers, and limitations in the end user license agreement accompanying
  13:Generated_Source\PSoC4/BLE_gatt.c **** * the software package with which this file was provided.
  14:Generated_Source\PSoC4/BLE_gatt.c **** *******************************************************************************/
  15:Generated_Source\PSoC4/BLE_gatt.c **** 
  16:Generated_Source\PSoC4/BLE_gatt.c **** 
  17:Generated_Source\PSoC4/BLE_gatt.c **** #include "BLE_eventHandler.h"
  18:Generated_Source\PSoC4/BLE_gatt.c **** 
  19:Generated_Source\PSoC4/BLE_gatt.c **** 
  20:Generated_Source\PSoC4/BLE_gatt.c **** /***************************************
  21:Generated_Source\PSoC4/BLE_gatt.c **** * Global variables
  22:Generated_Source\PSoC4/BLE_gatt.c **** ***************************************/
  23:Generated_Source\PSoC4/BLE_gatt.c **** 
  24:Generated_Source\PSoC4/BLE_gatt.c **** CYBLE_STATE_T cyBle_state;
  25:Generated_Source\PSoC4/BLE_gatt.c **** 
  26:Generated_Source\PSoC4/BLE_gatt.c **** #if ((CYBLE_MODE_PROFILE) && (CYBLE_BONDING_REQUIREMENT == CYBLE_BONDING_YES))
  27:Generated_Source\PSoC4/BLE_gatt.c ****     
  28:Generated_Source\PSoC4/BLE_gatt.c **** #if(CYBLE_MODE_PROFILE)
  29:Generated_Source\PSoC4/BLE_gatt.c ****     #if defined(__ARMCC_VERSION)
  30:Generated_Source\PSoC4/BLE_gatt.c ****         CY_ALIGN(CYDEV_FLS_ROW_SIZE) const CY_BLE_FLASH_STORAGE cyBle_flashStorage CY_SECTION(".cy_
  31:Generated_Source\PSoC4/BLE_gatt.c ****     #elif defined (__GNUC__)
  32:Generated_Source\PSoC4/BLE_gatt.c ****         const CY_BLE_FLASH_STORAGE cyBle_flashStorage CY_SECTION(".cy_checksum_exclude")
  33:Generated_Source\PSoC4/BLE_gatt.c ****             CY_ALIGN(CYDEV_FLS_ROW_SIZE) =
  34:Generated_Source\PSoC4/BLE_gatt.c ****     #elif defined (__ICCARM__)
  35:Generated_Source\PSoC4/BLE_gatt.c ****         #pragma data_alignment=CY_FLASH_SIZEOF_ROW
  36:Generated_Source\PSoC4/BLE_gatt.c ****         #pragma location=".cy_checksum_exclude"
  37:Generated_Source\PSoC4/BLE_gatt.c ****         const CY_BLE_FLASH_STORAGE cyBle_flashStorage =
  38:Generated_Source\PSoC4/BLE_gatt.c ****     #endif  /* (__ARMCC_VERSION) */
  39:Generated_Source\PSoC4/BLE_gatt.c ****     {
  40:Generated_Source\PSoC4/BLE_gatt.c ****         { 0x00u, 0x00u, 0x00u, 0x00u, 0x00u, 0x00u, 0x00u, 0x00u, 0x00u, 0x00u, 0x00u, 0x00u, 0x00u
  41:Generated_Source\PSoC4/BLE_gatt.c ****         0x00u, 0x00u, 0x00u, 0x00u, 0x00u, 0x00u, 0x00u, 0x00u, 0x00u, 0x00u, 0x00u, 0x00u, 0x00u, 
  42:Generated_Source\PSoC4/BLE_gatt.c ****         0x00u, 0x00u, 0x00u, 0x00u, 0x00u, 0x00u, 0x00u, 0x00u, 0x00u, 0x00u, 0x00u, 0x00u, 0x00u, 
  43:Generated_Source\PSoC4/BLE_gatt.c ****         0x00u, 0x00u, 0x00u, 0x00u, 0x00u, 0x00u, 0x00u, 0x00u, 0x00u, 0x00u, 0x00u, 0x00u, 0x00u, 
ARM GAS  C:\Users\User\AppData\Local\Temp\ccMn0wdH.s 			page 22


  44:Generated_Source\PSoC4/BLE_gatt.c ****         0x00u, 0x00u, 0x00u, 0x00u, 0x00u, 0x00u, 0x00u, 0x00u, 0x00u, 0x00u, 0x00u, 0x00u, 0x00u, 
  45:Generated_Source\PSoC4/BLE_gatt.c ****         0x00u, 0x00u, 0x00u, 0x00u, 0x00u, 0x00u, 0x00u, 0x00u, 0x00u, 0x00u, 0x00u, 0x00u, 0x00u, 
  46:Generated_Source\PSoC4/BLE_gatt.c ****         0x00u, 0x00u, 0x00u, 0x00u, 0x00u, 0x00u, 0x00u, 0x00u, 0x00u, 0x00u, 0x00u, 0x00u, 0x00u, 
  47:Generated_Source\PSoC4/BLE_gatt.c ****         0x00u, 0x00u, 0x00u, 0x00u, 0x00u, 0x00u, 0x00u, 0x00u, 0x00u, 0x00u, 0x00u, 0x00u, 0x00u, 
  48:Generated_Source\PSoC4/BLE_gatt.c ****         0x00u, 0x00u, 0x00u, 0x00u, 0x00u, 0x00u, 0x00u, 0x00u, 0x00u, 0x00u, 0x00u, 0x00u, 0x00u, 
  49:Generated_Source\PSoC4/BLE_gatt.c ****         0x00u, 0x00u, 0x00u, 0x00u, 0x00u, 0x00u, 0x00u, 0x00u, 0x00u, 0x00u, 0x00u, 0x00u, 0x00u, 
  50:Generated_Source\PSoC4/BLE_gatt.c ****         0x00u, 0x00u, 0x00u, 0x00u, 0x00u, 0x00u, 0x00u, 0x00u, 0x00u, 0x00u, 0x00u, 0x00u, 0x00u, 
  51:Generated_Source\PSoC4/BLE_gatt.c ****         0x00u, 0x00u, 0x00u, 0x00u, 0x00u, 0x00u, 0x00u, 0x00u, 0x00u, 0x00u, 0x00u, 0x00u, 0x00u, 
  52:Generated_Source\PSoC4/BLE_gatt.c ****         0x00u, 0x00u, 0x00u, 0x00u, 0x00u, 0x00u, 0x00u, 0x00u, 0x00u, 0x00u, 0x00u, 0x00u, 0x00u, 
  53:Generated_Source\PSoC4/BLE_gatt.c ****         0x00u, 0x00u, 0x00u, 0x00u, 0x00u, 0x00u, 0x00u, 0x00u, 0x00u, 0x00u, 0x00u, 0x00u, 0x00u, 
  54:Generated_Source\PSoC4/BLE_gatt.c ****         0x00u, 0x00u, 0x00u, 0x00u, 0x00u, 0x00u, 0x00u, 0x00u, 0x00u, 0x00u, 0x00u, 0x00u, 0x00u, 
  55:Generated_Source\PSoC4/BLE_gatt.c ****         0x00u, 0x00u, 0x00u, 0x00u, 0x00u, 0x00u, 0x00u, 0x00u, 0x00u, 0x00u, 0x00u, 0x00u, 0x00u, 
  56:Generated_Source\PSoC4/BLE_gatt.c ****         0x00u, 0x00u, 0x00u, 0x00u, 0x00u, 0x00u, 0x00u, 0x00u, 0x00u, 0x00u, 0x00u, 0x00u, 0x00u, 
  57:Generated_Source\PSoC4/BLE_gatt.c ****         0x00u, 0x00u, 0x00u, 0x00u, 0x00u, 0x00u, 0x00u, 0x00u, 0x00u, 0x00u, 0x00u, 0x00u, 0x00u, 
  58:Generated_Source\PSoC4/BLE_gatt.c ****         0x00u, 0x00u, 0x00u, 0x00u, 0x00u, 0x00u, 0x00u, 0x00u, 0x00u, 0x00u, 0x00u, 0x00u, 0x00u, 
  59:Generated_Source\PSoC4/BLE_gatt.c ****         0x00u, 0x00u, 0x00u, 0x00u, 0x00u, 0x00u, 0x00u, 0x00u, 0x00u, 0x00u, 0x00u, 0x00u, 0x00u, 
  60:Generated_Source\PSoC4/BLE_gatt.c ****         0x00u, 0x00u, 0x00u, 0x00u, 0x00u, 0x00u, 0x00u, 0x00u, 0x00u, 0x00u, 0x00u, 0x00u, 0x00u, 
  61:Generated_Source\PSoC4/BLE_gatt.c ****         0x00u, 0x00u, 0x00u, 0x00u, 0x00u, 0x00u, 0x00u, 0x00u, 0x00u, 0x00u, 0x00u, 0x00u, 0x00u, 
  62:Generated_Source\PSoC4/BLE_gatt.c ****         0x00u, 0x00u, 0x00u, 0x00u, 0x00u, 0x00u, 0x00u, 0x00u, 0x00u, 0x00u, 0x00u, 0x00u, 0x00u, 
  63:Generated_Source\PSoC4/BLE_gatt.c ****         0x00u, 0x00u, 0x00u, 0x00u, 0x00u, 0x00u, 0x00u, 0x00u, 0x00u, 0x00u, 0x00u, 0x00u, 0x00u, 
  64:Generated_Source\PSoC4/BLE_gatt.c ****         0x00u, 0x00u, 0x00u, 0x00u, 0x00u, 0x00u, 0x00u, 0x00u, 0x00u, 0x00u, 0x00u, 0x00u, 0x00u, 
  65:Generated_Source\PSoC4/BLE_gatt.c ****         0x00u, 0x00u, 0x00u, 0x00u, 0x00u, 0x00u, 0x00u, 0x00u, 0x00u, 0x00u, 0x00u, 0x00u, 0x00u, 
  66:Generated_Source\PSoC4/BLE_gatt.c ****         0x00u, 0x00u, 0x00u, 0x00u, 0x00u, 0x00u, 0x00u, 0x00u, 0x00u, 0x00u, 0x00u, 0x00u, 0x00u, 
  67:Generated_Source\PSoC4/BLE_gatt.c ****         0x00u, 0x00u, 0x00u, 0x00u, 0x00u, 0x00u, 0x00u, 0x00u, 0x00u, 0x00u, 0x00u, 0x00u, 0x00u, 
  68:Generated_Source\PSoC4/BLE_gatt.c ****         0x00u, 0x00u, 0x00u, 0x00u, 0x00u, 0x00u, 0x00u, 0x00u, 0x00u, 0x00u, 0x00u, 0x00u, 0x00u, 
  69:Generated_Source\PSoC4/BLE_gatt.c ****         0x00u, 0x00u, 0x00u, 0x00u, 0x00u, 0x00u, 0x00u, 0x00u, 0x00u, 0x00u, 0x00u, 0x00u, 0x00u, 
  70:Generated_Source\PSoC4/BLE_gatt.c ****         0x00u, 0x00u, 0x00u, 0x00u, 0x00u, 0x00u, 0x00u, 0x00u, 0x00u, 0x00u, 0x00u, 0x00u, 0x00u, 
  71:Generated_Source\PSoC4/BLE_gatt.c ****         0x00u, 0x00u, 0x00u, 0x00u, 0x00u, 0x00u, 0x00u, 0x00u, 0x00u, 0x00u, 0x00u, 0x00u, 0x00u, 
  72:Generated_Source\PSoC4/BLE_gatt.c ****         0x00u, 0x00u, 0x00u, 0x00u, 0x00u, 0x00u, 0x00u, 0x00u, 0x00u, 0x00u, 0x00u, 0x00u, 0x00u, 
  73:Generated_Source\PSoC4/BLE_gatt.c ****         0x00u, 0x00u, 0x00u, 0x00u, 0x00u, 0x00u, 0x00u, 0x00u, 0x00u, 0x00u, 0x00u, 0x00u, 0x00u, 
  74:Generated_Source\PSoC4/BLE_gatt.c ****         0x00u, 0x00u, 0x00u, 0x00u, 0x00u, 0x00u, 0x00u, 0x00u, 0x00u, 0x00u, 0x00u, 0x00u, 0x00u, 
  75:Generated_Source\PSoC4/BLE_gatt.c ****         0x00u, 0x00u, 0x00u, 0x00u, 0x00u, 0x00u, 0x00u, 0x00u, 0x00u, 0x00u, 0x00u, 0x00u, 0x00u, 
  76:Generated_Source\PSoC4/BLE_gatt.c ****         0x00u, 0x00u, 0x00u, 0x00u, 0x00u, 0x00u, 0x00u, 0x00u, 0x00u, 0x00u, 0x00u, 0x00u, 0x00u, 
  77:Generated_Source\PSoC4/BLE_gatt.c ****         0x00u, 0x00u, 0x00u, 0x00u, 0x00u, 0x00u, 0x00u, 0x00u, 0x00u, 0x00u, 0x00u, 0x00u, 0x00u, 
  78:Generated_Source\PSoC4/BLE_gatt.c ****         0x00u, 0x00u, 0x00u, 0x00u, 0x00u, 0x00u, 0x00u, 0x00u, 0x00u, 0x00u, 0x00u, 0x00u, 0x00u, 
  79:Generated_Source\PSoC4/BLE_gatt.c ****         0x00u, 0x00u, 0x00u, 0x00u, 0x00u, 0x00u, 0x00u, 0x00u, 0x00u, 0x00u }, 
  80:Generated_Source\PSoC4/BLE_gatt.c ****         {{
  81:Generated_Source\PSoC4/BLE_gatt.c ****             0x00u, 0x00u,
  82:Generated_Source\PSoC4/BLE_gatt.c ****             0x00u, 0x00u,
  83:Generated_Source\PSoC4/BLE_gatt.c ****             0x00u, 0x00u,
  84:Generated_Source\PSoC4/BLE_gatt.c ****             0x00u, 0x00u,
  85:Generated_Source\PSoC4/BLE_gatt.c ****         },
  86:Generated_Source\PSoC4/BLE_gatt.c ****         {
  87:Generated_Source\PSoC4/BLE_gatt.c ****             0x00u, 0x00u,
  88:Generated_Source\PSoC4/BLE_gatt.c ****             0x00u, 0x00u,
  89:Generated_Source\PSoC4/BLE_gatt.c ****             0x00u, 0x00u,
  90:Generated_Source\PSoC4/BLE_gatt.c ****             0x00u, 0x00u,
  91:Generated_Source\PSoC4/BLE_gatt.c ****         },
  92:Generated_Source\PSoC4/BLE_gatt.c ****         {
  93:Generated_Source\PSoC4/BLE_gatt.c ****             0x00u, 0x00u,
  94:Generated_Source\PSoC4/BLE_gatt.c ****             0x00u, 0x00u,
  95:Generated_Source\PSoC4/BLE_gatt.c ****             0x00u, 0x00u,
  96:Generated_Source\PSoC4/BLE_gatt.c ****             0x00u, 0x00u,
  97:Generated_Source\PSoC4/BLE_gatt.c ****         },
  98:Generated_Source\PSoC4/BLE_gatt.c ****         {
  99:Generated_Source\PSoC4/BLE_gatt.c ****             0x00u, 0x00u,
 100:Generated_Source\PSoC4/BLE_gatt.c ****             0x00u, 0x00u,
ARM GAS  C:\Users\User\AppData\Local\Temp\ccMn0wdH.s 			page 23


 101:Generated_Source\PSoC4/BLE_gatt.c ****             0x00u, 0x00u,
 102:Generated_Source\PSoC4/BLE_gatt.c ****             0x00u, 0x00u,
 103:Generated_Source\PSoC4/BLE_gatt.c ****         },
 104:Generated_Source\PSoC4/BLE_gatt.c ****         {
 105:Generated_Source\PSoC4/BLE_gatt.c ****             0x00u, 0x00u,
 106:Generated_Source\PSoC4/BLE_gatt.c ****             0x00u, 0x00u,
 107:Generated_Source\PSoC4/BLE_gatt.c ****             0x00u, 0x00u,
 108:Generated_Source\PSoC4/BLE_gatt.c ****             0x00u, 0x00u,
 109:Generated_Source\PSoC4/BLE_gatt.c ****         }}, 
 110:Generated_Source\PSoC4/BLE_gatt.c ****         0x08u, /* CYBLE_GATT_DB_CCCD_COUNT */ 
 111:Generated_Source\PSoC4/BLE_gatt.c ****         0x05u, /* CYBLE_GAP_MAX_BONDED_DEVICE */ 
 112:Generated_Source\PSoC4/BLE_gatt.c ****     };
 113:Generated_Source\PSoC4/BLE_gatt.c **** #endif /* (CYBLE_MODE_PROFILE) */
 114:Generated_Source\PSoC4/BLE_gatt.c **** 
 115:Generated_Source\PSoC4/BLE_gatt.c **** #endif  /* (CYBLE_MODE_PROFILE) && (CYBLE_BONDING_REQUIREMENT == CYBLE_BONDING_YES) */
 116:Generated_Source\PSoC4/BLE_gatt.c **** 
 117:Generated_Source\PSoC4/BLE_gatt.c **** #if(CYBLE_GATT_ROLE_SERVER)
 118:Generated_Source\PSoC4/BLE_gatt.c ****     
 119:Generated_Source\PSoC4/BLE_gatt.c ****     const CYBLE_GATTS_T cyBle_gatts =
 120:Generated_Source\PSoC4/BLE_gatt.c **** {
 121:Generated_Source\PSoC4/BLE_gatt.c ****     0x000Cu,    /* Handle of the GATT service */
 122:Generated_Source\PSoC4/BLE_gatt.c ****     0x000Eu,    /* Handle of the Service Changed characteristic */
 123:Generated_Source\PSoC4/BLE_gatt.c ****     0x000Fu,    /* Handle of the Client Characteristic Configuration descriptor */
 124:Generated_Source\PSoC4/BLE_gatt.c **** };
 125:Generated_Source\PSoC4/BLE_gatt.c ****     
 126:Generated_Source\PSoC4/BLE_gatt.c ****     static uint8 cyBle_attValues[0x40u] = {
 127:Generated_Source\PSoC4/BLE_gatt.c ****     /* Device Name */
 128:Generated_Source\PSoC4/BLE_gatt.c ****     (uint8)'M', (uint8)'y', (uint8)'T', (uint8)'h', (uint8)'e', (uint8)'r', (uint8)'m', (uint8)'o',
 129:Generated_Source\PSoC4/BLE_gatt.c ****     (uint8)'e', (uint8)'t', (uint8)'e', (uint8)'r',
 130:Generated_Source\PSoC4/BLE_gatt.c **** 
 131:Generated_Source\PSoC4/BLE_gatt.c ****     /* Appearance */
 132:Generated_Source\PSoC4/BLE_gatt.c ****     0x00u, 0x03u,
 133:Generated_Source\PSoC4/BLE_gatt.c **** 
 134:Generated_Source\PSoC4/BLE_gatt.c ****     /* Peripheral Preferred Connection Parameters */
 135:Generated_Source\PSoC4/BLE_gatt.c ****     0x06u, 0x00u, 0x28u, 0x00u, 0x00u, 0x00u, 0xE8u, 0x03u,
 136:Generated_Source\PSoC4/BLE_gatt.c **** 
 137:Generated_Source\PSoC4/BLE_gatt.c ****     /* Central Address Resolution */
 138:Generated_Source\PSoC4/BLE_gatt.c ****     0x00u,
 139:Generated_Source\PSoC4/BLE_gatt.c **** 
 140:Generated_Source\PSoC4/BLE_gatt.c ****     /* Resolvable Private Address Only */
 141:Generated_Source\PSoC4/BLE_gatt.c ****     0x00u,
 142:Generated_Source\PSoC4/BLE_gatt.c **** 
 143:Generated_Source\PSoC4/BLE_gatt.c ****     /* Service Changed */
 144:Generated_Source\PSoC4/BLE_gatt.c ****     0x00u, 0x00u, 0x00u, 0x00u,
 145:Generated_Source\PSoC4/BLE_gatt.c **** 
 146:Generated_Source\PSoC4/BLE_gatt.c ****     /* Custom Characteristic */
 147:Generated_Source\PSoC4/BLE_gatt.c ****     0x00u,
 148:Generated_Source\PSoC4/BLE_gatt.c **** 
 149:Generated_Source\PSoC4/BLE_gatt.c ****     /* Custom Descriptor */
 150:Generated_Source\PSoC4/BLE_gatt.c ****     0x00u, 0xB4u, 0x85u, 0x0Eu, 0x0Au, 0xEFu, 0x7Au, 0x87u, 0x9Cu, 0x33u, 0x47u, 0xE5u, 0x56u, 0x45
 151:Generated_Source\PSoC4/BLE_gatt.c ****     0xFCu,
 152:Generated_Source\PSoC4/BLE_gatt.c **** 
 153:Generated_Source\PSoC4/BLE_gatt.c ****     /* Temperature Measurement */
 154:Generated_Source\PSoC4/BLE_gatt.c ****     0x00u, 0x00u, 0x00u, 0x00u, 0x00u,
 155:Generated_Source\PSoC4/BLE_gatt.c **** 
 156:Generated_Source\PSoC4/BLE_gatt.c ****     /* Temperature Type */
 157:Generated_Source\PSoC4/BLE_gatt.c ****     0x01u,
ARM GAS  C:\Users\User\AppData\Local\Temp\ccMn0wdH.s 			page 24


 158:Generated_Source\PSoC4/BLE_gatt.c **** 
 159:Generated_Source\PSoC4/BLE_gatt.c ****     /* Intermediate Temperature */
 160:Generated_Source\PSoC4/BLE_gatt.c ****     0x00u, 0x00u, 0x00u, 0x00u, 0x00u,
 161:Generated_Source\PSoC4/BLE_gatt.c **** 
 162:Generated_Source\PSoC4/BLE_gatt.c ****     /* Measurement Interval */
 163:Generated_Source\PSoC4/BLE_gatt.c ****     0x00u, 0x00u,
 164:Generated_Source\PSoC4/BLE_gatt.c **** 
 165:Generated_Source\PSoC4/BLE_gatt.c ****     /* Valid Range */
 166:Generated_Source\PSoC4/BLE_gatt.c ****     0x00u, 0x00u, 0xFFu, 0xFFu,
 167:Generated_Source\PSoC4/BLE_gatt.c **** 
 168:Generated_Source\PSoC4/BLE_gatt.c **** };
 169:Generated_Source\PSoC4/BLE_gatt.c **** #if(CYBLE_GATT_DB_CCCD_COUNT != 0u)
 170:Generated_Source\PSoC4/BLE_gatt.c **** uint8 cyBle_attValuesCCCD[CYBLE_GATT_DB_CCCD_COUNT];
 171:Generated_Source\PSoC4/BLE_gatt.c **** #endif /* CYBLE_GATT_DB_CCCD_COUNT != 0u */
 172:Generated_Source\PSoC4/BLE_gatt.c **** 
 173:Generated_Source\PSoC4/BLE_gatt.c **** const uint8 cyBle_attUuid128[][16u] = {
 174:Generated_Source\PSoC4/BLE_gatt.c ****     /* Custom Service */
 175:Generated_Source\PSoC4/BLE_gatt.c ****     { 0x97u, 0x1Bu, 0xD9u, 0x52u, 0xFEu, 0xE9u, 0xD5u, 0xBEu, 0xCFu, 0x4Eu, 0x94u, 0x05u, 0x54u, 0x
 176:Generated_Source\PSoC4/BLE_gatt.c ****     /* Custom Characteristic */
 177:Generated_Source\PSoC4/BLE_gatt.c ****     { 0xDDu, 0x94u, 0x78u, 0x38u, 0x70u, 0xECu, 0x64u, 0xB7u, 0x8Eu, 0x42u, 0xCAu, 0x18u, 0x63u, 0x
 178:Generated_Source\PSoC4/BLE_gatt.c **** };
 179:Generated_Source\PSoC4/BLE_gatt.c **** 
 180:Generated_Source\PSoC4/BLE_gatt.c **** CYBLE_GATTS_ATT_GEN_VAL_LEN_T cyBle_attValuesLen[CYBLE_GATT_DB_ATT_VAL_COUNT] = {
 181:Generated_Source\PSoC4/BLE_gatt.c ****     { 0x000Du, (void *)&cyBle_attValues[0] }, /* Device Name */
 182:Generated_Source\PSoC4/BLE_gatt.c ****     { 0x0002u, (void *)&cyBle_attValues[13] }, /* Appearance */
 183:Generated_Source\PSoC4/BLE_gatt.c ****     { 0x0008u, (void *)&cyBle_attValues[15] }, /* Peripheral Preferred Connection Parameters */
 184:Generated_Source\PSoC4/BLE_gatt.c ****     { 0x0001u, (void *)&cyBle_attValues[23] }, /* Central Address Resolution */
 185:Generated_Source\PSoC4/BLE_gatt.c ****     { 0x0001u, (void *)&cyBle_attValues[24] }, /* Resolvable Private Address Only */
 186:Generated_Source\PSoC4/BLE_gatt.c ****     { 0x0004u, (void *)&cyBle_attValues[25] }, /* Service Changed */
 187:Generated_Source\PSoC4/BLE_gatt.c ****     { 0x0002u, (void *)&cyBle_attValuesCCCD[0] }, /* Client Characteristic Configuration */
 188:Generated_Source\PSoC4/BLE_gatt.c ****     { 0x0010u, (void *)&cyBle_attUuid128[0] }, /* Custom Service UUID */
 189:Generated_Source\PSoC4/BLE_gatt.c ****     { 0x0010u, (void *)&cyBle_attUuid128[1] }, /* Custom Characteristic UUID */
 190:Generated_Source\PSoC4/BLE_gatt.c ****     { 0x0001u, (void *)&cyBle_attValues[29] }, /* Custom Characteristic */
 191:Generated_Source\PSoC4/BLE_gatt.c ****     { 0x0001u, (void *)&cyBle_attValues[30] }, /* Custom Descriptor */
 192:Generated_Source\PSoC4/BLE_gatt.c ****     { 0x0005u, (void *)&cyBle_attValues[47] }, /* Temperature Measurement */
 193:Generated_Source\PSoC4/BLE_gatt.c ****     { 0x0002u, (void *)&cyBle_attValuesCCCD[2] }, /* Client Characteristic Configuration */
 194:Generated_Source\PSoC4/BLE_gatt.c ****     { 0x0001u, (void *)&cyBle_attValues[52] }, /* Temperature Type */
 195:Generated_Source\PSoC4/BLE_gatt.c ****     { 0x0005u, (void *)&cyBle_attValues[53] }, /* Intermediate Temperature */
 196:Generated_Source\PSoC4/BLE_gatt.c ****     { 0x0002u, (void *)&cyBle_attValuesCCCD[4] }, /* Client Characteristic Configuration */
 197:Generated_Source\PSoC4/BLE_gatt.c ****     { 0x0002u, (void *)&cyBle_attValues[58] }, /* Measurement Interval */
 198:Generated_Source\PSoC4/BLE_gatt.c ****     { 0x0002u, (void *)&cyBle_attValuesCCCD[6] }, /* Client Characteristic Configuration */
 199:Generated_Source\PSoC4/BLE_gatt.c ****     { 0x0004u, (void *)&cyBle_attValues[60] }, /* Valid Range */
 200:Generated_Source\PSoC4/BLE_gatt.c **** };
 201:Generated_Source\PSoC4/BLE_gatt.c **** 
 202:Generated_Source\PSoC4/BLE_gatt.c **** const CYBLE_GATTS_DB_T cyBle_gattDB[0x20u] = {
 203:Generated_Source\PSoC4/BLE_gatt.c ****     { 0x0001u, 0x2800u /* Primary service                     */, 0x00000001u /*       */, 0x000Bu,
 204:Generated_Source\PSoC4/BLE_gatt.c ****     { 0x0002u, 0x2803u /* Characteristic                      */, 0x00020001u /* rd    */, 0x0003u,
 205:Generated_Source\PSoC4/BLE_gatt.c ****     { 0x0003u, 0x2A00u /* Device Name                         */, 0x01020001u /* rd    */, 0x0003u,
 206:Generated_Source\PSoC4/BLE_gatt.c ****     { 0x0004u, 0x2803u /* Characteristic                      */, 0x00020001u /* rd    */, 0x0005u,
 207:Generated_Source\PSoC4/BLE_gatt.c ****     { 0x0005u, 0x2A01u /* Appearance                          */, 0x01020001u /* rd    */, 0x0005u,
 208:Generated_Source\PSoC4/BLE_gatt.c ****     { 0x0006u, 0x2803u /* Characteristic                      */, 0x00020001u /* rd    */, 0x0007u,
 209:Generated_Source\PSoC4/BLE_gatt.c ****     { 0x0007u, 0x2A04u /* Peripheral Preferred Connection Par */, 0x01020001u /* rd    */, 0x0007u,
 210:Generated_Source\PSoC4/BLE_gatt.c ****     { 0x0008u, 0x2803u /* Characteristic                      */, 0x00020001u /* rd    */, 0x0009u,
 211:Generated_Source\PSoC4/BLE_gatt.c ****     { 0x0009u, 0x2AA6u /* Central Address Resolution          */, 0x01020001u /* rd    */, 0x0009u,
 212:Generated_Source\PSoC4/BLE_gatt.c ****     { 0x000Au, 0x2803u /* Characteristic                      */, 0x00020001u /* rd    */, 0x000Bu,
 213:Generated_Source\PSoC4/BLE_gatt.c ****     { 0x000Bu, 0x2AC9u /* Resolvable Private Address Only     */, 0x01020001u /* rd    */, 0x000Bu,
 214:Generated_Source\PSoC4/BLE_gatt.c ****     { 0x000Cu, 0x2800u /* Primary service                     */, 0x00000001u /*       */, 0x000Fu,
ARM GAS  C:\Users\User\AppData\Local\Temp\ccMn0wdH.s 			page 25


 215:Generated_Source\PSoC4/BLE_gatt.c ****     { 0x000Du, 0x2803u /* Characteristic                      */, 0x00200001u /* ind   */, 0x000Fu,
 216:Generated_Source\PSoC4/BLE_gatt.c ****     { 0x000Eu, 0x2A05u /* Service Changed                     */, 0x01200000u /* ind   */, 0x000Fu,
 217:Generated_Source\PSoC4/BLE_gatt.c ****     { 0x000Fu, 0x2902u /* Client Characteristic Configuration */, 0x010A0101u /* rd,wr */, 0x000Fu,
 218:Generated_Source\PSoC4/BLE_gatt.c ****     { 0x0010u, 0x2800u /* Primary service                     */, 0x08000001u /*       */, 0x0013u,
 219:Generated_Source\PSoC4/BLE_gatt.c ****     { 0x0011u, 0x2803u /* Characteristic                      */, 0x00000001u /*       */, 0x0013u,
 220:Generated_Source\PSoC4/BLE_gatt.c ****     { 0x0012u, 0x7363u /* Custom Characteristic               */, 0x09000000u /*       */, 0x0013u,
 221:Generated_Source\PSoC4/BLE_gatt.c ****     { 0x0013u, 0xA645u /* Custom Descriptor                   */, 0x09000001u /*       */, 0x0013u,
 222:Generated_Source\PSoC4/BLE_gatt.c ****     { 0x0014u, 0x2800u /* Primary service                     */, 0x00000001u /*       */, 0x0020u,
 223:Generated_Source\PSoC4/BLE_gatt.c ****     { 0x0015u, 0x2803u /* Characteristic                      */, 0x00200001u /* ind   */, 0x0017u,
 224:Generated_Source\PSoC4/BLE_gatt.c ****     { 0x0016u, 0x2A1Cu /* Temperature Measurement             */, 0x01200000u /* ind   */, 0x0017u,
 225:Generated_Source\PSoC4/BLE_gatt.c ****     { 0x0017u, 0x2902u /* Client Characteristic Configuration */, 0x010A0101u /* rd,wr */, 0x0017u,
 226:Generated_Source\PSoC4/BLE_gatt.c ****     { 0x0018u, 0x2803u /* Characteristic                      */, 0x00020001u /* rd    */, 0x0019u,
 227:Generated_Source\PSoC4/BLE_gatt.c ****     { 0x0019u, 0x2A1Du /* Temperature Type                    */, 0x01020001u /* rd    */, 0x0019u,
 228:Generated_Source\PSoC4/BLE_gatt.c ****     { 0x001Au, 0x2803u /* Characteristic                      */, 0x00100001u /* ntf   */, 0x001Cu,
 229:Generated_Source\PSoC4/BLE_gatt.c ****     { 0x001Bu, 0x2A1Eu /* Intermediate Temperature            */, 0x01100000u /* ntf   */, 0x001Cu,
 230:Generated_Source\PSoC4/BLE_gatt.c ****     { 0x001Cu, 0x2902u /* Client Characteristic Configuration */, 0x010A0101u /* rd,wr */, 0x001Cu,
 231:Generated_Source\PSoC4/BLE_gatt.c ****     { 0x001Du, 0x2803u /* Characteristic                      */, 0x00020001u /* rd    */, 0x0020u,
 232:Generated_Source\PSoC4/BLE_gatt.c ****     { 0x001Eu, 0x2A21u /* Measurement Interval                */, 0x01020001u /* rd    */, 0x0020u,
 233:Generated_Source\PSoC4/BLE_gatt.c ****     { 0x001Fu, 0x2902u /* Client Characteristic Configuration */, 0x010A0101u /* rd,wr */, 0x001Fu,
 234:Generated_Source\PSoC4/BLE_gatt.c ****     { 0x0020u, 0x2906u /* Valid Range                         */, 0x01020001u /* rd    */, 0x0020u,
 235:Generated_Source\PSoC4/BLE_gatt.c **** };
 236:Generated_Source\PSoC4/BLE_gatt.c **** 
 237:Generated_Source\PSoC4/BLE_gatt.c **** 
 238:Generated_Source\PSoC4/BLE_gatt.c **** #endif /* (CYBLE_GATT_ROLE_SERVER) */
 239:Generated_Source\PSoC4/BLE_gatt.c **** 
 240:Generated_Source\PSoC4/BLE_gatt.c **** #if(CYBLE_GATT_ROLE_CLIENT)
 241:Generated_Source\PSoC4/BLE_gatt.c ****     
 242:Generated_Source\PSoC4/BLE_gatt.c **** CYBLE_CLIENT_STATE_T cyBle_clientState;
 243:Generated_Source\PSoC4/BLE_gatt.c **** CYBLE_GATTC_T cyBle_gattc;
 244:Generated_Source\PSoC4/BLE_gatt.c **** CYBLE_GATT_ATTR_HANDLE_RANGE_T cyBle_gattcDiscoveryRange;
 245:Generated_Source\PSoC4/BLE_gatt.c ****     
 246:Generated_Source\PSoC4/BLE_gatt.c **** #endif /* (CYBLE_GATT_ROLE_CLIENT) */
 247:Generated_Source\PSoC4/BLE_gatt.c **** 
 248:Generated_Source\PSoC4/BLE_gatt.c **** 
 249:Generated_Source\PSoC4/BLE_gatt.c **** #if(CYBLE_GATT_ROLE_SERVER)
 250:Generated_Source\PSoC4/BLE_gatt.c **** 
 251:Generated_Source\PSoC4/BLE_gatt.c **** /****************************************************************************** 
 252:Generated_Source\PSoC4/BLE_gatt.c **** * Function Name: CyBle_GattsReInitGattDb
 253:Generated_Source\PSoC4/BLE_gatt.c **** ***************************************************************************//**
 254:Generated_Source\PSoC4/BLE_gatt.c **** * 
 255:Generated_Source\PSoC4/BLE_gatt.c **** *  Reinitializes the GATT database.
 256:Generated_Source\PSoC4/BLE_gatt.c **** * 
 257:Generated_Source\PSoC4/BLE_gatt.c **** *  \return
 258:Generated_Source\PSoC4/BLE_gatt.c **** *  CYBLE_API_RESULT_T: A function result states if it succeeded or failed with
 259:Generated_Source\PSoC4/BLE_gatt.c **** *  error codes:
 260:Generated_Source\PSoC4/BLE_gatt.c **** 
 261:Generated_Source\PSoC4/BLE_gatt.c **** *  Errors codes                          | Description
 262:Generated_Source\PSoC4/BLE_gatt.c **** *  ------------                          | -----------
 263:Generated_Source\PSoC4/BLE_gatt.c **** *  CYBLE_ERROR_OK						 | GATT database was reinitialized successfully.
 264:Generated_Source\PSoC4/BLE_gatt.c **** *  CYBLE_ERROR_INVALID_STATE             | If the function is called in any state except CYBLE_STAT
 265:Generated_Source\PSoC4/BLE_gatt.c **** *  CYBLE_ERROR_INVALID_PARAMETER         | If the Database has zero entries or is a NULL pointer.
 266:Generated_Source\PSoC4/BLE_gatt.c **** * 
 267:Generated_Source\PSoC4/BLE_gatt.c **** ******************************************************************************/
 268:Generated_Source\PSoC4/BLE_gatt.c **** CYBLE_API_RESULT_T CyBle_GattsReInitGattDb(void)
 269:Generated_Source\PSoC4/BLE_gatt.c **** {
 1155              		.loc 1 269 0
 1156              		.cfi_startproc
ARM GAS  C:\Users\User\AppData\Local\Temp\ccMn0wdH.s 			page 26


 1157              		@ args = 0, pretend = 0, frame = 8
 1158              		@ frame_needed = 1, uses_anonymous_args = 0
 1159 0000 90B5     		push	{r4, r7, lr}
 1160              		.cfi_def_cfa_offset 12
 1161              		.cfi_offset 4, -12
 1162              		.cfi_offset 7, -8
 1163              		.cfi_offset 14, -4
 1164 0002 83B0     		sub	sp, sp, #12
 1165              		.cfi_def_cfa_offset 24
 1166 0004 00AF     		add	r7, sp, #0
 1167              		.cfi_def_cfa_register 7
 270:Generated_Source\PSoC4/BLE_gatt.c ****     CYBLE_API_RESULT_T apiResult;
 271:Generated_Source\PSoC4/BLE_gatt.c ****     
 272:Generated_Source\PSoC4/BLE_gatt.c ****     if(CyBle_GetState() == CYBLE_STATE_DISCONNECTED)
 1168              		.loc 1 272 0
 1169 0006 0C4B     		ldr	r3, .L5
 1170 0008 1B78     		ldrb	r3, [r3]
 1171 000a 062B     		cmp	r3, #6
 1172 000c 09D1     		bne	.L2
 273:Generated_Source\PSoC4/BLE_gatt.c ****     {
 274:Generated_Source\PSoC4/BLE_gatt.c ****         apiResult = CyBle_GattsDbRegister(cyBle_gattDB, CYBLE_GATT_DB_INDEX_COUNT, CYBLE_GATT_DB_MA
 1173              		.loc 1 274 0
 1174 000e BC1D     		adds	r4, r7, #6
 1175 0010 0A4B     		ldr	r3, .L5+4
 1176 0012 0D22     		movs	r2, #13
 1177 0014 2021     		movs	r1, #32
 1178 0016 1800     		movs	r0, r3
 1179 0018 FFF7FEFF 		bl	CyBle_GattsDbRegister
 1180 001c 0300     		movs	r3, r0
 1181 001e 2380     		strh	r3, [r4]
 1182 0020 03E0     		b	.L3
 1183              	.L2:
 275:Generated_Source\PSoC4/BLE_gatt.c ****     }
 276:Generated_Source\PSoC4/BLE_gatt.c ****     else
 277:Generated_Source\PSoC4/BLE_gatt.c ****     {
 278:Generated_Source\PSoC4/BLE_gatt.c ****         apiResult = CYBLE_ERROR_INVALID_STATE;
 1184              		.loc 1 278 0
 1185 0022 BB1D     		adds	r3, r7, #6
 1186 0024 0422     		movs	r2, #4
 1187 0026 FF32     		adds	r2, r2, #255
 1188 0028 1A80     		strh	r2, [r3]
 1189              	.L3:
 279:Generated_Source\PSoC4/BLE_gatt.c ****     }
 280:Generated_Source\PSoC4/BLE_gatt.c ****     
 281:Generated_Source\PSoC4/BLE_gatt.c ****     return(apiResult);
 1190              		.loc 1 281 0
 1191 002a BB1D     		adds	r3, r7, #6
 1192 002c 1B88     		ldrh	r3, [r3]
 282:Generated_Source\PSoC4/BLE_gatt.c **** }
 1193              		.loc 1 282 0
 1194 002e 1800     		movs	r0, r3
 1195 0030 BD46     		mov	sp, r7
 1196 0032 03B0     		add	sp, sp, #12
 1197              		@ sp needed
 1198 0034 90BD     		pop	{r4, r7, pc}
 1199              	.L6:
 1200 0036 C046     		.align	2
ARM GAS  C:\Users\User\AppData\Local\Temp\ccMn0wdH.s 			page 27


 1201              	.L5:
 1202 0038 00000000 		.word	cyBle_state
 1203 003c 00000000 		.word	cyBle_gattDB
 1204              		.cfi_endproc
 1205              	.LFE2:
 1206              		.size	CyBle_GattsReInitGattDb, .-CyBle_GattsReInitGattDb
 1207              		.section	.text.CyBle_GattsWriteEventHandler,"ax",%progbits
 1208              		.align	2
 1209              		.global	CyBle_GattsWriteEventHandler
 1210              		.code	16
 1211              		.thumb_func
 1212              		.type	CyBle_GattsWriteEventHandler, %function
 1213              	CyBle_GattsWriteEventHandler:
 1214              	.LFB3:
 283:Generated_Source\PSoC4/BLE_gatt.c **** 
 284:Generated_Source\PSoC4/BLE_gatt.c **** 
 285:Generated_Source\PSoC4/BLE_gatt.c **** /****************************************************************************** 
 286:Generated_Source\PSoC4/BLE_gatt.c **** * Function Name: CyBle_GattsWriteEventHandler
 287:Generated_Source\PSoC4/BLE_gatt.c **** ***************************************************************************//**
 288:Generated_Source\PSoC4/BLE_gatt.c **** * 
 289:Generated_Source\PSoC4/BLE_gatt.c **** *  Handles the Write Request Event for GATT service.
 290:Generated_Source\PSoC4/BLE_gatt.c **** * 
 291:Generated_Source\PSoC4/BLE_gatt.c **** *  \param eventParam: The pointer to the data structure specified by the event.
 292:Generated_Source\PSoC4/BLE_gatt.c **** * 
 293:Generated_Source\PSoC4/BLE_gatt.c **** *  \return
 294:Generated_Source\PSoC4/BLE_gatt.c **** *  CYBLE_GATT_ERR_CODE_T: A function returns one of the following status 
 295:Generated_Source\PSoC4/BLE_gatt.c **** *  values.
 296:Generated_Source\PSoC4/BLE_gatt.c **** 
 297:Generated_Source\PSoC4/BLE_gatt.c **** *  Errors codes                          | Description
 298:Generated_Source\PSoC4/BLE_gatt.c **** *  --------------------                  | -----------
 299:Generated_Source\PSoC4/BLE_gatt.c **** *  CYBLE_GATT_ERR_NONE                   | Write is successful.
 300:Generated_Source\PSoC4/BLE_gatt.c **** * 
 301:Generated_Source\PSoC4/BLE_gatt.c **** ******************************************************************************/
 302:Generated_Source\PSoC4/BLE_gatt.c **** CYBLE_GATT_ERR_CODE_T CyBle_GattsWriteEventHandler(CYBLE_GATTS_WRITE_REQ_PARAM_T *eventParam)
 303:Generated_Source\PSoC4/BLE_gatt.c **** {
 1215              		.loc 1 303 0
 1216              		.cfi_startproc
 1217              		@ args = 0, pretend = 0, frame = 16
 1218              		@ frame_needed = 1, uses_anonymous_args = 0
 1219 0000 90B5     		push	{r4, r7, lr}
 1220              		.cfi_def_cfa_offset 12
 1221              		.cfi_offset 4, -12
 1222              		.cfi_offset 7, -8
 1223              		.cfi_offset 14, -4
 1224 0002 85B0     		sub	sp, sp, #20
 1225              		.cfi_def_cfa_offset 32
 1226 0004 00AF     		add	r7, sp, #0
 1227              		.cfi_def_cfa_register 7
 1228 0006 7860     		str	r0, [r7, #4]
 304:Generated_Source\PSoC4/BLE_gatt.c ****     CYBLE_GATT_ERR_CODE_T gattErr = CYBLE_GATT_ERR_NONE;
 1229              		.loc 1 304 0
 1230 0008 0F23     		movs	r3, #15
 1231 000a FB18     		adds	r3, r7, r3
 1232 000c 0022     		movs	r2, #0
 1233 000e 1A70     		strb	r2, [r3]
 305:Generated_Source\PSoC4/BLE_gatt.c ****     
 306:Generated_Source\PSoC4/BLE_gatt.c ****     /* Client Characteristic Configuration descriptor write request */
ARM GAS  C:\Users\User\AppData\Local\Temp\ccMn0wdH.s 			page 28


 307:Generated_Source\PSoC4/BLE_gatt.c ****     if(eventParam->handleValPair.attrHandle == cyBle_gatts.cccdHandle)
 1234              		.loc 1 307 0
 1235 0010 7B68     		ldr	r3, [r7, #4]
 1236 0012 9B89     		ldrh	r3, [r3, #12]
 1237 0014 0F22     		movs	r2, #15
 1238 0016 9342     		cmp	r3, r2
 1239 0018 32D1     		bne	.L8
 308:Generated_Source\PSoC4/BLE_gatt.c ****     {
 309:Generated_Source\PSoC4/BLE_gatt.c ****         /* Store value to database */
 310:Generated_Source\PSoC4/BLE_gatt.c ****         gattErr = CyBle_GattsWriteAttributeValue(&eventParam->handleValPair, 0u, 
 1240              		.loc 1 310 0
 1241 001a 7B68     		ldr	r3, [r7, #4]
 1242 001c 181D     		adds	r0, r3, #4
 1243 001e 7A68     		ldr	r2, [r7, #4]
 1244 0020 0F23     		movs	r3, #15
 1245 0022 FC18     		adds	r4, r7, r3
 1246 0024 4023     		movs	r3, #64
 1247 0026 0021     		movs	r1, #0
 1248 0028 FFF7FEFF 		bl	CyBle_GattsWriteAttributeValue
 1249 002c 0300     		movs	r3, r0
 1250 002e 2370     		strb	r3, [r4]
 311:Generated_Source\PSoC4/BLE_gatt.c ****                         &eventParam->connHandle, CYBLE_GATT_DB_PEER_INITIATED);
 312:Generated_Source\PSoC4/BLE_gatt.c ****         
 313:Generated_Source\PSoC4/BLE_gatt.c ****         if(gattErr == CYBLE_GATT_ERR_NONE)
 1251              		.loc 1 313 0
 1252 0030 0F23     		movs	r3, #15
 1253 0032 FB18     		adds	r3, r7, r3
 1254 0034 1B78     		ldrb	r3, [r3]
 1255 0036 002B     		cmp	r3, #0
 1256 0038 1AD1     		bne	.L9
 314:Generated_Source\PSoC4/BLE_gatt.c ****         {
 315:Generated_Source\PSoC4/BLE_gatt.c ****             if(CYBLE_IS_INDICATION_ENABLED_IN_PTR(eventParam->handleValPair.value.val))
 1257              		.loc 1 315 0
 1258 003a 7B68     		ldr	r3, [r7, #4]
 1259 003c 5B68     		ldr	r3, [r3, #4]
 1260 003e 1800     		movs	r0, r3
 1261 0040 FFF7FEFF 		bl	CyBle_Get16ByPtr
 1262 0044 0300     		movs	r3, r0
 1263 0046 1A00     		movs	r2, r3
 1264 0048 0223     		movs	r3, #2
 1265 004a 1340     		ands	r3, r2
 1266 004c 9BB2     		uxth	r3, r3
 1267 004e 002B     		cmp	r3, #0
 1268 0050 07D0     		beq	.L10
 316:Generated_Source\PSoC4/BLE_gatt.c ****             {
 317:Generated_Source\PSoC4/BLE_gatt.c ****                 CyBle_ApplCallback((uint32)CYBLE_EVT_GATTS_INDICATION_ENABLED, eventParam);
 1269              		.loc 1 317 0
 1270 0052 0F4B     		ldr	r3, .L12
 1271 0054 1B68     		ldr	r3, [r3]
 1272 0056 7968     		ldr	r1, [r7, #4]
 1273 0058 8222     		movs	r2, #130
 1274 005a 5200     		lsls	r2, r2, #1
 1275 005c 1000     		movs	r0, r2
 1276 005e 9847     		blx	r3
 1277 0060 06E0     		b	.L9
 1278              	.L10:
 318:Generated_Source\PSoC4/BLE_gatt.c ****             }
ARM GAS  C:\Users\User\AppData\Local\Temp\ccMn0wdH.s 			page 29


 319:Generated_Source\PSoC4/BLE_gatt.c ****             else
 320:Generated_Source\PSoC4/BLE_gatt.c ****             {
 321:Generated_Source\PSoC4/BLE_gatt.c ****                 CyBle_ApplCallback((uint32)CYBLE_EVT_GATTS_INDICATION_DISABLED, eventParam);
 1279              		.loc 1 321 0
 1280 0062 0B4B     		ldr	r3, .L12
 1281 0064 1B68     		ldr	r3, [r3]
 1282 0066 7968     		ldr	r1, [r7, #4]
 1283 0068 0622     		movs	r2, #6
 1284 006a FF32     		adds	r2, r2, #255
 1285 006c 1000     		movs	r0, r2
 1286 006e 9847     		blx	r3
 1287              	.L9:
 322:Generated_Source\PSoC4/BLE_gatt.c ****             }
 323:Generated_Source\PSoC4/BLE_gatt.c ****         }
 324:Generated_Source\PSoC4/BLE_gatt.c ****         cyBle_eventHandlerFlag &= (uint8)~CYBLE_CALLBACK;
 1288              		.loc 1 324 0
 1289 0070 084B     		ldr	r3, .L12+4
 1290 0072 1B78     		ldrb	r3, [r3]
 1291 0074 DBB2     		uxtb	r3, r3
 1292 0076 0122     		movs	r2, #1
 1293 0078 9343     		bics	r3, r2
 1294 007a DAB2     		uxtb	r2, r3
 1295 007c 054B     		ldr	r3, .L12+4
 1296 007e 1A70     		strb	r2, [r3]
 1297              	.L8:
 325:Generated_Source\PSoC4/BLE_gatt.c ****     }
 326:Generated_Source\PSoC4/BLE_gatt.c ****     return (gattErr);
 1298              		.loc 1 326 0
 1299 0080 0F23     		movs	r3, #15
 1300 0082 FB18     		adds	r3, r7, r3
 1301 0084 1B78     		ldrb	r3, [r3]
 327:Generated_Source\PSoC4/BLE_gatt.c **** }
 1302              		.loc 1 327 0
 1303 0086 1800     		movs	r0, r3
 1304 0088 BD46     		mov	sp, r7
 1305 008a 05B0     		add	sp, sp, #20
 1306              		@ sp needed
 1307 008c 90BD     		pop	{r4, r7, pc}
 1308              	.L13:
 1309 008e C046     		.align	2
 1310              	.L12:
 1311 0090 00000000 		.word	CyBle_ApplCallback
 1312 0094 00000000 		.word	cyBle_eventHandlerFlag
 1313              		.cfi_endproc
 1314              	.LFE3:
 1315              		.size	CyBle_GattsWriteEventHandler, .-CyBle_GattsWriteEventHandler
 1316              		.section	.text.CyBle_GattcStartDiscovery,"ax",%progbits
 1317              		.align	2
 1318              		.global	CyBle_GattcStartDiscovery
 1319              		.code	16
 1320              		.thumb_func
 1321              		.type	CyBle_GattcStartDiscovery, %function
 1322              	CyBle_GattcStartDiscovery:
 1323              	.LFB4:
 328:Generated_Source\PSoC4/BLE_gatt.c **** 
 329:Generated_Source\PSoC4/BLE_gatt.c **** 
 330:Generated_Source\PSoC4/BLE_gatt.c **** #endif /* (CYBLE_GATT_ROLE_SERVER) */
ARM GAS  C:\Users\User\AppData\Local\Temp\ccMn0wdH.s 			page 30


 331:Generated_Source\PSoC4/BLE_gatt.c **** 
 332:Generated_Source\PSoC4/BLE_gatt.c **** #if(CYBLE_GATT_ROLE_CLIENT)
 333:Generated_Source\PSoC4/BLE_gatt.c **** 
 334:Generated_Source\PSoC4/BLE_gatt.c **** /****************************************************************************** 
 335:Generated_Source\PSoC4/BLE_gatt.c **** * Function Name: CyBle_GattcStartDiscovery
 336:Generated_Source\PSoC4/BLE_gatt.c **** ***************************************************************************//**
 337:Generated_Source\PSoC4/BLE_gatt.c **** * 
 338:Generated_Source\PSoC4/BLE_gatt.c **** *  Starts the automatic server discovery process. 
 339:Generated_Source\PSoC4/BLE_gatt.c **** *   
 340:Generated_Source\PSoC4/BLE_gatt.c **** *   Discovery procedure is based on the user configuration. It discovers only services, characteris
 341:Generated_Source\PSoC4/BLE_gatt.c **** *   descriptors which were declared in the GATT database.
 342:Generated_Source\PSoC4/BLE_gatt.c **** *   Discovery procedure has the following flow:
 343:Generated_Source\PSoC4/BLE_gatt.c **** *   - discovering primary services by BLE Stack function CyBle_GattcDiscoverAllPrimaryServices();
 344:Generated_Source\PSoC4/BLE_gatt.c **** *   - discovering included services by BLE Stack function CyBle_GattcFindIncludedServices();
 345:Generated_Source\PSoC4/BLE_gatt.c **** *   - discovering characteristics for available services by BLE Stack function CyBle_GattcDiscoverA
 346:Generated_Source\PSoC4/BLE_gatt.c **** *   - discovering characteristic descriptors by BLE Stack function CyBle_GattcDiscoverAllCharacteri
 347:Generated_Source\PSoC4/BLE_gatt.c **** *
 348:Generated_Source\PSoC4/BLE_gatt.c **** *   During the discovery procedure the discovery-specific stack events are handled by the component
 349:Generated_Source\PSoC4/BLE_gatt.c **** *   and thus arent passed to the application callback: CYBLE_EVT_GATTC_READ_BY_GROUP_TYPE_RSP,
 350:Generated_Source\PSoC4/BLE_gatt.c **** *   CYBLE_EVT_GATTC_READ_BY_TYPE_RSP, CYBLE_EVT_GATTC_FIND_INFO_RSP, CYBLE_EVT_GATTC_ERROR_RSP.    
 351:Generated_Source\PSoC4/BLE_gatt.c **** *   
 352:Generated_Source\PSoC4/BLE_gatt.c **** *   After the discovery procedure all information about available services is stored in CYBLE_DISC_
 353:Generated_Source\PSoC4/BLE_gatt.c **** *   and discovered attributes handles are stored in service-specific client structures, such as CYB
 354:Generated_Source\PSoC4/BLE_gatt.c **** *   Battery Service or CYBLE_HRSC_T for Heart Rate Service.
 355:Generated_Source\PSoC4/BLE_gatt.c **** *
 356:Generated_Source\PSoC4/BLE_gatt.c **** *  \param connHandle: The handle which consists of the device ID and ATT connection ID.
 357:Generated_Source\PSoC4/BLE_gatt.c **** * 
 358:Generated_Source\PSoC4/BLE_gatt.c **** *  \return
 359:Generated_Source\PSoC4/BLE_gatt.c **** *  CYBLE_API_RESULT_T : Return value indicates if the function succeeded or
 360:Generated_Source\PSoC4/BLE_gatt.c **** *                        failed. Following are the possible error codes.
 361:Generated_Source\PSoC4/BLE_gatt.c **** *
 362:Generated_Source\PSoC4/BLE_gatt.c **** *   <table>	
 363:Generated_Source\PSoC4/BLE_gatt.c **** *   <tr>
 364:Generated_Source\PSoC4/BLE_gatt.c **** *	  <th>Errors codes</th>
 365:Generated_Source\PSoC4/BLE_gatt.c **** *	  <th>Description</th>
 366:Generated_Source\PSoC4/BLE_gatt.c **** *	</tr>
 367:Generated_Source\PSoC4/BLE_gatt.c **** *	<tr>
 368:Generated_Source\PSoC4/BLE_gatt.c **** *	  <td>CYBLE_ERROR_OK</td>
 369:Generated_Source\PSoC4/BLE_gatt.c **** *	  <td>On successful operation</td>
 370:Generated_Source\PSoC4/BLE_gatt.c **** *	</tr>
 371:Generated_Source\PSoC4/BLE_gatt.c **** *	<tr>
 372:Generated_Source\PSoC4/BLE_gatt.c **** *	  <td>CYBLE_ERROR_INVALID_PARAMETER</td>
 373:Generated_Source\PSoC4/BLE_gatt.c **** *	  <td>'connHandle' value does not represent any existing entry.</td>
 374:Generated_Source\PSoC4/BLE_gatt.c **** *	</tr>
 375:Generated_Source\PSoC4/BLE_gatt.c **** *	<tr>
 376:Generated_Source\PSoC4/BLE_gatt.c **** *	  <td>CYBLE_ERROR_INVALID_OPERATION</td>
 377:Generated_Source\PSoC4/BLE_gatt.c **** *	  <td>The operation is not permitted</td>
 378:Generated_Source\PSoC4/BLE_gatt.c **** *	</tr>
 379:Generated_Source\PSoC4/BLE_gatt.c **** *   <tr>
 380:Generated_Source\PSoC4/BLE_gatt.c **** *	  <td>CYBLE_ERROR_MEMORY_ALLOCATION_FAILED</td>
 381:Generated_Source\PSoC4/BLE_gatt.c **** *	  <td>Memory allocation failed</td>
 382:Generated_Source\PSoC4/BLE_gatt.c **** *	</tr>
 383:Generated_Source\PSoC4/BLE_gatt.c **** *   <tr>
 384:Generated_Source\PSoC4/BLE_gatt.c **** *	  <td>CYBLE_ERROR_INVALID_STATE</td>
 385:Generated_Source\PSoC4/BLE_gatt.c **** *	  <td>If the function is called in any state except connected or discovered</td>
 386:Generated_Source\PSoC4/BLE_gatt.c **** *	</tr>
 387:Generated_Source\PSoC4/BLE_gatt.c **** *   </table>
ARM GAS  C:\Users\User\AppData\Local\Temp\ccMn0wdH.s 			page 31


 388:Generated_Source\PSoC4/BLE_gatt.c **** *
 389:Generated_Source\PSoC4/BLE_gatt.c **** *  \events
 390:Generated_Source\PSoC4/BLE_gatt.c **** *   The following events may be generated after calling this function:
 391:Generated_Source\PSoC4/BLE_gatt.c **** *   * CYBLE_EVT_GATTC_DISCOVERY_COMPLETE  - event is generated when the remote device was successfu
 392:Generated_Source\PSoC4/BLE_gatt.c **** *   * CYBLE_EVT_GATTC_ERROR_RSP  		- is generated if the device discovery has failed.
 393:Generated_Source\PSoC4/BLE_gatt.c **** *   * CYBLE_EVT_GATTC_SRVC_DUPLICATION 	- is generated if duplicate service record was found during
 394:Generated_Source\PSoC4/BLE_gatt.c **** *        								  discovery.
 395:Generated_Source\PSoC4/BLE_gatt.c **** *   * CYBLE_EVT_GATTC_CHAR_DUPLICATION 	- is generated if duplicate service's characteristic descri
 396:Generated_Source\PSoC4/BLE_gatt.c **** *        								  during the server device discovery.
 397:Generated_Source\PSoC4/BLE_gatt.c **** *   * CYBLE_EVT_GATTC_DESCR_DUPLICATION - is generated if duplicate service's characteristic descri
 398:Generated_Source\PSoC4/BLE_gatt.c **** *        								  during the server device discovery.
 399:Generated_Source\PSoC4/BLE_gatt.c **** *  
 400:Generated_Source\PSoC4/BLE_gatt.c **** ******************************************************************************/
 401:Generated_Source\PSoC4/BLE_gatt.c **** CYBLE_API_RESULT_T CyBle_GattcStartDiscovery(CYBLE_CONN_HANDLE_T connHandle)
 402:Generated_Source\PSoC4/BLE_gatt.c **** {
 1324              		.loc 1 402 0
 1325              		.cfi_startproc
 1326              		@ args = 0, pretend = 0, frame = 16
 1327              		@ frame_needed = 1, uses_anonymous_args = 0
 1328 0000 90B5     		push	{r4, r7, lr}
 1329              		.cfi_def_cfa_offset 12
 1330              		.cfi_offset 4, -12
 1331              		.cfi_offset 7, -8
 1332              		.cfi_offset 14, -4
 1333 0002 85B0     		sub	sp, sp, #20
 1334              		.cfi_def_cfa_offset 32
 1335 0004 00AF     		add	r7, sp, #0
 1336              		.cfi_def_cfa_register 7
 1337 0006 3B1D     		adds	r3, r7, #4
 1338 0008 1880     		strh	r0, [r3]
 403:Generated_Source\PSoC4/BLE_gatt.c ****     uint8 j;
 404:Generated_Source\PSoC4/BLE_gatt.c ****     CYBLE_API_RESULT_T apiResult;
 405:Generated_Source\PSoC4/BLE_gatt.c ****     
 406:Generated_Source\PSoC4/BLE_gatt.c ****     if((CyBle_GetState() != CYBLE_STATE_CONNECTED) || 
 1339              		.loc 1 406 0
 1340 000a 304B     		ldr	r3, .L21
 1341 000c 1B78     		ldrb	r3, [r3]
 1342 000e 022B     		cmp	r3, #2
 1343 0010 07D1     		bne	.L15
 407:Generated_Source\PSoC4/BLE_gatt.c ****        ((CyBle_GetClientState() != CYBLE_CLIENT_STATE_CONNECTED) && 
 1344              		.loc 1 407 0 discriminator 1
 1345 0012 2F4B     		ldr	r3, .L21+4
 1346 0014 1B78     		ldrb	r3, [r3]
 406:Generated_Source\PSoC4/BLE_gatt.c ****        ((CyBle_GetClientState() != CYBLE_CLIENT_STATE_CONNECTED) && 
 1347              		.loc 1 406 0 discriminator 1
 1348 0016 002B     		cmp	r3, #0
 1349 0018 09D0     		beq	.L16
 408:Generated_Source\PSoC4/BLE_gatt.c ****         (CyBle_GetClientState() != CYBLE_CLIENT_STATE_DISCOVERED))) 
 1350              		.loc 1 408 0
 1351 001a 2D4B     		ldr	r3, .L21+4
 1352 001c 1B78     		ldrb	r3, [r3]
 407:Generated_Source\PSoC4/BLE_gatt.c ****        ((CyBle_GetClientState() != CYBLE_CLIENT_STATE_CONNECTED) && 
 1353              		.loc 1 407 0
 1354 001e 052B     		cmp	r3, #5
 1355 0020 05D0     		beq	.L16
 1356              	.L15:
 409:Generated_Source\PSoC4/BLE_gatt.c ****     {
ARM GAS  C:\Users\User\AppData\Local\Temp\ccMn0wdH.s 			page 32


 410:Generated_Source\PSoC4/BLE_gatt.c ****         apiResult = CYBLE_ERROR_INVALID_STATE;
 1357              		.loc 1 410 0
 1358 0022 0C23     		movs	r3, #12
 1359 0024 FB18     		adds	r3, r7, r3
 1360 0026 0422     		movs	r2, #4
 1361 0028 FF32     		adds	r2, r2, #255
 1362 002a 1A80     		strh	r2, [r3]
 1363 002c 47E0     		b	.L17
 1364              	.L16:
 411:Generated_Source\PSoC4/BLE_gatt.c ****     }
 412:Generated_Source\PSoC4/BLE_gatt.c ****     else
 413:Generated_Source\PSoC4/BLE_gatt.c ****     {
 414:Generated_Source\PSoC4/BLE_gatt.c ****         /* Clean old discovery information */
 415:Generated_Source\PSoC4/BLE_gatt.c ****         for(j = 0u; j < (uint8) CYBLE_SRVI_COUNT; j++)
 1365              		.loc 1 415 0
 1366 002e 0F23     		movs	r3, #15
 1367 0030 FB18     		adds	r3, r7, r3
 1368 0032 0022     		movs	r2, #0
 1369 0034 1A70     		strb	r2, [r3]
 1370 0036 14E0     		b	.L18
 1371              	.L19:
 416:Generated_Source\PSoC4/BLE_gatt.c ****         {
 417:Generated_Source\PSoC4/BLE_gatt.c ****             (void)memset(&cyBle_serverInfo[j].range, 0, sizeof(cyBle_serverInfo[0].range));
 1372              		.loc 1 417 0 discriminator 3
 1373 0038 0F23     		movs	r3, #15
 1374 003a FB18     		adds	r3, r7, r3
 1375 003c 1A78     		ldrb	r2, [r3]
 1376 003e 1300     		movs	r3, r2
 1377 0040 5B00     		lsls	r3, r3, #1
 1378 0042 9B18     		adds	r3, r3, r2
 1379 0044 5B00     		lsls	r3, r3, #1
 1380 0046 234A     		ldr	r2, .L21+8
 1381 0048 9B18     		adds	r3, r3, r2
 1382 004a 0422     		movs	r2, #4
 1383 004c 0021     		movs	r1, #0
 1384 004e 1800     		movs	r0, r3
 1385 0050 FFF7FEFF 		bl	memset
 415:Generated_Source\PSoC4/BLE_gatt.c ****         {
 1386              		.loc 1 415 0 discriminator 3
 1387 0054 0F23     		movs	r3, #15
 1388 0056 FB18     		adds	r3, r7, r3
 1389 0058 1A78     		ldrb	r2, [r3]
 1390 005a 0F23     		movs	r3, #15
 1391 005c FB18     		adds	r3, r7, r3
 1392 005e 0132     		adds	r2, r2, #1
 1393 0060 1A70     		strb	r2, [r3]
 1394              	.L18:
 415:Generated_Source\PSoC4/BLE_gatt.c ****         {
 1395              		.loc 1 415 0 is_stmt 0 discriminator 1
 1396 0062 0F23     		movs	r3, #15
 1397 0064 FB18     		adds	r3, r7, r3
 1398 0066 1B78     		ldrb	r3, [r3]
 1399 0068 032B     		cmp	r3, #3
 1400 006a E5D9     		bls	.L19
 418:Generated_Source\PSoC4/BLE_gatt.c ****         }
 419:Generated_Source\PSoC4/BLE_gatt.c **** 
 420:Generated_Source\PSoC4/BLE_gatt.c ****         cyBle_connHandle = connHandle;
ARM GAS  C:\Users\User\AppData\Local\Temp\ccMn0wdH.s 			page 33


 1401              		.loc 1 420 0 is_stmt 1
 1402 006c 1A4A     		ldr	r2, .L21+12
 1403 006e 3B1D     		adds	r3, r7, #4
 1404 0070 1000     		movs	r0, r2
 1405 0072 1900     		movs	r1, r3
 1406 0074 0223     		movs	r3, #2
 1407 0076 1A00     		movs	r2, r3
 1408 0078 FFF7FEFF 		bl	memcpy
 421:Generated_Source\PSoC4/BLE_gatt.c ****         cyBle_gattcDiscoveryRange.startHandle = CYBLE_GATT_ATTR_HANDLE_START_RANGE;
 1409              		.loc 1 421 0
 1410 007c 174B     		ldr	r3, .L21+16
 1411 007e 0122     		movs	r2, #1
 1412 0080 1A80     		strh	r2, [r3]
 422:Generated_Source\PSoC4/BLE_gatt.c ****         cyBle_gattcDiscoveryRange.endHandle = CYBLE_GATT_ATTR_HANDLE_END_RANGE;
 1413              		.loc 1 422 0
 1414 0082 164B     		ldr	r3, .L21+16
 1415 0084 0122     		movs	r2, #1
 1416 0086 5242     		rsbs	r2, r2, #0
 1417 0088 5A80     		strh	r2, [r3, #2]
 423:Generated_Source\PSoC4/BLE_gatt.c ****         
 424:Generated_Source\PSoC4/BLE_gatt.c ****         CyBle_ServiceInit();
 1418              		.loc 1 424 0
 1419 008a FFF7FEFF 		bl	CyBle_ServiceInit
 425:Generated_Source\PSoC4/BLE_gatt.c ****         
 426:Generated_Source\PSoC4/BLE_gatt.c ****         apiResult = CyBle_GattcDiscoverAllPrimaryServices(connHandle);
 1420              		.loc 1 426 0
 1421 008e 0C23     		movs	r3, #12
 1422 0090 FC18     		adds	r4, r7, r3
 1423 0092 3B1D     		adds	r3, r7, #4
 1424 0094 1868     		ldr	r0, [r3]
 1425 0096 FFF7FEFF 		bl	CyBle_GattcDiscoverAllPrimaryServices
 1426 009a 0300     		movs	r3, r0
 1427 009c 2380     		strh	r3, [r4]
 427:Generated_Source\PSoC4/BLE_gatt.c **** 
 428:Generated_Source\PSoC4/BLE_gatt.c ****         if(apiResult == CYBLE_ERROR_OK)
 1428              		.loc 1 428 0
 1429 009e 0C23     		movs	r3, #12
 1430 00a0 FB18     		adds	r3, r7, r3
 1431 00a2 1B88     		ldrh	r3, [r3]
 1432 00a4 002B     		cmp	r3, #0
 1433 00a6 0AD1     		bne	.L17
 429:Generated_Source\PSoC4/BLE_gatt.c ****         {
 430:Generated_Source\PSoC4/BLE_gatt.c ****             CyBle_SetClientState(CYBLE_CLIENT_STATE_SRVC_DISCOVERING);
 1434              		.loc 1 430 0
 1435 00a8 094B     		ldr	r3, .L21+4
 1436 00aa 0122     		movs	r2, #1
 1437 00ac 1A70     		strb	r2, [r3]
 431:Generated_Source\PSoC4/BLE_gatt.c ****             cyBle_eventHandlerFlag |= CYBLE_AUTO_DISCOVERY;
 1438              		.loc 1 431 0
 1439 00ae 0C4B     		ldr	r3, .L21+20
 1440 00b0 1B78     		ldrb	r3, [r3]
 1441 00b2 DBB2     		uxtb	r3, r3
 1442 00b4 0222     		movs	r2, #2
 1443 00b6 1343     		orrs	r3, r2
 1444 00b8 DAB2     		uxtb	r2, r3
 1445 00ba 094B     		ldr	r3, .L21+20
 1446 00bc 1A70     		strb	r2, [r3]
ARM GAS  C:\Users\User\AppData\Local\Temp\ccMn0wdH.s 			page 34


 1447              	.L17:
 432:Generated_Source\PSoC4/BLE_gatt.c ****         }
 433:Generated_Source\PSoC4/BLE_gatt.c ****     }
 434:Generated_Source\PSoC4/BLE_gatt.c ****     
 435:Generated_Source\PSoC4/BLE_gatt.c ****     return (apiResult);
 1448              		.loc 1 435 0
 1449 00be 0C23     		movs	r3, #12
 1450 00c0 FB18     		adds	r3, r7, r3
 1451 00c2 1B88     		ldrh	r3, [r3]
 436:Generated_Source\PSoC4/BLE_gatt.c **** }
 1452              		.loc 1 436 0
 1453 00c4 1800     		movs	r0, r3
 1454 00c6 BD46     		mov	sp, r7
 1455 00c8 05B0     		add	sp, sp, #20
 1456              		@ sp needed
 1457 00ca 90BD     		pop	{r4, r7, pc}
 1458              	.L22:
 1459              		.align	2
 1460              	.L21:
 1461 00cc 00000000 		.word	cyBle_state
 1462 00d0 00000000 		.word	cyBle_clientState
 1463 00d4 00000000 		.word	cyBle_serverInfo
 1464 00d8 00000000 		.word	cyBle_connHandle
 1465 00dc 00000000 		.word	cyBle_gattcDiscoveryRange
 1466 00e0 00000000 		.word	cyBle_eventHandlerFlag
 1467              		.cfi_endproc
 1468              	.LFE4:
 1469              		.size	CyBle_GattcStartDiscovery, .-CyBle_GattcStartDiscovery
 1470              		.section	.text.CyBle_GattcStartPartialDiscovery,"ax",%progbits
 1471              		.align	2
 1472              		.global	CyBle_GattcStartPartialDiscovery
 1473              		.code	16
 1474              		.thumb_func
 1475              		.type	CyBle_GattcStartPartialDiscovery, %function
 1476              	CyBle_GattcStartPartialDiscovery:
 1477              	.LFB5:
 437:Generated_Source\PSoC4/BLE_gatt.c **** 
 438:Generated_Source\PSoC4/BLE_gatt.c **** 
 439:Generated_Source\PSoC4/BLE_gatt.c **** /****************************************************************************** 
 440:Generated_Source\PSoC4/BLE_gatt.c **** * Function Name: CyBle_GattcStartPartialDiscovery
 441:Generated_Source\PSoC4/BLE_gatt.c **** ***************************************************************************//**
 442:Generated_Source\PSoC4/BLE_gatt.c **** * 
 443:Generated_Source\PSoC4/BLE_gatt.c **** *  Starts the automatic server discovery process as per the range provided
 444:Generated_Source\PSoC4/BLE_gatt.c **** *  on a GATT Server to which it is connected. This function could be used for 
 445:Generated_Source\PSoC4/BLE_gatt.c **** *  partial server discovery after indication received to the Service Changed
 446:Generated_Source\PSoC4/BLE_gatt.c **** *  Characteristic Value. 
 447:Generated_Source\PSoC4/BLE_gatt.c **** * 
 448:Generated_Source\PSoC4/BLE_gatt.c **** *  \param connHandle: The handle which consists of the device ID and ATT connection ID.
 449:Generated_Source\PSoC4/BLE_gatt.c **** *  \param startHandle: Start of affected attribute handle range.
 450:Generated_Source\PSoC4/BLE_gatt.c **** *  \param endHandle: End of affected attribute handle range.
 451:Generated_Source\PSoC4/BLE_gatt.c **** * 
 452:Generated_Source\PSoC4/BLE_gatt.c **** *  \return
 453:Generated_Source\PSoC4/BLE_gatt.c **** *	CYBLE_API_RESULT_T : Return value indicates if the function succeeded or
 454:Generated_Source\PSoC4/BLE_gatt.c **** *                        failed. Following are the possible error codes.
 455:Generated_Source\PSoC4/BLE_gatt.c **** *
 456:Generated_Source\PSoC4/BLE_gatt.c **** *   <table>	
 457:Generated_Source\PSoC4/BLE_gatt.c **** *   <tr>
ARM GAS  C:\Users\User\AppData\Local\Temp\ccMn0wdH.s 			page 35


 458:Generated_Source\PSoC4/BLE_gatt.c **** *	  <th>Errors codes</th>
 459:Generated_Source\PSoC4/BLE_gatt.c **** *	  <th>Description</th>
 460:Generated_Source\PSoC4/BLE_gatt.c **** *	</tr>
 461:Generated_Source\PSoC4/BLE_gatt.c **** *	<tr>
 462:Generated_Source\PSoC4/BLE_gatt.c **** *	  <td>CYBLE_ERROR_OK</td>
 463:Generated_Source\PSoC4/BLE_gatt.c **** *	  <td>On successful operation</td>
 464:Generated_Source\PSoC4/BLE_gatt.c **** *	</tr>
 465:Generated_Source\PSoC4/BLE_gatt.c **** *	<tr>
 466:Generated_Source\PSoC4/BLE_gatt.c **** *	  <td>CYBLE_ERROR_INVALID_PARAMETER</td>
 467:Generated_Source\PSoC4/BLE_gatt.c **** *	  <td>'connHandle' value does not represent any existing entry.</td>
 468:Generated_Source\PSoC4/BLE_gatt.c **** *	</tr>
 469:Generated_Source\PSoC4/BLE_gatt.c **** *	<tr>
 470:Generated_Source\PSoC4/BLE_gatt.c **** *	  <td>CYBLE_ERROR_INVALID_OPERATION</td>
 471:Generated_Source\PSoC4/BLE_gatt.c **** *	  <td>The operation is not permitted</td>
 472:Generated_Source\PSoC4/BLE_gatt.c **** *	</tr>
 473:Generated_Source\PSoC4/BLE_gatt.c **** *   <tr>
 474:Generated_Source\PSoC4/BLE_gatt.c **** *	  <td>CYBLE_ERROR_MEMORY_ALLOCATION_FAILED</td>
 475:Generated_Source\PSoC4/BLE_gatt.c **** *	  <td>Memory allocation failed</td>
 476:Generated_Source\PSoC4/BLE_gatt.c **** *	</tr>
 477:Generated_Source\PSoC4/BLE_gatt.c **** *   <tr>
 478:Generated_Source\PSoC4/BLE_gatt.c **** *	  <td>CYBLE_ERROR_INVALID_STATE</td>
 479:Generated_Source\PSoC4/BLE_gatt.c **** *	  <td>If the function is called in any state except connected or discovered</td>
 480:Generated_Source\PSoC4/BLE_gatt.c **** *	</tr>
 481:Generated_Source\PSoC4/BLE_gatt.c **** *   </table>
 482:Generated_Source\PSoC4/BLE_gatt.c **** * 
 483:Generated_Source\PSoC4/BLE_gatt.c **** *  \events
 484:Generated_Source\PSoC4/BLE_gatt.c **** *  Two events may be generated after calling this function:
 485:Generated_Source\PSoC4/BLE_gatt.c **** *  CYBLE_EVT_GATTC_DISCOVERY_COMPLETE or CYBLE_EVT_GATTC_ERROR_RSP.
 486:Generated_Source\PSoC4/BLE_gatt.c **** *  The CYBLE_EVT_GATTC_DISCOVERY_COMPLETE event is 
 487:Generated_Source\PSoC4/BLE_gatt.c **** *  generated when the remote device was successfully discovered. The
 488:Generated_Source\PSoC4/BLE_gatt.c **** *  CYBLE_EVT_GATTC_ERROR_RSP is generated if the device discovery is failed.
 489:Generated_Source\PSoC4/BLE_gatt.c **** *
 490:Generated_Source\PSoC4/BLE_gatt.c **** ******************************************************************************/
 491:Generated_Source\PSoC4/BLE_gatt.c **** CYBLE_API_RESULT_T CyBle_GattcStartPartialDiscovery(CYBLE_CONN_HANDLE_T connHandle,
 492:Generated_Source\PSoC4/BLE_gatt.c ****                         CYBLE_GATT_DB_ATTR_HANDLE_T startHandle, CYBLE_GATT_DB_ATTR_HANDLE_T endHan
 493:Generated_Source\PSoC4/BLE_gatt.c **** {
 1478              		.loc 1 493 0
 1479              		.cfi_startproc
 1480              		@ args = 0, pretend = 0, frame = 16
 1481              		@ frame_needed = 1, uses_anonymous_args = 0
 1482 0000 90B5     		push	{r4, r7, lr}
 1483              		.cfi_def_cfa_offset 12
 1484              		.cfi_offset 4, -12
 1485              		.cfi_offset 7, -8
 1486              		.cfi_offset 14, -4
 1487 0002 85B0     		sub	sp, sp, #20
 1488              		.cfi_def_cfa_offset 32
 1489 0004 00AF     		add	r7, sp, #0
 1490              		.cfi_def_cfa_register 7
 1491 0006 3B1D     		adds	r3, r7, #4
 1492 0008 1880     		strh	r0, [r3]
 1493 000a 0800     		movs	r0, r1
 1494 000c 1100     		movs	r1, r2
 1495 000e BB1C     		adds	r3, r7, #2
 1496 0010 021C     		adds	r2, r0, #0
 1497 0012 1A80     		strh	r2, [r3]
 1498 0014 3B00     		movs	r3, r7
ARM GAS  C:\Users\User\AppData\Local\Temp\ccMn0wdH.s 			page 36


 1499 0016 0A1C     		adds	r2, r1, #0
 1500 0018 1A80     		strh	r2, [r3]
 494:Generated_Source\PSoC4/BLE_gatt.c ****     uint8 j;
 495:Generated_Source\PSoC4/BLE_gatt.c ****     CYBLE_API_RESULT_T apiResult;
 496:Generated_Source\PSoC4/BLE_gatt.c ****     
 497:Generated_Source\PSoC4/BLE_gatt.c ****     if((CyBle_GetState() != CYBLE_STATE_CONNECTED) || 
 1501              		.loc 1 497 0
 1502 001a 3F4B     		ldr	r3, .L31
 1503 001c 1B78     		ldrb	r3, [r3]
 1504 001e 022B     		cmp	r3, #2
 1505 0020 07D1     		bne	.L24
 498:Generated_Source\PSoC4/BLE_gatt.c ****        ((CyBle_GetClientState() != CYBLE_CLIENT_STATE_CONNECTED) && 
 1506              		.loc 1 498 0 discriminator 1
 1507 0022 3E4B     		ldr	r3, .L31+4
 1508 0024 1B78     		ldrb	r3, [r3]
 497:Generated_Source\PSoC4/BLE_gatt.c ****        ((CyBle_GetClientState() != CYBLE_CLIENT_STATE_CONNECTED) && 
 1509              		.loc 1 497 0 discriminator 1
 1510 0026 002B     		cmp	r3, #0
 1511 0028 09D0     		beq	.L25
 499:Generated_Source\PSoC4/BLE_gatt.c ****         (CyBle_GetClientState() != CYBLE_CLIENT_STATE_DISCOVERED))) 
 1512              		.loc 1 499 0
 1513 002a 3C4B     		ldr	r3, .L31+4
 1514 002c 1B78     		ldrb	r3, [r3]
 498:Generated_Source\PSoC4/BLE_gatt.c ****        ((CyBle_GetClientState() != CYBLE_CLIENT_STATE_CONNECTED) && 
 1515              		.loc 1 498 0
 1516 002e 052B     		cmp	r3, #5
 1517 0030 05D0     		beq	.L25
 1518              	.L24:
 500:Generated_Source\PSoC4/BLE_gatt.c ****     {
 501:Generated_Source\PSoC4/BLE_gatt.c ****         apiResult = CYBLE_ERROR_INVALID_STATE;
 1519              		.loc 1 501 0
 1520 0032 0C23     		movs	r3, #12
 1521 0034 FB18     		adds	r3, r7, r3
 1522 0036 0422     		movs	r2, #4
 1523 0038 FF32     		adds	r2, r2, #255
 1524 003a 1A80     		strh	r2, [r3]
 1525 003c 64E0     		b	.L26
 1526              	.L25:
 502:Generated_Source\PSoC4/BLE_gatt.c ****     }
 503:Generated_Source\PSoC4/BLE_gatt.c ****     else
 504:Generated_Source\PSoC4/BLE_gatt.c ****     {
 505:Generated_Source\PSoC4/BLE_gatt.c ****         /* Clean old discovery information of affected attribute range */
 506:Generated_Source\PSoC4/BLE_gatt.c ****         for(j = 0u; j < (uint8) CYBLE_SRVI_COUNT; j++)
 1527              		.loc 1 506 0
 1528 003e 0F23     		movs	r3, #15
 1529 0040 FB18     		adds	r3, r7, r3
 1530 0042 0022     		movs	r2, #0
 1531 0044 1A70     		strb	r2, [r3]
 1532 0046 2EE0     		b	.L27
 1533              	.L29:
 507:Generated_Source\PSoC4/BLE_gatt.c ****         {
 508:Generated_Source\PSoC4/BLE_gatt.c ****             if((cyBle_serverInfo[j].range.startHandle >= startHandle) &&
 1534              		.loc 1 508 0
 1535 0048 0F23     		movs	r3, #15
 1536 004a FB18     		adds	r3, r7, r3
 1537 004c 1A78     		ldrb	r2, [r3]
 1538 004e 3449     		ldr	r1, .L31+8
ARM GAS  C:\Users\User\AppData\Local\Temp\ccMn0wdH.s 			page 37


 1539 0050 1300     		movs	r3, r2
 1540 0052 5B00     		lsls	r3, r3, #1
 1541 0054 9B18     		adds	r3, r3, r2
 1542 0056 5B00     		lsls	r3, r3, #1
 1543 0058 5B5A     		ldrh	r3, [r3, r1]
 1544 005a BA1C     		adds	r2, r7, #2
 1545 005c 1288     		ldrh	r2, [r2]
 1546 005e 9A42     		cmp	r2, r3
 1547 0060 1AD8     		bhi	.L28
 509:Generated_Source\PSoC4/BLE_gatt.c ****                (cyBle_serverInfo[j].range.startHandle <= endHandle))
 1548              		.loc 1 509 0 discriminator 1
 1549 0062 0F23     		movs	r3, #15
 1550 0064 FB18     		adds	r3, r7, r3
 1551 0066 1A78     		ldrb	r2, [r3]
 1552 0068 2D49     		ldr	r1, .L31+8
 1553 006a 1300     		movs	r3, r2
 1554 006c 5B00     		lsls	r3, r3, #1
 1555 006e 9B18     		adds	r3, r3, r2
 1556 0070 5B00     		lsls	r3, r3, #1
 1557 0072 5B5A     		ldrh	r3, [r3, r1]
 508:Generated_Source\PSoC4/BLE_gatt.c ****                (cyBle_serverInfo[j].range.startHandle <= endHandle))
 1558              		.loc 1 508 0 discriminator 1
 1559 0074 3A00     		movs	r2, r7
 1560 0076 1288     		ldrh	r2, [r2]
 1561 0078 9A42     		cmp	r2, r3
 1562 007a 0DD3     		bcc	.L28
 510:Generated_Source\PSoC4/BLE_gatt.c ****             {
 511:Generated_Source\PSoC4/BLE_gatt.c ****                 (void)memset(&cyBle_serverInfo[j].range, 0, sizeof(cyBle_serverInfo[0].range));
 1563              		.loc 1 511 0
 1564 007c 0F23     		movs	r3, #15
 1565 007e FB18     		adds	r3, r7, r3
 1566 0080 1A78     		ldrb	r2, [r3]
 1567 0082 1300     		movs	r3, r2
 1568 0084 5B00     		lsls	r3, r3, #1
 1569 0086 9B18     		adds	r3, r3, r2
 1570 0088 5B00     		lsls	r3, r3, #1
 1571 008a 254A     		ldr	r2, .L31+8
 1572 008c 9B18     		adds	r3, r3, r2
 1573 008e 0422     		movs	r2, #4
 1574 0090 0021     		movs	r1, #0
 1575 0092 1800     		movs	r0, r3
 1576 0094 FFF7FEFF 		bl	memset
 1577              	.L28:
 506:Generated_Source\PSoC4/BLE_gatt.c ****         {
 1578              		.loc 1 506 0 discriminator 2
 1579 0098 0F23     		movs	r3, #15
 1580 009a FB18     		adds	r3, r7, r3
 1581 009c 1A78     		ldrb	r2, [r3]
 1582 009e 0F23     		movs	r3, #15
 1583 00a0 FB18     		adds	r3, r7, r3
 1584 00a2 0132     		adds	r2, r2, #1
 1585 00a4 1A70     		strb	r2, [r3]
 1586              	.L27:
 506:Generated_Source\PSoC4/BLE_gatt.c ****         {
 1587              		.loc 1 506 0 is_stmt 0 discriminator 1
 1588 00a6 0F23     		movs	r3, #15
 1589 00a8 FB18     		adds	r3, r7, r3
ARM GAS  C:\Users\User\AppData\Local\Temp\ccMn0wdH.s 			page 38


 1590 00aa 1B78     		ldrb	r3, [r3]
 1591 00ac 032B     		cmp	r3, #3
 1592 00ae CBD9     		bls	.L29
 512:Generated_Source\PSoC4/BLE_gatt.c ****             }
 513:Generated_Source\PSoC4/BLE_gatt.c ****         }
 514:Generated_Source\PSoC4/BLE_gatt.c **** 
 515:Generated_Source\PSoC4/BLE_gatt.c ****         cyBle_connHandle = connHandle;
 1593              		.loc 1 515 0 is_stmt 1
 1594 00b0 1C4A     		ldr	r2, .L31+12
 1595 00b2 3B1D     		adds	r3, r7, #4
 1596 00b4 1000     		movs	r0, r2
 1597 00b6 1900     		movs	r1, r3
 1598 00b8 0223     		movs	r3, #2
 1599 00ba 1A00     		movs	r2, r3
 1600 00bc FFF7FEFF 		bl	memcpy
 516:Generated_Source\PSoC4/BLE_gatt.c ****         cyBle_gattcDiscoveryRange.startHandle = startHandle;
 1601              		.loc 1 516 0
 1602 00c0 194B     		ldr	r3, .L31+16
 1603 00c2 BA1C     		adds	r2, r7, #2
 1604 00c4 1288     		ldrh	r2, [r2]
 1605 00c6 1A80     		strh	r2, [r3]
 517:Generated_Source\PSoC4/BLE_gatt.c ****         cyBle_gattcDiscoveryRange.endHandle = endHandle;
 1606              		.loc 1 517 0
 1607 00c8 174B     		ldr	r3, .L31+16
 1608 00ca 3A00     		movs	r2, r7
 1609 00cc 1288     		ldrh	r2, [r2]
 1610 00ce 5A80     		strh	r2, [r3, #2]
 518:Generated_Source\PSoC4/BLE_gatt.c **** 
 519:Generated_Source\PSoC4/BLE_gatt.c ****         CyBle_ServiceInit();
 1611              		.loc 1 519 0
 1612 00d0 FFF7FEFF 		bl	CyBle_ServiceInit
 520:Generated_Source\PSoC4/BLE_gatt.c **** 
 521:Generated_Source\PSoC4/BLE_gatt.c ****         apiResult = CyBle_GattcDiscoverPrimaryServices(connHandle, &cyBle_gattcDiscoveryRange);
 1613              		.loc 1 521 0
 1614 00d4 0C23     		movs	r3, #12
 1615 00d6 FC18     		adds	r4, r7, r3
 1616 00d8 134A     		ldr	r2, .L31+16
 1617 00da 3B1D     		adds	r3, r7, #4
 1618 00dc 1100     		movs	r1, r2
 1619 00de 1868     		ldr	r0, [r3]
 1620 00e0 FFF7FEFF 		bl	CyBle_GattcDiscoverPrimaryServices
 1621 00e4 0300     		movs	r3, r0
 1622 00e6 2380     		strh	r3, [r4]
 522:Generated_Source\PSoC4/BLE_gatt.c **** 
 523:Generated_Source\PSoC4/BLE_gatt.c ****         if(apiResult == CYBLE_ERROR_OK)
 1623              		.loc 1 523 0
 1624 00e8 0C23     		movs	r3, #12
 1625 00ea FB18     		adds	r3, r7, r3
 1626 00ec 1B88     		ldrh	r3, [r3]
 1627 00ee 002B     		cmp	r3, #0
 1628 00f0 0AD1     		bne	.L26
 524:Generated_Source\PSoC4/BLE_gatt.c ****         {
 525:Generated_Source\PSoC4/BLE_gatt.c ****             CyBle_SetClientState(CYBLE_CLIENT_STATE_SRVC_DISCOVERING);
 1629              		.loc 1 525 0
 1630 00f2 0A4B     		ldr	r3, .L31+4
 1631 00f4 0122     		movs	r2, #1
 1632 00f6 1A70     		strb	r2, [r3]
ARM GAS  C:\Users\User\AppData\Local\Temp\ccMn0wdH.s 			page 39


 526:Generated_Source\PSoC4/BLE_gatt.c ****             cyBle_eventHandlerFlag |= CYBLE_AUTO_DISCOVERY;
 1633              		.loc 1 526 0
 1634 00f8 0C4B     		ldr	r3, .L31+20
 1635 00fa 1B78     		ldrb	r3, [r3]
 1636 00fc DBB2     		uxtb	r3, r3
 1637 00fe 0222     		movs	r2, #2
 1638 0100 1343     		orrs	r3, r2
 1639 0102 DAB2     		uxtb	r2, r3
 1640 0104 094B     		ldr	r3, .L31+20
 1641 0106 1A70     		strb	r2, [r3]
 1642              	.L26:
 527:Generated_Source\PSoC4/BLE_gatt.c ****         }
 528:Generated_Source\PSoC4/BLE_gatt.c ****     }
 529:Generated_Source\PSoC4/BLE_gatt.c ****     
 530:Generated_Source\PSoC4/BLE_gatt.c ****     return (apiResult);
 1643              		.loc 1 530 0
 1644 0108 0C23     		movs	r3, #12
 1645 010a FB18     		adds	r3, r7, r3
 1646 010c 1B88     		ldrh	r3, [r3]
 531:Generated_Source\PSoC4/BLE_gatt.c **** }
 1647              		.loc 1 531 0
 1648 010e 1800     		movs	r0, r3
 1649 0110 BD46     		mov	sp, r7
 1650 0112 05B0     		add	sp, sp, #20
 1651              		@ sp needed
 1652 0114 90BD     		pop	{r4, r7, pc}
 1653              	.L32:
 1654 0116 C046     		.align	2
 1655              	.L31:
 1656 0118 00000000 		.word	cyBle_state
 1657 011c 00000000 		.word	cyBle_clientState
 1658 0120 00000000 		.word	cyBle_serverInfo
 1659 0124 00000000 		.word	cyBle_connHandle
 1660 0128 00000000 		.word	cyBle_gattcDiscoveryRange
 1661 012c 00000000 		.word	cyBle_eventHandlerFlag
 1662              		.cfi_endproc
 1663              	.LFE5:
 1664              		.size	CyBle_GattcStartPartialDiscovery, .-CyBle_GattcStartPartialDiscovery
 1665              		.section	.text.CyBle_GattcDiscoverCharacteristicsEventHandler,"ax",%progbits
 1666              		.align	2
 1667              		.global	CyBle_GattcDiscoverCharacteristicsEventHandler
 1668              		.code	16
 1669              		.thumb_func
 1670              		.type	CyBle_GattcDiscoverCharacteristicsEventHandler, %function
 1671              	CyBle_GattcDiscoverCharacteristicsEventHandler:
 1672              	.LFB6:
 532:Generated_Source\PSoC4/BLE_gatt.c **** 
 533:Generated_Source\PSoC4/BLE_gatt.c **** 
 534:Generated_Source\PSoC4/BLE_gatt.c **** /******************************************************************************
 535:Generated_Source\PSoC4/BLE_gatt.c **** * Function Name: CyBle_GattcDiscoverCharacteristicsEventHandler
 536:Generated_Source\PSoC4/BLE_gatt.c **** ***************************************************************************//**
 537:Generated_Source\PSoC4/BLE_gatt.c **** * 
 538:Generated_Source\PSoC4/BLE_gatt.c **** *  This function is called on receiving a CYBLE_EVT_GATTC_READ_BY_TYPE_RSP
 539:Generated_Source\PSoC4/BLE_gatt.c **** *  event. Based on the service UUID, an appropriate data structure is populated
 540:Generated_Source\PSoC4/BLE_gatt.c **** *  using the data received as part of the callback.
 541:Generated_Source\PSoC4/BLE_gatt.c **** * 
 542:Generated_Source\PSoC4/BLE_gatt.c **** *  \param discCharInfo: The pointer to a characteristic information structure.
ARM GAS  C:\Users\User\AppData\Local\Temp\ccMn0wdH.s 			page 40


 543:Generated_Source\PSoC4/BLE_gatt.c **** * 
 544:Generated_Source\PSoC4/BLE_gatt.c **** * \return
 545:Generated_Source\PSoC4/BLE_gatt.c **** *  None
 546:Generated_Source\PSoC4/BLE_gatt.c **** * 
 547:Generated_Source\PSoC4/BLE_gatt.c **** ******************************************************************************/
 548:Generated_Source\PSoC4/BLE_gatt.c **** void CyBle_GattcDiscoverCharacteristicsEventHandler(CYBLE_DISC_CHAR_INFO_T *discCharInfo)
 549:Generated_Source\PSoC4/BLE_gatt.c **** {
 1673              		.loc 1 549 0
 1674              		.cfi_startproc
 1675              		@ args = 0, pretend = 0, frame = 8
 1676              		@ frame_needed = 1, uses_anonymous_args = 0
 1677 0000 80B5     		push	{r7, lr}
 1678              		.cfi_def_cfa_offset 8
 1679              		.cfi_offset 7, -8
 1680              		.cfi_offset 14, -4
 1681 0002 82B0     		sub	sp, sp, #8
 1682              		.cfi_def_cfa_offset 16
 1683 0004 00AF     		add	r7, sp, #0
 1684              		.cfi_def_cfa_register 7
 1685 0006 7860     		str	r0, [r7, #4]
 550:Generated_Source\PSoC4/BLE_gatt.c ****     if(discCharInfo->uuid.uuid16 == CYBLE_UUID_CHAR_SERVICE_CHANGED)
 1686              		.loc 1 550 0
 1687 0008 7B68     		ldr	r3, [r7, #4]
 1688 000a DB88     		ldrh	r3, [r3, #6]
 1689 000c 0D4A     		ldr	r2, .L37
 1690 000e 9342     		cmp	r3, r2
 1691 0010 14D1     		bne	.L36
 551:Generated_Source\PSoC4/BLE_gatt.c ****     {
 552:Generated_Source\PSoC4/BLE_gatt.c ****         CyBle_CheckStoreCharHandle(cyBle_gattc.serviceChanged);
 1692              		.loc 1 552 0
 1693 0012 0D4B     		ldr	r3, .L37+4
 1694 0014 5B88     		ldrh	r3, [r3, #2]
 1695 0016 002B     		cmp	r3, #0
 1696 0018 08D1     		bne	.L35
 1697              		.loc 1 552 0 is_stmt 0 discriminator 1
 1698 001a 7B68     		ldr	r3, [r7, #4]
 1699 001c 9A88     		ldrh	r2, [r3, #4]
 1700 001e 0A4B     		ldr	r3, .L37+4
 1701 0020 5A80     		strh	r2, [r3, #2]
 1702 0022 7B68     		ldr	r3, [r7, #4]
 1703 0024 9A78     		ldrb	r2, [r3, #2]
 1704 0026 084B     		ldr	r3, .L37+4
 1705 0028 1A70     		strb	r2, [r3]
 553:Generated_Source\PSoC4/BLE_gatt.c ****     }
 554:Generated_Source\PSoC4/BLE_gatt.c **** }
 1706              		.loc 1 554 0 is_stmt 1 discriminator 1
 1707 002a 07E0     		b	.L36
 1708              	.L35:
 552:Generated_Source\PSoC4/BLE_gatt.c ****     }
 1709              		.loc 1 552 0 discriminator 2
 1710 002c 074B     		ldr	r3, .L37+8
 1711 002e 1B68     		ldr	r3, [r3]
 1712 0030 7A68     		ldr	r2, [r7, #4]
 1713 0032 911D     		adds	r1, r2, #6
 1714 0034 8622     		movs	r2, #134
 1715 0036 5200     		lsls	r2, r2, #1
 1716 0038 1000     		movs	r0, r2
ARM GAS  C:\Users\User\AppData\Local\Temp\ccMn0wdH.s 			page 41


 1717 003a 9847     		blx	r3
 1718              	.L36:
 1719              		.loc 1 554 0
 1720 003c C046     		nop
 1721 003e BD46     		mov	sp, r7
 1722 0040 02B0     		add	sp, sp, #8
 1723              		@ sp needed
 1724 0042 80BD     		pop	{r7, pc}
 1725              	.L38:
 1726              		.align	2
 1727              	.L37:
 1728 0044 052A0000 		.word	10757
 1729 0048 00000000 		.word	cyBle_gattc
 1730 004c 00000000 		.word	CyBle_ApplCallback
 1731              		.cfi_endproc
 1732              	.LFE6:
 1733              		.size	CyBle_GattcDiscoverCharacteristicsEventHandler, .-CyBle_GattcDiscoverCharacteristicsEventHan
 1734              		.section	.text.CyBle_GattcDiscoverCharDescriptorsEventHandler,"ax",%progbits
 1735              		.align	2
 1736              		.global	CyBle_GattcDiscoverCharDescriptorsEventHandler
 1737              		.code	16
 1738              		.thumb_func
 1739              		.type	CyBle_GattcDiscoverCharDescriptorsEventHandler, %function
 1740              	CyBle_GattcDiscoverCharDescriptorsEventHandler:
 1741              	.LFB7:
 555:Generated_Source\PSoC4/BLE_gatt.c **** 
 556:Generated_Source\PSoC4/BLE_gatt.c **** 
 557:Generated_Source\PSoC4/BLE_gatt.c **** /******************************************************************************
 558:Generated_Source\PSoC4/BLE_gatt.c **** * Function Name: CyBle_GattcDiscoverCharDescriptorsEventHandler
 559:Generated_Source\PSoC4/BLE_gatt.c **** ***************************************************************************//**
 560:Generated_Source\PSoC4/BLE_gatt.c **** * 
 561:Generated_Source\PSoC4/BLE_gatt.c **** *  This function is called on receiving a "CYBLE_EVT_GATTC_FIND_INFO_RSP" event.
 562:Generated_Source\PSoC4/BLE_gatt.c **** *  Based on the descriptor UUID, an appropriate data structure is populated 
 563:Generated_Source\PSoC4/BLE_gatt.c **** *  using the data received as part of the callback.
 564:Generated_Source\PSoC4/BLE_gatt.c **** * 
 565:Generated_Source\PSoC4/BLE_gatt.c **** *  \param discDescrInfo: The pointer to a descriptor information structure.
 566:Generated_Source\PSoC4/BLE_gatt.c **** *  \param discoveryService: The index of the service instance
 567:Generated_Source\PSoC4/BLE_gatt.c **** * 
 568:Generated_Source\PSoC4/BLE_gatt.c **** * \return
 569:Generated_Source\PSoC4/BLE_gatt.c **** *  None
 570:Generated_Source\PSoC4/BLE_gatt.c **** * 
 571:Generated_Source\PSoC4/BLE_gatt.c **** ******************************************************************************/
 572:Generated_Source\PSoC4/BLE_gatt.c **** void CyBle_GattcDiscoverCharDescriptorsEventHandler(CYBLE_DISC_DESCR_INFO_T *discDescrInfo)
 573:Generated_Source\PSoC4/BLE_gatt.c **** {
 1742              		.loc 1 573 0
 1743              		.cfi_startproc
 1744              		@ args = 0, pretend = 0, frame = 8
 1745              		@ frame_needed = 1, uses_anonymous_args = 0
 1746 0000 80B5     		push	{r7, lr}
 1747              		.cfi_def_cfa_offset 8
 1748              		.cfi_offset 7, -8
 1749              		.cfi_offset 14, -4
 1750 0002 82B0     		sub	sp, sp, #8
 1751              		.cfi_def_cfa_offset 16
 1752 0004 00AF     		add	r7, sp, #0
 1753              		.cfi_def_cfa_register 7
 1754 0006 7860     		str	r0, [r7, #4]
ARM GAS  C:\Users\User\AppData\Local\Temp\ccMn0wdH.s 			page 42


 574:Generated_Source\PSoC4/BLE_gatt.c ****     if(discDescrInfo->uuid.uuid16 == CYBLE_UUID_CHAR_CLIENT_CONFIG)
 1755              		.loc 1 574 0
 1756 0008 7B68     		ldr	r3, [r7, #4]
 1757 000a 9B88     		ldrh	r3, [r3, #4]
 1758 000c 0B4A     		ldr	r2, .L43
 1759 000e 9342     		cmp	r3, r2
 1760 0010 10D1     		bne	.L42
 575:Generated_Source\PSoC4/BLE_gatt.c ****     {
 576:Generated_Source\PSoC4/BLE_gatt.c ****         CyBle_CheckStoreCharDescrHandle(cyBle_gattc.cccdHandle);
 1761              		.loc 1 576 0
 1762 0012 0B4B     		ldr	r3, .L43+4
 1763 0014 9B88     		ldrh	r3, [r3, #4]
 1764 0016 002B     		cmp	r3, #0
 1765 0018 04D1     		bne	.L41
 1766              		.loc 1 576 0 is_stmt 0 discriminator 1
 1767 001a 7B68     		ldr	r3, [r7, #4]
 1768 001c 5A88     		ldrh	r2, [r3, #2]
 1769 001e 084B     		ldr	r3, .L43+4
 1770 0020 9A80     		strh	r2, [r3, #4]
 577:Generated_Source\PSoC4/BLE_gatt.c ****     }
 578:Generated_Source\PSoC4/BLE_gatt.c **** }
 1771              		.loc 1 578 0 is_stmt 1 discriminator 1
 1772 0022 07E0     		b	.L42
 1773              	.L41:
 576:Generated_Source\PSoC4/BLE_gatt.c ****     }
 1774              		.loc 1 576 0 discriminator 2
 1775 0024 074B     		ldr	r3, .L43+8
 1776 0026 1B68     		ldr	r3, [r3]
 1777 0028 7A68     		ldr	r2, [r7, #4]
 1778 002a 111D     		adds	r1, r2, #4
 1779 002c 8622     		movs	r2, #134
 1780 002e 5200     		lsls	r2, r2, #1
 1781 0030 1000     		movs	r0, r2
 1782 0032 9847     		blx	r3
 1783              	.L42:
 1784              		.loc 1 578 0
 1785 0034 C046     		nop
 1786 0036 BD46     		mov	sp, r7
 1787 0038 02B0     		add	sp, sp, #8
 1788              		@ sp needed
 1789 003a 80BD     		pop	{r7, pc}
 1790              	.L44:
 1791              		.align	2
 1792              	.L43:
 1793 003c 02290000 		.word	10498
 1794 0040 00000000 		.word	cyBle_gattc
 1795 0044 00000000 		.word	CyBle_ApplCallback
 1796              		.cfi_endproc
 1797              	.LFE7:
 1798              		.size	CyBle_GattcDiscoverCharDescriptorsEventHandler, .-CyBle_GattcDiscoverCharDescriptorsEventHan
 1799              		.section	.text.CyBle_GattcIndicationEventHandler,"ax",%progbits
 1800              		.align	2
 1801              		.global	CyBle_GattcIndicationEventHandler
 1802              		.code	16
 1803              		.thumb_func
 1804              		.type	CyBle_GattcIndicationEventHandler, %function
 1805              	CyBle_GattcIndicationEventHandler:
ARM GAS  C:\Users\User\AppData\Local\Temp\ccMn0wdH.s 			page 43


 1806              	.LFB8:
 579:Generated_Source\PSoC4/BLE_gatt.c **** 
 580:Generated_Source\PSoC4/BLE_gatt.c **** 
 581:Generated_Source\PSoC4/BLE_gatt.c **** /******************************************************************************
 582:Generated_Source\PSoC4/BLE_gatt.c **** * Function Name: CyBle_GattcIndicationEventHandler
 583:Generated_Source\PSoC4/BLE_gatt.c **** ***************************************************************************//**
 584:Generated_Source\PSoC4/BLE_gatt.c **** * 
 585:Generated_Source\PSoC4/BLE_gatt.c **** *  Handles the Indication Event.
 586:Generated_Source\PSoC4/BLE_gatt.c **** * 
 587:Generated_Source\PSoC4/BLE_gatt.c **** *  \param eventParam: The pointer to the data structure specified by the event.
 588:Generated_Source\PSoC4/BLE_gatt.c **** * 
 589:Generated_Source\PSoC4/BLE_gatt.c **** * \return
 590:Generated_Source\PSoC4/BLE_gatt.c **** *  None.
 591:Generated_Source\PSoC4/BLE_gatt.c **** * 
 592:Generated_Source\PSoC4/BLE_gatt.c **** ******************************************************************************/
 593:Generated_Source\PSoC4/BLE_gatt.c **** void CyBle_GattcIndicationEventHandler(CYBLE_GATTC_HANDLE_VALUE_IND_PARAM_T *eventParam)
 594:Generated_Source\PSoC4/BLE_gatt.c **** {
 1807              		.loc 1 594 0
 1808              		.cfi_startproc
 1809              		@ args = 0, pretend = 0, frame = 8
 1810              		@ frame_needed = 1, uses_anonymous_args = 0
 1811 0000 80B5     		push	{r7, lr}
 1812              		.cfi_def_cfa_offset 8
 1813              		.cfi_offset 7, -8
 1814              		.cfi_offset 14, -4
 1815 0002 82B0     		sub	sp, sp, #8
 1816              		.cfi_def_cfa_offset 16
 1817 0004 00AF     		add	r7, sp, #0
 1818              		.cfi_def_cfa_register 7
 1819 0006 7860     		str	r0, [r7, #4]
 595:Generated_Source\PSoC4/BLE_gatt.c ****     if(cyBle_gattc.serviceChanged.valueHandle == eventParam->handleValPair.attrHandle)
 1820              		.loc 1 595 0
 1821 0008 0C4B     		ldr	r3, .L48
 1822 000a 5A88     		ldrh	r2, [r3, #2]
 1823 000c 7B68     		ldr	r3, [r7, #4]
 1824 000e 9B89     		ldrh	r3, [r3, #12]
 1825 0010 9A42     		cmp	r2, r3
 1826 0012 0ED1     		bne	.L47
 596:Generated_Source\PSoC4/BLE_gatt.c ****     {
 597:Generated_Source\PSoC4/BLE_gatt.c ****         CyBle_ApplCallback((uint32)CYBLE_EVT_GATTC_INDICATION, eventParam);
 1827              		.loc 1 597 0
 1828 0014 0A4B     		ldr	r3, .L48+4
 1829 0016 1B68     		ldr	r3, [r3]
 1830 0018 7968     		ldr	r1, [r7, #4]
 1831 001a 8322     		movs	r2, #131
 1832 001c 5200     		lsls	r2, r2, #1
 1833 001e 1000     		movs	r0, r2
 1834 0020 9847     		blx	r3
 598:Generated_Source\PSoC4/BLE_gatt.c ****         cyBle_eventHandlerFlag &= (uint8)~CYBLE_CALLBACK;
 1835              		.loc 1 598 0
 1836 0022 084B     		ldr	r3, .L48+8
 1837 0024 1B78     		ldrb	r3, [r3]
 1838 0026 DBB2     		uxtb	r3, r3
 1839 0028 0122     		movs	r2, #1
 1840 002a 9343     		bics	r3, r2
 1841 002c DAB2     		uxtb	r2, r3
 1842 002e 054B     		ldr	r3, .L48+8
ARM GAS  C:\Users\User\AppData\Local\Temp\ccMn0wdH.s 			page 44


 1843 0030 1A70     		strb	r2, [r3]
 1844              	.L47:
 599:Generated_Source\PSoC4/BLE_gatt.c ****     }
 600:Generated_Source\PSoC4/BLE_gatt.c **** }
 1845              		.loc 1 600 0
 1846 0032 C046     		nop
 1847 0034 BD46     		mov	sp, r7
 1848 0036 02B0     		add	sp, sp, #8
 1849              		@ sp needed
 1850 0038 80BD     		pop	{r7, pc}
 1851              	.L49:
 1852 003a C046     		.align	2
 1853              	.L48:
 1854 003c 00000000 		.word	cyBle_gattc
 1855 0040 00000000 		.word	CyBle_ApplCallback
 1856 0044 00000000 		.word	cyBle_eventHandlerFlag
 1857              		.cfi_endproc
 1858              	.LFE8:
 1859              		.size	CyBle_GattcIndicationEventHandler, .-CyBle_GattcIndicationEventHandler
 1860              		.text
 1861              	.Letext0:
 1862              		.file 2 "Generated_Source\\PSoC4\\cytypes.h"
 1863              		.file 3 "Generated_Source\\PSoC4\\BLE_Stack.h"
 1864              		.file 4 "Generated_Source\\PSoC4\\BLE_StackGatt.h"
 1865              		.file 5 "Generated_Source\\PSoC4\\BLE_StackGattServer.h"
 1866              		.file 6 "Generated_Source\\PSoC4\\BLE_StackGattClient.h"
 1867              		.file 7 "Generated_Source\\PSoC4\\BLE_StackGattDb.h"
 1868              		.file 8 "Generated_Source\\PSoC4\\BLE.h"
 1869              		.file 9 "Generated_Source\\PSoC4\\BLE_gatt.h"
 1870              		.file 10 "Generated_Source\\PSoC4\\BLE_hts.h"
 1871              		.file 11 "Generated_Source\\PSoC4\\BLE_eventHandler.h"