ARM GAS  C:\Users\User\AppData\Local\Temp\ccmH1EJa.s 			page 1


   1              		.syntax unified
   2              		.cpu cortex-m0
   3              		.fpu softvfp
   4              		.eabi_attribute 20, 1
   5              		.eabi_attribute 21, 1
   6              		.eabi_attribute 23, 3
   7              		.eabi_attribute 24, 1
   8              		.eabi_attribute 25, 1
   9              		.eabi_attribute 26, 1
  10              		.eabi_attribute 30, 6
  11              		.eabi_attribute 34, 0
  12              		.eabi_attribute 18, 4
  13              		.thumb
  14              		.syntax unified
  15              		.file	"BLE_hts.c"
  16              		.text
  17              	.Ltext0:
  18              		.cfi_sections	.debug_frame
  19              		.bss
  20              		.align	2
  21              	CyBle_HtsApplCallback:
  22 0000 00000000 		.space	4
  23              		.global	cyBle_htss
  24              		.section	.rodata
  25              		.align	2
  26              		.type	cyBle_htss, %object
  27              		.size	cyBle_htss, 26
  28              	cyBle_htss:
  29 0000 1400     		.short	20
  30 0002 1600     		.short	22
  31 0004 1700     		.short	23
  32 0006 0000     		.short	0
  33 0008 1900     		.short	25
  34 000a 0000     		.short	0
  35 000c 0000     		.short	0
  36 000e 1B00     		.short	27
  37 0010 1C00     		.short	28
  38 0012 0000     		.short	0
  39 0014 1E00     		.short	30
  40 0016 1F00     		.short	31
  41 0018 2000     		.short	32
  42              		.bss
  43              		.align	1
  44              	cyBle_htssReqHandle:
  45 0004 0000     		.space	2
  46              		.comm	cyBle_htsc,40,4
  47              		.align	1
  48              	cyBle_htscReqHandle:
  49 0006 0000     		.space	2
  50              		.section	.text.CyBle_HtsInit,"ax",%progbits
  51              		.align	2
  52              		.global	CyBle_HtsInit
  53              		.code	16
  54              		.thumb_func
  55              		.type	CyBle_HtsInit, %function
  56              	CyBle_HtsInit:
  57              	.LFB2:
ARM GAS  C:\Users\User\AppData\Local\Temp\ccmH1EJa.s 			page 2


  58              		.file 1 "Generated_Source\\PSoC4\\BLE_hts.c"
   1:Generated_Source\PSoC4/BLE_hts.c **** /***************************************************************************//**
   2:Generated_Source\PSoC4/BLE_hts.c **** * \file CYBLE_hts.c
   3:Generated_Source\PSoC4/BLE_hts.c **** * \version 3.66
   4:Generated_Source\PSoC4/BLE_hts.c **** * 
   5:Generated_Source\PSoC4/BLE_hts.c **** * \brief
   6:Generated_Source\PSoC4/BLE_hts.c **** *  Contains the source code for Health Thermometer Service.
   7:Generated_Source\PSoC4/BLE_hts.c **** * 
   8:Generated_Source\PSoC4/BLE_hts.c **** ********************************************************************************
   9:Generated_Source\PSoC4/BLE_hts.c **** * \copyright
  10:Generated_Source\PSoC4/BLE_hts.c **** * Copyright 2014-2020, Cypress Semiconductor Corporation.  All rights reserved.
  11:Generated_Source\PSoC4/BLE_hts.c **** * You may use this file only in accordance with the license, terms, conditions,
  12:Generated_Source\PSoC4/BLE_hts.c **** * disclaimers, and limitations in the end user license agreement accompanying
  13:Generated_Source\PSoC4/BLE_hts.c **** * the software package with which this file was provided.
  14:Generated_Source\PSoC4/BLE_hts.c **** *******************************************************************************/
  15:Generated_Source\PSoC4/BLE_hts.c **** 
  16:Generated_Source\PSoC4/BLE_hts.c **** 
  17:Generated_Source\PSoC4/BLE_hts.c **** #include "BLE_eventHandler.h"
  18:Generated_Source\PSoC4/BLE_hts.c **** 
  19:Generated_Source\PSoC4/BLE_hts.c **** static CYBLE_CALLBACK_T CyBle_HtsApplCallback = NULL;
  20:Generated_Source\PSoC4/BLE_hts.c **** 
  21:Generated_Source\PSoC4/BLE_hts.c **** #ifdef CYBLE_HTS_SERVER
  22:Generated_Source\PSoC4/BLE_hts.c **** 
  23:Generated_Source\PSoC4/BLE_hts.c **** const CYBLE_HTSS_T cyBle_htss =
  24:Generated_Source\PSoC4/BLE_hts.c **** {
  25:Generated_Source\PSoC4/BLE_hts.c ****     0x0014u,    /* Handle of the HTS service */
  26:Generated_Source\PSoC4/BLE_hts.c ****     {
  27:Generated_Source\PSoC4/BLE_hts.c ****         
  28:Generated_Source\PSoC4/BLE_hts.c ****         /* Temperature Measurement characteristic */
  29:Generated_Source\PSoC4/BLE_hts.c ****         {
  30:Generated_Source\PSoC4/BLE_hts.c ****             0x0016u, /* Handle of the Temperature Measurement characteristic */ 
  31:Generated_Source\PSoC4/BLE_hts.c ****             
  32:Generated_Source\PSoC4/BLE_hts.c ****             /* Array of Descriptors handles */
  33:Generated_Source\PSoC4/BLE_hts.c ****             {
  34:Generated_Source\PSoC4/BLE_hts.c ****                 0x0017u, /* Handle of the Client Characteristic Configuration descriptor */ 
  35:Generated_Source\PSoC4/BLE_hts.c ****                 CYBLE_GATT_INVALID_ATTR_HANDLE_VALUE, 
  36:Generated_Source\PSoC4/BLE_hts.c ****             }, 
  37:Generated_Source\PSoC4/BLE_hts.c ****         }, 
  38:Generated_Source\PSoC4/BLE_hts.c ****         
  39:Generated_Source\PSoC4/BLE_hts.c ****         /* Temperature Type characteristic */
  40:Generated_Source\PSoC4/BLE_hts.c ****         {
  41:Generated_Source\PSoC4/BLE_hts.c ****             0x0019u, /* Handle of the Temperature Type characteristic */ 
  42:Generated_Source\PSoC4/BLE_hts.c ****             
  43:Generated_Source\PSoC4/BLE_hts.c ****             /* Array of Descriptors handles */
  44:Generated_Source\PSoC4/BLE_hts.c ****             {
  45:Generated_Source\PSoC4/BLE_hts.c ****                 CYBLE_GATT_INVALID_ATTR_HANDLE_VALUE, 
  46:Generated_Source\PSoC4/BLE_hts.c ****                 CYBLE_GATT_INVALID_ATTR_HANDLE_VALUE, 
  47:Generated_Source\PSoC4/BLE_hts.c ****             }, 
  48:Generated_Source\PSoC4/BLE_hts.c ****         }, 
  49:Generated_Source\PSoC4/BLE_hts.c ****         
  50:Generated_Source\PSoC4/BLE_hts.c ****         /* Intermediate Temperature characteristic */
  51:Generated_Source\PSoC4/BLE_hts.c ****         {
  52:Generated_Source\PSoC4/BLE_hts.c ****             0x001Bu, /* Handle of the Intermediate Temperature characteristic */ 
  53:Generated_Source\PSoC4/BLE_hts.c ****             
  54:Generated_Source\PSoC4/BLE_hts.c ****             /* Array of Descriptors handles */
  55:Generated_Source\PSoC4/BLE_hts.c ****             {
  56:Generated_Source\PSoC4/BLE_hts.c ****                 0x001Cu, /* Handle of the Client Characteristic Configuration descriptor */ 
ARM GAS  C:\Users\User\AppData\Local\Temp\ccmH1EJa.s 			page 3


  57:Generated_Source\PSoC4/BLE_hts.c ****                 CYBLE_GATT_INVALID_ATTR_HANDLE_VALUE, 
  58:Generated_Source\PSoC4/BLE_hts.c ****             }, 
  59:Generated_Source\PSoC4/BLE_hts.c ****         }, 
  60:Generated_Source\PSoC4/BLE_hts.c ****         
  61:Generated_Source\PSoC4/BLE_hts.c ****         /* Measurement Interval characteristic */
  62:Generated_Source\PSoC4/BLE_hts.c ****         {
  63:Generated_Source\PSoC4/BLE_hts.c ****             0x001Eu, /* Handle of the Measurement Interval characteristic */ 
  64:Generated_Source\PSoC4/BLE_hts.c ****             
  65:Generated_Source\PSoC4/BLE_hts.c ****             /* Array of Descriptors handles */
  66:Generated_Source\PSoC4/BLE_hts.c ****             {
  67:Generated_Source\PSoC4/BLE_hts.c ****                 0x001Fu, /* Handle of the Client Characteristic Configuration descriptor */ 
  68:Generated_Source\PSoC4/BLE_hts.c ****                 0x0020u, /* Handle of the Valid Range descriptor */ 
  69:Generated_Source\PSoC4/BLE_hts.c ****             }, 
  70:Generated_Source\PSoC4/BLE_hts.c ****         }, 
  71:Generated_Source\PSoC4/BLE_hts.c ****     },
  72:Generated_Source\PSoC4/BLE_hts.c **** };
  73:Generated_Source\PSoC4/BLE_hts.c **** static CYBLE_GATT_DB_ATTR_HANDLE_T cyBle_htssReqHandle;
  74:Generated_Source\PSoC4/BLE_hts.c ****     
  75:Generated_Source\PSoC4/BLE_hts.c **** #endif /* CYBLE_HTS_SERVER */
  76:Generated_Source\PSoC4/BLE_hts.c **** 
  77:Generated_Source\PSoC4/BLE_hts.c **** #ifdef CYBLE_HTS_CLIENT
  78:Generated_Source\PSoC4/BLE_hts.c **** 
  79:Generated_Source\PSoC4/BLE_hts.c **** CYBLE_HTSC_T cyBle_htsc;
  80:Generated_Source\PSoC4/BLE_hts.c **** static CYBLE_GATT_DB_ATTR_HANDLE_T cyBle_htscReqHandle;
  81:Generated_Source\PSoC4/BLE_hts.c **** 
  82:Generated_Source\PSoC4/BLE_hts.c **** #endif /* (CYBLE_HTS_CLIENT) */
  83:Generated_Source\PSoC4/BLE_hts.c **** 
  84:Generated_Source\PSoC4/BLE_hts.c **** 
  85:Generated_Source\PSoC4/BLE_hts.c **** /****************************************************************************** 
  86:Generated_Source\PSoC4/BLE_hts.c **** * Function Name: CyBle_HtsInit
  87:Generated_Source\PSoC4/BLE_hts.c **** ***************************************************************************//**
  88:Generated_Source\PSoC4/BLE_hts.c **** * 
  89:Generated_Source\PSoC4/BLE_hts.c **** *  This function initializes HTS Service.
  90:Generated_Source\PSoC4/BLE_hts.c **** * 
  91:Generated_Source\PSoC4/BLE_hts.c **** ******************************************************************************/
  92:Generated_Source\PSoC4/BLE_hts.c **** void CyBle_HtsInit(void)
  93:Generated_Source\PSoC4/BLE_hts.c **** {
  59              		.loc 1 93 0
  60              		.cfi_startproc
  61              		@ args = 0, pretend = 0, frame = 0
  62              		@ frame_needed = 1, uses_anonymous_args = 0
  63 0000 80B5     		push	{r7, lr}
  64              		.cfi_def_cfa_offset 8
  65              		.cfi_offset 7, -8
  66              		.cfi_offset 14, -4
  67 0002 00AF     		add	r7, sp, #0
  68              		.cfi_def_cfa_register 7
  94:Generated_Source\PSoC4/BLE_hts.c **** 
  95:Generated_Source\PSoC4/BLE_hts.c **** #ifdef CYBLE_HTS_SERVER
  96:Generated_Source\PSoC4/BLE_hts.c **** 
  97:Generated_Source\PSoC4/BLE_hts.c ****     cyBle_htssReqHandle = CYBLE_GATT_INVALID_ATTR_HANDLE_VALUE;
  69              		.loc 1 97 0
  70 0004 094B     		ldr	r3, .L3
  71 0006 0022     		movs	r2, #0
  72 0008 1A80     		strh	r2, [r3]
  98:Generated_Source\PSoC4/BLE_hts.c ****     
  99:Generated_Source\PSoC4/BLE_hts.c **** #endif /* CYBLE_HTS_SERVER */
ARM GAS  C:\Users\User\AppData\Local\Temp\ccmH1EJa.s 			page 4


 100:Generated_Source\PSoC4/BLE_hts.c **** 
 101:Generated_Source\PSoC4/BLE_hts.c **** #ifdef CYBLE_HTS_CLIENT
 102:Generated_Source\PSoC4/BLE_hts.c **** 
 103:Generated_Source\PSoC4/BLE_hts.c ****     if(cyBle_serverInfo[CYBLE_SRVI_HTS].range.startHandle == CYBLE_GATT_INVALID_ATTR_HANDLE_VALUE)
  73              		.loc 1 103 0
  74 000a 094B     		ldr	r3, .L3+4
  75 000c 5B8A     		ldrh	r3, [r3, #18]
  76 000e 002B     		cmp	r3, #0
  77 0010 05D1     		bne	.L2
 104:Generated_Source\PSoC4/BLE_hts.c ****     {
 105:Generated_Source\PSoC4/BLE_hts.c ****         (void)memset(&cyBle_htsc, 0, sizeof(cyBle_htsc));
  78              		.loc 1 105 0
  79 0012 084B     		ldr	r3, .L3+8
  80 0014 2822     		movs	r2, #40
  81 0016 0021     		movs	r1, #0
  82 0018 1800     		movs	r0, r3
  83 001a FFF7FEFF 		bl	memset
  84              	.L2:
 106:Generated_Source\PSoC4/BLE_hts.c ****     }
 107:Generated_Source\PSoC4/BLE_hts.c ****     cyBle_htscReqHandle = CYBLE_GATT_INVALID_ATTR_HANDLE_VALUE;
  85              		.loc 1 107 0
  86 001e 064B     		ldr	r3, .L3+12
  87 0020 0022     		movs	r2, #0
  88 0022 1A80     		strh	r2, [r3]
 108:Generated_Source\PSoC4/BLE_hts.c **** 
 109:Generated_Source\PSoC4/BLE_hts.c **** #endif /* CYBLE_HTS_CLIENT */
 110:Generated_Source\PSoC4/BLE_hts.c **** }
  89              		.loc 1 110 0
  90 0024 C046     		nop
  91 0026 BD46     		mov	sp, r7
  92              		@ sp needed
  93 0028 80BD     		pop	{r7, pc}
  94              	.L4:
  95 002a C046     		.align	2
  96              	.L3:
  97 002c 04000000 		.word	cyBle_htssReqHandle
  98 0030 00000000 		.word	cyBle_serverInfo
  99 0034 00000000 		.word	cyBle_htsc
 100 0038 06000000 		.word	cyBle_htscReqHandle
 101              		.cfi_endproc
 102              	.LFE2:
 103              		.size	CyBle_HtsInit, .-CyBle_HtsInit
 104              		.section	.text.CyBle_HtsRegisterAttrCallback,"ax",%progbits
 105              		.align	2
 106              		.global	CyBle_HtsRegisterAttrCallback
 107              		.code	16
 108              		.thumb_func
 109              		.type	CyBle_HtsRegisterAttrCallback, %function
 110              	CyBle_HtsRegisterAttrCallback:
 111              	.LFB3:
 111:Generated_Source\PSoC4/BLE_hts.c **** 
 112:Generated_Source\PSoC4/BLE_hts.c **** 
 113:Generated_Source\PSoC4/BLE_hts.c **** /******************************************************************************
 114:Generated_Source\PSoC4/BLE_hts.c **** * Function Name: CyBle_HtsRegisterAttrCallback
 115:Generated_Source\PSoC4/BLE_hts.c **** ***************************************************************************//**
 116:Generated_Source\PSoC4/BLE_hts.c **** * 
 117:Generated_Source\PSoC4/BLE_hts.c **** *  Registers a callback function for service specific attribute operations.
ARM GAS  C:\Users\User\AppData\Local\Temp\ccmH1EJa.s 			page 5


 118:Generated_Source\PSoC4/BLE_hts.c **** *  Service specific write requests from peer device will not be handled with
 119:Generated_Source\PSoC4/BLE_hts.c **** *  unregistered callback function.
 120:Generated_Source\PSoC4/BLE_hts.c **** * 
 121:Generated_Source\PSoC4/BLE_hts.c **** *  \param callbackFunc: An application layer event callback function to receive 
 122:Generated_Source\PSoC4/BLE_hts.c **** *                     events from the BLE Component. The definition of 
 123:Generated_Source\PSoC4/BLE_hts.c **** *                     CYBLE_CALLBACK_T for HTS Service is:\n
 124:Generated_Source\PSoC4/BLE_hts.c **** *                     typedef void (* CYBLE_CALLBACK_T) (uint32 eventCode, 
 125:Generated_Source\PSoC4/BLE_hts.c **** *                                                        void *eventParam)
 126:Generated_Source\PSoC4/BLE_hts.c **** *                     * eventCode indicates the event that triggered this 
 127:Generated_Source\PSoC4/BLE_hts.c **** *                       callback (e.g. CYBLE_EVT_HTSS_NOTIFICATION_ENABLED).
 128:Generated_Source\PSoC4/BLE_hts.c **** *                     * eventParam contains the parameters corresponding to the 
 129:Generated_Source\PSoC4/BLE_hts.c **** *                       current event. (e.g. pointer to CYBLE_HTS_CHAR_VALUE_T
 130:Generated_Source\PSoC4/BLE_hts.c **** *                       structure that contains details of the characteristic 
 131:Generated_Source\PSoC4/BLE_hts.c **** *                       for which notification enabled event was triggered).
 132:Generated_Source\PSoC4/BLE_hts.c **** * 
 133:Generated_Source\PSoC4/BLE_hts.c **** ******************************************************************************/
 134:Generated_Source\PSoC4/BLE_hts.c **** void CyBle_HtsRegisterAttrCallback(CYBLE_CALLBACK_T callbackFunc)
 135:Generated_Source\PSoC4/BLE_hts.c **** {
 112              		.loc 1 135 0
 113              		.cfi_startproc
 114              		@ args = 0, pretend = 0, frame = 8
 115              		@ frame_needed = 1, uses_anonymous_args = 0
 116 0000 80B5     		push	{r7, lr}
 117              		.cfi_def_cfa_offset 8
 118              		.cfi_offset 7, -8
 119              		.cfi_offset 14, -4
 120 0002 82B0     		sub	sp, sp, #8
 121              		.cfi_def_cfa_offset 16
 122 0004 00AF     		add	r7, sp, #0
 123              		.cfi_def_cfa_register 7
 124 0006 7860     		str	r0, [r7, #4]
 136:Generated_Source\PSoC4/BLE_hts.c ****     CyBle_HtsApplCallback = callbackFunc;
 125              		.loc 1 136 0
 126 0008 034B     		ldr	r3, .L6
 127 000a 7A68     		ldr	r2, [r7, #4]
 128 000c 1A60     		str	r2, [r3]
 137:Generated_Source\PSoC4/BLE_hts.c **** }
 129              		.loc 1 137 0
 130 000e C046     		nop
 131 0010 BD46     		mov	sp, r7
 132 0012 02B0     		add	sp, sp, #8
 133              		@ sp needed
 134 0014 80BD     		pop	{r7, pc}
 135              	.L7:
 136 0016 C046     		.align	2
 137              	.L6:
 138 0018 00000000 		.word	CyBle_HtsApplCallback
 139              		.cfi_endproc
 140              	.LFE3:
 141              		.size	CyBle_HtsRegisterAttrCallback, .-CyBle_HtsRegisterAttrCallback
 142              		.section	.text.CyBle_HtssSetCharacteristicValue,"ax",%progbits
 143              		.align	2
 144              		.global	CyBle_HtssSetCharacteristicValue
 145              		.code	16
 146              		.thumb_func
 147              		.type	CyBle_HtssSetCharacteristicValue, %function
 148              	CyBle_HtssSetCharacteristicValue:
ARM GAS  C:\Users\User\AppData\Local\Temp\ccmH1EJa.s 			page 6


 149              	.LFB4:
 138:Generated_Source\PSoC4/BLE_hts.c **** 
 139:Generated_Source\PSoC4/BLE_hts.c **** #ifdef CYBLE_HTS_SERVER
 140:Generated_Source\PSoC4/BLE_hts.c **** 
 141:Generated_Source\PSoC4/BLE_hts.c **** 
 142:Generated_Source\PSoC4/BLE_hts.c **** /******************************************************************************
 143:Generated_Source\PSoC4/BLE_hts.c **** * Function Name: CyBle_HtssSetCharacteristicValue
 144:Generated_Source\PSoC4/BLE_hts.c **** ***************************************************************************//**
 145:Generated_Source\PSoC4/BLE_hts.c **** * 
 146:Generated_Source\PSoC4/BLE_hts.c **** *  Sets the characteristic value of the service in the local database.
 147:Generated_Source\PSoC4/BLE_hts.c **** * 
 148:Generated_Source\PSoC4/BLE_hts.c **** *  \param charIndex: The index of the service characteristic.
 149:Generated_Source\PSoC4/BLE_hts.c **** *  \param attrSize:  The size (in Bytes) of the characteristic value attribute.
 150:Generated_Source\PSoC4/BLE_hts.c **** *  \param attrValue: The pointer to the characteristic value data that should be
 151:Generated_Source\PSoC4/BLE_hts.c **** *                    stored in the GATT database.
 152:Generated_Source\PSoC4/BLE_hts.c **** * 
 153:Generated_Source\PSoC4/BLE_hts.c **** * \return
 154:Generated_Source\PSoC4/BLE_hts.c **** *  Return value is of type CYBLE_API_RESULT_T.
 155:Generated_Source\PSoC4/BLE_hts.c **** *  * CYBLE_ERROR_OK - The request handled successfully.
 156:Generated_Source\PSoC4/BLE_hts.c **** *  * CYBLE_ERROR_INVALID_PARAMETER - Validation of the input parameter failed.
 157:Generated_Source\PSoC4/BLE_hts.c **** *
 158:Generated_Source\PSoC4/BLE_hts.c **** ******************************************************************************/
 159:Generated_Source\PSoC4/BLE_hts.c **** CYBLE_API_RESULT_T CyBle_HtssSetCharacteristicValue(CYBLE_HTS_CHAR_INDEX_T charIndex,
 160:Generated_Source\PSoC4/BLE_hts.c ****     uint8 attrSize, uint8 *attrValue)
 161:Generated_Source\PSoC4/BLE_hts.c **** {
 150              		.loc 1 161 0
 151              		.cfi_startproc
 152              		@ args = 0, pretend = 0, frame = 24
 153              		@ frame_needed = 1, uses_anonymous_args = 0
 154 0000 80B5     		push	{r7, lr}
 155              		.cfi_def_cfa_offset 8
 156              		.cfi_offset 7, -8
 157              		.cfi_offset 14, -4
 158 0002 86B0     		sub	sp, sp, #24
 159              		.cfi_def_cfa_offset 32
 160 0004 00AF     		add	r7, sp, #0
 161              		.cfi_def_cfa_register 7
 162 0006 3A60     		str	r2, [r7]
 163 0008 FB1D     		adds	r3, r7, #7
 164 000a 021C     		adds	r2, r0, #0
 165 000c 1A70     		strb	r2, [r3]
 166 000e BB1D     		adds	r3, r7, #6
 167 0010 0A1C     		adds	r2, r1, #0
 168 0012 1A70     		strb	r2, [r3]
 162:Generated_Source\PSoC4/BLE_hts.c ****     CYBLE_API_RESULT_T apiResult = CYBLE_ERROR_OK;
 169              		.loc 1 162 0
 170 0014 1623     		movs	r3, #22
 171 0016 FB18     		adds	r3, r7, r3
 172 0018 0022     		movs	r2, #0
 173 001a 1A80     		strh	r2, [r3]
 163:Generated_Source\PSoC4/BLE_hts.c ****     CYBLE_GATT_HANDLE_VALUE_PAIR_T locHandleValuePair;
 164:Generated_Source\PSoC4/BLE_hts.c **** 
 165:Generated_Source\PSoC4/BLE_hts.c ****     if(charIndex >= CYBLE_HTS_CHAR_COUNT)
 174              		.loc 1 165 0
 175 001c FB1D     		adds	r3, r7, #7
 176 001e 1B78     		ldrb	r3, [r3]
 177 0020 032B     		cmp	r3, #3
ARM GAS  C:\Users\User\AppData\Local\Temp\ccmH1EJa.s 			page 7


 178 0022 04D9     		bls	.L9
 166:Generated_Source\PSoC4/BLE_hts.c ****     {
 167:Generated_Source\PSoC4/BLE_hts.c ****         apiResult = CYBLE_ERROR_INVALID_PARAMETER;
 179              		.loc 1 167 0
 180 0024 1623     		movs	r3, #22
 181 0026 FB18     		adds	r3, r7, r3
 182 0028 0122     		movs	r2, #1
 183 002a 1A80     		strh	r2, [r3]
 184 002c 23E0     		b	.L10
 185              	.L9:
 168:Generated_Source\PSoC4/BLE_hts.c ****     }
 169:Generated_Source\PSoC4/BLE_hts.c ****     else
 170:Generated_Source\PSoC4/BLE_hts.c ****     {
 171:Generated_Source\PSoC4/BLE_hts.c ****         /* Store data in database */
 172:Generated_Source\PSoC4/BLE_hts.c ****         locHandleValuePair.attrHandle = cyBle_htss.charInfo[charIndex].charHandle;
 186              		.loc 1 172 0
 187 002e FB1D     		adds	r3, r7, #7
 188 0030 1A78     		ldrb	r2, [r3]
 189 0032 1449     		ldr	r1, .L12
 190 0034 1300     		movs	r3, r2
 191 0036 5B00     		lsls	r3, r3, #1
 192 0038 9B18     		adds	r3, r3, r2
 193 003a 5B00     		lsls	r3, r3, #1
 194 003c CB18     		adds	r3, r1, r3
 195 003e 0233     		adds	r3, r3, #2
 196 0040 1A88     		ldrh	r2, [r3]
 197 0042 0823     		movs	r3, #8
 198 0044 FB18     		adds	r3, r7, r3
 199 0046 1A81     		strh	r2, [r3, #8]
 173:Generated_Source\PSoC4/BLE_hts.c ****         locHandleValuePair.value.len = attrSize;
 200              		.loc 1 173 0
 201 0048 BB1D     		adds	r3, r7, #6
 202 004a 1B78     		ldrb	r3, [r3]
 203 004c 9AB2     		uxth	r2, r3
 204 004e 0823     		movs	r3, #8
 205 0050 FB18     		adds	r3, r7, r3
 206 0052 9A80     		strh	r2, [r3, #4]
 174:Generated_Source\PSoC4/BLE_hts.c ****         locHandleValuePair.value.val = attrValue;
 207              		.loc 1 174 0
 208 0054 0823     		movs	r3, #8
 209 0056 FB18     		adds	r3, r7, r3
 210 0058 3A68     		ldr	r2, [r7]
 211 005a 1A60     		str	r2, [r3]
 175:Generated_Source\PSoC4/BLE_hts.c ****         if(CYBLE_GATT_ERR_NONE !=
 176:Generated_Source\PSoC4/BLE_hts.c ****             CyBle_GattsWriteAttributeValue(&locHandleValuePair, 0u, NULL, CYBLE_GATT_DB_LOCALLY_INI
 212              		.loc 1 176 0
 213 005c 0823     		movs	r3, #8
 214 005e F818     		adds	r0, r7, r3
 215 0060 0023     		movs	r3, #0
 216 0062 0022     		movs	r2, #0
 217 0064 0021     		movs	r1, #0
 218 0066 FFF7FEFF 		bl	CyBle_GattsWriteAttributeValue
 219 006a 031E     		subs	r3, r0, #0
 175:Generated_Source\PSoC4/BLE_hts.c ****         if(CYBLE_GATT_ERR_NONE !=
 220              		.loc 1 175 0
 221 006c 03D0     		beq	.L10
 177:Generated_Source\PSoC4/BLE_hts.c ****         {
ARM GAS  C:\Users\User\AppData\Local\Temp\ccmH1EJa.s 			page 8


 178:Generated_Source\PSoC4/BLE_hts.c ****             apiResult = CYBLE_ERROR_INVALID_PARAMETER;
 222              		.loc 1 178 0
 223 006e 1623     		movs	r3, #22
 224 0070 FB18     		adds	r3, r7, r3
 225 0072 0122     		movs	r2, #1
 226 0074 1A80     		strh	r2, [r3]
 227              	.L10:
 179:Generated_Source\PSoC4/BLE_hts.c ****         }
 180:Generated_Source\PSoC4/BLE_hts.c ****     }
 181:Generated_Source\PSoC4/BLE_hts.c ****     return (apiResult);
 228              		.loc 1 181 0
 229 0076 1623     		movs	r3, #22
 230 0078 FB18     		adds	r3, r7, r3
 231 007a 1B88     		ldrh	r3, [r3]
 182:Generated_Source\PSoC4/BLE_hts.c **** }
 232              		.loc 1 182 0
 233 007c 1800     		movs	r0, r3
 234 007e BD46     		mov	sp, r7
 235 0080 06B0     		add	sp, sp, #24
 236              		@ sp needed
 237 0082 80BD     		pop	{r7, pc}
 238              	.L13:
 239              		.align	2
 240              	.L12:
 241 0084 00000000 		.word	cyBle_htss
 242              		.cfi_endproc
 243              	.LFE4:
 244              		.size	CyBle_HtssSetCharacteristicValue, .-CyBle_HtssSetCharacteristicValue
 245              		.section	.text.CyBle_HtssGetCharacteristicValue,"ax",%progbits
 246              		.align	2
 247              		.global	CyBle_HtssGetCharacteristicValue
 248              		.code	16
 249              		.thumb_func
 250              		.type	CyBle_HtssGetCharacteristicValue, %function
 251              	CyBle_HtssGetCharacteristicValue:
 252              	.LFB5:
 183:Generated_Source\PSoC4/BLE_hts.c **** 
 184:Generated_Source\PSoC4/BLE_hts.c **** 
 185:Generated_Source\PSoC4/BLE_hts.c **** /******************************************************************************
 186:Generated_Source\PSoC4/BLE_hts.c **** * Function Name: CyBle_HtssGetCharacteristicValue
 187:Generated_Source\PSoC4/BLE_hts.c **** ***************************************************************************//**
 188:Generated_Source\PSoC4/BLE_hts.c **** * 
 189:Generated_Source\PSoC4/BLE_hts.c **** *  Gets the characteristic value of the service, which is a value identified by
 190:Generated_Source\PSoC4/BLE_hts.c **** *  charIndex.
 191:Generated_Source\PSoC4/BLE_hts.c **** * 
 192:Generated_Source\PSoC4/BLE_hts.c **** *  \param charIndex: The index of the service characteristic.
 193:Generated_Source\PSoC4/BLE_hts.c **** *  \param attrSize:  The size of the characteristic value attribute.
 194:Generated_Source\PSoC4/BLE_hts.c **** *  \param attrValue: The pointer to the location where characteristic value data
 195:Generated_Source\PSoC4/BLE_hts.c **** *                    should be stored.
 196:Generated_Source\PSoC4/BLE_hts.c **** * 
 197:Generated_Source\PSoC4/BLE_hts.c **** * \return
 198:Generated_Source\PSoC4/BLE_hts.c **** *  Return value is of type CYBLE_API_RESULT_T.
 199:Generated_Source\PSoC4/BLE_hts.c **** *  * CYBLE_ERROR_OK - The request handled successfully.
 200:Generated_Source\PSoC4/BLE_hts.c **** *  * CYBLE_ERROR_INVALID_PARAMETER - Validation of the input parameter failed.
 201:Generated_Source\PSoC4/BLE_hts.c **** *
 202:Generated_Source\PSoC4/BLE_hts.c **** ******************************************************************************/
 203:Generated_Source\PSoC4/BLE_hts.c **** CYBLE_API_RESULT_T CyBle_HtssGetCharacteristicValue(CYBLE_HTS_CHAR_INDEX_T charIndex,
ARM GAS  C:\Users\User\AppData\Local\Temp\ccmH1EJa.s 			page 9


 204:Generated_Source\PSoC4/BLE_hts.c ****     uint8 attrSize, uint8 *attrValue)
 205:Generated_Source\PSoC4/BLE_hts.c **** {
 253              		.loc 1 205 0
 254              		.cfi_startproc
 255              		@ args = 0, pretend = 0, frame = 24
 256              		@ frame_needed = 1, uses_anonymous_args = 0
 257 0000 80B5     		push	{r7, lr}
 258              		.cfi_def_cfa_offset 8
 259              		.cfi_offset 7, -8
 260              		.cfi_offset 14, -4
 261 0002 86B0     		sub	sp, sp, #24
 262              		.cfi_def_cfa_offset 32
 263 0004 00AF     		add	r7, sp, #0
 264              		.cfi_def_cfa_register 7
 265 0006 3A60     		str	r2, [r7]
 266 0008 FB1D     		adds	r3, r7, #7
 267 000a 021C     		adds	r2, r0, #0
 268 000c 1A70     		strb	r2, [r3]
 269 000e BB1D     		adds	r3, r7, #6
 270 0010 0A1C     		adds	r2, r1, #0
 271 0012 1A70     		strb	r2, [r3]
 206:Generated_Source\PSoC4/BLE_hts.c ****     CYBLE_API_RESULT_T apiResult = CYBLE_ERROR_OK;
 272              		.loc 1 206 0
 273 0014 1623     		movs	r3, #22
 274 0016 FB18     		adds	r3, r7, r3
 275 0018 0022     		movs	r2, #0
 276 001a 1A80     		strh	r2, [r3]
 207:Generated_Source\PSoC4/BLE_hts.c ****     CYBLE_GATT_HANDLE_VALUE_PAIR_T locHandleValuePair;
 208:Generated_Source\PSoC4/BLE_hts.c **** 
 209:Generated_Source\PSoC4/BLE_hts.c ****     if(charIndex >= CYBLE_HTS_CHAR_COUNT)
 277              		.loc 1 209 0
 278 001c FB1D     		adds	r3, r7, #7
 279 001e 1B78     		ldrb	r3, [r3]
 280 0020 032B     		cmp	r3, #3
 281 0022 04D9     		bls	.L15
 210:Generated_Source\PSoC4/BLE_hts.c ****     {
 211:Generated_Source\PSoC4/BLE_hts.c ****         apiResult = CYBLE_ERROR_INVALID_PARAMETER;
 282              		.loc 1 211 0
 283 0024 1623     		movs	r3, #22
 284 0026 FB18     		adds	r3, r7, r3
 285 0028 0122     		movs	r2, #1
 286 002a 1A80     		strh	r2, [r3]
 287 002c 23E0     		b	.L16
 288              	.L15:
 212:Generated_Source\PSoC4/BLE_hts.c ****     }
 213:Generated_Source\PSoC4/BLE_hts.c ****     else
 214:Generated_Source\PSoC4/BLE_hts.c ****     {
 215:Generated_Source\PSoC4/BLE_hts.c ****         /* Read characteristic value from database */
 216:Generated_Source\PSoC4/BLE_hts.c ****         locHandleValuePair.attrHandle = cyBle_htss.charInfo[charIndex].charHandle;
 289              		.loc 1 216 0
 290 002e FB1D     		adds	r3, r7, #7
 291 0030 1A78     		ldrb	r2, [r3]
 292 0032 1449     		ldr	r1, .L18
 293 0034 1300     		movs	r3, r2
 294 0036 5B00     		lsls	r3, r3, #1
 295 0038 9B18     		adds	r3, r3, r2
 296 003a 5B00     		lsls	r3, r3, #1
ARM GAS  C:\Users\User\AppData\Local\Temp\ccmH1EJa.s 			page 10


 297 003c CB18     		adds	r3, r1, r3
 298 003e 0233     		adds	r3, r3, #2
 299 0040 1A88     		ldrh	r2, [r3]
 300 0042 0823     		movs	r3, #8
 301 0044 FB18     		adds	r3, r7, r3
 302 0046 1A81     		strh	r2, [r3, #8]
 217:Generated_Source\PSoC4/BLE_hts.c ****         locHandleValuePair.value.len = attrSize;
 303              		.loc 1 217 0
 304 0048 BB1D     		adds	r3, r7, #6
 305 004a 1B78     		ldrb	r3, [r3]
 306 004c 9AB2     		uxth	r2, r3
 307 004e 0823     		movs	r3, #8
 308 0050 FB18     		adds	r3, r7, r3
 309 0052 9A80     		strh	r2, [r3, #4]
 218:Generated_Source\PSoC4/BLE_hts.c ****         locHandleValuePair.value.val = attrValue;
 310              		.loc 1 218 0
 311 0054 0823     		movs	r3, #8
 312 0056 FB18     		adds	r3, r7, r3
 313 0058 3A68     		ldr	r2, [r7]
 314 005a 1A60     		str	r2, [r3]
 219:Generated_Source\PSoC4/BLE_hts.c ****         if(CYBLE_GATT_ERR_NONE !=
 220:Generated_Source\PSoC4/BLE_hts.c ****             CyBle_GattsReadAttributeValue(&locHandleValuePair, NULL, CYBLE_GATT_DB_LOCALLY_INITIATE
 315              		.loc 1 220 0
 316 005c 0823     		movs	r3, #8
 317 005e FB18     		adds	r3, r7, r3
 318 0060 0022     		movs	r2, #0
 319 0062 0021     		movs	r1, #0
 320 0064 1800     		movs	r0, r3
 321 0066 FFF7FEFF 		bl	CyBle_GattsReadAttributeValue
 322 006a 031E     		subs	r3, r0, #0
 219:Generated_Source\PSoC4/BLE_hts.c ****         if(CYBLE_GATT_ERR_NONE !=
 323              		.loc 1 219 0
 324 006c 03D0     		beq	.L16
 221:Generated_Source\PSoC4/BLE_hts.c ****         {
 222:Generated_Source\PSoC4/BLE_hts.c ****             apiResult = CYBLE_ERROR_INVALID_PARAMETER;
 325              		.loc 1 222 0
 326 006e 1623     		movs	r3, #22
 327 0070 FB18     		adds	r3, r7, r3
 328 0072 0122     		movs	r2, #1
 329 0074 1A80     		strh	r2, [r3]
 330              	.L16:
 223:Generated_Source\PSoC4/BLE_hts.c ****         }
 224:Generated_Source\PSoC4/BLE_hts.c ****     }
 225:Generated_Source\PSoC4/BLE_hts.c ****     return (apiResult);
 331              		.loc 1 225 0
 332 0076 1623     		movs	r3, #22
 333 0078 FB18     		adds	r3, r7, r3
 334 007a 1B88     		ldrh	r3, [r3]
 226:Generated_Source\PSoC4/BLE_hts.c **** }
 335              		.loc 1 226 0
 336 007c 1800     		movs	r0, r3
 337 007e BD46     		mov	sp, r7
 338 0080 06B0     		add	sp, sp, #24
 339              		@ sp needed
 340 0082 80BD     		pop	{r7, pc}
 341              	.L19:
 342              		.align	2
ARM GAS  C:\Users\User\AppData\Local\Temp\ccmH1EJa.s 			page 11


 343              	.L18:
 344 0084 00000000 		.word	cyBle_htss
 345              		.cfi_endproc
 346              	.LFE5:
 347              		.size	CyBle_HtssGetCharacteristicValue, .-CyBle_HtssGetCharacteristicValue
 348              		.section	.text.CyBle_HtssSetCharacteristicDescriptor,"ax",%progbits
 349              		.align	2
 350              		.global	CyBle_HtssSetCharacteristicDescriptor
 351              		.code	16
 352              		.thumb_func
 353              		.type	CyBle_HtssSetCharacteristicDescriptor, %function
 354              	CyBle_HtssSetCharacteristicDescriptor:
 355              	.LFB6:
 227:Generated_Source\PSoC4/BLE_hts.c **** 
 228:Generated_Source\PSoC4/BLE_hts.c **** 
 229:Generated_Source\PSoC4/BLE_hts.c **** /******************************************************************************
 230:Generated_Source\PSoC4/BLE_hts.c **** * Function Name: CyBle_HtssSetCharacteristicDescriptor
 231:Generated_Source\PSoC4/BLE_hts.c **** ***************************************************************************//**
 232:Generated_Source\PSoC4/BLE_hts.c **** * 
 233:Generated_Source\PSoC4/BLE_hts.c **** *  Sets the characteristic descriptor of the specified characteristic.
 234:Generated_Source\PSoC4/BLE_hts.c **** * 
 235:Generated_Source\PSoC4/BLE_hts.c **** *  \param charIndex:  The index of the service characteristic.
 236:Generated_Source\PSoC4/BLE_hts.c **** *  \param descrIndex: The index of the service characteristic descriptor.
 237:Generated_Source\PSoC4/BLE_hts.c **** *  \param attrSize:   The size of the characteristic descriptor attribute.
 238:Generated_Source\PSoC4/BLE_hts.c **** *  \param attrValue:  The pointer to the descriptor value data that should be 
 239:Generated_Source\PSoC4/BLE_hts.c **** *                     stored in the GATT database. 
 240:Generated_Source\PSoC4/BLE_hts.c **** * 
 241:Generated_Source\PSoC4/BLE_hts.c **** * \return
 242:Generated_Source\PSoC4/BLE_hts.c **** *  Return value is of type CYBLE_API_RESULT_T.
 243:Generated_Source\PSoC4/BLE_hts.c **** *  * CYBLE_ERROR_OK - The request handled successfully.
 244:Generated_Source\PSoC4/BLE_hts.c **** *  * CYBLE_ERROR_INVALID_PARAMETER - Validation of the input parameter failed.
 245:Generated_Source\PSoC4/BLE_hts.c **** *
 246:Generated_Source\PSoC4/BLE_hts.c **** ******************************************************************************/
 247:Generated_Source\PSoC4/BLE_hts.c **** CYBLE_API_RESULT_T CyBle_HtssSetCharacteristicDescriptor(CYBLE_HTS_CHAR_INDEX_T charIndex,
 248:Generated_Source\PSoC4/BLE_hts.c ****     CYBLE_HTS_DESCR_INDEX_T descrIndex, uint8 attrSize, uint8 *attrValue)
 249:Generated_Source\PSoC4/BLE_hts.c **** {
 356              		.loc 1 249 0
 357              		.cfi_startproc
 358              		@ args = 0, pretend = 0, frame = 24
 359              		@ frame_needed = 1, uses_anonymous_args = 0
 360 0000 90B5     		push	{r4, r7, lr}
 361              		.cfi_def_cfa_offset 12
 362              		.cfi_offset 4, -12
 363              		.cfi_offset 7, -8
 364              		.cfi_offset 14, -4
 365 0002 87B0     		sub	sp, sp, #28
 366              		.cfi_def_cfa_offset 40
 367 0004 00AF     		add	r7, sp, #0
 368              		.cfi_def_cfa_register 7
 369 0006 0400     		movs	r4, r0
 370 0008 0800     		movs	r0, r1
 371 000a 1100     		movs	r1, r2
 372 000c 3B60     		str	r3, [r7]
 373 000e FB1D     		adds	r3, r7, #7
 374 0010 221C     		adds	r2, r4, #0
 375 0012 1A70     		strb	r2, [r3]
 376 0014 BB1D     		adds	r3, r7, #6
ARM GAS  C:\Users\User\AppData\Local\Temp\ccmH1EJa.s 			page 12


 377 0016 021C     		adds	r2, r0, #0
 378 0018 1A70     		strb	r2, [r3]
 379 001a 7B1D     		adds	r3, r7, #5
 380 001c 0A1C     		adds	r2, r1, #0
 381 001e 1A70     		strb	r2, [r3]
 250:Generated_Source\PSoC4/BLE_hts.c ****     CYBLE_API_RESULT_T apiResult = CYBLE_ERROR_OK;
 382              		.loc 1 250 0
 383 0020 1623     		movs	r3, #22
 384 0022 FB18     		adds	r3, r7, r3
 385 0024 0022     		movs	r2, #0
 386 0026 1A80     		strh	r2, [r3]
 251:Generated_Source\PSoC4/BLE_hts.c ****     CYBLE_GATT_HANDLE_VALUE_PAIR_T locHandleValuePair;
 252:Generated_Source\PSoC4/BLE_hts.c **** 
 253:Generated_Source\PSoC4/BLE_hts.c ****     if((charIndex >= CYBLE_HTS_CHAR_COUNT) || (descrIndex >= CYBLE_HTS_DESCR_COUNT))
 387              		.loc 1 253 0
 388 0028 FB1D     		adds	r3, r7, #7
 389 002a 1B78     		ldrb	r3, [r3]
 390 002c 032B     		cmp	r3, #3
 391 002e 03D8     		bhi	.L21
 392              		.loc 1 253 0 is_stmt 0 discriminator 1
 393 0030 BB1D     		adds	r3, r7, #6
 394 0032 1B78     		ldrb	r3, [r3]
 395 0034 012B     		cmp	r3, #1
 396 0036 04D9     		bls	.L22
 397              	.L21:
 254:Generated_Source\PSoC4/BLE_hts.c ****     {
 255:Generated_Source\PSoC4/BLE_hts.c ****         apiResult = CYBLE_ERROR_INVALID_PARAMETER;
 398              		.loc 1 255 0 is_stmt 1
 399 0038 1623     		movs	r3, #22
 400 003a FB18     		adds	r3, r7, r3
 401 003c 0122     		movs	r2, #1
 402 003e 1A80     		strh	r2, [r3]
 403 0040 30E0     		b	.L23
 404              	.L22:
 256:Generated_Source\PSoC4/BLE_hts.c ****     }
 257:Generated_Source\PSoC4/BLE_hts.c ****     else
 258:Generated_Source\PSoC4/BLE_hts.c ****     {
 259:Generated_Source\PSoC4/BLE_hts.c ****         locHandleValuePair.attrHandle = cyBle_htss.charInfo[charIndex].descrHandle[descrIndex];
 405              		.loc 1 259 0
 406 0042 FB1D     		adds	r3, r7, #7
 407 0044 1A78     		ldrb	r2, [r3]
 408 0046 BB1D     		adds	r3, r7, #6
 409 0048 1878     		ldrb	r0, [r3]
 410 004a 1A49     		ldr	r1, .L27
 411 004c 1300     		movs	r3, r2
 412 004e 5B00     		lsls	r3, r3, #1
 413 0050 9B18     		adds	r3, r3, r2
 414 0052 1B18     		adds	r3, r3, r0
 415 0054 5B00     		lsls	r3, r3, #1
 416 0056 CB18     		adds	r3, r1, r3
 417 0058 0433     		adds	r3, r3, #4
 418 005a 1A88     		ldrh	r2, [r3]
 419 005c 0823     		movs	r3, #8
 420 005e FB18     		adds	r3, r7, r3
 421 0060 1A81     		strh	r2, [r3, #8]
 260:Generated_Source\PSoC4/BLE_hts.c ****         if(locHandleValuePair.attrHandle != CYBLE_GATT_INVALID_ATTR_HANDLE_VALUE)
 422              		.loc 1 260 0
ARM GAS  C:\Users\User\AppData\Local\Temp\ccmH1EJa.s 			page 13


 423 0062 0823     		movs	r3, #8
 424 0064 FB18     		adds	r3, r7, r3
 425 0066 1B89     		ldrh	r3, [r3, #8]
 426 0068 002B     		cmp	r3, #0
 427 006a 17D0     		beq	.L24
 261:Generated_Source\PSoC4/BLE_hts.c ****         {
 262:Generated_Source\PSoC4/BLE_hts.c ****             locHandleValuePair.value.len = attrSize;
 428              		.loc 1 262 0
 429 006c 7B1D     		adds	r3, r7, #5
 430 006e 1B78     		ldrb	r3, [r3]
 431 0070 9AB2     		uxth	r2, r3
 432 0072 0823     		movs	r3, #8
 433 0074 FB18     		adds	r3, r7, r3
 434 0076 9A80     		strh	r2, [r3, #4]
 263:Generated_Source\PSoC4/BLE_hts.c ****             locHandleValuePair.value.val = attrValue;
 435              		.loc 1 263 0
 436 0078 0823     		movs	r3, #8
 437 007a FB18     		adds	r3, r7, r3
 438 007c 3A68     		ldr	r2, [r7]
 439 007e 1A60     		str	r2, [r3]
 264:Generated_Source\PSoC4/BLE_hts.c ****             if(CYBLE_GATT_ERR_NONE !=
 265:Generated_Source\PSoC4/BLE_hts.c ****                 CyBle_GattsWriteAttributeValue(&locHandleValuePair, 0u, NULL, CYBLE_GATT_DB_LOCALLY
 440              		.loc 1 265 0
 441 0080 0823     		movs	r3, #8
 442 0082 F818     		adds	r0, r7, r3
 443 0084 0023     		movs	r3, #0
 444 0086 0022     		movs	r2, #0
 445 0088 0021     		movs	r1, #0
 446 008a FFF7FEFF 		bl	CyBle_GattsWriteAttributeValue
 447 008e 031E     		subs	r3, r0, #0
 264:Generated_Source\PSoC4/BLE_hts.c ****             if(CYBLE_GATT_ERR_NONE !=
 448              		.loc 1 264 0
 449 0090 08D0     		beq	.L23
 266:Generated_Source\PSoC4/BLE_hts.c ****             {
 267:Generated_Source\PSoC4/BLE_hts.c ****                 apiResult = CYBLE_ERROR_INVALID_PARAMETER;
 450              		.loc 1 267 0
 451 0092 1623     		movs	r3, #22
 452 0094 FB18     		adds	r3, r7, r3
 453 0096 0122     		movs	r2, #1
 454 0098 1A80     		strh	r2, [r3]
 455 009a 03E0     		b	.L23
 456              	.L24:
 268:Generated_Source\PSoC4/BLE_hts.c ****             }
 269:Generated_Source\PSoC4/BLE_hts.c ****         }
 270:Generated_Source\PSoC4/BLE_hts.c ****         else
 271:Generated_Source\PSoC4/BLE_hts.c ****         {
 272:Generated_Source\PSoC4/BLE_hts.c ****             apiResult = CYBLE_ERROR_INVALID_PARAMETER;
 457              		.loc 1 272 0
 458 009c 1623     		movs	r3, #22
 459 009e FB18     		adds	r3, r7, r3
 460 00a0 0122     		movs	r2, #1
 461 00a2 1A80     		strh	r2, [r3]
 462              	.L23:
 273:Generated_Source\PSoC4/BLE_hts.c ****         }
 274:Generated_Source\PSoC4/BLE_hts.c ****     }
 275:Generated_Source\PSoC4/BLE_hts.c ****     return (apiResult);
 463              		.loc 1 275 0
ARM GAS  C:\Users\User\AppData\Local\Temp\ccmH1EJa.s 			page 14


 464 00a4 1623     		movs	r3, #22
 465 00a6 FB18     		adds	r3, r7, r3
 466 00a8 1B88     		ldrh	r3, [r3]
 276:Generated_Source\PSoC4/BLE_hts.c **** }
 467              		.loc 1 276 0
 468 00aa 1800     		movs	r0, r3
 469 00ac BD46     		mov	sp, r7
 470 00ae 07B0     		add	sp, sp, #28
 471              		@ sp needed
 472 00b0 90BD     		pop	{r4, r7, pc}
 473              	.L28:
 474 00b2 C046     		.align	2
 475              	.L27:
 476 00b4 00000000 		.word	cyBle_htss
 477              		.cfi_endproc
 478              	.LFE6:
 479              		.size	CyBle_HtssSetCharacteristicDescriptor, .-CyBle_HtssSetCharacteristicDescriptor
 480              		.section	.text.CyBle_HtssGetCharacteristicDescriptor,"ax",%progbits
 481              		.align	2
 482              		.global	CyBle_HtssGetCharacteristicDescriptor
 483              		.code	16
 484              		.thumb_func
 485              		.type	CyBle_HtssGetCharacteristicDescriptor, %function
 486              	CyBle_HtssGetCharacteristicDescriptor:
 487              	.LFB7:
 277:Generated_Source\PSoC4/BLE_hts.c **** 
 278:Generated_Source\PSoC4/BLE_hts.c **** 
 279:Generated_Source\PSoC4/BLE_hts.c **** /******************************************************************************
 280:Generated_Source\PSoC4/BLE_hts.c **** * Function Name: CyBle_HtssGetCharacteristicDescriptor
 281:Generated_Source\PSoC4/BLE_hts.c **** ***************************************************************************//**
 282:Generated_Source\PSoC4/BLE_hts.c **** * 
 283:Generated_Source\PSoC4/BLE_hts.c **** *  Gets the characteristic descriptor of the specified characteristic.
 284:Generated_Source\PSoC4/BLE_hts.c **** * 
 285:Generated_Source\PSoC4/BLE_hts.c **** *  \param charIndex:  The index of the service characteristic.
 286:Generated_Source\PSoC4/BLE_hts.c **** *  \param descrIndex: The index of the service characteristic descriptor.
 287:Generated_Source\PSoC4/BLE_hts.c **** *  \param attrSize:   The size of the characteristic descriptor attribute.
 288:Generated_Source\PSoC4/BLE_hts.c **** *  \param attrValue:  The pointer to the location where characteristic descriptor
 289:Generated_Source\PSoC4/BLE_hts.c **** *                     value data should be stored.
 290:Generated_Source\PSoC4/BLE_hts.c **** * 
 291:Generated_Source\PSoC4/BLE_hts.c **** * \return
 292:Generated_Source\PSoC4/BLE_hts.c **** *  Return value is of type CYBLE_API_RESULT_T.
 293:Generated_Source\PSoC4/BLE_hts.c **** *  * CYBLE_ERROR_OK - The request handled successfully.
 294:Generated_Source\PSoC4/BLE_hts.c **** *  * CYBLE_ERROR_INVALID_PARAMETER - Validation of the input parameter failed.
 295:Generated_Source\PSoC4/BLE_hts.c **** *
 296:Generated_Source\PSoC4/BLE_hts.c **** ******************************************************************************/
 297:Generated_Source\PSoC4/BLE_hts.c **** CYBLE_API_RESULT_T CyBle_HtssGetCharacteristicDescriptor(CYBLE_HTS_CHAR_INDEX_T charIndex,
 298:Generated_Source\PSoC4/BLE_hts.c ****     CYBLE_HTS_DESCR_INDEX_T descrIndex, uint8 attrSize, uint8 *attrValue)
 299:Generated_Source\PSoC4/BLE_hts.c **** {
 488              		.loc 1 299 0
 489              		.cfi_startproc
 490              		@ args = 0, pretend = 0, frame = 24
 491              		@ frame_needed = 1, uses_anonymous_args = 0
 492 0000 90B5     		push	{r4, r7, lr}
 493              		.cfi_def_cfa_offset 12
 494              		.cfi_offset 4, -12
 495              		.cfi_offset 7, -8
 496              		.cfi_offset 14, -4
ARM GAS  C:\Users\User\AppData\Local\Temp\ccmH1EJa.s 			page 15


 497 0002 87B0     		sub	sp, sp, #28
 498              		.cfi_def_cfa_offset 40
 499 0004 00AF     		add	r7, sp, #0
 500              		.cfi_def_cfa_register 7
 501 0006 0400     		movs	r4, r0
 502 0008 0800     		movs	r0, r1
 503 000a 1100     		movs	r1, r2
 504 000c 3B60     		str	r3, [r7]
 505 000e FB1D     		adds	r3, r7, #7
 506 0010 221C     		adds	r2, r4, #0
 507 0012 1A70     		strb	r2, [r3]
 508 0014 BB1D     		adds	r3, r7, #6
 509 0016 021C     		adds	r2, r0, #0
 510 0018 1A70     		strb	r2, [r3]
 511 001a 7B1D     		adds	r3, r7, #5
 512 001c 0A1C     		adds	r2, r1, #0
 513 001e 1A70     		strb	r2, [r3]
 300:Generated_Source\PSoC4/BLE_hts.c ****     CYBLE_API_RESULT_T apiResult = CYBLE_ERROR_OK;
 514              		.loc 1 300 0
 515 0020 1623     		movs	r3, #22
 516 0022 FB18     		adds	r3, r7, r3
 517 0024 0022     		movs	r2, #0
 518 0026 1A80     		strh	r2, [r3]
 301:Generated_Source\PSoC4/BLE_hts.c ****     CYBLE_GATT_HANDLE_VALUE_PAIR_T locHandleValuePair;
 302:Generated_Source\PSoC4/BLE_hts.c **** 
 303:Generated_Source\PSoC4/BLE_hts.c ****     if((charIndex >= CYBLE_HTS_CHAR_COUNT) || (descrIndex >= CYBLE_HTS_DESCR_COUNT))
 519              		.loc 1 303 0
 520 0028 FB1D     		adds	r3, r7, #7
 521 002a 1B78     		ldrb	r3, [r3]
 522 002c 032B     		cmp	r3, #3
 523 002e 03D8     		bhi	.L30
 524              		.loc 1 303 0 is_stmt 0 discriminator 1
 525 0030 BB1D     		adds	r3, r7, #6
 526 0032 1B78     		ldrb	r3, [r3]
 527 0034 012B     		cmp	r3, #1
 528 0036 04D9     		bls	.L31
 529              	.L30:
 304:Generated_Source\PSoC4/BLE_hts.c ****     {
 305:Generated_Source\PSoC4/BLE_hts.c ****         apiResult = CYBLE_ERROR_INVALID_PARAMETER;
 530              		.loc 1 305 0 is_stmt 1
 531 0038 1623     		movs	r3, #22
 532 003a FB18     		adds	r3, r7, r3
 533 003c 0122     		movs	r2, #1
 534 003e 1A80     		strh	r2, [r3]
 535 0040 30E0     		b	.L32
 536              	.L31:
 306:Generated_Source\PSoC4/BLE_hts.c ****     }
 307:Generated_Source\PSoC4/BLE_hts.c ****     else
 308:Generated_Source\PSoC4/BLE_hts.c ****     {
 309:Generated_Source\PSoC4/BLE_hts.c ****         locHandleValuePair.attrHandle = cyBle_htss.charInfo[charIndex].descrHandle[descrIndex];
 537              		.loc 1 309 0
 538 0042 FB1D     		adds	r3, r7, #7
 539 0044 1A78     		ldrb	r2, [r3]
 540 0046 BB1D     		adds	r3, r7, #6
 541 0048 1878     		ldrb	r0, [r3]
 542 004a 1A49     		ldr	r1, .L36
 543 004c 1300     		movs	r3, r2
ARM GAS  C:\Users\User\AppData\Local\Temp\ccmH1EJa.s 			page 16


 544 004e 5B00     		lsls	r3, r3, #1
 545 0050 9B18     		adds	r3, r3, r2
 546 0052 1B18     		adds	r3, r3, r0
 547 0054 5B00     		lsls	r3, r3, #1
 548 0056 CB18     		adds	r3, r1, r3
 549 0058 0433     		adds	r3, r3, #4
 550 005a 1A88     		ldrh	r2, [r3]
 551 005c 0823     		movs	r3, #8
 552 005e FB18     		adds	r3, r7, r3
 553 0060 1A81     		strh	r2, [r3, #8]
 310:Generated_Source\PSoC4/BLE_hts.c ****         if(locHandleValuePair.attrHandle != CYBLE_GATT_INVALID_ATTR_HANDLE_VALUE)
 554              		.loc 1 310 0
 555 0062 0823     		movs	r3, #8
 556 0064 FB18     		adds	r3, r7, r3
 557 0066 1B89     		ldrh	r3, [r3, #8]
 558 0068 002B     		cmp	r3, #0
 559 006a 17D0     		beq	.L33
 311:Generated_Source\PSoC4/BLE_hts.c ****         {
 312:Generated_Source\PSoC4/BLE_hts.c ****             locHandleValuePair.value.len = attrSize;
 560              		.loc 1 312 0
 561 006c 7B1D     		adds	r3, r7, #5
 562 006e 1B78     		ldrb	r3, [r3]
 563 0070 9AB2     		uxth	r2, r3
 564 0072 0823     		movs	r3, #8
 565 0074 FB18     		adds	r3, r7, r3
 566 0076 9A80     		strh	r2, [r3, #4]
 313:Generated_Source\PSoC4/BLE_hts.c ****             locHandleValuePair.value.val = attrValue;
 567              		.loc 1 313 0
 568 0078 0823     		movs	r3, #8
 569 007a FB18     		adds	r3, r7, r3
 570 007c 3A68     		ldr	r2, [r7]
 571 007e 1A60     		str	r2, [r3]
 314:Generated_Source\PSoC4/BLE_hts.c ****             if(CYBLE_GATT_ERR_NONE !=
 315:Generated_Source\PSoC4/BLE_hts.c ****                 CyBle_GattsReadAttributeValue(&locHandleValuePair, NULL, CYBLE_GATT_DB_LOCALLY_INIT
 572              		.loc 1 315 0
 573 0080 0823     		movs	r3, #8
 574 0082 FB18     		adds	r3, r7, r3
 575 0084 0022     		movs	r2, #0
 576 0086 0021     		movs	r1, #0
 577 0088 1800     		movs	r0, r3
 578 008a FFF7FEFF 		bl	CyBle_GattsReadAttributeValue
 579 008e 031E     		subs	r3, r0, #0
 314:Generated_Source\PSoC4/BLE_hts.c ****             if(CYBLE_GATT_ERR_NONE !=
 580              		.loc 1 314 0
 581 0090 08D0     		beq	.L32
 316:Generated_Source\PSoC4/BLE_hts.c ****             {
 317:Generated_Source\PSoC4/BLE_hts.c ****                 apiResult = CYBLE_ERROR_INVALID_PARAMETER;
 582              		.loc 1 317 0
 583 0092 1623     		movs	r3, #22
 584 0094 FB18     		adds	r3, r7, r3
 585 0096 0122     		movs	r2, #1
 586 0098 1A80     		strh	r2, [r3]
 587 009a 03E0     		b	.L32
 588              	.L33:
 318:Generated_Source\PSoC4/BLE_hts.c ****             }
 319:Generated_Source\PSoC4/BLE_hts.c ****         }
 320:Generated_Source\PSoC4/BLE_hts.c ****         else
ARM GAS  C:\Users\User\AppData\Local\Temp\ccmH1EJa.s 			page 17


 321:Generated_Source\PSoC4/BLE_hts.c ****         {
 322:Generated_Source\PSoC4/BLE_hts.c ****             apiResult = CYBLE_ERROR_INVALID_PARAMETER;
 589              		.loc 1 322 0
 590 009c 1623     		movs	r3, #22
 591 009e FB18     		adds	r3, r7, r3
 592 00a0 0122     		movs	r2, #1
 593 00a2 1A80     		strh	r2, [r3]
 594              	.L32:
 323:Generated_Source\PSoC4/BLE_hts.c ****         }
 324:Generated_Source\PSoC4/BLE_hts.c ****     }
 325:Generated_Source\PSoC4/BLE_hts.c ****     return (apiResult);
 595              		.loc 1 325 0
 596 00a4 1623     		movs	r3, #22
 597 00a6 FB18     		adds	r3, r7, r3
 598 00a8 1B88     		ldrh	r3, [r3]
 326:Generated_Source\PSoC4/BLE_hts.c **** }
 599              		.loc 1 326 0
 600 00aa 1800     		movs	r0, r3
 601 00ac BD46     		mov	sp, r7
 602 00ae 07B0     		add	sp, sp, #28
 603              		@ sp needed
 604 00b0 90BD     		pop	{r4, r7, pc}
 605              	.L37:
 606 00b2 C046     		.align	2
 607              	.L36:
 608 00b4 00000000 		.word	cyBle_htss
 609              		.cfi_endproc
 610              	.LFE7:
 611              		.size	CyBle_HtssGetCharacteristicDescriptor, .-CyBle_HtssGetCharacteristicDescriptor
 612              		.section	.text.CyBle_HtssWriteEventHandler,"ax",%progbits
 613              		.align	2
 614              		.global	CyBle_HtssWriteEventHandler
 615              		.code	16
 616              		.thumb_func
 617              		.type	CyBle_HtssWriteEventHandler, %function
 618              	CyBle_HtssWriteEventHandler:
 619              	.LFB8:
 327:Generated_Source\PSoC4/BLE_hts.c **** 
 328:Generated_Source\PSoC4/BLE_hts.c **** 
 329:Generated_Source\PSoC4/BLE_hts.c **** /******************************************************************************
 330:Generated_Source\PSoC4/BLE_hts.c **** * Function Name: CyBle_HtssWriteEventHandler
 331:Generated_Source\PSoC4/BLE_hts.c **** ***************************************************************************//**
 332:Generated_Source\PSoC4/BLE_hts.c **** * 
 333:Generated_Source\PSoC4/BLE_hts.c **** *  Handles Write Request Event for HTS service.
 334:Generated_Source\PSoC4/BLE_hts.c **** * 
 335:Generated_Source\PSoC4/BLE_hts.c **** *  \param void *eventParam: The pointer to the data structure specified by the
 336:Generated_Source\PSoC4/BLE_hts.c **** *                           event.
 337:Generated_Source\PSoC4/BLE_hts.c **** * 
 338:Generated_Source\PSoC4/BLE_hts.c **** ******************************************************************************/
 339:Generated_Source\PSoC4/BLE_hts.c **** CYBLE_GATT_ERR_CODE_T CyBle_HtssWriteEventHandler(CYBLE_GATTS_WRITE_REQ_PARAM_T *eventParam)
 340:Generated_Source\PSoC4/BLE_hts.c **** {
 620              		.loc 1 340 0
 621              		.cfi_startproc
 622              		@ args = 0, pretend = 0, frame = 32
 623              		@ frame_needed = 1, uses_anonymous_args = 0
 624 0000 90B5     		push	{r4, r7, lr}
 625              		.cfi_def_cfa_offset 12
ARM GAS  C:\Users\User\AppData\Local\Temp\ccmH1EJa.s 			page 18


 626              		.cfi_offset 4, -12
 627              		.cfi_offset 7, -8
 628              		.cfi_offset 14, -4
 629 0002 89B0     		sub	sp, sp, #36
 630              		.cfi_def_cfa_offset 48
 631 0004 00AF     		add	r7, sp, #0
 632              		.cfi_def_cfa_register 7
 633 0006 7860     		str	r0, [r7, #4]
 341:Generated_Source\PSoC4/BLE_hts.c ****     CYBLE_HTS_CHAR_INDEX_T locCharIndex;
 342:Generated_Source\PSoC4/BLE_hts.c ****     CYBLE_HTS_CHAR_VALUE_T locCharValue;
 343:Generated_Source\PSoC4/BLE_hts.c ****     CYBLE_GATT_ERR_CODE_T gattErr = CYBLE_GATT_ERR_NONE;
 634              		.loc 1 343 0
 635 0008 1E23     		movs	r3, #30
 636 000a FB18     		adds	r3, r7, r3
 637 000c 0022     		movs	r2, #0
 638 000e 1A70     		strb	r2, [r3]
 344:Generated_Source\PSoC4/BLE_hts.c ****     uint8 locReqHandle = 0u;
 639              		.loc 1 344 0
 640 0010 1D23     		movs	r3, #29
 641 0012 FB18     		adds	r3, r7, r3
 642 0014 0022     		movs	r2, #0
 643 0016 1A70     		strb	r2, [r3]
 345:Generated_Source\PSoC4/BLE_hts.c **** 
 346:Generated_Source\PSoC4/BLE_hts.c ****     if(NULL != CyBle_HtsApplCallback)
 644              		.loc 1 346 0
 645 0018 B34B     		ldr	r3, .L55
 646 001a 1B68     		ldr	r3, [r3]
 647 001c 002B     		cmp	r3, #0
 648 001e 00D1     		bne	.LCB532
 649 0020 5BE1     		b	.L39	@long jump
 650              	.LCB532:
 347:Generated_Source\PSoC4/BLE_hts.c ****     {
 348:Generated_Source\PSoC4/BLE_hts.c ****         for(locCharIndex = CYBLE_HTS_TEMP_MEASURE; (locCharIndex < CYBLE_HTS_CHAR_COUNT) && (locReq
 651              		.loc 1 348 0
 652 0022 1F23     		movs	r3, #31
 653 0024 FB18     		adds	r3, r7, r3
 654 0026 0022     		movs	r2, #0
 655 0028 1A70     		strb	r2, [r3]
 656 002a 4BE1     		b	.L40
 657              	.L53:
 349:Generated_Source\PSoC4/BLE_hts.c ****             locCharIndex++)
 350:Generated_Source\PSoC4/BLE_hts.c ****         {
 351:Generated_Source\PSoC4/BLE_hts.c ****             
 352:Generated_Source\PSoC4/BLE_hts.c ****             if((eventParam->handleValPair.attrHandle == cyBle_htss.charInfo[locCharIndex].descrHand
 658              		.loc 1 352 0
 659 002c 7B68     		ldr	r3, [r7, #4]
 660 002e 9989     		ldrh	r1, [r3, #12]
 661 0030 1F23     		movs	r3, #31
 662 0032 FB18     		adds	r3, r7, r3
 663 0034 1A78     		ldrb	r2, [r3]
 664 0036 AD48     		ldr	r0, .L55+4
 665 0038 1300     		movs	r3, r2
 666 003a 5B00     		lsls	r3, r3, #1
 667 003c 9B18     		adds	r3, r3, r2
 668 003e 5B00     		lsls	r3, r3, #1
 669 0040 C318     		adds	r3, r0, r3
 670 0042 0433     		adds	r3, r3, #4
ARM GAS  C:\Users\User\AppData\Local\Temp\ccmH1EJa.s 			page 19


 671 0044 1B88     		ldrh	r3, [r3]
 672 0046 9942     		cmp	r1, r3
 673 0048 0FD0     		beq	.L41
 353:Generated_Source\PSoC4/BLE_hts.c ****                (eventParam->handleValPair.attrHandle == cyBle_htss.charInfo[locCharIndex].charHandl
 674              		.loc 1 353 0 discriminator 1
 675 004a 7B68     		ldr	r3, [r7, #4]
 676 004c 9989     		ldrh	r1, [r3, #12]
 677 004e 1F23     		movs	r3, #31
 678 0050 FB18     		adds	r3, r7, r3
 679 0052 1A78     		ldrb	r2, [r3]
 680 0054 A548     		ldr	r0, .L55+4
 681 0056 1300     		movs	r3, r2
 682 0058 5B00     		lsls	r3, r3, #1
 683 005a 9B18     		adds	r3, r3, r2
 684 005c 5B00     		lsls	r3, r3, #1
 685 005e C318     		adds	r3, r0, r3
 686 0060 0233     		adds	r3, r3, #2
 687 0062 1B88     		ldrh	r3, [r3]
 352:Generated_Source\PSoC4/BLE_hts.c ****                (eventParam->handleValPair.attrHandle == cyBle_htss.charInfo[locCharIndex].charHandl
 688              		.loc 1 352 0 discriminator 1
 689 0064 9942     		cmp	r1, r3
 690 0066 00D0     		beq	.LCB570
 691 0068 25E1     		b	.L42	@long jump
 692              	.LCB570:
 693              	.L41:
 354:Generated_Source\PSoC4/BLE_hts.c ****             {
 355:Generated_Source\PSoC4/BLE_hts.c ****                 locCharValue.connHandle = eventParam->connHandle;
 694              		.loc 1 355 0
 695 006a 0C23     		movs	r3, #12
 696 006c FB18     		adds	r3, r7, r3
 697 006e 7A68     		ldr	r2, [r7, #4]
 698 0070 1288     		ldrh	r2, [r2]
 699 0072 1A80     		strh	r2, [r3]
 356:Generated_Source\PSoC4/BLE_hts.c ****                 locCharValue.charIndex = locCharIndex;
 700              		.loc 1 356 0
 701 0074 0C23     		movs	r3, #12
 702 0076 FB18     		adds	r3, r7, r3
 703 0078 1F22     		movs	r2, #31
 704 007a BA18     		adds	r2, r7, r2
 705 007c 1278     		ldrb	r2, [r2]
 706 007e 9A70     		strb	r2, [r3, #2]
 357:Generated_Source\PSoC4/BLE_hts.c ****                 locCharValue.value = &eventParam->handleValPair.value;
 707              		.loc 1 357 0
 708 0080 7B68     		ldr	r3, [r7, #4]
 709 0082 1A1D     		adds	r2, r3, #4
 710 0084 0C23     		movs	r3, #12
 711 0086 FB18     		adds	r3, r7, r3
 712 0088 5A60     		str	r2, [r3, #4]
 358:Generated_Source\PSoC4/BLE_hts.c ****                 /* Characteristic value write request */
 359:Generated_Source\PSoC4/BLE_hts.c ****                 if(eventParam->handleValPair.attrHandle == cyBle_htss.charInfo[locCharIndex].charHa
 713              		.loc 1 359 0
 714 008a 7B68     		ldr	r3, [r7, #4]
 715 008c 9989     		ldrh	r1, [r3, #12]
 716 008e 1F23     		movs	r3, #31
 717 0090 FB18     		adds	r3, r7, r3
 718 0092 1A78     		ldrb	r2, [r3]
 719 0094 9548     		ldr	r0, .L55+4
ARM GAS  C:\Users\User\AppData\Local\Temp\ccmH1EJa.s 			page 20


 720 0096 1300     		movs	r3, r2
 721 0098 5B00     		lsls	r3, r3, #1
 722 009a 9B18     		adds	r3, r3, r2
 723 009c 5B00     		lsls	r3, r3, #1
 724 009e C318     		adds	r3, r0, r3
 725 00a0 0233     		adds	r3, r3, #2
 726 00a2 1B88     		ldrh	r3, [r3]
 727 00a4 9942     		cmp	r1, r3
 728 00a6 00D0     		beq	.LCB602
 729 00a8 73E0     		b	.L43	@long jump
 730              	.LCB602:
 360:Generated_Source\PSoC4/BLE_hts.c ****                 {
 361:Generated_Source\PSoC4/BLE_hts.c ****                     /* Validate Measure Interval value */
 362:Generated_Source\PSoC4/BLE_hts.c ****                     if(locCharIndex == CYBLE_HTS_MEASURE_INTERVAL)
 731              		.loc 1 362 0
 732 00aa 1F23     		movs	r3, #31
 733 00ac FB18     		adds	r3, r7, r3
 734 00ae 1B78     		ldrb	r3, [r3]
 735 00b0 032B     		cmp	r3, #3
 736 00b2 4ED1     		bne	.L44
 737              	.LBB2:
 363:Generated_Source\PSoC4/BLE_hts.c ****                     {
 364:Generated_Source\PSoC4/BLE_hts.c ****                         uint8 locAttrValue[CYBLE_HTS_VRD_LEN];
 365:Generated_Source\PSoC4/BLE_hts.c ****                         uint16 requestValue;
 366:Generated_Source\PSoC4/BLE_hts.c ****                         
 367:Generated_Source\PSoC4/BLE_hts.c ****                         requestValue = CyBle_Get16ByPtr(eventParam->handleValPair.value.val);
 738              		.loc 1 367 0
 739 00b4 7B68     		ldr	r3, [r7, #4]
 740 00b6 5B68     		ldr	r3, [r3, #4]
 741 00b8 1A22     		movs	r2, #26
 742 00ba BC18     		adds	r4, r7, r2
 743 00bc 1800     		movs	r0, r3
 744 00be FFF7FEFF 		bl	CyBle_Get16ByPtr
 745 00c2 0300     		movs	r3, r0
 746 00c4 2380     		strh	r3, [r4]
 368:Generated_Source\PSoC4/BLE_hts.c ****                         
 369:Generated_Source\PSoC4/BLE_hts.c ****                         if(requestValue != 0u) /* 0 is valid interval value for no periodic measure
 747              		.loc 1 369 0
 748 00c6 1A23     		movs	r3, #26
 749 00c8 FB18     		adds	r3, r7, r3
 750 00ca 1B88     		ldrh	r3, [r3]
 751 00cc 002B     		cmp	r3, #0
 752 00ce 40D0     		beq	.L44
 370:Generated_Source\PSoC4/BLE_hts.c ****                         {
 371:Generated_Source\PSoC4/BLE_hts.c ****                             /* Check Valid range for Measure Interval characteristic value */
 372:Generated_Source\PSoC4/BLE_hts.c ****                             if(CyBle_HtssGetCharacteristicDescriptor(locCharIndex, CYBLE_HTS_VRD, 
 753              		.loc 1 372 0
 754 00d0 0823     		movs	r3, #8
 755 00d2 FA18     		adds	r2, r7, r3
 756 00d4 1F23     		movs	r3, #31
 757 00d6 FB18     		adds	r3, r7, r3
 758 00d8 1878     		ldrb	r0, [r3]
 759 00da 1300     		movs	r3, r2
 760 00dc 0422     		movs	r2, #4
 761 00de 0121     		movs	r1, #1
 762 00e0 FFF7FEFF 		bl	CyBle_HtssGetCharacteristicDescriptor
 763 00e4 031E     		subs	r3, r0, #0
ARM GAS  C:\Users\User\AppData\Local\Temp\ccmH1EJa.s 			page 21


 764 00e6 34D1     		bne	.L44
 765              	.LBB3:
 373:Generated_Source\PSoC4/BLE_hts.c ****                                                     CYBLE_HTS_VRD_LEN, locAttrValue) == CYBLE_ERROR
 374:Generated_Source\PSoC4/BLE_hts.c ****                             {
 375:Generated_Source\PSoC4/BLE_hts.c ****                                 uint16 lowerValue;
 376:Generated_Source\PSoC4/BLE_hts.c ****                                 uint16 upperValue;
 377:Generated_Source\PSoC4/BLE_hts.c ****                                 
 378:Generated_Source\PSoC4/BLE_hts.c ****                                 lowerValue = CyBle_Get16ByPtr(locAttrValue);
 766              		.loc 1 378 0
 767 00e8 1823     		movs	r3, #24
 768 00ea FC18     		adds	r4, r7, r3
 769 00ec 0823     		movs	r3, #8
 770 00ee FB18     		adds	r3, r7, r3
 771 00f0 1800     		movs	r0, r3
 772 00f2 FFF7FEFF 		bl	CyBle_Get16ByPtr
 773 00f6 0300     		movs	r3, r0
 774 00f8 2380     		strh	r3, [r4]
 379:Generated_Source\PSoC4/BLE_hts.c ****                                 upperValue = CyBle_Get16ByPtr(locAttrValue + sizeof(lowerValue));
 775              		.loc 1 379 0
 776 00fa 0823     		movs	r3, #8
 777 00fc FB18     		adds	r3, r7, r3
 778 00fe 0233     		adds	r3, r3, #2
 779 0100 1622     		movs	r2, #22
 780 0102 BC18     		adds	r4, r7, r2
 781 0104 1800     		movs	r0, r3
 782 0106 FFF7FEFF 		bl	CyBle_Get16ByPtr
 783 010a 0300     		movs	r3, r0
 784 010c 2380     		strh	r3, [r4]
 380:Generated_Source\PSoC4/BLE_hts.c ****                                 requestValue = CyBle_Get16ByPtr(eventParam->handleValPair.value.val
 785              		.loc 1 380 0
 786 010e 7B68     		ldr	r3, [r7, #4]
 787 0110 5B68     		ldr	r3, [r3, #4]
 788 0112 1A22     		movs	r2, #26
 789 0114 BC18     		adds	r4, r7, r2
 790 0116 1800     		movs	r0, r3
 791 0118 FFF7FEFF 		bl	CyBle_Get16ByPtr
 792 011c 0300     		movs	r3, r0
 793 011e 2380     		strh	r3, [r4]
 381:Generated_Source\PSoC4/BLE_hts.c ****                                 if((requestValue != 0u) && ((requestValue < lowerValue) || (request
 794              		.loc 1 381 0
 795 0120 1A23     		movs	r3, #26
 796 0122 FB18     		adds	r3, r7, r3
 797 0124 1B88     		ldrh	r3, [r3]
 798 0126 002B     		cmp	r3, #0
 799 0128 13D0     		beq	.L44
 800              		.loc 1 381 0 is_stmt 0 discriminator 1
 801 012a 1A23     		movs	r3, #26
 802 012c FA18     		adds	r2, r7, r3
 803 012e 1823     		movs	r3, #24
 804 0130 FB18     		adds	r3, r7, r3
 805 0132 1288     		ldrh	r2, [r2]
 806 0134 1B88     		ldrh	r3, [r3]
 807 0136 9A42     		cmp	r2, r3
 808 0138 07D3     		bcc	.L46
 809              		.loc 1 381 0 discriminator 2
 810 013a 1A23     		movs	r3, #26
 811 013c FA18     		adds	r2, r7, r3
ARM GAS  C:\Users\User\AppData\Local\Temp\ccmH1EJa.s 			page 22


 812 013e 1623     		movs	r3, #22
 813 0140 FB18     		adds	r3, r7, r3
 814 0142 1288     		ldrh	r2, [r2]
 815 0144 1B88     		ldrh	r3, [r3]
 816 0146 9A42     		cmp	r2, r3
 817 0148 03D9     		bls	.L44
 818              	.L46:
 382:Generated_Source\PSoC4/BLE_hts.c ****                                 {
 383:Generated_Source\PSoC4/BLE_hts.c ****                                     gattErr = CYBLE_GATT_ERR_HTS_OUT_OF_RANGE;
 819              		.loc 1 383 0 is_stmt 1
 820 014a 1E23     		movs	r3, #30
 821 014c FB18     		adds	r3, r7, r3
 822 014e 8022     		movs	r2, #128
 823 0150 1A70     		strb	r2, [r3]
 824              	.L44:
 825              	.LBE3:
 826              	.LBE2:
 384:Generated_Source\PSoC4/BLE_hts.c ****                                 }
 385:Generated_Source\PSoC4/BLE_hts.c ****                             }
 386:Generated_Source\PSoC4/BLE_hts.c ****                         }
 387:Generated_Source\PSoC4/BLE_hts.c ****                     }
 388:Generated_Source\PSoC4/BLE_hts.c ****                     if(gattErr == CYBLE_GATT_ERR_NONE)
 827              		.loc 1 388 0
 828 0152 1E23     		movs	r3, #30
 829 0154 FB18     		adds	r3, r7, r3
 830 0156 1B78     		ldrb	r3, [r3]
 831 0158 002B     		cmp	r3, #0
 832 015a 00D0     		beq	.LCB694
 833 015c 9FE0     		b	.L48	@long jump
 834              	.LCB694:
 389:Generated_Source\PSoC4/BLE_hts.c ****                     {   /* Store value to database */
 390:Generated_Source\PSoC4/BLE_hts.c ****                         gattErr = CyBle_GattsWriteAttributeValue(&eventParam->handleValPair, 0u, 
 835              		.loc 1 390 0
 836 015e 7B68     		ldr	r3, [r7, #4]
 837 0160 181D     		adds	r0, r3, #4
 838 0162 7A68     		ldr	r2, [r7, #4]
 839 0164 1E23     		movs	r3, #30
 840 0166 FC18     		adds	r4, r7, r3
 841 0168 4023     		movs	r3, #64
 842 016a 0021     		movs	r1, #0
 843 016c FFF7FEFF 		bl	CyBle_GattsWriteAttributeValue
 844 0170 0300     		movs	r3, r0
 845 0172 2370     		strb	r3, [r4]
 391:Generated_Source\PSoC4/BLE_hts.c ****                                     &eventParam->connHandle, CYBLE_GATT_DB_PEER_INITIATED);
 392:Generated_Source\PSoC4/BLE_hts.c ****                         if(gattErr == CYBLE_GATT_ERR_NONE)
 846              		.loc 1 392 0
 847 0174 1E23     		movs	r3, #30
 848 0176 FB18     		adds	r3, r7, r3
 849 0178 1B78     		ldrb	r3, [r3]
 850 017a 002B     		cmp	r3, #0
 851 017c 00D0     		beq	.LCB709
 852 017e 8EE0     		b	.L48	@long jump
 853              	.LCB709:
 393:Generated_Source\PSoC4/BLE_hts.c ****                         {
 394:Generated_Source\PSoC4/BLE_hts.c ****                             CyBle_HtsApplCallback((uint32)CYBLE_EVT_HTSS_CHAR_WRITE, &locCharValue)
 854              		.loc 1 394 0
 855 0180 594B     		ldr	r3, .L55
ARM GAS  C:\Users\User\AppData\Local\Temp\ccmH1EJa.s 			page 23


 856 0182 1B68     		ldr	r3, [r3]
 857 0184 0C22     		movs	r2, #12
 858 0186 B918     		adds	r1, r7, r2
 859 0188 DB22     		movs	r2, #219
 860 018a 5200     		lsls	r2, r2, #1
 861 018c 1000     		movs	r0, r2
 862 018e 9847     		blx	r3
 863 0190 85E0     		b	.L48
 864              	.L43:
 395:Generated_Source\PSoC4/BLE_hts.c ****                         }
 396:Generated_Source\PSoC4/BLE_hts.c ****                     }    
 397:Generated_Source\PSoC4/BLE_hts.c ****                 }
 398:Generated_Source\PSoC4/BLE_hts.c ****                 else /* Client Characteristic Configuration descriptor write request */
 399:Generated_Source\PSoC4/BLE_hts.c ****                 {
 400:Generated_Source\PSoC4/BLE_hts.c ****                     /* Store value to database */
 401:Generated_Source\PSoC4/BLE_hts.c ****                     gattErr = CyBle_GattsWriteAttributeValue(&eventParam->handleValPair, 0u, 
 865              		.loc 1 401 0
 866 0192 7B68     		ldr	r3, [r7, #4]
 867 0194 181D     		adds	r0, r3, #4
 868 0196 7A68     		ldr	r2, [r7, #4]
 869 0198 1E23     		movs	r3, #30
 870 019a FC18     		adds	r4, r7, r3
 871 019c 4023     		movs	r3, #64
 872 019e 0021     		movs	r1, #0
 873 01a0 FFF7FEFF 		bl	CyBle_GattsWriteAttributeValue
 874 01a4 0300     		movs	r3, r0
 875 01a6 2370     		strb	r3, [r4]
 402:Generated_Source\PSoC4/BLE_hts.c ****                                     &eventParam->connHandle, CYBLE_GATT_DB_PEER_INITIATED);
 403:Generated_Source\PSoC4/BLE_hts.c ****                     if(gattErr == CYBLE_GATT_ERR_NONE)
 876              		.loc 1 403 0
 877 01a8 1E23     		movs	r3, #30
 878 01aa FB18     		adds	r3, r7, r3
 879 01ac 1B78     		ldrb	r3, [r3]
 880 01ae 002B     		cmp	r3, #0
 881 01b0 00D0     		beq	.LCB736
 882 01b2 74E0     		b	.L48	@long jump
 883              	.LCB736:
 404:Generated_Source\PSoC4/BLE_hts.c ****                     {
 405:Generated_Source\PSoC4/BLE_hts.c ****                         /* Check characteristic properties for Notification */
 406:Generated_Source\PSoC4/BLE_hts.c ****                         if(CYBLE_IS_NOTIFICATION_SUPPORTED(cyBle_htss.charInfo[locCharIndex].charHa
 884              		.loc 1 406 0
 885 01b4 1F23     		movs	r3, #31
 886 01b6 FB18     		adds	r3, r7, r3
 887 01b8 1A78     		ldrb	r2, [r3]
 888 01ba 4C49     		ldr	r1, .L55+4
 889 01bc 1300     		movs	r3, r2
 890 01be 5B00     		lsls	r3, r3, #1
 891 01c0 9B18     		adds	r3, r3, r2
 892 01c2 5B00     		lsls	r3, r3, #1
 893 01c4 CB18     		adds	r3, r1, r3
 894 01c6 0233     		adds	r3, r3, #2
 895 01c8 1B88     		ldrh	r3, [r3]
 896 01ca 5A1E     		subs	r2, r3, #1
 897 01cc 4849     		ldr	r1, .L55+8
 898 01ce 1300     		movs	r3, r2
 899 01d0 9B00     		lsls	r3, r3, #2
 900 01d2 9B18     		adds	r3, r3, r2
ARM GAS  C:\Users\User\AppData\Local\Temp\ccmH1EJa.s 			page 24


 901 01d4 9B00     		lsls	r3, r3, #2
 902 01d6 CB18     		adds	r3, r1, r3
 903 01d8 0433     		adds	r3, r3, #4
 904 01da 1A68     		ldr	r2, [r3]
 905 01dc 8023     		movs	r3, #128
 906 01de 5B03     		lsls	r3, r3, #13
 907 01e0 1340     		ands	r3, r2
 908 01e2 1CD0     		beq	.L49
 407:Generated_Source\PSoC4/BLE_hts.c ****                         {
 408:Generated_Source\PSoC4/BLE_hts.c ****                             if(CYBLE_IS_NOTIFICATION_ENABLED_IN_PTR(eventParam->handleValPair.value
 909              		.loc 1 408 0
 910 01e4 7B68     		ldr	r3, [r7, #4]
 911 01e6 5B68     		ldr	r3, [r3, #4]
 912 01e8 1800     		movs	r0, r3
 913 01ea FFF7FEFF 		bl	CyBle_Get16ByPtr
 914 01ee 0300     		movs	r3, r0
 915 01f0 1A00     		movs	r2, r3
 916 01f2 0123     		movs	r3, #1
 917 01f4 1340     		ands	r3, r2
 918 01f6 9BB2     		uxth	r3, r3
 919 01f8 002B     		cmp	r3, #0
 920 01fa 08D0     		beq	.L50
 409:Generated_Source\PSoC4/BLE_hts.c ****                             {
 410:Generated_Source\PSoC4/BLE_hts.c ****                                 CyBle_HtsApplCallback((uint32)CYBLE_EVT_HTSS_NOTIFICATION_ENABLED, 
 921              		.loc 1 410 0
 922 01fc 3A4B     		ldr	r3, .L55
 923 01fe 1B68     		ldr	r3, [r3]
 924 0200 0C22     		movs	r2, #12
 925 0202 B918     		adds	r1, r7, r2
 926 0204 B222     		movs	r2, #178
 927 0206 FF32     		adds	r2, r2, #255
 928 0208 1000     		movs	r0, r2
 929 020a 9847     		blx	r3
 930 020c 07E0     		b	.L49
 931              	.L50:
 411:Generated_Source\PSoC4/BLE_hts.c ****                             }
 412:Generated_Source\PSoC4/BLE_hts.c ****                             else
 413:Generated_Source\PSoC4/BLE_hts.c ****                             {
 414:Generated_Source\PSoC4/BLE_hts.c ****                                 CyBle_HtsApplCallback((uint32)CYBLE_EVT_HTSS_NOTIFICATION_DISABLED,
 932              		.loc 1 414 0
 933 020e 364B     		ldr	r3, .L55
 934 0210 1B68     		ldr	r3, [r3]
 935 0212 0C22     		movs	r2, #12
 936 0214 B918     		adds	r1, r7, r2
 937 0216 D922     		movs	r2, #217
 938 0218 5200     		lsls	r2, r2, #1
 939 021a 1000     		movs	r0, r2
 940 021c 9847     		blx	r3
 941              	.L49:
 415:Generated_Source\PSoC4/BLE_hts.c ****                             }
 416:Generated_Source\PSoC4/BLE_hts.c ****                         }
 417:Generated_Source\PSoC4/BLE_hts.c ****                         /* Check characteristic properties for Indication */
 418:Generated_Source\PSoC4/BLE_hts.c ****                         if(CYBLE_IS_INDICATION_SUPPORTED(cyBle_htss.charInfo[locCharIndex].charHand
 942              		.loc 1 418 0
 943 021e 1F23     		movs	r3, #31
 944 0220 FB18     		adds	r3, r7, r3
 945 0222 1A78     		ldrb	r2, [r3]
ARM GAS  C:\Users\User\AppData\Local\Temp\ccmH1EJa.s 			page 25


 946 0224 3149     		ldr	r1, .L55+4
 947 0226 1300     		movs	r3, r2
 948 0228 5B00     		lsls	r3, r3, #1
 949 022a 9B18     		adds	r3, r3, r2
 950 022c 5B00     		lsls	r3, r3, #1
 951 022e CB18     		adds	r3, r1, r3
 952 0230 0233     		adds	r3, r3, #2
 953 0232 1B88     		ldrh	r3, [r3]
 954 0234 5A1E     		subs	r2, r3, #1
 955 0236 2E49     		ldr	r1, .L55+8
 956 0238 1300     		movs	r3, r2
 957 023a 9B00     		lsls	r3, r3, #2
 958 023c 9B18     		adds	r3, r3, r2
 959 023e 9B00     		lsls	r3, r3, #2
 960 0240 CB18     		adds	r3, r1, r3
 961 0242 0433     		adds	r3, r3, #4
 962 0244 1A68     		ldr	r2, [r3]
 963 0246 8023     		movs	r3, #128
 964 0248 9B03     		lsls	r3, r3, #14
 965 024a 1340     		ands	r3, r2
 966 024c 1CD0     		beq	.L51
 419:Generated_Source\PSoC4/BLE_hts.c ****                         {
 420:Generated_Source\PSoC4/BLE_hts.c ****                             if(CYBLE_IS_INDICATION_ENABLED_IN_PTR(eventParam->handleValPair.value.v
 967              		.loc 1 420 0
 968 024e 7B68     		ldr	r3, [r7, #4]
 969 0250 5B68     		ldr	r3, [r3, #4]
 970 0252 1800     		movs	r0, r3
 971 0254 FFF7FEFF 		bl	CyBle_Get16ByPtr
 972 0258 0300     		movs	r3, r0
 973 025a 1A00     		movs	r2, r3
 974 025c 0223     		movs	r3, #2
 975 025e 1340     		ands	r3, r2
 976 0260 9BB2     		uxth	r3, r3
 977 0262 002B     		cmp	r3, #0
 978 0264 08D0     		beq	.L52
 421:Generated_Source\PSoC4/BLE_hts.c ****                             {
 422:Generated_Source\PSoC4/BLE_hts.c ****                                 CyBle_HtsApplCallback((uint32)CYBLE_EVT_HTSS_INDICATION_ENABLED, &l
 979              		.loc 1 422 0
 980 0266 204B     		ldr	r3, .L55
 981 0268 1B68     		ldr	r3, [r3]
 982 026a 0C22     		movs	r2, #12
 983 026c B918     		adds	r1, r7, r2
 984 026e B422     		movs	r2, #180
 985 0270 FF32     		adds	r2, r2, #255
 986 0272 1000     		movs	r0, r2
 987 0274 9847     		blx	r3
 988 0276 07E0     		b	.L51
 989              	.L52:
 423:Generated_Source\PSoC4/BLE_hts.c ****                             }
 424:Generated_Source\PSoC4/BLE_hts.c ****                             else
 425:Generated_Source\PSoC4/BLE_hts.c ****                             {
 426:Generated_Source\PSoC4/BLE_hts.c ****                                 CyBle_HtsApplCallback((uint32)CYBLE_EVT_HTSS_INDICATION_DISABLED, &
 990              		.loc 1 426 0
 991 0278 1B4B     		ldr	r3, .L55
 992 027a 1B68     		ldr	r3, [r3]
 993 027c 0C22     		movs	r2, #12
 994 027e B918     		adds	r1, r7, r2
ARM GAS  C:\Users\User\AppData\Local\Temp\ccmH1EJa.s 			page 26


 995 0280 DA22     		movs	r2, #218
 996 0282 5200     		lsls	r2, r2, #1
 997 0284 1000     		movs	r0, r2
 998 0286 9847     		blx	r3
 999              	.L51:
 427:Generated_Source\PSoC4/BLE_hts.c ****                             }
 428:Generated_Source\PSoC4/BLE_hts.c ****                         }
 429:Generated_Source\PSoC4/BLE_hts.c ****                     #if((CYBLE_GAP_ROLE_PERIPHERAL || CYBLE_GAP_ROLE_CENTRAL) && \
 430:Generated_Source\PSoC4/BLE_hts.c ****                         (CYBLE_BONDING_REQUIREMENT == CYBLE_BONDING_YES))
 431:Generated_Source\PSoC4/BLE_hts.c ****                         /* Set flag to store bonding data to flash */
 432:Generated_Source\PSoC4/BLE_hts.c ****                         if(cyBle_peerBonding == CYBLE_GAP_BONDING)
 1000              		.loc 1 432 0
 1001 0288 1A4B     		ldr	r3, .L55+12
 1002 028a 1B78     		ldrb	r3, [r3]
 1003 028c 012B     		cmp	r3, #1
 1004 028e 06D1     		bne	.L48
 433:Generated_Source\PSoC4/BLE_hts.c ****                         {
 434:Generated_Source\PSoC4/BLE_hts.c ****                             cyBle_pendingFlashWrite |= CYBLE_PENDING_CCCD_FLASH_WRITE_BIT;
 1005              		.loc 1 434 0
 1006 0290 194B     		ldr	r3, .L55+16
 1007 0292 1B78     		ldrb	r3, [r3]
 1008 0294 0222     		movs	r2, #2
 1009 0296 1343     		orrs	r3, r2
 1010 0298 DAB2     		uxtb	r2, r3
 1011 029a 174B     		ldr	r3, .L55+16
 1012 029c 1A70     		strb	r2, [r3]
 1013              	.L48:
 435:Generated_Source\PSoC4/BLE_hts.c ****                         }
 436:Generated_Source\PSoC4/BLE_hts.c ****                     #endif /* (CYBLE_BONDING_REQUIREMENT == CYBLE_BONDING_YES) */
 437:Generated_Source\PSoC4/BLE_hts.c ****                         
 438:Generated_Source\PSoC4/BLE_hts.c ****                     }
 439:Generated_Source\PSoC4/BLE_hts.c ****                 }
 440:Generated_Source\PSoC4/BLE_hts.c ****                 cyBle_eventHandlerFlag &= (uint8)~CYBLE_CALLBACK;
 1014              		.loc 1 440 0
 1015 029e 174B     		ldr	r3, .L55+20
 1016 02a0 1B78     		ldrb	r3, [r3]
 1017 02a2 DBB2     		uxtb	r3, r3
 1018 02a4 0122     		movs	r2, #1
 1019 02a6 9343     		bics	r3, r2
 1020 02a8 DAB2     		uxtb	r2, r3
 1021 02aa 144B     		ldr	r3, .L55+20
 1022 02ac 1A70     		strb	r2, [r3]
 441:Generated_Source\PSoC4/BLE_hts.c ****                 locReqHandle = 1u;
 1023              		.loc 1 441 0
 1024 02ae 1D23     		movs	r3, #29
 1025 02b0 FB18     		adds	r3, r7, r3
 1026 02b2 0122     		movs	r2, #1
 1027 02b4 1A70     		strb	r2, [r3]
 1028              	.L42:
 349:Generated_Source\PSoC4/BLE_hts.c ****         {
 1029              		.loc 1 349 0
 1030 02b6 1F23     		movs	r3, #31
 1031 02b8 FB18     		adds	r3, r7, r3
 1032 02ba 1A78     		ldrb	r2, [r3]
 1033 02bc 1F23     		movs	r3, #31
 1034 02be FB18     		adds	r3, r7, r3
 1035 02c0 0132     		adds	r2, r2, #1
ARM GAS  C:\Users\User\AppData\Local\Temp\ccmH1EJa.s 			page 27


 1036 02c2 1A70     		strb	r2, [r3]
 1037              	.L40:
 348:Generated_Source\PSoC4/BLE_hts.c ****             locCharIndex++)
 1038              		.loc 1 348 0 discriminator 1
 1039 02c4 1F23     		movs	r3, #31
 1040 02c6 FB18     		adds	r3, r7, r3
 1041 02c8 1B78     		ldrb	r3, [r3]
 1042 02ca 032B     		cmp	r3, #3
 1043 02cc 05D8     		bhi	.L39
 348:Generated_Source\PSoC4/BLE_hts.c ****             locCharIndex++)
 1044              		.loc 1 348 0 is_stmt 0 discriminator 2
 1045 02ce 1D23     		movs	r3, #29
 1046 02d0 FB18     		adds	r3, r7, r3
 1047 02d2 1B78     		ldrb	r3, [r3]
 1048 02d4 002B     		cmp	r3, #0
 1049 02d6 00D1     		bne	.LCB898
 1050 02d8 A8E6     		b	.L53	@long jump
 1051              	.LCB898:
 1052              	.L39:
 442:Generated_Source\PSoC4/BLE_hts.c ****             }
 443:Generated_Source\PSoC4/BLE_hts.c ****         }
 444:Generated_Source\PSoC4/BLE_hts.c ****     }
 445:Generated_Source\PSoC4/BLE_hts.c ****     return (gattErr);
 1053              		.loc 1 445 0 is_stmt 1
 1054 02da 1E23     		movs	r3, #30
 1055 02dc FB18     		adds	r3, r7, r3
 1056 02de 1B78     		ldrb	r3, [r3]
 446:Generated_Source\PSoC4/BLE_hts.c **** }
 1057              		.loc 1 446 0
 1058 02e0 1800     		movs	r0, r3
 1059 02e2 BD46     		mov	sp, r7
 1060 02e4 09B0     		add	sp, sp, #36
 1061              		@ sp needed
 1062 02e6 90BD     		pop	{r4, r7, pc}
 1063              	.L56:
 1064              		.align	2
 1065              	.L55:
 1066 02e8 00000000 		.word	CyBle_HtsApplCallback
 1067 02ec 00000000 		.word	cyBle_htss
 1068 02f0 00000000 		.word	cyBle_gattDB
 1069 02f4 00000000 		.word	cyBle_peerBonding
 1070 02f8 00000000 		.word	cyBle_pendingFlashWrite
 1071 02fc 00000000 		.word	cyBle_eventHandlerFlag
 1072              		.cfi_endproc
 1073              	.LFE8:
 1074              		.size	CyBle_HtssWriteEventHandler, .-CyBle_HtssWriteEventHandler
 1075              		.section	.text.CyBle_HtssSendNotification,"ax",%progbits
 1076              		.align	2
 1077              		.global	CyBle_HtssSendNotification
 1078              		.code	16
 1079              		.thumb_func
 1080              		.type	CyBle_HtssSendNotification, %function
 1081              	CyBle_HtssSendNotification:
 1082              	.LFB9:
 447:Generated_Source\PSoC4/BLE_hts.c **** 
 448:Generated_Source\PSoC4/BLE_hts.c **** 
 449:Generated_Source\PSoC4/BLE_hts.c **** /******************************************************************************
ARM GAS  C:\Users\User\AppData\Local\Temp\ccmH1EJa.s 			page 28


 450:Generated_Source\PSoC4/BLE_hts.c **** * Function Name: CyBle_HtssSendNotification
 451:Generated_Source\PSoC4/BLE_hts.c **** ***************************************************************************//**
 452:Generated_Source\PSoC4/BLE_hts.c **** * 
 453:Generated_Source\PSoC4/BLE_hts.c **** *  Sends notification with a characteristic value of the Health Thermometer 
 454:Generated_Source\PSoC4/BLE_hts.c **** *  Service, which is a value specified by charIndex, to the Client device.
 455:Generated_Source\PSoC4/BLE_hts.c **** * 
 456:Generated_Source\PSoC4/BLE_hts.c **** *  On enabling notification successfully for a service characteristic it sends
 457:Generated_Source\PSoC4/BLE_hts.c **** *  out a 'Handle Value Notification' which results in 
 458:Generated_Source\PSoC4/BLE_hts.c **** *  CYBLE_EVT_HTSC_NOTIFICATION event at the GATT Client's end.
 459:Generated_Source\PSoC4/BLE_hts.c **** *
 460:Generated_Source\PSoC4/BLE_hts.c **** *  \param connHandle: The connection handle.
 461:Generated_Source\PSoC4/BLE_hts.c **** *  \param charIndex:  The index of the service characteristic.
 462:Generated_Source\PSoC4/BLE_hts.c **** *  \param attrSize:   The size of the characteristic value attribute.
 463:Generated_Source\PSoC4/BLE_hts.c **** *  \param attrValue:  The pointer to the characteristic value data that should 
 464:Generated_Source\PSoC4/BLE_hts.c **** *                     be sent to the client's device.
 465:Generated_Source\PSoC4/BLE_hts.c **** * 
 466:Generated_Source\PSoC4/BLE_hts.c **** * \return
 467:Generated_Source\PSoC4/BLE_hts.c **** *  Return value is of type CYBLE_API_RESULT_T.
 468:Generated_Source\PSoC4/BLE_hts.c **** *   * CYBLE_ERROR_OK - The request handled successfully.
 469:Generated_Source\PSoC4/BLE_hts.c **** *   * CYBLE_ERROR_INVALID_PARAMETER - Validation of the input parameter failed.
 470:Generated_Source\PSoC4/BLE_hts.c **** *   * CYBLE_ERROR_INVALID_OPERATION - This operation is not permitted.
 471:Generated_Source\PSoC4/BLE_hts.c **** *   * CYBLE_ERROR_INVALID_STATE - Connection with the client is not established.
 472:Generated_Source\PSoC4/BLE_hts.c **** *   * CYBLE_ERROR_MEMORY_ALLOCATION_FAILED - Memory allocation failed. 
 473:Generated_Source\PSoC4/BLE_hts.c **** *   * CYBLE_ERROR_NTF_DISABLED - Notification is not enabled by the client.
 474:Generated_Source\PSoC4/BLE_hts.c **** *
 475:Generated_Source\PSoC4/BLE_hts.c **** ******************************************************************************/
 476:Generated_Source\PSoC4/BLE_hts.c **** CYBLE_API_RESULT_T CyBle_HtssSendNotification(CYBLE_CONN_HANDLE_T connHandle,
 477:Generated_Source\PSoC4/BLE_hts.c ****     CYBLE_HTS_CHAR_INDEX_T charIndex, uint8 attrSize, uint8 *attrValue)
 478:Generated_Source\PSoC4/BLE_hts.c **** {
 1083              		.loc 1 478 0
 1084              		.cfi_startproc
 1085              		@ args = 0, pretend = 0, frame = 32
 1086              		@ frame_needed = 1, uses_anonymous_args = 0
 1087 0000 90B5     		push	{r4, r7, lr}
 1088              		.cfi_def_cfa_offset 12
 1089              		.cfi_offset 4, -12
 1090              		.cfi_offset 7, -8
 1091              		.cfi_offset 14, -4
 1092 0002 89B0     		sub	sp, sp, #36
 1093              		.cfi_def_cfa_offset 48
 1094 0004 00AF     		add	r7, sp, #0
 1095              		.cfi_def_cfa_register 7
 1096 0006 0C24     		movs	r4, #12
 1097 0008 3C19     		adds	r4, r7, r4
 1098 000a 2080     		strh	r0, [r4]
 1099 000c 0800     		movs	r0, r1
 1100 000e 1100     		movs	r1, r2
 1101 0010 7B60     		str	r3, [r7, #4]
 1102 0012 0B23     		movs	r3, #11
 1103 0014 FB18     		adds	r3, r7, r3
 1104 0016 021C     		adds	r2, r0, #0
 1105 0018 1A70     		strb	r2, [r3]
 1106 001a 0A23     		movs	r3, #10
 1107 001c FB18     		adds	r3, r7, r3
 1108 001e 0A1C     		adds	r2, r1, #0
 1109 0020 1A70     		strb	r2, [r3]
 479:Generated_Source\PSoC4/BLE_hts.c **** 
ARM GAS  C:\Users\User\AppData\Local\Temp\ccmH1EJa.s 			page 29


 480:Generated_Source\PSoC4/BLE_hts.c ****     CYBLE_API_RESULT_T apiResult;
 481:Generated_Source\PSoC4/BLE_hts.c ****     
 482:Generated_Source\PSoC4/BLE_hts.c ****     /* Send Notification if it is enabled and connected */
 483:Generated_Source\PSoC4/BLE_hts.c ****     if(CYBLE_STATE_CONNECTED != CyBle_GetState())
 1110              		.loc 1 483 0
 1111 0022 2D4B     		ldr	r3, .L62
 1112 0024 1B78     		ldrb	r3, [r3]
 1113 0026 022B     		cmp	r3, #2
 1114 0028 05D0     		beq	.L58
 484:Generated_Source\PSoC4/BLE_hts.c ****     {
 485:Generated_Source\PSoC4/BLE_hts.c ****         apiResult = CYBLE_ERROR_INVALID_STATE;
 1115              		.loc 1 485 0
 1116 002a 1E23     		movs	r3, #30
 1117 002c FB18     		adds	r3, r7, r3
 1118 002e 0422     		movs	r2, #4
 1119 0030 FF32     		adds	r2, r2, #255
 1120 0032 1A80     		strh	r2, [r3]
 1121 0034 49E0     		b	.L59
 1122              	.L58:
 486:Generated_Source\PSoC4/BLE_hts.c ****     }
 487:Generated_Source\PSoC4/BLE_hts.c ****     else if(!CYBLE_IS_NOTIFICATION_ENABLED(cyBle_htss.charInfo[charIndex].descrHandle[CYBLE_HTS_CCC
 1123              		.loc 1 487 0
 1124 0036 0B23     		movs	r3, #11
 1125 0038 FB18     		adds	r3, r7, r3
 1126 003a 1A78     		ldrb	r2, [r3]
 1127 003c 2749     		ldr	r1, .L62+4
 1128 003e 1300     		movs	r3, r2
 1129 0040 5B00     		lsls	r3, r3, #1
 1130 0042 9B18     		adds	r3, r3, r2
 1131 0044 5B00     		lsls	r3, r3, #1
 1132 0046 CB18     		adds	r3, r1, r3
 1133 0048 0433     		adds	r3, r3, #4
 1134 004a 1B88     		ldrh	r3, [r3]
 1135 004c 5A1E     		subs	r2, r3, #1
 1136 004e 2449     		ldr	r1, .L62+8
 1137 0050 1300     		movs	r3, r2
 1138 0052 9B00     		lsls	r3, r3, #2
 1139 0054 9B18     		adds	r3, r3, r2
 1140 0056 9B00     		lsls	r3, r3, #2
 1141 0058 CB18     		adds	r3, r1, r3
 1142 005a 1033     		adds	r3, r3, #16
 1143 005c 1B68     		ldr	r3, [r3]
 1144 005e 5B68     		ldr	r3, [r3, #4]
 1145 0060 1800     		movs	r0, r3
 1146 0062 FFF7FEFF 		bl	CyBle_Get16ByPtr
 1147 0066 0300     		movs	r3, r0
 1148 0068 1A00     		movs	r2, r3
 1149 006a 0123     		movs	r3, #1
 1150 006c 1340     		ands	r3, r2
 1151 006e 9BB2     		uxth	r3, r3
 1152 0070 002B     		cmp	r3, #0
 1153 0072 05D1     		bne	.L60
 488:Generated_Source\PSoC4/BLE_hts.c ****     {
 489:Generated_Source\PSoC4/BLE_hts.c ****         apiResult = CYBLE_ERROR_NTF_DISABLED;
 1154              		.loc 1 489 0
 1155 0074 1E23     		movs	r3, #30
 1156 0076 FB18     		adds	r3, r7, r3
ARM GAS  C:\Users\User\AppData\Local\Temp\ccmH1EJa.s 			page 30


 1157 0078 8022     		movs	r2, #128
 1158 007a 5200     		lsls	r2, r2, #1
 1159 007c 1A80     		strh	r2, [r3]
 1160 007e 24E0     		b	.L59
 1161              	.L60:
 1162              	.LBB4:
 490:Generated_Source\PSoC4/BLE_hts.c ****     }
 491:Generated_Source\PSoC4/BLE_hts.c ****     else
 492:Generated_Source\PSoC4/BLE_hts.c ****     {
 493:Generated_Source\PSoC4/BLE_hts.c ****         CYBLE_GATTS_HANDLE_VALUE_NTF_T ntfReqParam;
 494:Generated_Source\PSoC4/BLE_hts.c ****         
 495:Generated_Source\PSoC4/BLE_hts.c ****         /* Fill all fields of write request structure ... */
 496:Generated_Source\PSoC4/BLE_hts.c ****         ntfReqParam.attrHandle = cyBle_htss.charInfo[charIndex].charHandle;
 1163              		.loc 1 496 0
 1164 0080 0B23     		movs	r3, #11
 1165 0082 FB18     		adds	r3, r7, r3
 1166 0084 1A78     		ldrb	r2, [r3]
 1167 0086 1549     		ldr	r1, .L62+4
 1168 0088 1300     		movs	r3, r2
 1169 008a 5B00     		lsls	r3, r3, #1
 1170 008c 9B18     		adds	r3, r3, r2
 1171 008e 5B00     		lsls	r3, r3, #1
 1172 0090 CB18     		adds	r3, r1, r3
 1173 0092 0233     		adds	r3, r3, #2
 1174 0094 1A88     		ldrh	r2, [r3]
 1175 0096 1023     		movs	r3, #16
 1176 0098 FB18     		adds	r3, r7, r3
 1177 009a 1A81     		strh	r2, [r3, #8]
 497:Generated_Source\PSoC4/BLE_hts.c ****         ntfReqParam.value.val = attrValue;
 1178              		.loc 1 497 0
 1179 009c 1023     		movs	r3, #16
 1180 009e FB18     		adds	r3, r7, r3
 1181 00a0 7A68     		ldr	r2, [r7, #4]
 1182 00a2 1A60     		str	r2, [r3]
 498:Generated_Source\PSoC4/BLE_hts.c ****         ntfReqParam.value.len = attrSize;
 1183              		.loc 1 498 0
 1184 00a4 0A23     		movs	r3, #10
 1185 00a6 FB18     		adds	r3, r7, r3
 1186 00a8 1B78     		ldrb	r3, [r3]
 1187 00aa 9AB2     		uxth	r2, r3
 1188 00ac 1023     		movs	r3, #16
 1189 00ae FB18     		adds	r3, r7, r3
 1190 00b0 9A80     		strh	r2, [r3, #4]
 499:Generated_Source\PSoC4/BLE_hts.c ****         
 500:Generated_Source\PSoC4/BLE_hts.c ****         /* Send notification to client using previously filled structure */
 501:Generated_Source\PSoC4/BLE_hts.c ****         apiResult = CyBle_GattsNotification(connHandle, &ntfReqParam);
 1191              		.loc 1 501 0
 1192 00b2 1E23     		movs	r3, #30
 1193 00b4 FC18     		adds	r4, r7, r3
 1194 00b6 1023     		movs	r3, #16
 1195 00b8 FA18     		adds	r2, r7, r3
 1196 00ba 0C23     		movs	r3, #12
 1197 00bc FB18     		adds	r3, r7, r3
 1198 00be 1100     		movs	r1, r2
 1199 00c0 1868     		ldr	r0, [r3]
 1200 00c2 FFF7FEFF 		bl	CyBle_GattsNotification
 1201 00c6 0300     		movs	r3, r0
ARM GAS  C:\Users\User\AppData\Local\Temp\ccmH1EJa.s 			page 31


 1202 00c8 2380     		strh	r3, [r4]
 1203              	.L59:
 1204              	.LBE4:
 502:Generated_Source\PSoC4/BLE_hts.c ****     }
 503:Generated_Source\PSoC4/BLE_hts.c **** 
 504:Generated_Source\PSoC4/BLE_hts.c ****     return (apiResult);
 1205              		.loc 1 504 0
 1206 00ca 1E23     		movs	r3, #30
 1207 00cc FB18     		adds	r3, r7, r3
 1208 00ce 1B88     		ldrh	r3, [r3]
 505:Generated_Source\PSoC4/BLE_hts.c **** }
 1209              		.loc 1 505 0
 1210 00d0 1800     		movs	r0, r3
 1211 00d2 BD46     		mov	sp, r7
 1212 00d4 09B0     		add	sp, sp, #36
 1213              		@ sp needed
 1214 00d6 90BD     		pop	{r4, r7, pc}
 1215              	.L63:
 1216              		.align	2
 1217              	.L62:
 1218 00d8 00000000 		.word	cyBle_state
 1219 00dc 00000000 		.word	cyBle_htss
 1220 00e0 00000000 		.word	cyBle_gattDB
 1221              		.cfi_endproc
 1222              	.LFE9:
 1223              		.size	CyBle_HtssSendNotification, .-CyBle_HtssSendNotification
 1224              		.section	.text.CyBle_HtssSendIndication,"ax",%progbits
 1225              		.align	2
 1226              		.global	CyBle_HtssSendIndication
 1227              		.code	16
 1228              		.thumb_func
 1229              		.type	CyBle_HtssSendIndication, %function
 1230              	CyBle_HtssSendIndication:
 1231              	.LFB10:
 506:Generated_Source\PSoC4/BLE_hts.c **** 
 507:Generated_Source\PSoC4/BLE_hts.c **** 
 508:Generated_Source\PSoC4/BLE_hts.c **** /******************************************************************************
 509:Generated_Source\PSoC4/BLE_hts.c **** * Function Name: CyBle_HtssSendIndication
 510:Generated_Source\PSoC4/BLE_hts.c **** ***************************************************************************//**
 511:Generated_Source\PSoC4/BLE_hts.c **** * 
 512:Generated_Source\PSoC4/BLE_hts.c **** *  Sends indication with a characteristic value of the Health Thermometer 
 513:Generated_Source\PSoC4/BLE_hts.c **** *  Service, which is a value specified by charIndex, to the Client device.
 514:Generated_Source\PSoC4/BLE_hts.c **** *
 515:Generated_Source\PSoC4/BLE_hts.c **** *  On enabling indication successfully it sends out a 'Handle Value Indication'
 516:Generated_Source\PSoC4/BLE_hts.c **** *  which results in CYBLE_EVT_HTSC_INDICATION or 
 517:Generated_Source\PSoC4/BLE_hts.c **** *  CYBLE_EVT_GATTC_HANDLE_VALUE_IND (if service specific callback function is 
 518:Generated_Source\PSoC4/BLE_hts.c **** *  not registered) event at the GATT Client's end.
 519:Generated_Source\PSoC4/BLE_hts.c **** *
 520:Generated_Source\PSoC4/BLE_hts.c **** *  \param connHandle: The connection handle.
 521:Generated_Source\PSoC4/BLE_hts.c **** *  \param charIndex:  The index of the service characteristic.
 522:Generated_Source\PSoC4/BLE_hts.c **** *  \param attrSize:   The size of the characteristic value attribute.
 523:Generated_Source\PSoC4/BLE_hts.c **** *  \param attrValue:  The pointer to the characteristic value data that should be
 524:Generated_Source\PSoC4/BLE_hts.c **** *                     sent to the Client device.
 525:Generated_Source\PSoC4/BLE_hts.c **** * 
 526:Generated_Source\PSoC4/BLE_hts.c **** * \return
 527:Generated_Source\PSoC4/BLE_hts.c **** *  Return value is of type CYBLE_API_RESULT_T.
 528:Generated_Source\PSoC4/BLE_hts.c **** *   * CYBLE_ERROR_OK - The request handled successfully.
ARM GAS  C:\Users\User\AppData\Local\Temp\ccmH1EJa.s 			page 32


 529:Generated_Source\PSoC4/BLE_hts.c **** *   * CYBLE_ERROR_INVALID_PARAMETER - Validation of the input parameter failed.
 530:Generated_Source\PSoC4/BLE_hts.c **** *   * CYBLE_ERROR_INVALID_OPERATION - This operation is not permitted.
 531:Generated_Source\PSoC4/BLE_hts.c **** *   * CYBLE_ERROR_INVALID_STATE - Connection with the client is not established.
 532:Generated_Source\PSoC4/BLE_hts.c **** *   * CYBLE_ERROR_MEMORY_ALLOCATION_FAILED - Memory allocation failed.
 533:Generated_Source\PSoC4/BLE_hts.c **** *   * CYBLE_ERROR_IND_DISABLED - Indication is not enabled by the client.
 534:Generated_Source\PSoC4/BLE_hts.c **** *
 535:Generated_Source\PSoC4/BLE_hts.c **** * \events
 536:Generated_Source\PSoC4/BLE_hts.c **** *  In case of successful execution (return value = CYBLE_ERROR_OK)
 537:Generated_Source\PSoC4/BLE_hts.c **** *  the next events can appear: \n
 538:Generated_Source\PSoC4/BLE_hts.c **** *   If the HTS service-specific callback is registered 
 539:Generated_Source\PSoC4/BLE_hts.c **** *      (with CyBle_HtsRegisterAttrCallback):
 540:Generated_Source\PSoC4/BLE_hts.c **** *  * CYBLE_EVT_HTSS_INDICATION_CONFIRMED - in case if the indication is
 541:Generated_Source\PSoC4/BLE_hts.c **** *                                successfully delivered to the peer device.
 542:Generated_Source\PSoC4/BLE_hts.c **** *  .
 543:Generated_Source\PSoC4/BLE_hts.c **** *   Otherwise (if the HTS service-specific callback is not registered):
 544:Generated_Source\PSoC4/BLE_hts.c **** *  * CYBLE_EVT_GATTS_HANDLE_VALUE_CNF - in case if the indication is
 545:Generated_Source\PSoC4/BLE_hts.c **** *                                successfully delivered to the peer device.
 546:Generated_Source\PSoC4/BLE_hts.c **** *
 547:Generated_Source\PSoC4/BLE_hts.c **** ******************************************************************************/
 548:Generated_Source\PSoC4/BLE_hts.c **** CYBLE_API_RESULT_T CyBle_HtssSendIndication(CYBLE_CONN_HANDLE_T connHandle,
 549:Generated_Source\PSoC4/BLE_hts.c ****     CYBLE_HTS_CHAR_INDEX_T charIndex, uint8 attrSize, uint8 *attrValue)
 550:Generated_Source\PSoC4/BLE_hts.c **** {
 1232              		.loc 1 550 0
 1233              		.cfi_startproc
 1234              		@ args = 0, pretend = 0, frame = 32
 1235              		@ frame_needed = 1, uses_anonymous_args = 0
 1236 0000 90B5     		push	{r4, r7, lr}
 1237              		.cfi_def_cfa_offset 12
 1238              		.cfi_offset 4, -12
 1239              		.cfi_offset 7, -8
 1240              		.cfi_offset 14, -4
 1241 0002 89B0     		sub	sp, sp, #36
 1242              		.cfi_def_cfa_offset 48
 1243 0004 00AF     		add	r7, sp, #0
 1244              		.cfi_def_cfa_register 7
 1245 0006 0C24     		movs	r4, #12
 1246 0008 3C19     		adds	r4, r7, r4
 1247 000a 2080     		strh	r0, [r4]
 1248 000c 0800     		movs	r0, r1
 1249 000e 1100     		movs	r1, r2
 1250 0010 7B60     		str	r3, [r7, #4]
 1251 0012 0B23     		movs	r3, #11
 1252 0014 FB18     		adds	r3, r7, r3
 1253 0016 021C     		adds	r2, r0, #0
 1254 0018 1A70     		strb	r2, [r3]
 1255 001a 0A23     		movs	r3, #10
 1256 001c FB18     		adds	r3, r7, r3
 1257 001e 0A1C     		adds	r2, r1, #0
 1258 0020 1A70     		strb	r2, [r3]
 551:Generated_Source\PSoC4/BLE_hts.c ****     CYBLE_API_RESULT_T apiResult;
 552:Generated_Source\PSoC4/BLE_hts.c ****     
 553:Generated_Source\PSoC4/BLE_hts.c ****     /* Send Notification if it is enabled and connected */
 554:Generated_Source\PSoC4/BLE_hts.c ****     if(CYBLE_STATE_CONNECTED != CyBle_GetState())
 1259              		.loc 1 554 0
 1260 0022 324B     		ldr	r3, .L70
 1261 0024 1B78     		ldrb	r3, [r3]
 1262 0026 022B     		cmp	r3, #2
ARM GAS  C:\Users\User\AppData\Local\Temp\ccmH1EJa.s 			page 33


 1263 0028 05D0     		beq	.L65
 555:Generated_Source\PSoC4/BLE_hts.c ****     {
 556:Generated_Source\PSoC4/BLE_hts.c ****         apiResult = CYBLE_ERROR_INVALID_STATE;
 1264              		.loc 1 556 0
 1265 002a 1E23     		movs	r3, #30
 1266 002c FB18     		adds	r3, r7, r3
 1267 002e 0422     		movs	r2, #4
 1268 0030 FF32     		adds	r2, r2, #255
 1269 0032 1A80     		strh	r2, [r3]
 1270 0034 53E0     		b	.L66
 1271              	.L65:
 557:Generated_Source\PSoC4/BLE_hts.c ****     }
 558:Generated_Source\PSoC4/BLE_hts.c ****     else if(!CYBLE_IS_INDICATION_ENABLED(cyBle_htss.charInfo[charIndex].descrHandle[CYBLE_HTS_CCCD]
 1272              		.loc 1 558 0
 1273 0036 0B23     		movs	r3, #11
 1274 0038 FB18     		adds	r3, r7, r3
 1275 003a 1A78     		ldrb	r2, [r3]
 1276 003c 2C49     		ldr	r1, .L70+4
 1277 003e 1300     		movs	r3, r2
 1278 0040 5B00     		lsls	r3, r3, #1
 1279 0042 9B18     		adds	r3, r3, r2
 1280 0044 5B00     		lsls	r3, r3, #1
 1281 0046 CB18     		adds	r3, r1, r3
 1282 0048 0433     		adds	r3, r3, #4
 1283 004a 1B88     		ldrh	r3, [r3]
 1284 004c 5A1E     		subs	r2, r3, #1
 1285 004e 2949     		ldr	r1, .L70+8
 1286 0050 1300     		movs	r3, r2
 1287 0052 9B00     		lsls	r3, r3, #2
 1288 0054 9B18     		adds	r3, r3, r2
 1289 0056 9B00     		lsls	r3, r3, #2
 1290 0058 CB18     		adds	r3, r1, r3
 1291 005a 1033     		adds	r3, r3, #16
 1292 005c 1B68     		ldr	r3, [r3]
 1293 005e 5B68     		ldr	r3, [r3, #4]
 1294 0060 1800     		movs	r0, r3
 1295 0062 FFF7FEFF 		bl	CyBle_Get16ByPtr
 1296 0066 0300     		movs	r3, r0
 1297 0068 1A00     		movs	r2, r3
 1298 006a 0223     		movs	r3, #2
 1299 006c 1340     		ands	r3, r2
 1300 006e 9BB2     		uxth	r3, r3
 1301 0070 002B     		cmp	r3, #0
 1302 0072 05D1     		bne	.L67
 559:Generated_Source\PSoC4/BLE_hts.c ****     {
 560:Generated_Source\PSoC4/BLE_hts.c ****         apiResult = CYBLE_ERROR_IND_DISABLED;
 1303              		.loc 1 560 0
 1304 0074 1E23     		movs	r3, #30
 1305 0076 FB18     		adds	r3, r7, r3
 1306 0078 0222     		movs	r2, #2
 1307 007a FF32     		adds	r2, r2, #255
 1308 007c 1A80     		strh	r2, [r3]
 1309 007e 2EE0     		b	.L66
 1310              	.L67:
 1311              	.LBB5:
 561:Generated_Source\PSoC4/BLE_hts.c ****     }
 562:Generated_Source\PSoC4/BLE_hts.c ****     else
ARM GAS  C:\Users\User\AppData\Local\Temp\ccmH1EJa.s 			page 34


 563:Generated_Source\PSoC4/BLE_hts.c ****     {
 564:Generated_Source\PSoC4/BLE_hts.c ****         CYBLE_GATTS_HANDLE_VALUE_NTF_T ntfReqParam;
 565:Generated_Source\PSoC4/BLE_hts.c ****         
 566:Generated_Source\PSoC4/BLE_hts.c ****         /* Fill all fields of write request structure ... */
 567:Generated_Source\PSoC4/BLE_hts.c ****         ntfReqParam.attrHandle = cyBle_htss.charInfo[charIndex].charHandle;
 1312              		.loc 1 567 0
 1313 0080 0B23     		movs	r3, #11
 1314 0082 FB18     		adds	r3, r7, r3
 1315 0084 1A78     		ldrb	r2, [r3]
 1316 0086 1A49     		ldr	r1, .L70+4
 1317 0088 1300     		movs	r3, r2
 1318 008a 5B00     		lsls	r3, r3, #1
 1319 008c 9B18     		adds	r3, r3, r2
 1320 008e 5B00     		lsls	r3, r3, #1
 1321 0090 CB18     		adds	r3, r1, r3
 1322 0092 0233     		adds	r3, r3, #2
 1323 0094 1A88     		ldrh	r2, [r3]
 1324 0096 1023     		movs	r3, #16
 1325 0098 FB18     		adds	r3, r7, r3
 1326 009a 1A81     		strh	r2, [r3, #8]
 568:Generated_Source\PSoC4/BLE_hts.c ****         ntfReqParam.value.val = attrValue;
 1327              		.loc 1 568 0
 1328 009c 1023     		movs	r3, #16
 1329 009e FB18     		adds	r3, r7, r3
 1330 00a0 7A68     		ldr	r2, [r7, #4]
 1331 00a2 1A60     		str	r2, [r3]
 569:Generated_Source\PSoC4/BLE_hts.c ****         ntfReqParam.value.len = attrSize;
 1332              		.loc 1 569 0
 1333 00a4 0A23     		movs	r3, #10
 1334 00a6 FB18     		adds	r3, r7, r3
 1335 00a8 1B78     		ldrb	r3, [r3]
 1336 00aa 9AB2     		uxth	r2, r3
 1337 00ac 1023     		movs	r3, #16
 1338 00ae FB18     		adds	r3, r7, r3
 1339 00b0 9A80     		strh	r2, [r3, #4]
 570:Generated_Source\PSoC4/BLE_hts.c ****         
 571:Generated_Source\PSoC4/BLE_hts.c ****         /* Send indication to client using previously filled structure */
 572:Generated_Source\PSoC4/BLE_hts.c ****         apiResult = CyBle_GattsIndication(connHandle, &ntfReqParam);
 1340              		.loc 1 572 0
 1341 00b2 1E23     		movs	r3, #30
 1342 00b4 FC18     		adds	r4, r7, r3
 1343 00b6 1023     		movs	r3, #16
 1344 00b8 FA18     		adds	r2, r7, r3
 1345 00ba 0C23     		movs	r3, #12
 1346 00bc FB18     		adds	r3, r7, r3
 1347 00be 1100     		movs	r1, r2
 1348 00c0 1868     		ldr	r0, [r3]
 1349 00c2 FFF7FEFF 		bl	CyBle_GattsIndication
 1350 00c6 0300     		movs	r3, r0
 1351 00c8 2380     		strh	r3, [r4]
 573:Generated_Source\PSoC4/BLE_hts.c ****         /* Save handle to support service specific value confirmation response from client */
 574:Generated_Source\PSoC4/BLE_hts.c ****         if(apiResult == CYBLE_ERROR_OK)
 1352              		.loc 1 574 0
 1353 00ca 1E23     		movs	r3, #30
 1354 00cc FB18     		adds	r3, r7, r3
 1355 00ce 1B88     		ldrh	r3, [r3]
 1356 00d0 002B     		cmp	r3, #0
ARM GAS  C:\Users\User\AppData\Local\Temp\ccmH1EJa.s 			page 35


 1357 00d2 04D1     		bne	.L66
 575:Generated_Source\PSoC4/BLE_hts.c ****         {
 576:Generated_Source\PSoC4/BLE_hts.c ****             cyBle_htssReqHandle = ntfReqParam.attrHandle;
 1358              		.loc 1 576 0
 1359 00d4 1023     		movs	r3, #16
 1360 00d6 FB18     		adds	r3, r7, r3
 1361 00d8 1A89     		ldrh	r2, [r3, #8]
 1362 00da 074B     		ldr	r3, .L70+12
 1363 00dc 1A80     		strh	r2, [r3]
 1364              	.L66:
 1365              	.LBE5:
 577:Generated_Source\PSoC4/BLE_hts.c ****         }
 578:Generated_Source\PSoC4/BLE_hts.c ****     }
 579:Generated_Source\PSoC4/BLE_hts.c ****     return (apiResult);
 1366              		.loc 1 579 0
 1367 00de 1E23     		movs	r3, #30
 1368 00e0 FB18     		adds	r3, r7, r3
 1369 00e2 1B88     		ldrh	r3, [r3]
 580:Generated_Source\PSoC4/BLE_hts.c **** }
 1370              		.loc 1 580 0
 1371 00e4 1800     		movs	r0, r3
 1372 00e6 BD46     		mov	sp, r7
 1373 00e8 09B0     		add	sp, sp, #36
 1374              		@ sp needed
 1375 00ea 90BD     		pop	{r4, r7, pc}
 1376              	.L71:
 1377              		.align	2
 1378              	.L70:
 1379 00ec 00000000 		.word	cyBle_state
 1380 00f0 00000000 		.word	cyBle_htss
 1381 00f4 00000000 		.word	cyBle_gattDB
 1382 00f8 04000000 		.word	cyBle_htssReqHandle
 1383              		.cfi_endproc
 1384              	.LFE10:
 1385              		.size	CyBle_HtssSendIndication, .-CyBle_HtssSendIndication
 1386              		.section	.text.CyBle_HtssConfirmationEventHandler,"ax",%progbits
 1387              		.align	2
 1388              		.global	CyBle_HtssConfirmationEventHandler
 1389              		.code	16
 1390              		.thumb_func
 1391              		.type	CyBle_HtssConfirmationEventHandler, %function
 1392              	CyBle_HtssConfirmationEventHandler:
 1393              	.LFB11:
 581:Generated_Source\PSoC4/BLE_hts.c **** 
 582:Generated_Source\PSoC4/BLE_hts.c **** 
 583:Generated_Source\PSoC4/BLE_hts.c **** /******************************************************************************
 584:Generated_Source\PSoC4/BLE_hts.c **** * Function Name: CyBle_HtssConfirmationEventHandler
 585:Generated_Source\PSoC4/BLE_hts.c **** ***************************************************************************//**
 586:Generated_Source\PSoC4/BLE_hts.c **** * 
 587:Generated_Source\PSoC4/BLE_hts.c **** *  Handles a Value Confirmation request event from the BLE stack.
 588:Generated_Source\PSoC4/BLE_hts.c **** * 
 589:Generated_Source\PSoC4/BLE_hts.c **** *  \param eventParam - The pointer to a structure of type CYBLE_CONN_HANDLE_T.
 590:Generated_Source\PSoC4/BLE_hts.c **** * 
 591:Generated_Source\PSoC4/BLE_hts.c **** ******************************************************************************/
 592:Generated_Source\PSoC4/BLE_hts.c **** void CyBle_HtssConfirmationEventHandler(const CYBLE_CONN_HANDLE_T *eventParam)
 593:Generated_Source\PSoC4/BLE_hts.c **** {
 1394              		.loc 1 593 0
ARM GAS  C:\Users\User\AppData\Local\Temp\ccmH1EJa.s 			page 36


 1395              		.cfi_startproc
 1396              		@ args = 0, pretend = 0, frame = 24
 1397              		@ frame_needed = 1, uses_anonymous_args = 0
 1398 0000 80B5     		push	{r7, lr}
 1399              		.cfi_def_cfa_offset 8
 1400              		.cfi_offset 7, -8
 1401              		.cfi_offset 14, -4
 1402 0002 86B0     		sub	sp, sp, #24
 1403              		.cfi_def_cfa_offset 32
 1404 0004 00AF     		add	r7, sp, #0
 1405              		.cfi_def_cfa_register 7
 1406 0006 7860     		str	r0, [r7, #4]
 594:Generated_Source\PSoC4/BLE_hts.c ****     CYBLE_HTS_CHAR_INDEX_T locCharIndex;
 595:Generated_Source\PSoC4/BLE_hts.c ****     CYBLE_HTS_CHAR_VALUE_T locCharValue;
 596:Generated_Source\PSoC4/BLE_hts.c ****     uint8 locReqHandle = 0u;
 1407              		.loc 1 596 0
 1408 0008 1623     		movs	r3, #22
 1409 000a FB18     		adds	r3, r7, r3
 1410 000c 0022     		movs	r2, #0
 1411 000e 1A70     		strb	r2, [r3]
 597:Generated_Source\PSoC4/BLE_hts.c **** 
 598:Generated_Source\PSoC4/BLE_hts.c ****     if((NULL != CyBle_HtsApplCallback) && (CYBLE_GATT_INVALID_ATTR_HANDLE_VALUE != cyBle_htssReqHan
 1412              		.loc 1 598 0
 1413 0010 2D4B     		ldr	r3, .L78
 1414 0012 1B68     		ldr	r3, [r3]
 1415 0014 002B     		cmp	r3, #0
 1416 0016 52D0     		beq	.L77
 1417              		.loc 1 598 0 is_stmt 0 discriminator 1
 1418 0018 2C4B     		ldr	r3, .L78+4
 1419 001a 1B88     		ldrh	r3, [r3]
 1420 001c 002B     		cmp	r3, #0
 1421 001e 4ED0     		beq	.L77
 599:Generated_Source\PSoC4/BLE_hts.c ****     {
 600:Generated_Source\PSoC4/BLE_hts.c ****         for(locCharIndex = CYBLE_HTS_TEMP_MEASURE; (locCharIndex < CYBLE_HTS_CHAR_COUNT) && (locReq
 1422              		.loc 1 600 0 is_stmt 1
 1423 0020 1723     		movs	r3, #23
 1424 0022 FB18     		adds	r3, r7, r3
 1425 0024 0022     		movs	r2, #0
 1426 0026 1A70     		strb	r2, [r3]
 1427 0028 3FE0     		b	.L74
 1428              	.L76:
 601:Generated_Source\PSoC4/BLE_hts.c ****             locCharIndex++)
 602:Generated_Source\PSoC4/BLE_hts.c ****         {
 603:Generated_Source\PSoC4/BLE_hts.c ****             if(cyBle_htssReqHandle == cyBle_htss.charInfo[locCharIndex].charHandle)
 1429              		.loc 1 603 0
 1430 002a 1723     		movs	r3, #23
 1431 002c FB18     		adds	r3, r7, r3
 1432 002e 1A78     		ldrb	r2, [r3]
 1433 0030 2749     		ldr	r1, .L78+8
 1434 0032 1300     		movs	r3, r2
 1435 0034 5B00     		lsls	r3, r3, #1
 1436 0036 9B18     		adds	r3, r3, r2
 1437 0038 5B00     		lsls	r3, r3, #1
 1438 003a CB18     		adds	r3, r1, r3
 1439 003c 0233     		adds	r3, r3, #2
 1440 003e 1A88     		ldrh	r2, [r3]
 1441 0040 224B     		ldr	r3, .L78+4
ARM GAS  C:\Users\User\AppData\Local\Temp\ccmH1EJa.s 			page 37


 1442 0042 1B88     		ldrh	r3, [r3]
 1443 0044 9A42     		cmp	r2, r3
 1444 0046 29D1     		bne	.L75
 604:Generated_Source\PSoC4/BLE_hts.c ****             {
 605:Generated_Source\PSoC4/BLE_hts.c ****                 locCharValue.connHandle = *eventParam;
 1445              		.loc 1 605 0
 1446 0048 0C23     		movs	r3, #12
 1447 004a FA18     		adds	r2, r7, r3
 1448 004c 7B68     		ldr	r3, [r7, #4]
 1449 004e 1000     		movs	r0, r2
 1450 0050 1900     		movs	r1, r3
 1451 0052 0223     		movs	r3, #2
 1452 0054 1A00     		movs	r2, r3
 1453 0056 FFF7FEFF 		bl	memcpy
 606:Generated_Source\PSoC4/BLE_hts.c ****                 locCharValue.charIndex = locCharIndex;
 1454              		.loc 1 606 0
 1455 005a 0C23     		movs	r3, #12
 1456 005c FB18     		adds	r3, r7, r3
 1457 005e 1722     		movs	r2, #23
 1458 0060 BA18     		adds	r2, r7, r2
 1459 0062 1278     		ldrb	r2, [r2]
 1460 0064 9A70     		strb	r2, [r3, #2]
 607:Generated_Source\PSoC4/BLE_hts.c ****                 locCharValue.value = NULL;
 1461              		.loc 1 607 0
 1462 0066 0C23     		movs	r3, #12
 1463 0068 FB18     		adds	r3, r7, r3
 1464 006a 0022     		movs	r2, #0
 1465 006c 5A60     		str	r2, [r3, #4]
 608:Generated_Source\PSoC4/BLE_hts.c ****                 cyBle_eventHandlerFlag &= (uint8)~CYBLE_CALLBACK;
 1466              		.loc 1 608 0
 1467 006e 194B     		ldr	r3, .L78+12
 1468 0070 1B78     		ldrb	r3, [r3]
 1469 0072 DBB2     		uxtb	r3, r3
 1470 0074 0122     		movs	r2, #1
 1471 0076 9343     		bics	r3, r2
 1472 0078 DAB2     		uxtb	r2, r3
 1473 007a 164B     		ldr	r3, .L78+12
 1474 007c 1A70     		strb	r2, [r3]
 609:Generated_Source\PSoC4/BLE_hts.c ****                 cyBle_htssReqHandle = CYBLE_GATT_INVALID_ATTR_HANDLE_VALUE;
 1475              		.loc 1 609 0
 1476 007e 134B     		ldr	r3, .L78+4
 1477 0080 0022     		movs	r2, #0
 1478 0082 1A80     		strh	r2, [r3]
 610:Generated_Source\PSoC4/BLE_hts.c ****                 CyBle_HtsApplCallback((uint32)CYBLE_EVT_HTSS_INDICATION_CONFIRMED, &locCharValue);
 1479              		.loc 1 610 0
 1480 0084 104B     		ldr	r3, .L78
 1481 0086 1B68     		ldr	r3, [r3]
 1482 0088 0C22     		movs	r2, #12
 1483 008a B918     		adds	r1, r7, r2
 1484 008c B622     		movs	r2, #182
 1485 008e FF32     		adds	r2, r2, #255
 1486 0090 1000     		movs	r0, r2
 1487 0092 9847     		blx	r3
 611:Generated_Source\PSoC4/BLE_hts.c ****                 locReqHandle = 1u;
 1488              		.loc 1 611 0
 1489 0094 1623     		movs	r3, #22
 1490 0096 FB18     		adds	r3, r7, r3
ARM GAS  C:\Users\User\AppData\Local\Temp\ccmH1EJa.s 			page 38


 1491 0098 0122     		movs	r2, #1
 1492 009a 1A70     		strb	r2, [r3]
 1493              	.L75:
 601:Generated_Source\PSoC4/BLE_hts.c ****         {
 1494              		.loc 1 601 0
 1495 009c 1723     		movs	r3, #23
 1496 009e FB18     		adds	r3, r7, r3
 1497 00a0 1A78     		ldrb	r2, [r3]
 1498 00a2 1723     		movs	r3, #23
 1499 00a4 FB18     		adds	r3, r7, r3
 1500 00a6 0132     		adds	r2, r2, #1
 1501 00a8 1A70     		strb	r2, [r3]
 1502              	.L74:
 600:Generated_Source\PSoC4/BLE_hts.c ****             locCharIndex++)
 1503              		.loc 1 600 0 discriminator 1
 1504 00aa 1723     		movs	r3, #23
 1505 00ac FB18     		adds	r3, r7, r3
 1506 00ae 1B78     		ldrb	r3, [r3]
 1507 00b0 032B     		cmp	r3, #3
 1508 00b2 04D8     		bhi	.L77
 600:Generated_Source\PSoC4/BLE_hts.c ****             locCharIndex++)
 1509              		.loc 1 600 0 is_stmt 0 discriminator 2
 1510 00b4 1623     		movs	r3, #22
 1511 00b6 FB18     		adds	r3, r7, r3
 1512 00b8 1B78     		ldrb	r3, [r3]
 1513 00ba 002B     		cmp	r3, #0
 1514 00bc B5D0     		beq	.L76
 1515              	.L77:
 612:Generated_Source\PSoC4/BLE_hts.c ****             }
 613:Generated_Source\PSoC4/BLE_hts.c ****         }
 614:Generated_Source\PSoC4/BLE_hts.c ****     }
 615:Generated_Source\PSoC4/BLE_hts.c **** }
 1516              		.loc 1 615 0 is_stmt 1
 1517 00be C046     		nop
 1518 00c0 BD46     		mov	sp, r7
 1519 00c2 06B0     		add	sp, sp, #24
 1520              		@ sp needed
 1521 00c4 80BD     		pop	{r7, pc}
 1522              	.L79:
 1523 00c6 C046     		.align	2
 1524              	.L78:
 1525 00c8 00000000 		.word	CyBle_HtsApplCallback
 1526 00cc 04000000 		.word	cyBle_htssReqHandle
 1527 00d0 00000000 		.word	cyBle_htss
 1528 00d4 00000000 		.word	cyBle_eventHandlerFlag
 1529              		.cfi_endproc
 1530              	.LFE11:
 1531              		.size	CyBle_HtssConfirmationEventHandler, .-CyBle_HtssConfirmationEventHandler
 1532              		.section	.text.CyBle_HtscDiscoverCharacteristicsEventHandler,"ax",%progbits
 1533              		.align	2
 1534              		.global	CyBle_HtscDiscoverCharacteristicsEventHandler
 1535              		.code	16
 1536              		.thumb_func
 1537              		.type	CyBle_HtscDiscoverCharacteristicsEventHandler, %function
 1538              	CyBle_HtscDiscoverCharacteristicsEventHandler:
 1539              	.LFB12:
 616:Generated_Source\PSoC4/BLE_hts.c **** 
ARM GAS  C:\Users\User\AppData\Local\Temp\ccmH1EJa.s 			page 39


 617:Generated_Source\PSoC4/BLE_hts.c **** 
 618:Generated_Source\PSoC4/BLE_hts.c **** #endif /* CYBLE_HTS_SERVER */
 619:Generated_Source\PSoC4/BLE_hts.c **** 
 620:Generated_Source\PSoC4/BLE_hts.c **** #ifdef CYBLE_HTS_CLIENT
 621:Generated_Source\PSoC4/BLE_hts.c **** 
 622:Generated_Source\PSoC4/BLE_hts.c **** 
 623:Generated_Source\PSoC4/BLE_hts.c **** /******************************************************************************
 624:Generated_Source\PSoC4/BLE_hts.c **** * Function Name: CyBle_HtscDiscoverCharacteristicsEventHandler
 625:Generated_Source\PSoC4/BLE_hts.c **** ***************************************************************************//**
 626:Generated_Source\PSoC4/BLE_hts.c **** * 
 627:Generated_Source\PSoC4/BLE_hts.c **** *  This function is called on receiving a CYBLE_EVT_GATTC_READ_BY_TYPE_RSP
 628:Generated_Source\PSoC4/BLE_hts.c **** *  event. Based on the service UUID, an appropriate data structure is populated
 629:Generated_Source\PSoC4/BLE_hts.c **** *  using the data received as part of the callback.
 630:Generated_Source\PSoC4/BLE_hts.c **** * 
 631:Generated_Source\PSoC4/BLE_hts.c **** *  \param discCharInfo: The pointer to a characteristic information structure.
 632:Generated_Source\PSoC4/BLE_hts.c **** * 
 633:Generated_Source\PSoC4/BLE_hts.c **** ******************************************************************************/
 634:Generated_Source\PSoC4/BLE_hts.c **** void CyBle_HtscDiscoverCharacteristicsEventHandler(CYBLE_DISC_CHAR_INFO_T *discCharInfo)
 635:Generated_Source\PSoC4/BLE_hts.c **** {
 1540              		.loc 1 635 0
 1541              		.cfi_startproc
 1542              		@ args = 0, pretend = 0, frame = 16
 1543              		@ frame_needed = 1, uses_anonymous_args = 0
 1544 0000 80B5     		push	{r7, lr}
 1545              		.cfi_def_cfa_offset 8
 1546              		.cfi_offset 7, -8
 1547              		.cfi_offset 14, -4
 1548 0002 84B0     		sub	sp, sp, #16
 1549              		.cfi_def_cfa_offset 24
 1550 0004 00AF     		add	r7, sp, #0
 1551              		.cfi_def_cfa_register 7
 1552 0006 7860     		str	r0, [r7, #4]
 636:Generated_Source\PSoC4/BLE_hts.c ****     /* HTS characteristics UUIDs */
 637:Generated_Source\PSoC4/BLE_hts.c ****     static const CYBLE_UUID16 cyBle_htscCharUuid[CYBLE_HTS_CHAR_COUNT] =
 638:Generated_Source\PSoC4/BLE_hts.c ****     {
 639:Generated_Source\PSoC4/BLE_hts.c ****         CYBLE_UUID_CHAR_TEMPERATURE_MSMNT,
 640:Generated_Source\PSoC4/BLE_hts.c ****         CYBLE_UUID_CHAR_TEMPERATURE_TYPE,
 641:Generated_Source\PSoC4/BLE_hts.c ****         CYBLE_UUID_CHAR_INTERMEDIATE_TEMP,
 642:Generated_Source\PSoC4/BLE_hts.c ****         CYBLE_UUID_CHAR_MSMNT_INTERVAL    
 643:Generated_Source\PSoC4/BLE_hts.c ****     };
 644:Generated_Source\PSoC4/BLE_hts.c ****     uint8 i;
 645:Generated_Source\PSoC4/BLE_hts.c ****     static CYBLE_GATT_DB_ATTR_HANDLE_T *htsLastEndHandle = NULL;
 646:Generated_Source\PSoC4/BLE_hts.c **** 
 647:Generated_Source\PSoC4/BLE_hts.c ****     /* Update last characteristic endHandle to declaration handle of this characteristic */ 
 648:Generated_Source\PSoC4/BLE_hts.c ****     if(htsLastEndHandle != NULL)
 1553              		.loc 1 648 0
 1554 0008 3E4B     		ldr	r3, .L90
 1555 000a 1B68     		ldr	r3, [r3]
 1556 000c 002B     		cmp	r3, #0
 1557 000e 09D0     		beq	.L81
 649:Generated_Source\PSoC4/BLE_hts.c ****     {
 650:Generated_Source\PSoC4/BLE_hts.c ****         *htsLastEndHandle = discCharInfo->charDeclHandle - 1u;
 1558              		.loc 1 650 0
 1559 0010 3C4B     		ldr	r3, .L90
 1560 0012 1B68     		ldr	r3, [r3]
 1561 0014 7A68     		ldr	r2, [r7, #4]
 1562 0016 1288     		ldrh	r2, [r2]
ARM GAS  C:\Users\User\AppData\Local\Temp\ccmH1EJa.s 			page 40


 1563 0018 013A     		subs	r2, r2, #1
 1564 001a 92B2     		uxth	r2, r2
 1565 001c 1A80     		strh	r2, [r3]
 651:Generated_Source\PSoC4/BLE_hts.c ****         htsLastEndHandle = NULL;
 1566              		.loc 1 651 0
 1567 001e 394B     		ldr	r3, .L90
 1568 0020 0022     		movs	r2, #0
 1569 0022 1A60     		str	r2, [r3]
 1570              	.L81:
 652:Generated_Source\PSoC4/BLE_hts.c ****     }
 653:Generated_Source\PSoC4/BLE_hts.c **** 
 654:Generated_Source\PSoC4/BLE_hts.c ****     for(i = (uint8) CYBLE_HTS_TEMP_MEASURE; i < (uint8) CYBLE_HTS_CHAR_COUNT; i++)
 1571              		.loc 1 654 0
 1572 0024 0F23     		movs	r3, #15
 1573 0026 FB18     		adds	r3, r7, r3
 1574 0028 0022     		movs	r2, #0
 1575 002a 1A70     		strb	r2, [r3]
 1576 002c 4FE0     		b	.L82
 1577              	.L87:
 655:Generated_Source\PSoC4/BLE_hts.c ****     {
 656:Generated_Source\PSoC4/BLE_hts.c ****         if(cyBle_htscCharUuid[i] == discCharInfo->uuid.uuid16)
 1578              		.loc 1 656 0
 1579 002e 0F23     		movs	r3, #15
 1580 0030 FB18     		adds	r3, r7, r3
 1581 0032 1A78     		ldrb	r2, [r3]
 1582 0034 344B     		ldr	r3, .L90+4
 1583 0036 5200     		lsls	r2, r2, #1
 1584 0038 D25A     		ldrh	r2, [r2, r3]
 1585 003a 7B68     		ldr	r3, [r7, #4]
 1586 003c DB88     		ldrh	r3, [r3, #6]
 1587 003e 9A42     		cmp	r2, r3
 1588 0040 3ED1     		bne	.L83
 657:Generated_Source\PSoC4/BLE_hts.c ****         {
 658:Generated_Source\PSoC4/BLE_hts.c ****             CyBle_CheckStoreCharHandle(cyBle_htsc.charInfo[i]);
 1589              		.loc 1 658 0
 1590 0042 0F23     		movs	r3, #15
 1591 0044 FB18     		adds	r3, r7, r3
 1592 0046 1A78     		ldrb	r2, [r3]
 1593 0048 3049     		ldr	r1, .L90+8
 1594 004a 1300     		movs	r3, r2
 1595 004c 9B00     		lsls	r3, r3, #2
 1596 004e 9B18     		adds	r3, r3, r2
 1597 0050 5B00     		lsls	r3, r3, #1
 1598 0052 CB18     		adds	r3, r1, r3
 1599 0054 0433     		adds	r3, r3, #4
 1600 0056 1B88     		ldrh	r3, [r3]
 1601 0058 002B     		cmp	r3, #0
 1602 005a 1CD1     		bne	.L84
 1603              		.loc 1 658 0 is_stmt 0 discriminator 1
 1604 005c 0F23     		movs	r3, #15
 1605 005e FB18     		adds	r3, r7, r3
 1606 0060 1A78     		ldrb	r2, [r3]
 1607 0062 7B68     		ldr	r3, [r7, #4]
 1608 0064 9888     		ldrh	r0, [r3, #4]
 1609 0066 2949     		ldr	r1, .L90+8
 1610 0068 1300     		movs	r3, r2
 1611 006a 9B00     		lsls	r3, r3, #2
ARM GAS  C:\Users\User\AppData\Local\Temp\ccmH1EJa.s 			page 41


 1612 006c 9B18     		adds	r3, r3, r2
 1613 006e 5B00     		lsls	r3, r3, #1
 1614 0070 CB18     		adds	r3, r1, r3
 1615 0072 0433     		adds	r3, r3, #4
 1616 0074 021C     		adds	r2, r0, #0
 1617 0076 1A80     		strh	r2, [r3]
 1618 0078 0F23     		movs	r3, #15
 1619 007a FB18     		adds	r3, r7, r3
 1620 007c 1A78     		ldrb	r2, [r3]
 1621 007e 7B68     		ldr	r3, [r7, #4]
 1622 0080 9878     		ldrb	r0, [r3, #2]
 1623 0082 2249     		ldr	r1, .L90+8
 1624 0084 1300     		movs	r3, r2
 1625 0086 9B00     		lsls	r3, r3, #2
 1626 0088 9B18     		adds	r3, r3, r2
 1627 008a 5B00     		lsls	r3, r3, #1
 1628 008c CB18     		adds	r3, r1, r3
 1629 008e 0833     		adds	r3, r3, #8
 1630 0090 021C     		adds	r2, r0, #0
 1631 0092 1A70     		strb	r2, [r3]
 1632 0094 07E0     		b	.L85
 1633              	.L84:
 1634              		.loc 1 658 0 discriminator 2
 1635 0096 1E4B     		ldr	r3, .L90+12
 1636 0098 1B68     		ldr	r3, [r3]
 1637 009a 7A68     		ldr	r2, [r7, #4]
 1638 009c 911D     		adds	r1, r2, #6
 1639 009e 8622     		movs	r2, #134
 1640 00a0 5200     		lsls	r2, r2, #1
 1641 00a2 1000     		movs	r0, r2
 1642 00a4 9847     		blx	r3
 1643              	.L85:
 659:Generated_Source\PSoC4/BLE_hts.c ****             htsLastEndHandle = &cyBle_htsc.charInfo[i].endHandle;
 1644              		.loc 1 659 0 is_stmt 1
 1645 00a6 0F23     		movs	r3, #15
 1646 00a8 FB18     		adds	r3, r7, r3
 1647 00aa 1A78     		ldrb	r2, [r3]
 1648 00ac 1300     		movs	r3, r2
 1649 00ae 9B00     		lsls	r3, r3, #2
 1650 00b0 9B18     		adds	r3, r3, r2
 1651 00b2 5B00     		lsls	r3, r3, #1
 1652 00b4 154A     		ldr	r2, .L90+8
 1653 00b6 9B18     		adds	r3, r3, r2
 1654 00b8 9A1D     		adds	r2, r3, #6
 1655 00ba 124B     		ldr	r3, .L90
 1656 00bc 1A60     		str	r2, [r3]
 660:Generated_Source\PSoC4/BLE_hts.c ****             break;
 1657              		.loc 1 660 0
 1658 00be 0BE0     		b	.L86
 1659              	.L83:
 654:Generated_Source\PSoC4/BLE_hts.c ****     {
 1660              		.loc 1 654 0 discriminator 2
 1661 00c0 0F23     		movs	r3, #15
 1662 00c2 FB18     		adds	r3, r7, r3
 1663 00c4 1A78     		ldrb	r2, [r3]
 1664 00c6 0F23     		movs	r3, #15
 1665 00c8 FB18     		adds	r3, r7, r3
ARM GAS  C:\Users\User\AppData\Local\Temp\ccmH1EJa.s 			page 42


 1666 00ca 0132     		adds	r2, r2, #1
 1667 00cc 1A70     		strb	r2, [r3]
 1668              	.L82:
 654:Generated_Source\PSoC4/BLE_hts.c ****     {
 1669              		.loc 1 654 0 is_stmt 0 discriminator 1
 1670 00ce 0F23     		movs	r3, #15
 1671 00d0 FB18     		adds	r3, r7, r3
 1672 00d2 1B78     		ldrb	r3, [r3]
 1673 00d4 032B     		cmp	r3, #3
 1674 00d6 AAD9     		bls	.L87
 1675              	.L86:
 661:Generated_Source\PSoC4/BLE_hts.c ****         }
 662:Generated_Source\PSoC4/BLE_hts.c ****     }
 663:Generated_Source\PSoC4/BLE_hts.c ****     
 664:Generated_Source\PSoC4/BLE_hts.c ****     /* Init characteristic endHandle to the Service endHandle.
 665:Generated_Source\PSoC4/BLE_hts.c ****        Characteristic endHandle will be updated to declaration
 666:Generated_Source\PSoC4/BLE_hts.c ****        handler of the following characteristic,
 667:Generated_Source\PSoC4/BLE_hts.c ****        in the following characteristic discovery procedure. */
 668:Generated_Source\PSoC4/BLE_hts.c ****     if(htsLastEndHandle != NULL)
 1676              		.loc 1 668 0 is_stmt 1
 1677 00d8 0A4B     		ldr	r3, .L90
 1678 00da 1B68     		ldr	r3, [r3]
 1679 00dc 002B     		cmp	r3, #0
 1680 00de 0DD0     		beq	.L89
 669:Generated_Source\PSoC4/BLE_hts.c ****     {
 670:Generated_Source\PSoC4/BLE_hts.c ****         *htsLastEndHandle = cyBle_serverInfo[cyBle_disCount].range.endHandle;
 1681              		.loc 1 670 0
 1682 00e0 084B     		ldr	r3, .L90
 1683 00e2 1A68     		ldr	r2, [r3]
 1684 00e4 0B4B     		ldr	r3, .L90+16
 1685 00e6 1B78     		ldrb	r3, [r3]
 1686 00e8 1800     		movs	r0, r3
 1687 00ea 0B49     		ldr	r1, .L90+20
 1688 00ec 0300     		movs	r3, r0
 1689 00ee 5B00     		lsls	r3, r3, #1
 1690 00f0 1B18     		adds	r3, r3, r0
 1691 00f2 5B00     		lsls	r3, r3, #1
 1692 00f4 CB18     		adds	r3, r1, r3
 1693 00f6 0233     		adds	r3, r3, #2
 1694 00f8 1B88     		ldrh	r3, [r3]
 1695 00fa 1380     		strh	r3, [r2]
 1696              	.L89:
 671:Generated_Source\PSoC4/BLE_hts.c ****     }    
 672:Generated_Source\PSoC4/BLE_hts.c ****     
 673:Generated_Source\PSoC4/BLE_hts.c **** }
 1697              		.loc 1 673 0
 1698 00fc C046     		nop
 1699 00fe BD46     		mov	sp, r7
 1700 0100 04B0     		add	sp, sp, #16
 1701              		@ sp needed
 1702 0102 80BD     		pop	{r7, pc}
 1703              	.L91:
 1704              		.align	2
 1705              	.L90:
 1706 0104 08000000 		.word	htsLastEndHandle.6943
 1707 0108 1C000000 		.word	cyBle_htscCharUuid.6941
 1708 010c 00000000 		.word	cyBle_htsc
ARM GAS  C:\Users\User\AppData\Local\Temp\ccmH1EJa.s 			page 43


 1709 0110 00000000 		.word	CyBle_ApplCallback
 1710 0114 00000000 		.word	cyBle_disCount
 1711 0118 00000000 		.word	cyBle_serverInfo
 1712              		.cfi_endproc
 1713              	.LFE12:
 1714              		.size	CyBle_HtscDiscoverCharacteristicsEventHandler, .-CyBle_HtscDiscoverCharacteristicsEventHandl
 1715              		.section	.text.CyBle_HtscDiscoverCharDescriptorsEventHandler,"ax",%progbits
 1716              		.align	2
 1717              		.global	CyBle_HtscDiscoverCharDescriptorsEventHandler
 1718              		.code	16
 1719              		.thumb_func
 1720              		.type	CyBle_HtscDiscoverCharDescriptorsEventHandler, %function
 1721              	CyBle_HtscDiscoverCharDescriptorsEventHandler:
 1722              	.LFB13:
 674:Generated_Source\PSoC4/BLE_hts.c **** 
 675:Generated_Source\PSoC4/BLE_hts.c **** 
 676:Generated_Source\PSoC4/BLE_hts.c **** /******************************************************************************
 677:Generated_Source\PSoC4/BLE_hts.c **** * Function Name: CyBle_HtscDiscoverCharDescriptorsEventHandler
 678:Generated_Source\PSoC4/BLE_hts.c **** ***************************************************************************//**
 679:Generated_Source\PSoC4/BLE_hts.c **** * 
 680:Generated_Source\PSoC4/BLE_hts.c **** *  This function is called on receiving a CYBLE_EVT_GATTC_FIND_INFO_RSP event.
 681:Generated_Source\PSoC4/BLE_hts.c **** *  Based on the descriptor UUID, an appropriate data structure is populated 
 682:Generated_Source\PSoC4/BLE_hts.c **** *  using the data received as part of the callback.
 683:Generated_Source\PSoC4/BLE_hts.c **** * 
 684:Generated_Source\PSoC4/BLE_hts.c **** *  \param discoveryCharIndex: The characteristic index which is discovered.
 685:Generated_Source\PSoC4/BLE_hts.c **** *  \param discDescrInfo:      The pointer to a descriptor information structure.
 686:Generated_Source\PSoC4/BLE_hts.c **** * 
 687:Generated_Source\PSoC4/BLE_hts.c **** ******************************************************************************/
 688:Generated_Source\PSoC4/BLE_hts.c **** void CyBle_HtscDiscoverCharDescriptorsEventHandler(CYBLE_HTS_CHAR_INDEX_T discoveryCharIndex, 
 689:Generated_Source\PSoC4/BLE_hts.c ****                                                    CYBLE_DISC_DESCR_INFO_T *discDescrInfo)
 690:Generated_Source\PSoC4/BLE_hts.c **** {
 1723              		.loc 1 690 0
 1724              		.cfi_startproc
 1725              		@ args = 0, pretend = 0, frame = 16
 1726              		@ frame_needed = 1, uses_anonymous_args = 0
 1727 0000 90B5     		push	{r4, r7, lr}
 1728              		.cfi_def_cfa_offset 12
 1729              		.cfi_offset 4, -12
 1730              		.cfi_offset 7, -8
 1731              		.cfi_offset 14, -4
 1732 0002 85B0     		sub	sp, sp, #20
 1733              		.cfi_def_cfa_offset 32
 1734 0004 00AF     		add	r7, sp, #0
 1735              		.cfi_def_cfa_register 7
 1736 0006 0200     		movs	r2, r0
 1737 0008 3960     		str	r1, [r7]
 1738 000a FB1D     		adds	r3, r7, #7
 1739 000c 1A70     		strb	r2, [r3]
 691:Generated_Source\PSoC4/BLE_hts.c ****     CYBLE_HTS_DESCR_INDEX_T locDescIndex;
 692:Generated_Source\PSoC4/BLE_hts.c **** 
 693:Generated_Source\PSoC4/BLE_hts.c ****     if(discDescrInfo->uuid.uuid16 == CYBLE_UUID_CHAR_CLIENT_CONFIG)
 1740              		.loc 1 693 0
 1741 000e 3B68     		ldr	r3, [r7]
 1742 0010 9B88     		ldrh	r3, [r3, #4]
 1743 0012 224A     		ldr	r2, .L99
 1744 0014 9342     		cmp	r3, r2
 1745 0016 04D1     		bne	.L93
ARM GAS  C:\Users\User\AppData\Local\Temp\ccmH1EJa.s 			page 44


 694:Generated_Source\PSoC4/BLE_hts.c ****     {
 695:Generated_Source\PSoC4/BLE_hts.c ****         locDescIndex = CYBLE_HTS_CCCD;
 1746              		.loc 1 695 0
 1747 0018 0F23     		movs	r3, #15
 1748 001a FB18     		adds	r3, r7, r3
 1749 001c 0022     		movs	r2, #0
 1750 001e 1A70     		strb	r2, [r3]
 1751 0020 0DE0     		b	.L94
 1752              	.L93:
 696:Generated_Source\PSoC4/BLE_hts.c ****     }
 697:Generated_Source\PSoC4/BLE_hts.c ****     else if(discDescrInfo->uuid.uuid16 == CYBLE_UUID_CHAR_VALID_RANGE)
 1753              		.loc 1 697 0
 1754 0022 3B68     		ldr	r3, [r7]
 1755 0024 9B88     		ldrh	r3, [r3, #4]
 1756 0026 1E4A     		ldr	r2, .L99+4
 1757 0028 9342     		cmp	r3, r2
 1758 002a 04D1     		bne	.L95
 698:Generated_Source\PSoC4/BLE_hts.c ****     {
 699:Generated_Source\PSoC4/BLE_hts.c ****         locDescIndex = CYBLE_HTS_VRD;
 1759              		.loc 1 699 0
 1760 002c 0F23     		movs	r3, #15
 1761 002e FB18     		adds	r3, r7, r3
 1762 0030 0122     		movs	r2, #1
 1763 0032 1A70     		strb	r2, [r3]
 1764 0034 03E0     		b	.L94
 1765              	.L95:
 700:Generated_Source\PSoC4/BLE_hts.c ****     }
 701:Generated_Source\PSoC4/BLE_hts.c ****     else    /* Not supported descriptor */
 702:Generated_Source\PSoC4/BLE_hts.c ****     {
 703:Generated_Source\PSoC4/BLE_hts.c ****         locDescIndex = CYBLE_HTS_DESCR_COUNT;
 1766              		.loc 1 703 0
 1767 0036 0F23     		movs	r3, #15
 1768 0038 FB18     		adds	r3, r7, r3
 1769 003a 0222     		movs	r2, #2
 1770 003c 1A70     		strb	r2, [r3]
 1771              	.L94:
 704:Generated_Source\PSoC4/BLE_hts.c ****     }
 705:Generated_Source\PSoC4/BLE_hts.c **** 
 706:Generated_Source\PSoC4/BLE_hts.c ****     if(locDescIndex < CYBLE_HTS_DESCR_COUNT)
 1772              		.loc 1 706 0
 1773 003e 0F23     		movs	r3, #15
 1774 0040 FB18     		adds	r3, r7, r3
 1775 0042 1B78     		ldrb	r3, [r3]
 1776 0044 012B     		cmp	r3, #1
 1777 0046 25D8     		bhi	.L98
 707:Generated_Source\PSoC4/BLE_hts.c ****     {
 708:Generated_Source\PSoC4/BLE_hts.c ****         if(cyBle_htsc.charInfo[discoveryCharIndex].descrHandle[locDescIndex] == CYBLE_GATT_INVALID_
 1778              		.loc 1 708 0
 1779 0048 FB1D     		adds	r3, r7, #7
 1780 004a 1A78     		ldrb	r2, [r3]
 1781 004c 0F23     		movs	r3, #15
 1782 004e FB18     		adds	r3, r7, r3
 1783 0050 1878     		ldrb	r0, [r3]
 1784 0052 1449     		ldr	r1, .L99+8
 1785 0054 1300     		movs	r3, r2
 1786 0056 9B00     		lsls	r3, r3, #2
 1787 0058 9B18     		adds	r3, r3, r2
ARM GAS  C:\Users\User\AppData\Local\Temp\ccmH1EJa.s 			page 45


 1788 005a 1B18     		adds	r3, r3, r0
 1789 005c 5B00     		lsls	r3, r3, #1
 1790 005e 5B5A     		ldrh	r3, [r3, r1]
 1791 0060 002B     		cmp	r3, #0
 1792 0062 0FD1     		bne	.L97
 709:Generated_Source\PSoC4/BLE_hts.c ****         {
 710:Generated_Source\PSoC4/BLE_hts.c ****             cyBle_htsc.charInfo[discoveryCharIndex].descrHandle[locDescIndex] = discDescrInfo->desc
 1793              		.loc 1 710 0
 1794 0064 FB1D     		adds	r3, r7, #7
 1795 0066 1A78     		ldrb	r2, [r3]
 1796 0068 0F23     		movs	r3, #15
 1797 006a FB18     		adds	r3, r7, r3
 1798 006c 1878     		ldrb	r0, [r3]
 1799 006e 3B68     		ldr	r3, [r7]
 1800 0070 5C88     		ldrh	r4, [r3, #2]
 1801 0072 0C49     		ldr	r1, .L99+8
 1802 0074 1300     		movs	r3, r2
 1803 0076 9B00     		lsls	r3, r3, #2
 1804 0078 9B18     		adds	r3, r3, r2
 1805 007a 1B18     		adds	r3, r3, r0
 1806 007c 5B00     		lsls	r3, r3, #1
 1807 007e 221C     		adds	r2, r4, #0
 1808 0080 5A52     		strh	r2, [r3, r1]
 711:Generated_Source\PSoC4/BLE_hts.c ****         }
 712:Generated_Source\PSoC4/BLE_hts.c ****         else    /* Duplication of descriptor */
 713:Generated_Source\PSoC4/BLE_hts.c ****         {
 714:Generated_Source\PSoC4/BLE_hts.c ****             CyBle_ApplCallback(CYBLE_EVT_GATTC_DESCR_DUPLICATION, &discDescrInfo->uuid);
 715:Generated_Source\PSoC4/BLE_hts.c ****         }
 716:Generated_Source\PSoC4/BLE_hts.c ****     }
 717:Generated_Source\PSoC4/BLE_hts.c **** }
 1809              		.loc 1 717 0
 1810 0082 07E0     		b	.L98
 1811              	.L97:
 714:Generated_Source\PSoC4/BLE_hts.c ****         }
 1812              		.loc 1 714 0
 1813 0084 084B     		ldr	r3, .L99+12
 1814 0086 1B68     		ldr	r3, [r3]
 1815 0088 3A68     		ldr	r2, [r7]
 1816 008a 111D     		adds	r1, r2, #4
 1817 008c 0E22     		movs	r2, #14
 1818 008e FF32     		adds	r2, r2, #255
 1819 0090 1000     		movs	r0, r2
 1820 0092 9847     		blx	r3
 1821              	.L98:
 1822              		.loc 1 717 0
 1823 0094 C046     		nop
 1824 0096 BD46     		mov	sp, r7
 1825 0098 05B0     		add	sp, sp, #20
 1826              		@ sp needed
 1827 009a 90BD     		pop	{r4, r7, pc}
 1828              	.L100:
 1829              		.align	2
 1830              	.L99:
 1831 009c 02290000 		.word	10498
 1832 00a0 06290000 		.word	10502
 1833 00a4 00000000 		.word	cyBle_htsc
 1834 00a8 00000000 		.word	CyBle_ApplCallback
ARM GAS  C:\Users\User\AppData\Local\Temp\ccmH1EJa.s 			page 46


 1835              		.cfi_endproc
 1836              	.LFE13:
 1837              		.size	CyBle_HtscDiscoverCharDescriptorsEventHandler, .-CyBle_HtscDiscoverCharDescriptorsEventHandl
 1838              		.section	.text.CyBle_HtscSetCharacteristicValue,"ax",%progbits
 1839              		.align	2
 1840              		.global	CyBle_HtscSetCharacteristicValue
 1841              		.code	16
 1842              		.thumb_func
 1843              		.type	CyBle_HtscSetCharacteristicValue, %function
 1844              	CyBle_HtscSetCharacteristicValue:
 1845              	.LFB14:
 718:Generated_Source\PSoC4/BLE_hts.c **** 
 719:Generated_Source\PSoC4/BLE_hts.c **** 
 720:Generated_Source\PSoC4/BLE_hts.c **** /******************************************************************************
 721:Generated_Source\PSoC4/BLE_hts.c **** * Function Name: CyBle_HtscSetCharacteristicValue
 722:Generated_Source\PSoC4/BLE_hts.c **** ***************************************************************************//**
 723:Generated_Source\PSoC4/BLE_hts.c **** * 
 724:Generated_Source\PSoC4/BLE_hts.c **** *  This function is used to write the characteristic (which is identified by
 725:Generated_Source\PSoC4/BLE_hts.c **** *  charIndex) value attribute in the server. As a result a Write Request is 
 726:Generated_Source\PSoC4/BLE_hts.c **** *  sent to the GATT Server and on successful execution of the request on the 
 727:Generated_Source\PSoC4/BLE_hts.c **** *  Server side the CYBLE_EVT_HTSS_CHAR_WRITE events is generated.
 728:Generated_Source\PSoC4/BLE_hts.c **** *  On successful request execution on the Server side the Write Response is 
 729:Generated_Source\PSoC4/BLE_hts.c **** *  sent to the Client.
 730:Generated_Source\PSoC4/BLE_hts.c **** * 
 731:Generated_Source\PSoC4/BLE_hts.c **** *  \param connHandle: The connection handle.
 732:Generated_Source\PSoC4/BLE_hts.c **** *  \param charIndex:  The index of the service characteristic.
 733:Generated_Source\PSoC4/BLE_hts.c **** *  \param attrSize:   The size of the characteristic value attribute.
 734:Generated_Source\PSoC4/BLE_hts.c **** *  \param attrValue:  The pointer to the characteristic value data that should  
 735:Generated_Source\PSoC4/BLE_hts.c **** *                     be sent to the server device.
 736:Generated_Source\PSoC4/BLE_hts.c **** * 
 737:Generated_Source\PSoC4/BLE_hts.c **** * \return
 738:Generated_Source\PSoC4/BLE_hts.c **** *  Return value is of type CYBLE_API_RESULT_T.
 739:Generated_Source\PSoC4/BLE_hts.c **** *  * CYBLE_ERROR_OK - The request was sent successfully.
 740:Generated_Source\PSoC4/BLE_hts.c **** *  * CYBLE_ERROR_INVALID_PARAMETER - Validation of the input parameters failed.
 741:Generated_Source\PSoC4/BLE_hts.c **** *  * CYBLE_ERROR_MEMORY_ALLOCATION_FAILED - Memory allocation failed.
 742:Generated_Source\PSoC4/BLE_hts.c **** *  * CYBLE_ERROR_INVALID_STATE - Connection with the server is not established.
 743:Generated_Source\PSoC4/BLE_hts.c **** *  * CYBLE_ERROR_GATT_DB_INVALID_ATTR_HANDLE - The peer device doesn't have
 744:Generated_Source\PSoC4/BLE_hts.c **** *                                              the particular characteristic.
 745:Generated_Source\PSoC4/BLE_hts.c **** *  * CYBLE_ERROR_INVALID_OPERATION - Operation is invalid for this
 746:Generated_Source\PSoC4/BLE_hts.c **** *                                    characteristic.
 747:Generated_Source\PSoC4/BLE_hts.c **** *
 748:Generated_Source\PSoC4/BLE_hts.c **** * \events
 749:Generated_Source\PSoC4/BLE_hts.c **** *  In case of successful execution (return value = CYBLE_ERROR_OK)
 750:Generated_Source\PSoC4/BLE_hts.c **** *  the next events can appear: \n
 751:Generated_Source\PSoC4/BLE_hts.c **** *   If the HTS service-specific callback is registered 
 752:Generated_Source\PSoC4/BLE_hts.c **** *      (with CyBle_HtsRegisterAttrCallback):
 753:Generated_Source\PSoC4/BLE_hts.c **** *  * CYBLE_EVT_HTSC_WRITE_CHAR_RESPONSE - In case if the requested attribute is
 754:Generated_Source\PSoC4/BLE_hts.c **** *                                successfully wrote on the peer device,
 755:Generated_Source\PSoC4/BLE_hts.c **** *                                the details (char index, etc.) are 
 756:Generated_Source\PSoC4/BLE_hts.c **** *                                provided with event parameter structure
 757:Generated_Source\PSoC4/BLE_hts.c **** *                                of type CYBLE_HTS_CHAR_VALUE_T.
 758:Generated_Source\PSoC4/BLE_hts.c **** *  .
 759:Generated_Source\PSoC4/BLE_hts.c **** *   Otherwise (if the HTS service-specific callback is not registered):
 760:Generated_Source\PSoC4/BLE_hts.c **** *  * CYBLE_EVT_GATTC_WRITE_RSP - In case if the requested attribute is 
 761:Generated_Source\PSoC4/BLE_hts.c **** *                                successfully wrote on the peer device.
 762:Generated_Source\PSoC4/BLE_hts.c **** *  * CYBLE_EVT_GATTC_ERROR_RSP - In case if there some trouble with the 
 763:Generated_Source\PSoC4/BLE_hts.c **** *                                requested attribute on the peer device,
ARM GAS  C:\Users\User\AppData\Local\Temp\ccmH1EJa.s 			page 47


 764:Generated_Source\PSoC4/BLE_hts.c **** *                                the details are provided with event parameters 
 765:Generated_Source\PSoC4/BLE_hts.c **** *                                structure (CYBLE_GATTC_ERR_RSP_PARAM_T).
 766:Generated_Source\PSoC4/BLE_hts.c **** *
 767:Generated_Source\PSoC4/BLE_hts.c **** ******************************************************************************/
 768:Generated_Source\PSoC4/BLE_hts.c **** CYBLE_API_RESULT_T CyBle_HtscSetCharacteristicValue(CYBLE_CONN_HANDLE_T connHandle, CYBLE_HTS_CHAR_
 769:Generated_Source\PSoC4/BLE_hts.c ****     uint8 attrSize, uint8 * attrValue)
 770:Generated_Source\PSoC4/BLE_hts.c **** {
 1846              		.loc 1 770 0
 1847              		.cfi_startproc
 1848              		@ args = 0, pretend = 0, frame = 32
 1849              		@ frame_needed = 1, uses_anonymous_args = 0
 1850 0000 90B5     		push	{r4, r7, lr}
 1851              		.cfi_def_cfa_offset 12
 1852              		.cfi_offset 4, -12
 1853              		.cfi_offset 7, -8
 1854              		.cfi_offset 14, -4
 1855 0002 89B0     		sub	sp, sp, #36
 1856              		.cfi_def_cfa_offset 48
 1857 0004 00AF     		add	r7, sp, #0
 1858              		.cfi_def_cfa_register 7
 1859 0006 0C24     		movs	r4, #12
 1860 0008 3C19     		adds	r4, r7, r4
 1861 000a 2080     		strh	r0, [r4]
 1862 000c 0800     		movs	r0, r1
 1863 000e 1100     		movs	r1, r2
 1864 0010 7B60     		str	r3, [r7, #4]
 1865 0012 0B23     		movs	r3, #11
 1866 0014 FB18     		adds	r3, r7, r3
 1867 0016 021C     		adds	r2, r0, #0
 1868 0018 1A70     		strb	r2, [r3]
 1869 001a 0A23     		movs	r3, #10
 1870 001c FB18     		adds	r3, r7, r3
 1871 001e 0A1C     		adds	r2, r1, #0
 1872 0020 1A70     		strb	r2, [r3]
 771:Generated_Source\PSoC4/BLE_hts.c ****     CYBLE_API_RESULT_T apiResult;
 772:Generated_Source\PSoC4/BLE_hts.c ****     CYBLE_GATT_HANDLE_VALUE_PAIR_T writeReqParam;
 773:Generated_Source\PSoC4/BLE_hts.c **** 
 774:Generated_Source\PSoC4/BLE_hts.c ****     if(CyBle_GetClientState() != CYBLE_CLIENT_STATE_DISCOVERED)
 1873              		.loc 1 774 0
 1874 0022 2E4B     		ldr	r3, .L108
 1875 0024 1B78     		ldrb	r3, [r3]
 1876 0026 052B     		cmp	r3, #5
 1877 0028 05D0     		beq	.L102
 775:Generated_Source\PSoC4/BLE_hts.c ****     {
 776:Generated_Source\PSoC4/BLE_hts.c ****         apiResult = CYBLE_ERROR_INVALID_STATE;
 1878              		.loc 1 776 0
 1879 002a 1E23     		movs	r3, #30
 1880 002c FB18     		adds	r3, r7, r3
 1881 002e 0422     		movs	r2, #4
 1882 0030 FF32     		adds	r2, r2, #255
 1883 0032 1A80     		strh	r2, [r3]
 1884 0034 4AE0     		b	.L103
 1885              	.L102:
 777:Generated_Source\PSoC4/BLE_hts.c ****     }
 778:Generated_Source\PSoC4/BLE_hts.c ****     else if(charIndex >= CYBLE_HTS_CHAR_COUNT)
 1886              		.loc 1 778 0
 1887 0036 0B23     		movs	r3, #11
ARM GAS  C:\Users\User\AppData\Local\Temp\ccmH1EJa.s 			page 48


 1888 0038 FB18     		adds	r3, r7, r3
 1889 003a 1B78     		ldrb	r3, [r3]
 1890 003c 032B     		cmp	r3, #3
 1891 003e 04D9     		bls	.L104
 779:Generated_Source\PSoC4/BLE_hts.c ****     {
 780:Generated_Source\PSoC4/BLE_hts.c ****         apiResult = CYBLE_ERROR_INVALID_PARAMETER;
 1892              		.loc 1 780 0
 1893 0040 1E23     		movs	r3, #30
 1894 0042 FB18     		adds	r3, r7, r3
 1895 0044 0122     		movs	r2, #1
 1896 0046 1A80     		strh	r2, [r3]
 1897 0048 40E0     		b	.L103
 1898              	.L104:
 781:Generated_Source\PSoC4/BLE_hts.c ****     }
 782:Generated_Source\PSoC4/BLE_hts.c ****     else if(cyBle_htsc.charInfo[charIndex].valueHandle != CYBLE_GATT_INVALID_ATTR_HANDLE_VALUE)
 1899              		.loc 1 782 0
 1900 004a 0B23     		movs	r3, #11
 1901 004c FB18     		adds	r3, r7, r3
 1902 004e 1A78     		ldrb	r2, [r3]
 1903 0050 2349     		ldr	r1, .L108+4
 1904 0052 1300     		movs	r3, r2
 1905 0054 9B00     		lsls	r3, r3, #2
 1906 0056 9B18     		adds	r3, r3, r2
 1907 0058 5B00     		lsls	r3, r3, #1
 1908 005a CB18     		adds	r3, r1, r3
 1909 005c 0433     		adds	r3, r3, #4
 1910 005e 1B88     		ldrh	r3, [r3]
 1911 0060 002B     		cmp	r3, #0
 1912 0062 2FD0     		beq	.L105
 783:Generated_Source\PSoC4/BLE_hts.c ****     {
 784:Generated_Source\PSoC4/BLE_hts.c ****         writeReqParam.attrHandle = cyBle_htsc.charInfo[charIndex].valueHandle;
 1913              		.loc 1 784 0
 1914 0064 0B23     		movs	r3, #11
 1915 0066 FB18     		adds	r3, r7, r3
 1916 0068 1A78     		ldrb	r2, [r3]
 1917 006a 1D49     		ldr	r1, .L108+4
 1918 006c 1300     		movs	r3, r2
 1919 006e 9B00     		lsls	r3, r3, #2
 1920 0070 9B18     		adds	r3, r3, r2
 1921 0072 5B00     		lsls	r3, r3, #1
 1922 0074 CB18     		adds	r3, r1, r3
 1923 0076 0433     		adds	r3, r3, #4
 1924 0078 1A88     		ldrh	r2, [r3]
 1925 007a 1023     		movs	r3, #16
 1926 007c FB18     		adds	r3, r7, r3
 1927 007e 1A81     		strh	r2, [r3, #8]
 785:Generated_Source\PSoC4/BLE_hts.c ****         writeReqParam.value.val = attrValue;
 1928              		.loc 1 785 0
 1929 0080 1023     		movs	r3, #16
 1930 0082 FB18     		adds	r3, r7, r3
 1931 0084 7A68     		ldr	r2, [r7, #4]
 1932 0086 1A60     		str	r2, [r3]
 786:Generated_Source\PSoC4/BLE_hts.c ****         writeReqParam.value.len = attrSize;
 1933              		.loc 1 786 0
 1934 0088 0A23     		movs	r3, #10
 1935 008a FB18     		adds	r3, r7, r3
 1936 008c 1B78     		ldrb	r3, [r3]
ARM GAS  C:\Users\User\AppData\Local\Temp\ccmH1EJa.s 			page 49


 1937 008e 9AB2     		uxth	r2, r3
 1938 0090 1023     		movs	r3, #16
 1939 0092 FB18     		adds	r3, r7, r3
 1940 0094 9A80     		strh	r2, [r3, #4]
 787:Generated_Source\PSoC4/BLE_hts.c **** 
 788:Generated_Source\PSoC4/BLE_hts.c ****         apiResult = CyBle_GattcWriteCharacteristicValue(connHandle, &writeReqParam);
 1941              		.loc 1 788 0
 1942 0096 1E23     		movs	r3, #30
 1943 0098 FC18     		adds	r4, r7, r3
 1944 009a 1023     		movs	r3, #16
 1945 009c FA18     		adds	r2, r7, r3
 1946 009e 0C23     		movs	r3, #12
 1947 00a0 FB18     		adds	r3, r7, r3
 1948 00a2 1100     		movs	r1, r2
 1949 00a4 1868     		ldr	r0, [r3]
 1950 00a6 FFF7FEFF 		bl	CyBle_GattcWriteCharacteristicValue
 1951 00aa 0300     		movs	r3, r0
 1952 00ac 2380     		strh	r3, [r4]
 789:Generated_Source\PSoC4/BLE_hts.c ****         /* Save handle to support service specific write response from device */
 790:Generated_Source\PSoC4/BLE_hts.c ****         if(apiResult == CYBLE_ERROR_OK)
 1953              		.loc 1 790 0
 1954 00ae 1E23     		movs	r3, #30
 1955 00b0 FB18     		adds	r3, r7, r3
 1956 00b2 1B88     		ldrh	r3, [r3]
 1957 00b4 002B     		cmp	r3, #0
 1958 00b6 09D1     		bne	.L103
 791:Generated_Source\PSoC4/BLE_hts.c ****         {
 792:Generated_Source\PSoC4/BLE_hts.c ****             cyBle_htscReqHandle = writeReqParam.attrHandle;
 1959              		.loc 1 792 0
 1960 00b8 1023     		movs	r3, #16
 1961 00ba FB18     		adds	r3, r7, r3
 1962 00bc 1A89     		ldrh	r2, [r3, #8]
 1963 00be 094B     		ldr	r3, .L108+8
 1964 00c0 1A80     		strh	r2, [r3]
 1965 00c2 03E0     		b	.L103
 1966              	.L105:
 793:Generated_Source\PSoC4/BLE_hts.c ****         }
 794:Generated_Source\PSoC4/BLE_hts.c ****     }
 795:Generated_Source\PSoC4/BLE_hts.c ****     else
 796:Generated_Source\PSoC4/BLE_hts.c ****     {
 797:Generated_Source\PSoC4/BLE_hts.c ****         apiResult = CYBLE_ERROR_GATT_DB_INVALID_ATTR_HANDLE;
 1967              		.loc 1 797 0
 1968 00c4 1E23     		movs	r3, #30
 1969 00c6 FB18     		adds	r3, r7, r3
 1970 00c8 1322     		movs	r2, #19
 1971 00ca 1A80     		strh	r2, [r3]
 1972              	.L103:
 798:Generated_Source\PSoC4/BLE_hts.c ****     }
 799:Generated_Source\PSoC4/BLE_hts.c ****     
 800:Generated_Source\PSoC4/BLE_hts.c ****     return (apiResult);
 1973              		.loc 1 800 0
 1974 00cc 1E23     		movs	r3, #30
 1975 00ce FB18     		adds	r3, r7, r3
 1976 00d0 1B88     		ldrh	r3, [r3]
 801:Generated_Source\PSoC4/BLE_hts.c **** }
 1977              		.loc 1 801 0
 1978 00d2 1800     		movs	r0, r3
ARM GAS  C:\Users\User\AppData\Local\Temp\ccmH1EJa.s 			page 50


 1979 00d4 BD46     		mov	sp, r7
 1980 00d6 09B0     		add	sp, sp, #36
 1981              		@ sp needed
 1982 00d8 90BD     		pop	{r4, r7, pc}
 1983              	.L109:
 1984 00da C046     		.align	2
 1985              	.L108:
 1986 00dc 00000000 		.word	cyBle_clientState
 1987 00e0 00000000 		.word	cyBle_htsc
 1988 00e4 06000000 		.word	cyBle_htscReqHandle
 1989              		.cfi_endproc
 1990              	.LFE14:
 1991              		.size	CyBle_HtscSetCharacteristicValue, .-CyBle_HtscSetCharacteristicValue
 1992              		.section	.text.CyBle_HtscGetCharacteristicValue,"ax",%progbits
 1993              		.align	2
 1994              		.global	CyBle_HtscGetCharacteristicValue
 1995              		.code	16
 1996              		.thumb_func
 1997              		.type	CyBle_HtscGetCharacteristicValue, %function
 1998              	CyBle_HtscGetCharacteristicValue:
 1999              	.LFB15:
 802:Generated_Source\PSoC4/BLE_hts.c **** 
 803:Generated_Source\PSoC4/BLE_hts.c **** 
 804:Generated_Source\PSoC4/BLE_hts.c **** /******************************************************************************
 805:Generated_Source\PSoC4/BLE_hts.c **** * Function Name: CyBle_HtscGetCharacteristicValue
 806:Generated_Source\PSoC4/BLE_hts.c **** ***************************************************************************//**
 807:Generated_Source\PSoC4/BLE_hts.c **** * 
 808:Generated_Source\PSoC4/BLE_hts.c **** *  This function is used to read a characteristic value, which is a value 
 809:Generated_Source\PSoC4/BLE_hts.c **** *  identified by charIndex, from the server.
 810:Generated_Source\PSoC4/BLE_hts.c **** * 
 811:Generated_Source\PSoC4/BLE_hts.c **** *  \param connHandle: The connection handle.
 812:Generated_Source\PSoC4/BLE_hts.c **** *  \param charIndex:  The index of the service characteristic.
 813:Generated_Source\PSoC4/BLE_hts.c **** * 
 814:Generated_Source\PSoC4/BLE_hts.c **** * \return
 815:Generated_Source\PSoC4/BLE_hts.c **** *  Return value is of type CYBLE_API_RESULT_T.
 816:Generated_Source\PSoC4/BLE_hts.c **** *  * CYBLE_ERROR_OK - The read request was sent successfully. 
 817:Generated_Source\PSoC4/BLE_hts.c **** *  * CYBLE_ERROR_INVALID_PARAMETER - Validation of the input parameters failed.
 818:Generated_Source\PSoC4/BLE_hts.c **** *  * CYBLE_ERROR_GATT_DB_INVALID_ATTR_HANDLE - The peer device doesn't have
 819:Generated_Source\PSoC4/BLE_hts.c **** *                                              the particular characteristic.
 820:Generated_Source\PSoC4/BLE_hts.c **** *  * CYBLE_ERROR_MEMORY_ALLOCATION_FAILED - Memory allocation failed.
 821:Generated_Source\PSoC4/BLE_hts.c **** *  * CYBLE_ERROR_INVALID_STATE - Connection with the server is not established.
 822:Generated_Source\PSoC4/BLE_hts.c **** *  * CYBLE_ERROR_INVALID_OPERATION - Operation is invalid for this 
 823:Generated_Source\PSoC4/BLE_hts.c **** *                                    characteristic.
 824:Generated_Source\PSoC4/BLE_hts.c **** *
 825:Generated_Source\PSoC4/BLE_hts.c **** * \events
 826:Generated_Source\PSoC4/BLE_hts.c **** *  In case of successful execution (return value = CYBLE_ERROR_OK)
 827:Generated_Source\PSoC4/BLE_hts.c **** *  the next events can appear: \n
 828:Generated_Source\PSoC4/BLE_hts.c **** *   If the HTS service-specific callback is registered 
 829:Generated_Source\PSoC4/BLE_hts.c **** *      (with CyBle_HtsRegisterAttrCallback):
 830:Generated_Source\PSoC4/BLE_hts.c **** *  * CYBLE_EVT_HTSC_READ_CHAR_RESPONSE - In case if the requested attribute is
 831:Generated_Source\PSoC4/BLE_hts.c **** *                                successfully wrote on the peer device,
 832:Generated_Source\PSoC4/BLE_hts.c **** *                                the details (char index , value, etc.) are 
 833:Generated_Source\PSoC4/BLE_hts.c **** *                                provided with event parameter structure
 834:Generated_Source\PSoC4/BLE_hts.c **** *                                of type CYBLE_HTS_CHAR_VALUE_T.
 835:Generated_Source\PSoC4/BLE_hts.c **** *  .
 836:Generated_Source\PSoC4/BLE_hts.c **** *   Otherwise (if the HTS service-specific callback is not registered):
 837:Generated_Source\PSoC4/BLE_hts.c **** *  * CYBLE_EVT_GATTC_READ_RSP - In case if the requested attribute is 
ARM GAS  C:\Users\User\AppData\Local\Temp\ccmH1EJa.s 			page 51


 838:Generated_Source\PSoC4/BLE_hts.c **** *                               successfully read on the peer device,
 839:Generated_Source\PSoC4/BLE_hts.c **** *                               the details (handle, value, etc.) are 
 840:Generated_Source\PSoC4/BLE_hts.c **** *                               provided with event parameters 
 841:Generated_Source\PSoC4/BLE_hts.c **** *                               structure (CYBLE_GATTC_READ_RSP_PARAM_T).
 842:Generated_Source\PSoC4/BLE_hts.c **** *  * CYBLE_EVT_GATTC_ERROR_RSP - In case if there some trouble with the 
 843:Generated_Source\PSoC4/BLE_hts.c **** *                                requested attribute on the peer device,
 844:Generated_Source\PSoC4/BLE_hts.c **** *                                the details are provided with event parameters 
 845:Generated_Source\PSoC4/BLE_hts.c **** *                                structure (CYBLE_GATTC_ERR_RSP_PARAM_T).
 846:Generated_Source\PSoC4/BLE_hts.c **** *
 847:Generated_Source\PSoC4/BLE_hts.c **** ******************************************************************************/
 848:Generated_Source\PSoC4/BLE_hts.c **** CYBLE_API_RESULT_T CyBle_HtscGetCharacteristicValue(CYBLE_CONN_HANDLE_T connHandle, CYBLE_HTS_CHAR_
 849:Generated_Source\PSoC4/BLE_hts.c **** {
 2000              		.loc 1 849 0
 2001              		.cfi_startproc
 2002              		@ args = 0, pretend = 0, frame = 16
 2003              		@ frame_needed = 1, uses_anonymous_args = 0
 2004 0000 90B5     		push	{r4, r7, lr}
 2005              		.cfi_def_cfa_offset 12
 2006              		.cfi_offset 4, -12
 2007              		.cfi_offset 7, -8
 2008              		.cfi_offset 14, -4
 2009 0002 85B0     		sub	sp, sp, #20
 2010              		.cfi_def_cfa_offset 32
 2011 0004 00AF     		add	r7, sp, #0
 2012              		.cfi_def_cfa_register 7
 2013 0006 3B1D     		adds	r3, r7, #4
 2014 0008 1880     		strh	r0, [r3]
 2015 000a 0A00     		movs	r2, r1
 2016 000c FB1C     		adds	r3, r7, #3
 2017 000e 1A70     		strb	r2, [r3]
 850:Generated_Source\PSoC4/BLE_hts.c ****     CYBLE_API_RESULT_T apiResult;
 851:Generated_Source\PSoC4/BLE_hts.c **** 
 852:Generated_Source\PSoC4/BLE_hts.c ****     if(CyBle_GetClientState() != CYBLE_CLIENT_STATE_DISCOVERED)
 2018              		.loc 1 852 0
 2019 0010 274B     		ldr	r3, .L117
 2020 0012 1B78     		ldrb	r3, [r3]
 2021 0014 052B     		cmp	r3, #5
 2022 0016 05D0     		beq	.L111
 853:Generated_Source\PSoC4/BLE_hts.c ****     {
 854:Generated_Source\PSoC4/BLE_hts.c ****         apiResult = CYBLE_ERROR_INVALID_STATE;
 2023              		.loc 1 854 0
 2024 0018 0E23     		movs	r3, #14
 2025 001a FB18     		adds	r3, r7, r3
 2026 001c 0422     		movs	r2, #4
 2027 001e FF32     		adds	r2, r2, #255
 2028 0020 1A80     		strh	r2, [r3]
 2029 0022 3DE0     		b	.L112
 2030              	.L111:
 855:Generated_Source\PSoC4/BLE_hts.c ****     }
 856:Generated_Source\PSoC4/BLE_hts.c ****     else if(charIndex >= CYBLE_HTS_CHAR_COUNT)
 2031              		.loc 1 856 0
 2032 0024 FB1C     		adds	r3, r7, #3
 2033 0026 1B78     		ldrb	r3, [r3]
 2034 0028 032B     		cmp	r3, #3
 2035 002a 04D9     		bls	.L113
 857:Generated_Source\PSoC4/BLE_hts.c ****     {
 858:Generated_Source\PSoC4/BLE_hts.c ****         apiResult = CYBLE_ERROR_INVALID_PARAMETER;
ARM GAS  C:\Users\User\AppData\Local\Temp\ccmH1EJa.s 			page 52


 2036              		.loc 1 858 0
 2037 002c 0E23     		movs	r3, #14
 2038 002e FB18     		adds	r3, r7, r3
 2039 0030 0122     		movs	r2, #1
 2040 0032 1A80     		strh	r2, [r3]
 2041 0034 34E0     		b	.L112
 2042              	.L113:
 859:Generated_Source\PSoC4/BLE_hts.c ****     }
 860:Generated_Source\PSoC4/BLE_hts.c ****     else if(cyBle_htsc.charInfo[charIndex].valueHandle != CYBLE_GATT_INVALID_ATTR_HANDLE_VALUE)
 2043              		.loc 1 860 0
 2044 0036 FB1C     		adds	r3, r7, #3
 2045 0038 1A78     		ldrb	r2, [r3]
 2046 003a 1E49     		ldr	r1, .L117+4
 2047 003c 1300     		movs	r3, r2
 2048 003e 9B00     		lsls	r3, r3, #2
 2049 0040 9B18     		adds	r3, r3, r2
 2050 0042 5B00     		lsls	r3, r3, #1
 2051 0044 CB18     		adds	r3, r1, r3
 2052 0046 0433     		adds	r3, r3, #4
 2053 0048 1B88     		ldrh	r3, [r3]
 2054 004a 002B     		cmp	r3, #0
 2055 004c 24D0     		beq	.L114
 861:Generated_Source\PSoC4/BLE_hts.c ****     {
 862:Generated_Source\PSoC4/BLE_hts.c ****         apiResult = CyBle_GattcReadCharacteristicValue(connHandle, 
 2056              		.loc 1 862 0
 2057 004e FB1C     		adds	r3, r7, #3
 2058 0050 1A78     		ldrb	r2, [r3]
 2059 0052 1849     		ldr	r1, .L117+4
 2060 0054 1300     		movs	r3, r2
 2061 0056 9B00     		lsls	r3, r3, #2
 2062 0058 9B18     		adds	r3, r3, r2
 2063 005a 5B00     		lsls	r3, r3, #1
 2064 005c CB18     		adds	r3, r1, r3
 2065 005e 0433     		adds	r3, r3, #4
 2066 0060 1A88     		ldrh	r2, [r3]
 2067 0062 0E23     		movs	r3, #14
 2068 0064 FC18     		adds	r4, r7, r3
 2069 0066 3B1D     		adds	r3, r7, #4
 2070 0068 1100     		movs	r1, r2
 2071 006a 1868     		ldr	r0, [r3]
 2072 006c FFF7FEFF 		bl	CyBle_GattcReadCharacteristicValue
 2073 0070 0300     		movs	r3, r0
 2074 0072 2380     		strh	r3, [r4]
 863:Generated_Source\PSoC4/BLE_hts.c ****                                                        cyBle_htsc.charInfo[charIndex].valueHandle);
 864:Generated_Source\PSoC4/BLE_hts.c ****         /* Save handle to support service specific read response from device */
 865:Generated_Source\PSoC4/BLE_hts.c ****         if(apiResult == CYBLE_ERROR_OK)
 2075              		.loc 1 865 0
 2076 0074 0E23     		movs	r3, #14
 2077 0076 FB18     		adds	r3, r7, r3
 2078 0078 1B88     		ldrh	r3, [r3]
 2079 007a 002B     		cmp	r3, #0
 2080 007c 10D1     		bne	.L112
 866:Generated_Source\PSoC4/BLE_hts.c ****         {
 867:Generated_Source\PSoC4/BLE_hts.c ****             cyBle_htscReqHandle = cyBle_htsc.charInfo[charIndex].valueHandle;
 2081              		.loc 1 867 0
 2082 007e FB1C     		adds	r3, r7, #3
 2083 0080 1A78     		ldrb	r2, [r3]
ARM GAS  C:\Users\User\AppData\Local\Temp\ccmH1EJa.s 			page 53


 2084 0082 0C49     		ldr	r1, .L117+4
 2085 0084 1300     		movs	r3, r2
 2086 0086 9B00     		lsls	r3, r3, #2
 2087 0088 9B18     		adds	r3, r3, r2
 2088 008a 5B00     		lsls	r3, r3, #1
 2089 008c CB18     		adds	r3, r1, r3
 2090 008e 0433     		adds	r3, r3, #4
 2091 0090 1A88     		ldrh	r2, [r3]
 2092 0092 094B     		ldr	r3, .L117+8
 2093 0094 1A80     		strh	r2, [r3]
 2094 0096 03E0     		b	.L112
 2095              	.L114:
 868:Generated_Source\PSoC4/BLE_hts.c ****         }
 869:Generated_Source\PSoC4/BLE_hts.c ****     }
 870:Generated_Source\PSoC4/BLE_hts.c ****     else
 871:Generated_Source\PSoC4/BLE_hts.c ****     {
 872:Generated_Source\PSoC4/BLE_hts.c ****         apiResult = CYBLE_ERROR_GATT_DB_INVALID_ATTR_HANDLE;
 2096              		.loc 1 872 0
 2097 0098 0E23     		movs	r3, #14
 2098 009a FB18     		adds	r3, r7, r3
 2099 009c 1322     		movs	r2, #19
 2100 009e 1A80     		strh	r2, [r3]
 2101              	.L112:
 873:Generated_Source\PSoC4/BLE_hts.c ****     }
 874:Generated_Source\PSoC4/BLE_hts.c ****     
 875:Generated_Source\PSoC4/BLE_hts.c ****     return (apiResult);
 2102              		.loc 1 875 0
 2103 00a0 0E23     		movs	r3, #14
 2104 00a2 FB18     		adds	r3, r7, r3
 2105 00a4 1B88     		ldrh	r3, [r3]
 876:Generated_Source\PSoC4/BLE_hts.c **** }
 2106              		.loc 1 876 0
 2107 00a6 1800     		movs	r0, r3
 2108 00a8 BD46     		mov	sp, r7
 2109 00aa 05B0     		add	sp, sp, #20
 2110              		@ sp needed
 2111 00ac 90BD     		pop	{r4, r7, pc}
 2112              	.L118:
 2113 00ae C046     		.align	2
 2114              	.L117:
 2115 00b0 00000000 		.word	cyBle_clientState
 2116 00b4 00000000 		.word	cyBle_htsc
 2117 00b8 06000000 		.word	cyBle_htscReqHandle
 2118              		.cfi_endproc
 2119              	.LFE15:
 2120              		.size	CyBle_HtscGetCharacteristicValue, .-CyBle_HtscGetCharacteristicValue
 2121              		.section	.text.CyBle_HtscSetCharacteristicDescriptor,"ax",%progbits
 2122              		.align	2
 2123              		.global	CyBle_HtscSetCharacteristicDescriptor
 2124              		.code	16
 2125              		.thumb_func
 2126              		.type	CyBle_HtscSetCharacteristicDescriptor, %function
 2127              	CyBle_HtscSetCharacteristicDescriptor:
 2128              	.LFB16:
 877:Generated_Source\PSoC4/BLE_hts.c **** 
 878:Generated_Source\PSoC4/BLE_hts.c **** 
 879:Generated_Source\PSoC4/BLE_hts.c **** /******************************************************************************
ARM GAS  C:\Users\User\AppData\Local\Temp\ccmH1EJa.s 			page 54


 880:Generated_Source\PSoC4/BLE_hts.c **** * Function Name: CyBle_HtscSetCharacteristicDescriptor
 881:Generated_Source\PSoC4/BLE_hts.c **** ***************************************************************************//**
 882:Generated_Source\PSoC4/BLE_hts.c **** * 
 883:Generated_Source\PSoC4/BLE_hts.c **** *  This function is used to write the characteristic descriptor to the server,
 884:Generated_Source\PSoC4/BLE_hts.c **** *  which is identified by charIndex and descrIndex.
 885:Generated_Source\PSoC4/BLE_hts.c **** * 
 886:Generated_Source\PSoC4/BLE_hts.c **** *  Internally, Write Request is sent to the GATT Server and on successful 
 887:Generated_Source\PSoC4/BLE_hts.c **** *  execution of the request on the Server side the following events can be 
 888:Generated_Source\PSoC4/BLE_hts.c **** *  generated: 
 889:Generated_Source\PSoC4/BLE_hts.c **** *  * CYBLE_EVT_HTSS_NOTIFICATION_ENABLED;
 890:Generated_Source\PSoC4/BLE_hts.c **** *  * CYBLE_EVT_HTSS_NOTIFICATION_ENABLED;
 891:Generated_Source\PSoC4/BLE_hts.c **** *  * CYBLE_EVT_HTSS_INDICATION_ENABLED;
 892:Generated_Source\PSoC4/BLE_hts.c **** *  * CYBLE_EVT_HTSS_INDICATION_DISABLED.
 893:Generated_Source\PSoC4/BLE_hts.c **** * 
 894:Generated_Source\PSoC4/BLE_hts.c **** *  \param connHandle: The connection handle.
 895:Generated_Source\PSoC4/BLE_hts.c **** *  \param charIndex:  The index of the service characteristic.
 896:Generated_Source\PSoC4/BLE_hts.c **** *  \param descrIndex: The index of the service characteristic descriptor.
 897:Generated_Source\PSoC4/BLE_hts.c **** *  \param attrSize:   The size of the characteristic value attribute.
 898:Generated_Source\PSoC4/BLE_hts.c **** *  \param attrValue:  The pointer to the characteristic descriptor value data  
 899:Generated_Source\PSoC4/BLE_hts.c **** *                     that should be sent to the server device. 
 900:Generated_Source\PSoC4/BLE_hts.c **** * 
 901:Generated_Source\PSoC4/BLE_hts.c **** * \return
 902:Generated_Source\PSoC4/BLE_hts.c **** *  Return value is of type CYBLE_API_RESULT_T.
 903:Generated_Source\PSoC4/BLE_hts.c **** *  * CYBLE_ERROR_OK - The request was sent successfully.
 904:Generated_Source\PSoC4/BLE_hts.c **** *  * CYBLE_ERROR_INVALID_PARAMETER - Validation of the input parameters failed.
 905:Generated_Source\PSoC4/BLE_hts.c **** *  * CYBLE_ERROR_INVALID_STATE - The state is not valid.
 906:Generated_Source\PSoC4/BLE_hts.c **** *  * CYBLE_ERROR_MEMORY_ALLOCATION_FAILED - Memory allocation failed.
 907:Generated_Source\PSoC4/BLE_hts.c **** *  * CYBLE_ERROR_INVALID_OPERATION - This operation is not permitted on 
 908:Generated_Source\PSoC4/BLE_hts.c **** *                                    the specified attribute.
 909:Generated_Source\PSoC4/BLE_hts.c **** *
 910:Generated_Source\PSoC4/BLE_hts.c **** * \events
 911:Generated_Source\PSoC4/BLE_hts.c **** *  In case of successful execution (return value = CYBLE_ERROR_OK)
 912:Generated_Source\PSoC4/BLE_hts.c **** *  the next events can appear: \n
 913:Generated_Source\PSoC4/BLE_hts.c **** *   If the HTS service-specific callback is registered 
 914:Generated_Source\PSoC4/BLE_hts.c **** *      (with CyBle_HtsRegisterAttrCallback):
 915:Generated_Source\PSoC4/BLE_hts.c **** *  * CYBLE_EVT_HTSC_WRITE_DESCR_RESPONSE - In case if the requested attribute is
 916:Generated_Source\PSoC4/BLE_hts.c **** *                                successfully wrote on the peer device,
 917:Generated_Source\PSoC4/BLE_hts.c **** *                                the details (char index, descr index etc.) are 
 918:Generated_Source\PSoC4/BLE_hts.c **** *                                provided with event parameter structure
 919:Generated_Source\PSoC4/BLE_hts.c **** *                                of type CYBLE_HTS_DESCR_VALUE_T.
 920:Generated_Source\PSoC4/BLE_hts.c **** *  .
 921:Generated_Source\PSoC4/BLE_hts.c **** *   Otherwise (if the HTS service-specific callback is not registered):
 922:Generated_Source\PSoC4/BLE_hts.c **** *  * CYBLE_EVT_GATTC_WRITE_RSP - In case if the requested attribute is 
 923:Generated_Source\PSoC4/BLE_hts.c **** *                                successfully wrote on the peer device.
 924:Generated_Source\PSoC4/BLE_hts.c **** *  * CYBLE_EVT_GATTC_ERROR_RSP - In case if there some trouble with the 
 925:Generated_Source\PSoC4/BLE_hts.c **** *                                requested attribute on the peer device,
 926:Generated_Source\PSoC4/BLE_hts.c **** *                                the details are provided with event parameters 
 927:Generated_Source\PSoC4/BLE_hts.c **** *                                structure (CYBLE_GATTC_ERR_RSP_PARAM_T).
 928:Generated_Source\PSoC4/BLE_hts.c **** *
 929:Generated_Source\PSoC4/BLE_hts.c **** ******************************************************************************/
 930:Generated_Source\PSoC4/BLE_hts.c **** CYBLE_API_RESULT_T CyBle_HtscSetCharacteristicDescriptor(CYBLE_CONN_HANDLE_T connHandle,
 931:Generated_Source\PSoC4/BLE_hts.c ****     CYBLE_HTS_CHAR_INDEX_T charIndex, CYBLE_HTS_DESCR_INDEX_T descrIndex, uint8 attrSize, uint8 *at
 932:Generated_Source\PSoC4/BLE_hts.c **** {
 2129              		.loc 1 932 0
 2130              		.cfi_startproc
 2131              		@ args = 4, pretend = 0, frame = 24
 2132              		@ frame_needed = 1, uses_anonymous_args = 0
ARM GAS  C:\Users\User\AppData\Local\Temp\ccmH1EJa.s 			page 55


 2133 0000 90B5     		push	{r4, r7, lr}
 2134              		.cfi_def_cfa_offset 12
 2135              		.cfi_offset 4, -12
 2136              		.cfi_offset 7, -8
 2137              		.cfi_offset 14, -4
 2138 0002 87B0     		sub	sp, sp, #28
 2139              		.cfi_def_cfa_offset 40
 2140 0004 00AF     		add	r7, sp, #0
 2141              		.cfi_def_cfa_register 7
 2142 0006 3C1D     		adds	r4, r7, #4
 2143 0008 2080     		strh	r0, [r4]
 2144 000a 0C00     		movs	r4, r1
 2145 000c 1000     		movs	r0, r2
 2146 000e 1900     		movs	r1, r3
 2147 0010 FB1C     		adds	r3, r7, #3
 2148 0012 221C     		adds	r2, r4, #0
 2149 0014 1A70     		strb	r2, [r3]
 2150 0016 BB1C     		adds	r3, r7, #2
 2151 0018 021C     		adds	r2, r0, #0
 2152 001a 1A70     		strb	r2, [r3]
 2153 001c 7B1C     		adds	r3, r7, #1
 2154 001e 0A1C     		adds	r2, r1, #0
 2155 0020 1A70     		strb	r2, [r3]
 933:Generated_Source\PSoC4/BLE_hts.c ****     CYBLE_API_RESULT_T apiResult;
 934:Generated_Source\PSoC4/BLE_hts.c ****     CYBLE_GATTC_WRITE_REQ_T writeReqParam;
 935:Generated_Source\PSoC4/BLE_hts.c **** 
 936:Generated_Source\PSoC4/BLE_hts.c ****     if(CyBle_GetClientState() != CYBLE_CLIENT_STATE_DISCOVERED)
 2156              		.loc 1 936 0
 2157 0022 284B     		ldr	r3, .L126
 2158 0024 1B78     		ldrb	r3, [r3]
 2159 0026 052B     		cmp	r3, #5
 2160 0028 05D0     		beq	.L120
 937:Generated_Source\PSoC4/BLE_hts.c ****     {
 938:Generated_Source\PSoC4/BLE_hts.c ****         apiResult = CYBLE_ERROR_INVALID_STATE;
 2161              		.loc 1 938 0
 2162 002a 1623     		movs	r3, #22
 2163 002c FB18     		adds	r3, r7, r3
 2164 002e 0422     		movs	r2, #4
 2165 0030 FF32     		adds	r2, r2, #255
 2166 0032 1A80     		strh	r2, [r3]
 2167 0034 3FE0     		b	.L121
 2168              	.L120:
 939:Generated_Source\PSoC4/BLE_hts.c ****     }
 940:Generated_Source\PSoC4/BLE_hts.c ****     else if((charIndex >= CYBLE_HTS_CHAR_COUNT) || (descrIndex >= CYBLE_HTS_DESCR_COUNT))
 2169              		.loc 1 940 0
 2170 0036 FB1C     		adds	r3, r7, #3
 2171 0038 1B78     		ldrb	r3, [r3]
 2172 003a 032B     		cmp	r3, #3
 2173 003c 03D8     		bhi	.L122
 2174              		.loc 1 940 0 is_stmt 0 discriminator 1
 2175 003e BB1C     		adds	r3, r7, #2
 2176 0040 1B78     		ldrb	r3, [r3]
 2177 0042 012B     		cmp	r3, #1
 2178 0044 04D9     		bls	.L123
 2179              	.L122:
 941:Generated_Source\PSoC4/BLE_hts.c ****     {
 942:Generated_Source\PSoC4/BLE_hts.c ****         apiResult = CYBLE_ERROR_INVALID_PARAMETER;
ARM GAS  C:\Users\User\AppData\Local\Temp\ccmH1EJa.s 			page 56


 2180              		.loc 1 942 0 is_stmt 1
 2181 0046 1623     		movs	r3, #22
 2182 0048 FB18     		adds	r3, r7, r3
 2183 004a 0122     		movs	r2, #1
 2184 004c 1A80     		strh	r2, [r3]
 2185 004e 32E0     		b	.L121
 2186              	.L123:
 943:Generated_Source\PSoC4/BLE_hts.c ****     }
 944:Generated_Source\PSoC4/BLE_hts.c ****     else if(descrIndex != CYBLE_HTS_CCCD)
 2187              		.loc 1 944 0
 2188 0050 BB1C     		adds	r3, r7, #2
 2189 0052 1B78     		ldrb	r3, [r3]
 2190 0054 002B     		cmp	r3, #0
 2191 0056 04D0     		beq	.L124
 945:Generated_Source\PSoC4/BLE_hts.c ****     {
 946:Generated_Source\PSoC4/BLE_hts.c ****         apiResult = CYBLE_ERROR_INVALID_OPERATION;
 2192              		.loc 1 946 0
 2193 0058 1623     		movs	r3, #22
 2194 005a FB18     		adds	r3, r7, r3
 2195 005c 0222     		movs	r2, #2
 2196 005e 1A80     		strh	r2, [r3]
 2197 0060 29E0     		b	.L121
 2198              	.L124:
 947:Generated_Source\PSoC4/BLE_hts.c ****     }
 948:Generated_Source\PSoC4/BLE_hts.c ****     else
 949:Generated_Source\PSoC4/BLE_hts.c ****     {
 950:Generated_Source\PSoC4/BLE_hts.c ****      /* Fill all fields of write request structure ... */
 951:Generated_Source\PSoC4/BLE_hts.c ****         writeReqParam.attrHandle = cyBle_htsc.charInfo[charIndex].descrHandle[CYBLE_HTS_CCCD];
 2199              		.loc 1 951 0
 2200 0062 FB1C     		adds	r3, r7, #3
 2201 0064 1A78     		ldrb	r2, [r3]
 2202 0066 1849     		ldr	r1, .L126+4
 2203 0068 1300     		movs	r3, r2
 2204 006a 9B00     		lsls	r3, r3, #2
 2205 006c 9B18     		adds	r3, r3, r2
 2206 006e 5B00     		lsls	r3, r3, #1
 2207 0070 5A5A     		ldrh	r2, [r3, r1]
 2208 0072 0823     		movs	r3, #8
 2209 0074 FB18     		adds	r3, r7, r3
 2210 0076 1A81     		strh	r2, [r3, #8]
 952:Generated_Source\PSoC4/BLE_hts.c ****         writeReqParam.value.val = attrValue;
 2211              		.loc 1 952 0
 2212 0078 0823     		movs	r3, #8
 2213 007a FB18     		adds	r3, r7, r3
 2214 007c BA6A     		ldr	r2, [r7, #40]
 2215 007e 1A60     		str	r2, [r3]
 953:Generated_Source\PSoC4/BLE_hts.c ****         writeReqParam.value.len = attrSize;
 2216              		.loc 1 953 0
 2217 0080 7B1C     		adds	r3, r7, #1
 2218 0082 1B78     		ldrb	r3, [r3]
 2219 0084 9AB2     		uxth	r2, r3
 2220 0086 0823     		movs	r3, #8
 2221 0088 FB18     		adds	r3, r7, r3
 2222 008a 9A80     		strh	r2, [r3, #4]
 954:Generated_Source\PSoC4/BLE_hts.c **** 
 955:Generated_Source\PSoC4/BLE_hts.c ****         /* ... and send request to server device. */
 956:Generated_Source\PSoC4/BLE_hts.c ****         apiResult = CyBle_GattcWriteCharacteristicDescriptors(connHandle, &writeReqParam);
ARM GAS  C:\Users\User\AppData\Local\Temp\ccmH1EJa.s 			page 57


 2223              		.loc 1 956 0
 2224 008c 1623     		movs	r3, #22
 2225 008e FC18     		adds	r4, r7, r3
 2226 0090 0823     		movs	r3, #8
 2227 0092 FA18     		adds	r2, r7, r3
 2228 0094 3B1D     		adds	r3, r7, #4
 2229 0096 1100     		movs	r1, r2
 2230 0098 1868     		ldr	r0, [r3]
 2231 009a FFF7FEFF 		bl	CyBle_GattcWriteCharacteristicDescriptors
 2232 009e 0300     		movs	r3, r0
 2233 00a0 2380     		strh	r3, [r4]
 957:Generated_Source\PSoC4/BLE_hts.c ****         
 958:Generated_Source\PSoC4/BLE_hts.c ****         /* Save handle to support service specific read response from device */
 959:Generated_Source\PSoC4/BLE_hts.c ****         if(apiResult == CYBLE_ERROR_OK)
 2234              		.loc 1 959 0
 2235 00a2 1623     		movs	r3, #22
 2236 00a4 FB18     		adds	r3, r7, r3
 2237 00a6 1B88     		ldrh	r3, [r3]
 2238 00a8 002B     		cmp	r3, #0
 2239 00aa 04D1     		bne	.L121
 960:Generated_Source\PSoC4/BLE_hts.c ****         {
 961:Generated_Source\PSoC4/BLE_hts.c ****             cyBle_htscReqHandle = writeReqParam.attrHandle;
 2240              		.loc 1 961 0
 2241 00ac 0823     		movs	r3, #8
 2242 00ae FB18     		adds	r3, r7, r3
 2243 00b0 1A89     		ldrh	r2, [r3, #8]
 2244 00b2 064B     		ldr	r3, .L126+8
 2245 00b4 1A80     		strh	r2, [r3]
 2246              	.L121:
 962:Generated_Source\PSoC4/BLE_hts.c ****         }
 963:Generated_Source\PSoC4/BLE_hts.c ****     }
 964:Generated_Source\PSoC4/BLE_hts.c ****     
 965:Generated_Source\PSoC4/BLE_hts.c ****     return (apiResult);
 2247              		.loc 1 965 0
 2248 00b6 1623     		movs	r3, #22
 2249 00b8 FB18     		adds	r3, r7, r3
 2250 00ba 1B88     		ldrh	r3, [r3]
 966:Generated_Source\PSoC4/BLE_hts.c **** }
 2251              		.loc 1 966 0
 2252 00bc 1800     		movs	r0, r3
 2253 00be BD46     		mov	sp, r7
 2254 00c0 07B0     		add	sp, sp, #28
 2255              		@ sp needed
 2256 00c2 90BD     		pop	{r4, r7, pc}
 2257              	.L127:
 2258              		.align	2
 2259              	.L126:
 2260 00c4 00000000 		.word	cyBle_clientState
 2261 00c8 00000000 		.word	cyBle_htsc
 2262 00cc 06000000 		.word	cyBle_htscReqHandle
 2263              		.cfi_endproc
 2264              	.LFE16:
 2265              		.size	CyBle_HtscSetCharacteristicDescriptor, .-CyBle_HtscSetCharacteristicDescriptor
 2266              		.section	.text.CyBle_HtscGetCharacteristicDescriptor,"ax",%progbits
 2267              		.align	2
 2268              		.global	CyBle_HtscGetCharacteristicDescriptor
 2269              		.code	16
ARM GAS  C:\Users\User\AppData\Local\Temp\ccmH1EJa.s 			page 58


 2270              		.thumb_func
 2271              		.type	CyBle_HtscGetCharacteristicDescriptor, %function
 2272              	CyBle_HtscGetCharacteristicDescriptor:
 2273              	.LFB17:
 967:Generated_Source\PSoC4/BLE_hts.c **** 
 968:Generated_Source\PSoC4/BLE_hts.c **** 
 969:Generated_Source\PSoC4/BLE_hts.c **** /******************************************************************************
 970:Generated_Source\PSoC4/BLE_hts.c **** * Function Name: CyBle_HtscGetCharacteristicDescriptor
 971:Generated_Source\PSoC4/BLE_hts.c **** ***************************************************************************//**
 972:Generated_Source\PSoC4/BLE_hts.c **** * 
 973:Generated_Source\PSoC4/BLE_hts.c **** *  Gets the characteristic descriptor of the specified characteristic of the
 974:Generated_Source\PSoC4/BLE_hts.c **** *  service.
 975:Generated_Source\PSoC4/BLE_hts.c **** * 
 976:Generated_Source\PSoC4/BLE_hts.c **** *  \param connHandle: The connection handle.
 977:Generated_Source\PSoC4/BLE_hts.c **** *  \param charIndex:  The index of the service characteristic.
 978:Generated_Source\PSoC4/BLE_hts.c **** *  \param descrIndex: The index of the service characteristic descriptor.
 979:Generated_Source\PSoC4/BLE_hts.c **** * 
 980:Generated_Source\PSoC4/BLE_hts.c **** * \return
 981:Generated_Source\PSoC4/BLE_hts.c **** *  * CYBLE_ERROR_OK - The request was sent successfully.
 982:Generated_Source\PSoC4/BLE_hts.c **** *  * CYBLE_ERROR_INVALID_PARAMETER - Validation of the input parameters failed.
 983:Generated_Source\PSoC4/BLE_hts.c **** *  * CYBLE_ERROR_INVALID_STATE - The state is not valid.
 984:Generated_Source\PSoC4/BLE_hts.c **** *  * CYBLE_ERROR_MEMORY_ALLOCATION_FAILED - Memory allocation failed.
 985:Generated_Source\PSoC4/BLE_hts.c **** *  * CYBLE_ERROR_INVALID_OPERATION - This operation is not permitted on 
 986:Generated_Source\PSoC4/BLE_hts.c **** *                                    the specified attribute.
 987:Generated_Source\PSoC4/BLE_hts.c **** *
 988:Generated_Source\PSoC4/BLE_hts.c **** * \events
 989:Generated_Source\PSoC4/BLE_hts.c **** *  In case of successful execution (return value = CYBLE_ERROR_OK)
 990:Generated_Source\PSoC4/BLE_hts.c **** *  the next events can appear: \n
 991:Generated_Source\PSoC4/BLE_hts.c **** *  If the HTS service-specific callback is registered 
 992:Generated_Source\PSoC4/BLE_hts.c **** *      (with CyBle_HtsRegisterAttrCallback):
 993:Generated_Source\PSoC4/BLE_hts.c **** *  * CYBLE_EVT_HTSC_READ_DESCR_RESPONSE - In case if the requested attribute is
 994:Generated_Source\PSoC4/BLE_hts.c **** *                                successfully wrote on the peer device,
 995:Generated_Source\PSoC4/BLE_hts.c **** *                                the details (char index, descr index, value, etc.) 
 996:Generated_Source\PSoC4/BLE_hts.c **** *                                are provided with event parameter structure
 997:Generated_Source\PSoC4/BLE_hts.c **** *                                of type CYBLE_HTS_DESCR_VALUE_T. 
 998:Generated_Source\PSoC4/BLE_hts.c **** *  .
 999:Generated_Source\PSoC4/BLE_hts.c **** *  Otherwise (if the HTS service-specific callback is not registered):
1000:Generated_Source\PSoC4/BLE_hts.c **** *  * CYBLE_EVT_GATTC_READ_RSP - In case if the requested attribute is 
1001:Generated_Source\PSoC4/BLE_hts.c **** *                               successfully read on the peer device,
1002:Generated_Source\PSoC4/BLE_hts.c **** *                               the details (handle, value, etc.) are 
1003:Generated_Source\PSoC4/BLE_hts.c **** *                               provided with event parameters 
1004:Generated_Source\PSoC4/BLE_hts.c **** *                               structure (CYBLE_GATTC_READ_RSP_PARAM_T).
1005:Generated_Source\PSoC4/BLE_hts.c **** *  * CYBLE_EVT_GATTC_ERROR_RSP - In case if there some trouble with the 
1006:Generated_Source\PSoC4/BLE_hts.c **** *                                requested attribute on the peer device,
1007:Generated_Source\PSoC4/BLE_hts.c **** *                                the details are provided with event parameters 
1008:Generated_Source\PSoC4/BLE_hts.c **** *                                structure (CYBLE_GATTC_ERR_RSP_PARAM_T).
1009:Generated_Source\PSoC4/BLE_hts.c **** *
1010:Generated_Source\PSoC4/BLE_hts.c **** ******************************************************************************/
1011:Generated_Source\PSoC4/BLE_hts.c **** CYBLE_API_RESULT_T CyBle_HtscGetCharacteristicDescriptor(CYBLE_CONN_HANDLE_T connHandle,
1012:Generated_Source\PSoC4/BLE_hts.c ****     CYBLE_HTS_CHAR_INDEX_T charIndex, CYBLE_HTS_DESCR_INDEX_T descrIndex)
1013:Generated_Source\PSoC4/BLE_hts.c **** {
 2274              		.loc 1 1013 0
 2275              		.cfi_startproc
 2276              		@ args = 0, pretend = 0, frame = 16
 2277              		@ frame_needed = 1, uses_anonymous_args = 0
 2278 0000 90B5     		push	{r4, r7, lr}
 2279              		.cfi_def_cfa_offset 12
ARM GAS  C:\Users\User\AppData\Local\Temp\ccmH1EJa.s 			page 59


 2280              		.cfi_offset 4, -12
 2281              		.cfi_offset 7, -8
 2282              		.cfi_offset 14, -4
 2283 0002 85B0     		sub	sp, sp, #20
 2284              		.cfi_def_cfa_offset 32
 2285 0004 00AF     		add	r7, sp, #0
 2286              		.cfi_def_cfa_register 7
 2287 0006 3B1D     		adds	r3, r7, #4
 2288 0008 1880     		strh	r0, [r3]
 2289 000a 0800     		movs	r0, r1
 2290 000c 1100     		movs	r1, r2
 2291 000e FB1C     		adds	r3, r7, #3
 2292 0010 021C     		adds	r2, r0, #0
 2293 0012 1A70     		strb	r2, [r3]
 2294 0014 BB1C     		adds	r3, r7, #2
 2295 0016 0A1C     		adds	r2, r1, #0
 2296 0018 1A70     		strb	r2, [r3]
1014:Generated_Source\PSoC4/BLE_hts.c ****     CYBLE_API_RESULT_T apiResult;
1015:Generated_Source\PSoC4/BLE_hts.c ****     
1016:Generated_Source\PSoC4/BLE_hts.c ****     if(CyBle_GetClientState() != CYBLE_CLIENT_STATE_DISCOVERED)
 2297              		.loc 1 1016 0
 2298 001a 224B     		ldr	r3, .L134
 2299 001c 1B78     		ldrb	r3, [r3]
 2300 001e 052B     		cmp	r3, #5
 2301 0020 05D0     		beq	.L129
1017:Generated_Source\PSoC4/BLE_hts.c ****     {
1018:Generated_Source\PSoC4/BLE_hts.c ****         apiResult = CYBLE_ERROR_INVALID_STATE;
 2302              		.loc 1 1018 0
 2303 0022 0E23     		movs	r3, #14
 2304 0024 FB18     		adds	r3, r7, r3
 2305 0026 0422     		movs	r2, #4
 2306 0028 FF32     		adds	r2, r2, #255
 2307 002a 1A80     		strh	r2, [r3]
 2308 002c 32E0     		b	.L130
 2309              	.L129:
1019:Generated_Source\PSoC4/BLE_hts.c ****     }
1020:Generated_Source\PSoC4/BLE_hts.c ****     else if((charIndex >= CYBLE_HTS_CHAR_COUNT) || (descrIndex >= CYBLE_HTS_DESCR_COUNT))
 2310              		.loc 1 1020 0
 2311 002e FB1C     		adds	r3, r7, #3
 2312 0030 1B78     		ldrb	r3, [r3]
 2313 0032 032B     		cmp	r3, #3
 2314 0034 03D8     		bhi	.L131
 2315              		.loc 1 1020 0 is_stmt 0 discriminator 1
 2316 0036 BB1C     		adds	r3, r7, #2
 2317 0038 1B78     		ldrb	r3, [r3]
 2318 003a 012B     		cmp	r3, #1
 2319 003c 04D9     		bls	.L132
 2320              	.L131:
1021:Generated_Source\PSoC4/BLE_hts.c ****     {
1022:Generated_Source\PSoC4/BLE_hts.c ****         apiResult = CYBLE_ERROR_INVALID_PARAMETER;
 2321              		.loc 1 1022 0 is_stmt 1
 2322 003e 0E23     		movs	r3, #14
 2323 0040 FB18     		adds	r3, r7, r3
 2324 0042 0122     		movs	r2, #1
 2325 0044 1A80     		strh	r2, [r3]
 2326 0046 25E0     		b	.L130
 2327              	.L132:
ARM GAS  C:\Users\User\AppData\Local\Temp\ccmH1EJa.s 			page 60


1023:Generated_Source\PSoC4/BLE_hts.c ****     }
1024:Generated_Source\PSoC4/BLE_hts.c ****     else
1025:Generated_Source\PSoC4/BLE_hts.c ****     {
1026:Generated_Source\PSoC4/BLE_hts.c ****         apiResult = CyBle_GattcReadCharacteristicDescriptors(connHandle, 
 2328              		.loc 1 1026 0
 2329 0048 FB1C     		adds	r3, r7, #3
 2330 004a 1A78     		ldrb	r2, [r3]
 2331 004c BB1C     		adds	r3, r7, #2
 2332 004e 1878     		ldrb	r0, [r3]
 2333 0050 1549     		ldr	r1, .L134+4
 2334 0052 1300     		movs	r3, r2
 2335 0054 9B00     		lsls	r3, r3, #2
 2336 0056 9B18     		adds	r3, r3, r2
 2337 0058 1B18     		adds	r3, r3, r0
 2338 005a 5B00     		lsls	r3, r3, #1
 2339 005c 5A5A     		ldrh	r2, [r3, r1]
 2340 005e 0E23     		movs	r3, #14
 2341 0060 FC18     		adds	r4, r7, r3
 2342 0062 3B1D     		adds	r3, r7, #4
 2343 0064 1100     		movs	r1, r2
 2344 0066 1868     		ldr	r0, [r3]
 2345 0068 FFF7FEFF 		bl	CyBle_GattcReadCharacteristicDescriptors
 2346 006c 0300     		movs	r3, r0
 2347 006e 2380     		strh	r3, [r4]
1027:Generated_Source\PSoC4/BLE_hts.c ****                                                     cyBle_htsc.charInfo[charIndex].descrHandle[desc
1028:Generated_Source\PSoC4/BLE_hts.c ****         
1029:Generated_Source\PSoC4/BLE_hts.c ****         /* Save handle to support service specific read response from device */
1030:Generated_Source\PSoC4/BLE_hts.c ****         if(apiResult == CYBLE_ERROR_OK)
 2348              		.loc 1 1030 0
 2349 0070 0E23     		movs	r3, #14
 2350 0072 FB18     		adds	r3, r7, r3
 2351 0074 1B88     		ldrh	r3, [r3]
 2352 0076 002B     		cmp	r3, #0
 2353 0078 0CD1     		bne	.L130
1031:Generated_Source\PSoC4/BLE_hts.c ****         {
1032:Generated_Source\PSoC4/BLE_hts.c ****             cyBle_htscReqHandle = cyBle_htsc.charInfo[charIndex].descrHandle[descrIndex];
 2354              		.loc 1 1032 0
 2355 007a FB1C     		adds	r3, r7, #3
 2356 007c 1A78     		ldrb	r2, [r3]
 2357 007e BB1C     		adds	r3, r7, #2
 2358 0080 1878     		ldrb	r0, [r3]
 2359 0082 0949     		ldr	r1, .L134+4
 2360 0084 1300     		movs	r3, r2
 2361 0086 9B00     		lsls	r3, r3, #2
 2362 0088 9B18     		adds	r3, r3, r2
 2363 008a 1B18     		adds	r3, r3, r0
 2364 008c 5B00     		lsls	r3, r3, #1
 2365 008e 5A5A     		ldrh	r2, [r3, r1]
 2366 0090 064B     		ldr	r3, .L134+8
 2367 0092 1A80     		strh	r2, [r3]
 2368              	.L130:
1033:Generated_Source\PSoC4/BLE_hts.c ****         }
1034:Generated_Source\PSoC4/BLE_hts.c ****     }
1035:Generated_Source\PSoC4/BLE_hts.c **** 
1036:Generated_Source\PSoC4/BLE_hts.c ****     return (apiResult);
 2369              		.loc 1 1036 0
 2370 0094 0E23     		movs	r3, #14
ARM GAS  C:\Users\User\AppData\Local\Temp\ccmH1EJa.s 			page 61


 2371 0096 FB18     		adds	r3, r7, r3
 2372 0098 1B88     		ldrh	r3, [r3]
1037:Generated_Source\PSoC4/BLE_hts.c **** }
 2373              		.loc 1 1037 0
 2374 009a 1800     		movs	r0, r3
 2375 009c BD46     		mov	sp, r7
 2376 009e 05B0     		add	sp, sp, #20
 2377              		@ sp needed
 2378 00a0 90BD     		pop	{r4, r7, pc}
 2379              	.L135:
 2380 00a2 C046     		.align	2
 2381              	.L134:
 2382 00a4 00000000 		.word	cyBle_clientState
 2383 00a8 00000000 		.word	cyBle_htsc
 2384 00ac 06000000 		.word	cyBle_htscReqHandle
 2385              		.cfi_endproc
 2386              	.LFE17:
 2387              		.size	CyBle_HtscGetCharacteristicDescriptor, .-CyBle_HtscGetCharacteristicDescriptor
 2388              		.section	.text.CyBle_HtscNotificationEventHandler,"ax",%progbits
 2389              		.align	2
 2390              		.global	CyBle_HtscNotificationEventHandler
 2391              		.code	16
 2392              		.thumb_func
 2393              		.type	CyBle_HtscNotificationEventHandler, %function
 2394              	CyBle_HtscNotificationEventHandler:
 2395              	.LFB18:
1038:Generated_Source\PSoC4/BLE_hts.c **** 
1039:Generated_Source\PSoC4/BLE_hts.c **** 
1040:Generated_Source\PSoC4/BLE_hts.c **** /******************************************************************************
1041:Generated_Source\PSoC4/BLE_hts.c **** * Function Name: CyBle_HtscNotificationEventHandler
1042:Generated_Source\PSoC4/BLE_hts.c **** ***************************************************************************//**
1043:Generated_Source\PSoC4/BLE_hts.c **** * 
1044:Generated_Source\PSoC4/BLE_hts.c **** *  Handles Notification Event.
1045:Generated_Source\PSoC4/BLE_hts.c **** * 
1046:Generated_Source\PSoC4/BLE_hts.c **** *  \param eventParam: The pointer to the data structure specified by an event.
1047:Generated_Source\PSoC4/BLE_hts.c **** * 
1048:Generated_Source\PSoC4/BLE_hts.c **** ******************************************************************************/
1049:Generated_Source\PSoC4/BLE_hts.c **** void CyBle_HtscNotificationEventHandler(CYBLE_GATTC_HANDLE_VALUE_NTF_PARAM_T *eventParam)
1050:Generated_Source\PSoC4/BLE_hts.c **** {
 2396              		.loc 1 1050 0
 2397              		.cfi_startproc
 2398              		@ args = 0, pretend = 0, frame = 24
 2399              		@ frame_needed = 1, uses_anonymous_args = 0
 2400 0000 80B5     		push	{r7, lr}
 2401              		.cfi_def_cfa_offset 8
 2402              		.cfi_offset 7, -8
 2403              		.cfi_offset 14, -4
 2404 0002 86B0     		sub	sp, sp, #24
 2405              		.cfi_def_cfa_offset 32
 2406 0004 00AF     		add	r7, sp, #0
 2407              		.cfi_def_cfa_register 7
 2408 0006 7860     		str	r0, [r7, #4]
1051:Generated_Source\PSoC4/BLE_hts.c ****     CYBLE_HTS_CHAR_INDEX_T locCharIndex;
1052:Generated_Source\PSoC4/BLE_hts.c ****     CYBLE_HTS_CHAR_VALUE_T notifValue;
1053:Generated_Source\PSoC4/BLE_hts.c **** 
1054:Generated_Source\PSoC4/BLE_hts.c ****     if(NULL != CyBle_HtsApplCallback)
 2409              		.loc 1 1054 0
ARM GAS  C:\Users\User\AppData\Local\Temp\ccmH1EJa.s 			page 62


 2410 0008 244B     		ldr	r3, .L142
 2411 000a 1B68     		ldr	r3, [r3]
 2412 000c 002B     		cmp	r3, #0
 2413 000e 41D0     		beq	.L141
1055:Generated_Source\PSoC4/BLE_hts.c ****     {
1056:Generated_Source\PSoC4/BLE_hts.c ****         for(locCharIndex = CYBLE_HTS_TEMP_MEASURE; locCharIndex < CYBLE_HTS_CHAR_COUNT; locCharInde
 2414              		.loc 1 1056 0
 2415 0010 1723     		movs	r3, #23
 2416 0012 FB18     		adds	r3, r7, r3
 2417 0014 0022     		movs	r2, #0
 2418 0016 1A70     		strb	r2, [r3]
 2419 0018 37E0     		b	.L138
 2420              	.L140:
1057:Generated_Source\PSoC4/BLE_hts.c ****         {
1058:Generated_Source\PSoC4/BLE_hts.c ****             if(cyBle_htsc.charInfo[locCharIndex].valueHandle == eventParam->handleValPair.attrHandl
 2421              		.loc 1 1058 0
 2422 001a 1723     		movs	r3, #23
 2423 001c FB18     		adds	r3, r7, r3
 2424 001e 1A78     		ldrb	r2, [r3]
 2425 0020 1F49     		ldr	r1, .L142+4
 2426 0022 1300     		movs	r3, r2
 2427 0024 9B00     		lsls	r3, r3, #2
 2428 0026 9B18     		adds	r3, r3, r2
 2429 0028 5B00     		lsls	r3, r3, #1
 2430 002a CB18     		adds	r3, r1, r3
 2431 002c 0433     		adds	r3, r3, #4
 2432 002e 1A88     		ldrh	r2, [r3]
 2433 0030 7B68     		ldr	r3, [r7, #4]
 2434 0032 9B89     		ldrh	r3, [r3, #12]
 2435 0034 9A42     		cmp	r2, r3
 2436 0036 21D1     		bne	.L139
1059:Generated_Source\PSoC4/BLE_hts.c ****             {
1060:Generated_Source\PSoC4/BLE_hts.c ****                 notifValue.connHandle = eventParam->connHandle;
 2437              		.loc 1 1060 0
 2438 0038 0C23     		movs	r3, #12
 2439 003a FB18     		adds	r3, r7, r3
 2440 003c 7A68     		ldr	r2, [r7, #4]
 2441 003e 1288     		ldrh	r2, [r2]
 2442 0040 1A80     		strh	r2, [r3]
1061:Generated_Source\PSoC4/BLE_hts.c ****                 notifValue.charIndex = locCharIndex;
 2443              		.loc 1 1061 0
 2444 0042 0C23     		movs	r3, #12
 2445 0044 FB18     		adds	r3, r7, r3
 2446 0046 1722     		movs	r2, #23
 2447 0048 BA18     		adds	r2, r7, r2
 2448 004a 1278     		ldrb	r2, [r2]
 2449 004c 9A70     		strb	r2, [r3, #2]
1062:Generated_Source\PSoC4/BLE_hts.c ****                 notifValue.value = &eventParam->handleValPair.value;
 2450              		.loc 1 1062 0
 2451 004e 7B68     		ldr	r3, [r7, #4]
 2452 0050 1A1D     		adds	r2, r3, #4
 2453 0052 0C23     		movs	r3, #12
 2454 0054 FB18     		adds	r3, r7, r3
 2455 0056 5A60     		str	r2, [r3, #4]
1063:Generated_Source\PSoC4/BLE_hts.c ****                 CyBle_HtsApplCallback((uint32)CYBLE_EVT_HTSC_NOTIFICATION, &notifValue);
 2456              		.loc 1 1063 0
 2457 0058 104B     		ldr	r3, .L142
ARM GAS  C:\Users\User\AppData\Local\Temp\ccmH1EJa.s 			page 63


 2458 005a 1B68     		ldr	r3, [r3]
 2459 005c 0C22     		movs	r2, #12
 2460 005e B918     		adds	r1, r7, r2
 2461 0060 B822     		movs	r2, #184
 2462 0062 FF32     		adds	r2, r2, #255
 2463 0064 1000     		movs	r0, r2
 2464 0066 9847     		blx	r3
1064:Generated_Source\PSoC4/BLE_hts.c ****                 cyBle_eventHandlerFlag &= (uint8)~CYBLE_CALLBACK;
 2465              		.loc 1 1064 0
 2466 0068 0E4B     		ldr	r3, .L142+8
 2467 006a 1B78     		ldrb	r3, [r3]
 2468 006c DBB2     		uxtb	r3, r3
 2469 006e 0122     		movs	r2, #1
 2470 0070 9343     		bics	r3, r2
 2471 0072 DAB2     		uxtb	r2, r3
 2472 0074 0B4B     		ldr	r3, .L142+8
 2473 0076 1A70     		strb	r2, [r3]
1065:Generated_Source\PSoC4/BLE_hts.c ****                 break;
 2474              		.loc 1 1065 0
 2475 0078 C046     		nop
1066:Generated_Source\PSoC4/BLE_hts.c ****             }
1067:Generated_Source\PSoC4/BLE_hts.c ****         }
1068:Generated_Source\PSoC4/BLE_hts.c ****     }
1069:Generated_Source\PSoC4/BLE_hts.c **** }
 2476              		.loc 1 1069 0
 2477 007a 0BE0     		b	.L141
 2478              	.L139:
1056:Generated_Source\PSoC4/BLE_hts.c ****         {
 2479              		.loc 1 1056 0 discriminator 2
 2480 007c 1723     		movs	r3, #23
 2481 007e FB18     		adds	r3, r7, r3
 2482 0080 1A78     		ldrb	r2, [r3]
 2483 0082 1723     		movs	r3, #23
 2484 0084 FB18     		adds	r3, r7, r3
 2485 0086 0132     		adds	r2, r2, #1
 2486 0088 1A70     		strb	r2, [r3]
 2487              	.L138:
1056:Generated_Source\PSoC4/BLE_hts.c ****         {
 2488              		.loc 1 1056 0 is_stmt 0 discriminator 1
 2489 008a 1723     		movs	r3, #23
 2490 008c FB18     		adds	r3, r7, r3
 2491 008e 1B78     		ldrb	r3, [r3]
 2492 0090 032B     		cmp	r3, #3
 2493 0092 C2D9     		bls	.L140
 2494              	.L141:
 2495              		.loc 1 1069 0 is_stmt 1
 2496 0094 C046     		nop
 2497 0096 BD46     		mov	sp, r7
 2498 0098 06B0     		add	sp, sp, #24
 2499              		@ sp needed
 2500 009a 80BD     		pop	{r7, pc}
 2501              	.L143:
 2502              		.align	2
 2503              	.L142:
 2504 009c 00000000 		.word	CyBle_HtsApplCallback
 2505 00a0 00000000 		.word	cyBle_htsc
 2506 00a4 00000000 		.word	cyBle_eventHandlerFlag
ARM GAS  C:\Users\User\AppData\Local\Temp\ccmH1EJa.s 			page 64


 2507              		.cfi_endproc
 2508              	.LFE18:
 2509              		.size	CyBle_HtscNotificationEventHandler, .-CyBle_HtscNotificationEventHandler
 2510              		.section	.text.CyBle_HtscIndicationEventHandler,"ax",%progbits
 2511              		.align	2
 2512              		.global	CyBle_HtscIndicationEventHandler
 2513              		.code	16
 2514              		.thumb_func
 2515              		.type	CyBle_HtscIndicationEventHandler, %function
 2516              	CyBle_HtscIndicationEventHandler:
 2517              	.LFB19:
1070:Generated_Source\PSoC4/BLE_hts.c **** 
1071:Generated_Source\PSoC4/BLE_hts.c **** 
1072:Generated_Source\PSoC4/BLE_hts.c **** /******************************************************************************
1073:Generated_Source\PSoC4/BLE_hts.c **** * Function Name: CyBle_HtscIndicationEventHandler
1074:Generated_Source\PSoC4/BLE_hts.c **** ***************************************************************************//**
1075:Generated_Source\PSoC4/BLE_hts.c **** * 
1076:Generated_Source\PSoC4/BLE_hts.c **** *  Handles Indication Event.
1077:Generated_Source\PSoC4/BLE_hts.c **** * 
1078:Generated_Source\PSoC4/BLE_hts.c **** *  \param eventParam: The pointer to the data structure specified by an event.
1079:Generated_Source\PSoC4/BLE_hts.c **** * 
1080:Generated_Source\PSoC4/BLE_hts.c **** ******************************************************************************/
1081:Generated_Source\PSoC4/BLE_hts.c **** void CyBle_HtscIndicationEventHandler(CYBLE_GATTC_HANDLE_VALUE_IND_PARAM_T *eventParam)
1082:Generated_Source\PSoC4/BLE_hts.c **** {
 2518              		.loc 1 1082 0
 2519              		.cfi_startproc
 2520              		@ args = 0, pretend = 0, frame = 24
 2521              		@ frame_needed = 1, uses_anonymous_args = 0
 2522 0000 80B5     		push	{r7, lr}
 2523              		.cfi_def_cfa_offset 8
 2524              		.cfi_offset 7, -8
 2525              		.cfi_offset 14, -4
 2526 0002 86B0     		sub	sp, sp, #24
 2527              		.cfi_def_cfa_offset 32
 2528 0004 00AF     		add	r7, sp, #0
 2529              		.cfi_def_cfa_register 7
 2530 0006 7860     		str	r0, [r7, #4]
1083:Generated_Source\PSoC4/BLE_hts.c ****     CYBLE_HTS_CHAR_INDEX_T locCharIndex;
1084:Generated_Source\PSoC4/BLE_hts.c ****     CYBLE_HTS_CHAR_VALUE_T indicationValue;
1085:Generated_Source\PSoC4/BLE_hts.c **** 
1086:Generated_Source\PSoC4/BLE_hts.c ****     if(NULL != CyBle_HtsApplCallback)
 2531              		.loc 1 1086 0
 2532 0008 244B     		ldr	r3, .L150
 2533 000a 1B68     		ldr	r3, [r3]
 2534 000c 002B     		cmp	r3, #0
 2535 000e 41D0     		beq	.L149
1087:Generated_Source\PSoC4/BLE_hts.c ****     {
1088:Generated_Source\PSoC4/BLE_hts.c ****         for(locCharIndex = CYBLE_HTS_TEMP_MEASURE; locCharIndex < CYBLE_HTS_CHAR_COUNT; locCharInde
 2536              		.loc 1 1088 0
 2537 0010 1723     		movs	r3, #23
 2538 0012 FB18     		adds	r3, r7, r3
 2539 0014 0022     		movs	r2, #0
 2540 0016 1A70     		strb	r2, [r3]
 2541 0018 37E0     		b	.L146
 2542              	.L148:
1089:Generated_Source\PSoC4/BLE_hts.c ****         {
1090:Generated_Source\PSoC4/BLE_hts.c ****             if(cyBle_htsc.charInfo[locCharIndex].valueHandle == eventParam->handleValPair.attrHandl
ARM GAS  C:\Users\User\AppData\Local\Temp\ccmH1EJa.s 			page 65


 2543              		.loc 1 1090 0
 2544 001a 1723     		movs	r3, #23
 2545 001c FB18     		adds	r3, r7, r3
 2546 001e 1A78     		ldrb	r2, [r3]
 2547 0020 1F49     		ldr	r1, .L150+4
 2548 0022 1300     		movs	r3, r2
 2549 0024 9B00     		lsls	r3, r3, #2
 2550 0026 9B18     		adds	r3, r3, r2
 2551 0028 5B00     		lsls	r3, r3, #1
 2552 002a CB18     		adds	r3, r1, r3
 2553 002c 0433     		adds	r3, r3, #4
 2554 002e 1A88     		ldrh	r2, [r3]
 2555 0030 7B68     		ldr	r3, [r7, #4]
 2556 0032 9B89     		ldrh	r3, [r3, #12]
 2557 0034 9A42     		cmp	r2, r3
 2558 0036 21D1     		bne	.L147
1091:Generated_Source\PSoC4/BLE_hts.c ****             {
1092:Generated_Source\PSoC4/BLE_hts.c ****                 indicationValue.connHandle = eventParam->connHandle;
 2559              		.loc 1 1092 0
 2560 0038 0C23     		movs	r3, #12
 2561 003a FB18     		adds	r3, r7, r3
 2562 003c 7A68     		ldr	r2, [r7, #4]
 2563 003e 1288     		ldrh	r2, [r2]
 2564 0040 1A80     		strh	r2, [r3]
1093:Generated_Source\PSoC4/BLE_hts.c ****                 indicationValue.charIndex = locCharIndex;
 2565              		.loc 1 1093 0
 2566 0042 0C23     		movs	r3, #12
 2567 0044 FB18     		adds	r3, r7, r3
 2568 0046 1722     		movs	r2, #23
 2569 0048 BA18     		adds	r2, r7, r2
 2570 004a 1278     		ldrb	r2, [r2]
 2571 004c 9A70     		strb	r2, [r3, #2]
1094:Generated_Source\PSoC4/BLE_hts.c ****                 indicationValue.value = &eventParam->handleValPair.value;
 2572              		.loc 1 1094 0
 2573 004e 7B68     		ldr	r3, [r7, #4]
 2574 0050 1A1D     		adds	r2, r3, #4
 2575 0052 0C23     		movs	r3, #12
 2576 0054 FB18     		adds	r3, r7, r3
 2577 0056 5A60     		str	r2, [r3, #4]
1095:Generated_Source\PSoC4/BLE_hts.c ****                 CyBle_HtsApplCallback((uint32)CYBLE_EVT_HTSC_INDICATION, &indicationValue);
 2578              		.loc 1 1095 0
 2579 0058 104B     		ldr	r3, .L150
 2580 005a 1B68     		ldr	r3, [r3]
 2581 005c 0C22     		movs	r2, #12
 2582 005e B918     		adds	r1, r7, r2
 2583 0060 DC22     		movs	r2, #220
 2584 0062 5200     		lsls	r2, r2, #1
 2585 0064 1000     		movs	r0, r2
 2586 0066 9847     		blx	r3
1096:Generated_Source\PSoC4/BLE_hts.c ****                 cyBle_eventHandlerFlag &= (uint8)~CYBLE_CALLBACK;
 2587              		.loc 1 1096 0
 2588 0068 0E4B     		ldr	r3, .L150+8
 2589 006a 1B78     		ldrb	r3, [r3]
 2590 006c DBB2     		uxtb	r3, r3
 2591 006e 0122     		movs	r2, #1
 2592 0070 9343     		bics	r3, r2
 2593 0072 DAB2     		uxtb	r2, r3
ARM GAS  C:\Users\User\AppData\Local\Temp\ccmH1EJa.s 			page 66


 2594 0074 0B4B     		ldr	r3, .L150+8
 2595 0076 1A70     		strb	r2, [r3]
1097:Generated_Source\PSoC4/BLE_hts.c ****                 break;
 2596              		.loc 1 1097 0
 2597 0078 C046     		nop
1098:Generated_Source\PSoC4/BLE_hts.c ****             }
1099:Generated_Source\PSoC4/BLE_hts.c ****         }
1100:Generated_Source\PSoC4/BLE_hts.c ****     }
1101:Generated_Source\PSoC4/BLE_hts.c **** }
 2598              		.loc 1 1101 0
 2599 007a 0BE0     		b	.L149
 2600              	.L147:
1088:Generated_Source\PSoC4/BLE_hts.c ****         {
 2601              		.loc 1 1088 0 discriminator 2
 2602 007c 1723     		movs	r3, #23
 2603 007e FB18     		adds	r3, r7, r3
 2604 0080 1A78     		ldrb	r2, [r3]
 2605 0082 1723     		movs	r3, #23
 2606 0084 FB18     		adds	r3, r7, r3
 2607 0086 0132     		adds	r2, r2, #1
 2608 0088 1A70     		strb	r2, [r3]
 2609              	.L146:
1088:Generated_Source\PSoC4/BLE_hts.c ****         {
 2610              		.loc 1 1088 0 is_stmt 0 discriminator 1
 2611 008a 1723     		movs	r3, #23
 2612 008c FB18     		adds	r3, r7, r3
 2613 008e 1B78     		ldrb	r3, [r3]
 2614 0090 032B     		cmp	r3, #3
 2615 0092 C2D9     		bls	.L148
 2616              	.L149:
 2617              		.loc 1 1101 0 is_stmt 1
 2618 0094 C046     		nop
 2619 0096 BD46     		mov	sp, r7
 2620 0098 06B0     		add	sp, sp, #24
 2621              		@ sp needed
 2622 009a 80BD     		pop	{r7, pc}
 2623              	.L151:
 2624              		.align	2
 2625              	.L150:
 2626 009c 00000000 		.word	CyBle_HtsApplCallback
 2627 00a0 00000000 		.word	cyBle_htsc
 2628 00a4 00000000 		.word	cyBle_eventHandlerFlag
 2629              		.cfi_endproc
 2630              	.LFE19:
 2631              		.size	CyBle_HtscIndicationEventHandler, .-CyBle_HtscIndicationEventHandler
 2632              		.section	.text.CyBle_HtscReadResponseEventHandler,"ax",%progbits
 2633              		.align	2
 2634              		.global	CyBle_HtscReadResponseEventHandler
 2635              		.code	16
 2636              		.thumb_func
 2637              		.type	CyBle_HtscReadResponseEventHandler, %function
 2638              	CyBle_HtscReadResponseEventHandler:
 2639              	.LFB20:
1102:Generated_Source\PSoC4/BLE_hts.c **** 
1103:Generated_Source\PSoC4/BLE_hts.c **** 
1104:Generated_Source\PSoC4/BLE_hts.c **** /******************************************************************************
1105:Generated_Source\PSoC4/BLE_hts.c **** * Function Name: CyBle_HtscReadResponseEventHandler
ARM GAS  C:\Users\User\AppData\Local\Temp\ccmH1EJa.s 			page 67


1106:Generated_Source\PSoC4/BLE_hts.c **** ***************************************************************************//**
1107:Generated_Source\PSoC4/BLE_hts.c **** * 
1108:Generated_Source\PSoC4/BLE_hts.c **** *  Handles Read Response Event.
1109:Generated_Source\PSoC4/BLE_hts.c **** * 
1110:Generated_Source\PSoC4/BLE_hts.c **** *  \param eventParam: The pointer to the data structure specified by an event.
1111:Generated_Source\PSoC4/BLE_hts.c **** * 
1112:Generated_Source\PSoC4/BLE_hts.c **** ******************************************************************************/
1113:Generated_Source\PSoC4/BLE_hts.c **** void CyBle_HtscReadResponseEventHandler(CYBLE_GATTC_READ_RSP_PARAM_T *eventParam)
1114:Generated_Source\PSoC4/BLE_hts.c **** {
 2640              		.loc 1 1114 0
 2641              		.cfi_startproc
 2642              		@ args = 0, pretend = 0, frame = 32
 2643              		@ frame_needed = 1, uses_anonymous_args = 0
 2644 0000 80B5     		push	{r7, lr}
 2645              		.cfi_def_cfa_offset 8
 2646              		.cfi_offset 7, -8
 2647              		.cfi_offset 14, -4
 2648 0002 88B0     		sub	sp, sp, #32
 2649              		.cfi_def_cfa_offset 40
 2650 0004 00AF     		add	r7, sp, #0
 2651              		.cfi_def_cfa_register 7
 2652 0006 7860     		str	r0, [r7, #4]
1115:Generated_Source\PSoC4/BLE_hts.c ****     uint8 locReqHandle = 0u;
 2653              		.loc 1 1115 0
 2654 0008 1F23     		movs	r3, #31
 2655 000a FB18     		adds	r3, r7, r3
 2656 000c 0022     		movs	r2, #0
 2657 000e 1A70     		strb	r2, [r3]
1116:Generated_Source\PSoC4/BLE_hts.c ****     CYBLE_HTS_CHAR_INDEX_T locCharIndex;
1117:Generated_Source\PSoC4/BLE_hts.c **** 
1118:Generated_Source\PSoC4/BLE_hts.c ****     if((NULL != CyBle_HtsApplCallback) && (CYBLE_GATT_INVALID_ATTR_HANDLE_VALUE != cyBle_htscReqHan
 2658              		.loc 1 1118 0
 2659 0010 564B     		ldr	r3, .L163
 2660 0012 1B68     		ldr	r3, [r3]
 2661 0014 002B     		cmp	r3, #0
 2662 0016 00D1     		bne	.LCB2400
 2663 0018 A3E0     		b	.L162	@long jump
 2664              	.LCB2400:
 2665              		.loc 1 1118 0 is_stmt 0 discriminator 1
 2666 001a 554B     		ldr	r3, .L163+4
 2667 001c 1B88     		ldrh	r3, [r3]
 2668 001e 002B     		cmp	r3, #0
 2669 0020 00D1     		bne	.LCB2404
 2670 0022 9EE0     		b	.L162	@long jump
 2671              	.LCB2404:
1119:Generated_Source\PSoC4/BLE_hts.c ****     {
1120:Generated_Source\PSoC4/BLE_hts.c ****         for(locCharIndex = CYBLE_HTS_TEMP_MEASURE; (locCharIndex < CYBLE_HTS_CHAR_COUNT) && (locReq
 2672              		.loc 1 1120 0 is_stmt 1
 2673 0024 1E23     		movs	r3, #30
 2674 0026 FB18     		adds	r3, r7, r3
 2675 0028 0022     		movs	r2, #0
 2676 002a 1A70     		strb	r2, [r3]
 2677 002c 81E0     		b	.L154
 2678              	.L161:
1121:Generated_Source\PSoC4/BLE_hts.c ****             locCharIndex++)
1122:Generated_Source\PSoC4/BLE_hts.c ****         {
1123:Generated_Source\PSoC4/BLE_hts.c ****             if(cyBle_htscReqHandle == cyBle_htsc.charInfo[locCharIndex].valueHandle)
ARM GAS  C:\Users\User\AppData\Local\Temp\ccmH1EJa.s 			page 68


 2679              		.loc 1 1123 0
 2680 002e 1E23     		movs	r3, #30
 2681 0030 FB18     		adds	r3, r7, r3
 2682 0032 1A78     		ldrb	r2, [r3]
 2683 0034 4F49     		ldr	r1, .L163+8
 2684 0036 1300     		movs	r3, r2
 2685 0038 9B00     		lsls	r3, r3, #2
 2686 003a 9B18     		adds	r3, r3, r2
 2687 003c 5B00     		lsls	r3, r3, #1
 2688 003e CB18     		adds	r3, r1, r3
 2689 0040 0433     		adds	r3, r3, #4
 2690 0042 1A88     		ldrh	r2, [r3]
 2691 0044 4A4B     		ldr	r3, .L163+4
 2692 0046 1B88     		ldrh	r3, [r3]
 2693 0048 9A42     		cmp	r2, r3
 2694 004a 1FD1     		bne	.L155
 2695              	.LBB6:
1124:Generated_Source\PSoC4/BLE_hts.c ****             {
1125:Generated_Source\PSoC4/BLE_hts.c ****                 CYBLE_HTS_CHAR_VALUE_T locCharValue;
1126:Generated_Source\PSoC4/BLE_hts.c ****                 
1127:Generated_Source\PSoC4/BLE_hts.c ****                 locCharValue.connHandle = eventParam->connHandle;
 2696              		.loc 1 1127 0
 2697 004c 1423     		movs	r3, #20
 2698 004e FB18     		adds	r3, r7, r3
 2699 0050 7A68     		ldr	r2, [r7, #4]
 2700 0052 1288     		ldrh	r2, [r2]
 2701 0054 1A80     		strh	r2, [r3]
1128:Generated_Source\PSoC4/BLE_hts.c ****                 locCharValue.charIndex = locCharIndex;
 2702              		.loc 1 1128 0
 2703 0056 1423     		movs	r3, #20
 2704 0058 FB18     		adds	r3, r7, r3
 2705 005a 1E22     		movs	r2, #30
 2706 005c BA18     		adds	r2, r7, r2
 2707 005e 1278     		ldrb	r2, [r2]
 2708 0060 9A70     		strb	r2, [r3, #2]
1129:Generated_Source\PSoC4/BLE_hts.c ****                 locCharValue.value = &eventParam->value;
 2709              		.loc 1 1129 0
 2710 0062 7B68     		ldr	r3, [r7, #4]
 2711 0064 1A1D     		adds	r2, r3, #4
 2712 0066 1423     		movs	r3, #20
 2713 0068 FB18     		adds	r3, r7, r3
 2714 006a 5A60     		str	r2, [r3, #4]
1130:Generated_Source\PSoC4/BLE_hts.c ****                 cyBle_htscReqHandle = CYBLE_GATT_INVALID_ATTR_HANDLE_VALUE;
 2715              		.loc 1 1130 0
 2716 006c 404B     		ldr	r3, .L163+4
 2717 006e 0022     		movs	r2, #0
 2718 0070 1A80     		strh	r2, [r3]
1131:Generated_Source\PSoC4/BLE_hts.c ****                 CyBle_HtsApplCallback((uint32)CYBLE_EVT_HTSC_READ_CHAR_RESPONSE, &locCharValue);
 2719              		.loc 1 1131 0
 2720 0072 3E4B     		ldr	r3, .L163
 2721 0074 1B68     		ldr	r3, [r3]
 2722 0076 1422     		movs	r2, #20
 2723 0078 B918     		adds	r1, r7, r2
 2724 007a BA22     		movs	r2, #186
 2725 007c FF32     		adds	r2, r2, #255
 2726 007e 1000     		movs	r0, r2
 2727 0080 9847     		blx	r3
ARM GAS  C:\Users\User\AppData\Local\Temp\ccmH1EJa.s 			page 69


1132:Generated_Source\PSoC4/BLE_hts.c ****                 locReqHandle = 1u;
 2728              		.loc 1 1132 0
 2729 0082 1F23     		movs	r3, #31
 2730 0084 FB18     		adds	r3, r7, r3
 2731 0086 0122     		movs	r2, #1
 2732 0088 1A70     		strb	r2, [r3]
 2733              	.LBE6:
 2734 008a 4BE0     		b	.L156
 2735              	.L155:
 2736              	.LBB7:
1133:Generated_Source\PSoC4/BLE_hts.c ****             }
1134:Generated_Source\PSoC4/BLE_hts.c ****             else
1135:Generated_Source\PSoC4/BLE_hts.c ****             {
1136:Generated_Source\PSoC4/BLE_hts.c ****                 CYBLE_HTS_DESCR_INDEX_T locDescIndex;
1137:Generated_Source\PSoC4/BLE_hts.c **** 
1138:Generated_Source\PSoC4/BLE_hts.c ****                 for(locDescIndex = CYBLE_HTS_CCCD; (locDescIndex < CYBLE_HTS_DESCR_COUNT) &&
 2737              		.loc 1 1138 0
 2738 008c 1D23     		movs	r3, #29
 2739 008e FB18     		adds	r3, r7, r3
 2740 0090 0022     		movs	r2, #0
 2741 0092 1A70     		strb	r2, [r3]
 2742 0094 3CE0     		b	.L157
 2743              	.L159:
1139:Generated_Source\PSoC4/BLE_hts.c ****                    (locReqHandle == 0u); locDescIndex++)
1140:Generated_Source\PSoC4/BLE_hts.c ****                 {
1141:Generated_Source\PSoC4/BLE_hts.c ****                     if(cyBle_htscReqHandle == cyBle_htsc.charInfo[locCharIndex].descrHandle[locDesc
 2744              		.loc 1 1141 0
 2745 0096 1E23     		movs	r3, #30
 2746 0098 FB18     		adds	r3, r7, r3
 2747 009a 1A78     		ldrb	r2, [r3]
 2748 009c 1D23     		movs	r3, #29
 2749 009e FB18     		adds	r3, r7, r3
 2750 00a0 1878     		ldrb	r0, [r3]
 2751 00a2 3449     		ldr	r1, .L163+8
 2752 00a4 1300     		movs	r3, r2
 2753 00a6 9B00     		lsls	r3, r3, #2
 2754 00a8 9B18     		adds	r3, r3, r2
 2755 00aa 1B18     		adds	r3, r3, r0
 2756 00ac 5B00     		lsls	r3, r3, #1
 2757 00ae 5A5A     		ldrh	r2, [r3, r1]
 2758 00b0 2F4B     		ldr	r3, .L163+4
 2759 00b2 1B88     		ldrh	r3, [r3]
 2760 00b4 9A42     		cmp	r2, r3
 2761 00b6 24D1     		bne	.L158
 2762              	.LBB8:
1142:Generated_Source\PSoC4/BLE_hts.c ****                     {
1143:Generated_Source\PSoC4/BLE_hts.c ****                         CYBLE_HTS_DESCR_VALUE_T locDescrValue;
1144:Generated_Source\PSoC4/BLE_hts.c ****                         
1145:Generated_Source\PSoC4/BLE_hts.c ****                         locDescrValue.connHandle = eventParam->connHandle;
 2763              		.loc 1 1145 0
 2764 00b8 0C23     		movs	r3, #12
 2765 00ba FB18     		adds	r3, r7, r3
 2766 00bc 7A68     		ldr	r2, [r7, #4]
 2767 00be 1288     		ldrh	r2, [r2]
 2768 00c0 1A80     		strh	r2, [r3]
1146:Generated_Source\PSoC4/BLE_hts.c ****                         locDescrValue.charIndex = locCharIndex;
 2769              		.loc 1 1146 0
ARM GAS  C:\Users\User\AppData\Local\Temp\ccmH1EJa.s 			page 70


 2770 00c2 0C23     		movs	r3, #12
 2771 00c4 FB18     		adds	r3, r7, r3
 2772 00c6 1E22     		movs	r2, #30
 2773 00c8 BA18     		adds	r2, r7, r2
 2774 00ca 1278     		ldrb	r2, [r2]
 2775 00cc 9A70     		strb	r2, [r3, #2]
1147:Generated_Source\PSoC4/BLE_hts.c ****                         locDescrValue.descrIndex = locDescIndex;
 2776              		.loc 1 1147 0
 2777 00ce 0C23     		movs	r3, #12
 2778 00d0 FB18     		adds	r3, r7, r3
 2779 00d2 1D22     		movs	r2, #29
 2780 00d4 BA18     		adds	r2, r7, r2
 2781 00d6 1278     		ldrb	r2, [r2]
 2782 00d8 DA70     		strb	r2, [r3, #3]
1148:Generated_Source\PSoC4/BLE_hts.c ****                         locDescrValue.value = &eventParam->value;
 2783              		.loc 1 1148 0
 2784 00da 7B68     		ldr	r3, [r7, #4]
 2785 00dc 1A1D     		adds	r2, r3, #4
 2786 00de 0C23     		movs	r3, #12
 2787 00e0 FB18     		adds	r3, r7, r3
 2788 00e2 5A60     		str	r2, [r3, #4]
1149:Generated_Source\PSoC4/BLE_hts.c ****                         cyBle_htscReqHandle = CYBLE_GATT_INVALID_ATTR_HANDLE_VALUE;
 2789              		.loc 1 1149 0
 2790 00e4 224B     		ldr	r3, .L163+4
 2791 00e6 0022     		movs	r2, #0
 2792 00e8 1A80     		strh	r2, [r3]
1150:Generated_Source\PSoC4/BLE_hts.c ****                         CyBle_HtsApplCallback((uint32)CYBLE_EVT_HTSC_READ_DESCR_RESPONSE, &locDescr
 2793              		.loc 1 1150 0
 2794 00ea 204B     		ldr	r3, .L163
 2795 00ec 1B68     		ldr	r3, [r3]
 2796 00ee 0C22     		movs	r2, #12
 2797 00f0 B918     		adds	r1, r7, r2
 2798 00f2 BC22     		movs	r2, #188
 2799 00f4 FF32     		adds	r2, r2, #255
 2800 00f6 1000     		movs	r0, r2
 2801 00f8 9847     		blx	r3
1151:Generated_Source\PSoC4/BLE_hts.c ****                         locReqHandle = 1u;
 2802              		.loc 1 1151 0
 2803 00fa 1F23     		movs	r3, #31
 2804 00fc FB18     		adds	r3, r7, r3
 2805 00fe 0122     		movs	r2, #1
 2806 0100 1A70     		strb	r2, [r3]
 2807              	.L158:
 2808              	.LBE8:
1139:Generated_Source\PSoC4/BLE_hts.c ****                 {
 2809              		.loc 1 1139 0
 2810 0102 1D23     		movs	r3, #29
 2811 0104 FB18     		adds	r3, r7, r3
 2812 0106 1A78     		ldrb	r2, [r3]
 2813 0108 1D23     		movs	r3, #29
 2814 010a FB18     		adds	r3, r7, r3
 2815 010c 0132     		adds	r2, r2, #1
 2816 010e 1A70     		strb	r2, [r3]
 2817              	.L157:
1138:Generated_Source\PSoC4/BLE_hts.c ****                    (locReqHandle == 0u); locDescIndex++)
 2818              		.loc 1 1138 0 discriminator 1
 2819 0110 1D23     		movs	r3, #29
ARM GAS  C:\Users\User\AppData\Local\Temp\ccmH1EJa.s 			page 71


 2820 0112 FB18     		adds	r3, r7, r3
 2821 0114 1B78     		ldrb	r3, [r3]
 2822 0116 012B     		cmp	r3, #1
 2823 0118 04D8     		bhi	.L156
1138:Generated_Source\PSoC4/BLE_hts.c ****                    (locReqHandle == 0u); locDescIndex++)
 2824              		.loc 1 1138 0 is_stmt 0 discriminator 2
 2825 011a 1F23     		movs	r3, #31
 2826 011c FB18     		adds	r3, r7, r3
 2827 011e 1B78     		ldrb	r3, [r3]
 2828 0120 002B     		cmp	r3, #0
 2829 0122 B8D0     		beq	.L159
 2830              	.L156:
 2831              	.LBE7:
1121:Generated_Source\PSoC4/BLE_hts.c ****         {
 2832              		.loc 1 1121 0 is_stmt 1
 2833 0124 1E23     		movs	r3, #30
 2834 0126 FB18     		adds	r3, r7, r3
 2835 0128 1A78     		ldrb	r2, [r3]
 2836 012a 1E23     		movs	r3, #30
 2837 012c FB18     		adds	r3, r7, r3
 2838 012e 0132     		adds	r2, r2, #1
 2839 0130 1A70     		strb	r2, [r3]
 2840              	.L154:
1120:Generated_Source\PSoC4/BLE_hts.c ****             locCharIndex++)
 2841              		.loc 1 1120 0 discriminator 1
 2842 0132 1E23     		movs	r3, #30
 2843 0134 FB18     		adds	r3, r7, r3
 2844 0136 1B78     		ldrb	r3, [r3]
 2845 0138 032B     		cmp	r3, #3
 2846 013a 05D8     		bhi	.L160
1120:Generated_Source\PSoC4/BLE_hts.c ****             locCharIndex++)
 2847              		.loc 1 1120 0 is_stmt 0 discriminator 2
 2848 013c 1F23     		movs	r3, #31
 2849 013e FB18     		adds	r3, r7, r3
 2850 0140 1B78     		ldrb	r3, [r3]
 2851 0142 002B     		cmp	r3, #0
 2852 0144 00D1     		bne	.LCB2571
 2853 0146 72E7     		b	.L161	@long jump
 2854              	.LCB2571:
 2855              	.L160:
1152:Generated_Source\PSoC4/BLE_hts.c ****                     }
1153:Generated_Source\PSoC4/BLE_hts.c ****                 }
1154:Generated_Source\PSoC4/BLE_hts.c ****             }
1155:Generated_Source\PSoC4/BLE_hts.c ****         }
1156:Generated_Source\PSoC4/BLE_hts.c ****         if(locReqHandle != 0u)
 2856              		.loc 1 1156 0 is_stmt 1
 2857 0148 1F23     		movs	r3, #31
 2858 014a FB18     		adds	r3, r7, r3
 2859 014c 1B78     		ldrb	r3, [r3]
 2860 014e 002B     		cmp	r3, #0
 2861 0150 07D0     		beq	.L162
1157:Generated_Source\PSoC4/BLE_hts.c ****         {
1158:Generated_Source\PSoC4/BLE_hts.c ****             cyBle_eventHandlerFlag &= (uint8)~CYBLE_CALLBACK;
 2862              		.loc 1 1158 0
 2863 0152 094B     		ldr	r3, .L163+12
 2864 0154 1B78     		ldrb	r3, [r3]
 2865 0156 DBB2     		uxtb	r3, r3
ARM GAS  C:\Users\User\AppData\Local\Temp\ccmH1EJa.s 			page 72


 2866 0158 0122     		movs	r2, #1
 2867 015a 9343     		bics	r3, r2
 2868 015c DAB2     		uxtb	r2, r3
 2869 015e 064B     		ldr	r3, .L163+12
 2870 0160 1A70     		strb	r2, [r3]
 2871              	.L162:
1159:Generated_Source\PSoC4/BLE_hts.c ****         }
1160:Generated_Source\PSoC4/BLE_hts.c ****     }
1161:Generated_Source\PSoC4/BLE_hts.c **** }
 2872              		.loc 1 1161 0
 2873 0162 C046     		nop
 2874 0164 BD46     		mov	sp, r7
 2875 0166 08B0     		add	sp, sp, #32
 2876              		@ sp needed
 2877 0168 80BD     		pop	{r7, pc}
 2878              	.L164:
 2879 016a C046     		.align	2
 2880              	.L163:
 2881 016c 00000000 		.word	CyBle_HtsApplCallback
 2882 0170 06000000 		.word	cyBle_htscReqHandle
 2883 0174 00000000 		.word	cyBle_htsc
 2884 0178 00000000 		.word	cyBle_eventHandlerFlag
 2885              		.cfi_endproc
 2886              	.LFE20:
 2887              		.size	CyBle_HtscReadResponseEventHandler, .-CyBle_HtscReadResponseEventHandler
 2888              		.section	.text.CyBle_HtscWriteResponseEventHandler,"ax",%progbits
 2889              		.align	2
 2890              		.global	CyBle_HtscWriteResponseEventHandler
 2891              		.code	16
 2892              		.thumb_func
 2893              		.type	CyBle_HtscWriteResponseEventHandler, %function
 2894              	CyBle_HtscWriteResponseEventHandler:
 2895              	.LFB21:
1162:Generated_Source\PSoC4/BLE_hts.c **** 
1163:Generated_Source\PSoC4/BLE_hts.c **** 
1164:Generated_Source\PSoC4/BLE_hts.c **** /******************************************************************************
1165:Generated_Source\PSoC4/BLE_hts.c **** * Function Name: CyBle_HtscWriteResponseEventHandler
1166:Generated_Source\PSoC4/BLE_hts.c **** ***************************************************************************//**
1167:Generated_Source\PSoC4/BLE_hts.c **** * 
1168:Generated_Source\PSoC4/BLE_hts.c **** *  Handles Write Response Event.
1169:Generated_Source\PSoC4/BLE_hts.c **** * 
1170:Generated_Source\PSoC4/BLE_hts.c **** *  \param eventParam: The pointer to a data structure specified by the event.
1171:Generated_Source\PSoC4/BLE_hts.c **** * 
1172:Generated_Source\PSoC4/BLE_hts.c **** ******************************************************************************/
1173:Generated_Source\PSoC4/BLE_hts.c **** void CyBle_HtscWriteResponseEventHandler(const CYBLE_CONN_HANDLE_T *eventParam)
1174:Generated_Source\PSoC4/BLE_hts.c **** {
 2896              		.loc 1 1174 0
 2897              		.cfi_startproc
 2898              		@ args = 0, pretend = 0, frame = 32
 2899              		@ frame_needed = 1, uses_anonymous_args = 0
 2900 0000 80B5     		push	{r7, lr}
 2901              		.cfi_def_cfa_offset 8
 2902              		.cfi_offset 7, -8
 2903              		.cfi_offset 14, -4
 2904 0002 88B0     		sub	sp, sp, #32
 2905              		.cfi_def_cfa_offset 40
 2906 0004 00AF     		add	r7, sp, #0
ARM GAS  C:\Users\User\AppData\Local\Temp\ccmH1EJa.s 			page 73


 2907              		.cfi_def_cfa_register 7
 2908 0006 7860     		str	r0, [r7, #4]
1175:Generated_Source\PSoC4/BLE_hts.c ****     uint8 locReqHandle = 0u;
 2909              		.loc 1 1175 0
 2910 0008 1F23     		movs	r3, #31
 2911 000a FB18     		adds	r3, r7, r3
 2912 000c 0022     		movs	r2, #0
 2913 000e 1A70     		strb	r2, [r3]
1176:Generated_Source\PSoC4/BLE_hts.c ****     CYBLE_HTS_CHAR_INDEX_T locCharIndex;
1177:Generated_Source\PSoC4/BLE_hts.c ****     
1178:Generated_Source\PSoC4/BLE_hts.c ****     if((NULL != CyBle_HtsApplCallback) && (CYBLE_GATT_INVALID_ATTR_HANDLE_VALUE != cyBle_htscReqHan
 2914              		.loc 1 1178 0
 2915 0010 4A4B     		ldr	r3, .L173
 2916 0012 1B68     		ldr	r3, [r3]
 2917 0014 002B     		cmp	r3, #0
 2918 0016 00D1     		bne	.LCB2627
 2919 0018 8CE0     		b	.L172	@long jump
 2920              	.LCB2627:
 2921              		.loc 1 1178 0 is_stmt 0 discriminator 1
 2922 001a 494B     		ldr	r3, .L173+4
 2923 001c 1B88     		ldrh	r3, [r3]
 2924 001e 002B     		cmp	r3, #0
 2925 0020 00D1     		bne	.LCB2631
 2926 0022 87E0     		b	.L172	@long jump
 2927              	.LCB2631:
1179:Generated_Source\PSoC4/BLE_hts.c ****     {
1180:Generated_Source\PSoC4/BLE_hts.c ****         for(locCharIndex = CYBLE_HTS_TEMP_MEASURE; (locCharIndex < CYBLE_HTS_CHAR_COUNT) && (locReq
 2928              		.loc 1 1180 0 is_stmt 1
 2929 0024 1E23     		movs	r3, #30
 2930 0026 FB18     		adds	r3, r7, r3
 2931 0028 0022     		movs	r2, #0
 2932 002a 1A70     		strb	r2, [r3]
 2933 002c 6BE0     		b	.L167
 2934              	.L171:
1181:Generated_Source\PSoC4/BLE_hts.c ****             locCharIndex++)
1182:Generated_Source\PSoC4/BLE_hts.c ****         {
1183:Generated_Source\PSoC4/BLE_hts.c ****             if(cyBle_htscReqHandle == cyBle_htsc.charInfo[locCharIndex].valueHandle)
 2935              		.loc 1 1183 0
 2936 002e 1E23     		movs	r3, #30
 2937 0030 FB18     		adds	r3, r7, r3
 2938 0032 1A78     		ldrb	r2, [r3]
 2939 0034 4349     		ldr	r1, .L173+8
 2940 0036 1300     		movs	r3, r2
 2941 0038 9B00     		lsls	r3, r3, #2
 2942 003a 9B18     		adds	r3, r3, r2
 2943 003c 5B00     		lsls	r3, r3, #1
 2944 003e CB18     		adds	r3, r1, r3
 2945 0040 0433     		adds	r3, r3, #4
 2946 0042 1A88     		ldrh	r2, [r3]
 2947 0044 3E4B     		ldr	r3, .L173+4
 2948 0046 1B88     		ldrh	r3, [r3]
 2949 0048 9A42     		cmp	r2, r3
 2950 004a 22D1     		bne	.L168
 2951              	.LBB9:
1184:Generated_Source\PSoC4/BLE_hts.c ****             {
1185:Generated_Source\PSoC4/BLE_hts.c ****                 CYBLE_HTS_CHAR_VALUE_T locCharValue;
1186:Generated_Source\PSoC4/BLE_hts.c ****                 
ARM GAS  C:\Users\User\AppData\Local\Temp\ccmH1EJa.s 			page 74


1187:Generated_Source\PSoC4/BLE_hts.c ****                 locCharValue.connHandle = *eventParam;
 2952              		.loc 1 1187 0
 2953 004c 1423     		movs	r3, #20
 2954 004e FA18     		adds	r2, r7, r3
 2955 0050 7B68     		ldr	r3, [r7, #4]
 2956 0052 1000     		movs	r0, r2
 2957 0054 1900     		movs	r1, r3
 2958 0056 0223     		movs	r3, #2
 2959 0058 1A00     		movs	r2, r3
 2960 005a FFF7FEFF 		bl	memcpy
1188:Generated_Source\PSoC4/BLE_hts.c ****                 locCharValue.charIndex = locCharIndex;
 2961              		.loc 1 1188 0
 2962 005e 1423     		movs	r3, #20
 2963 0060 FB18     		adds	r3, r7, r3
 2964 0062 1E22     		movs	r2, #30
 2965 0064 BA18     		adds	r2, r7, r2
 2966 0066 1278     		ldrb	r2, [r2]
 2967 0068 9A70     		strb	r2, [r3, #2]
1189:Generated_Source\PSoC4/BLE_hts.c ****                 locCharValue.value = NULL;
 2968              		.loc 1 1189 0
 2969 006a 1423     		movs	r3, #20
 2970 006c FB18     		adds	r3, r7, r3
 2971 006e 0022     		movs	r2, #0
 2972 0070 5A60     		str	r2, [r3, #4]
1190:Generated_Source\PSoC4/BLE_hts.c ****                 cyBle_htscReqHandle = CYBLE_GATT_INVALID_ATTR_HANDLE_VALUE;
 2973              		.loc 1 1190 0
 2974 0072 334B     		ldr	r3, .L173+4
 2975 0074 0022     		movs	r2, #0
 2976 0076 1A80     		strh	r2, [r3]
1191:Generated_Source\PSoC4/BLE_hts.c ****                 CyBle_HtsApplCallback((uint32)CYBLE_EVT_HTSC_WRITE_CHAR_RESPONSE, &locCharValue);
 2977              		.loc 1 1191 0
 2978 0078 304B     		ldr	r3, .L173
 2979 007a 1B68     		ldr	r3, [r3]
 2980 007c 1422     		movs	r2, #20
 2981 007e B918     		adds	r1, r7, r2
 2982 0080 DD22     		movs	r2, #221
 2983 0082 5200     		lsls	r2, r2, #1
 2984 0084 1000     		movs	r0, r2
 2985 0086 9847     		blx	r3
1192:Generated_Source\PSoC4/BLE_hts.c ****                 locReqHandle = 1u;
 2986              		.loc 1 1192 0
 2987 0088 1F23     		movs	r3, #31
 2988 008a FB18     		adds	r3, r7, r3
 2989 008c 0122     		movs	r2, #1
 2990 008e 1A70     		strb	r2, [r3]
 2991              	.LBE9:
 2992 0090 32E0     		b	.L169
 2993              	.L168:
1193:Generated_Source\PSoC4/BLE_hts.c ****             }
1194:Generated_Source\PSoC4/BLE_hts.c ****             else if(cyBle_htscReqHandle == cyBle_htsc.charInfo[locCharIndex].descrHandle[CYBLE_HTS_
 2994              		.loc 1 1194 0
 2995 0092 1E23     		movs	r3, #30
 2996 0094 FB18     		adds	r3, r7, r3
 2997 0096 1A78     		ldrb	r2, [r3]
 2998 0098 2A49     		ldr	r1, .L173+8
 2999 009a 1300     		movs	r3, r2
 3000 009c 9B00     		lsls	r3, r3, #2
ARM GAS  C:\Users\User\AppData\Local\Temp\ccmH1EJa.s 			page 75


 3001 009e 9B18     		adds	r3, r3, r2
 3002 00a0 5B00     		lsls	r3, r3, #1
 3003 00a2 5A5A     		ldrh	r2, [r3, r1]
 3004 00a4 264B     		ldr	r3, .L173+4
 3005 00a6 1B88     		ldrh	r3, [r3]
 3006 00a8 9A42     		cmp	r2, r3
 3007 00aa 25D1     		bne	.L169
 3008              	.LBB10:
1195:Generated_Source\PSoC4/BLE_hts.c ****             {
1196:Generated_Source\PSoC4/BLE_hts.c ****                 CYBLE_HTS_DESCR_VALUE_T locDescrValue;
1197:Generated_Source\PSoC4/BLE_hts.c ****                 
1198:Generated_Source\PSoC4/BLE_hts.c ****                 locDescrValue.connHandle = *eventParam;
 3009              		.loc 1 1198 0
 3010 00ac 0C23     		movs	r3, #12
 3011 00ae FA18     		adds	r2, r7, r3
 3012 00b0 7B68     		ldr	r3, [r7, #4]
 3013 00b2 1000     		movs	r0, r2
 3014 00b4 1900     		movs	r1, r3
 3015 00b6 0223     		movs	r3, #2
 3016 00b8 1A00     		movs	r2, r3
 3017 00ba FFF7FEFF 		bl	memcpy
1199:Generated_Source\PSoC4/BLE_hts.c ****                 locDescrValue.charIndex = locCharIndex;
 3018              		.loc 1 1199 0
 3019 00be 0C23     		movs	r3, #12
 3020 00c0 FB18     		adds	r3, r7, r3
 3021 00c2 1E22     		movs	r2, #30
 3022 00c4 BA18     		adds	r2, r7, r2
 3023 00c6 1278     		ldrb	r2, [r2]
 3024 00c8 9A70     		strb	r2, [r3, #2]
1200:Generated_Source\PSoC4/BLE_hts.c ****                 locDescrValue.descrIndex = CYBLE_HTS_CCCD;
 3025              		.loc 1 1200 0
 3026 00ca 0C23     		movs	r3, #12
 3027 00cc FB18     		adds	r3, r7, r3
 3028 00ce 0022     		movs	r2, #0
 3029 00d0 DA70     		strb	r2, [r3, #3]
1201:Generated_Source\PSoC4/BLE_hts.c ****                 locDescrValue.value = NULL;
 3030              		.loc 1 1201 0
 3031 00d2 0C23     		movs	r3, #12
 3032 00d4 FB18     		adds	r3, r7, r3
 3033 00d6 0022     		movs	r2, #0
 3034 00d8 5A60     		str	r2, [r3, #4]
1202:Generated_Source\PSoC4/BLE_hts.c ****                 cyBle_htscReqHandle = CYBLE_GATT_INVALID_ATTR_HANDLE_VALUE;
 3035              		.loc 1 1202 0
 3036 00da 194B     		ldr	r3, .L173+4
 3037 00dc 0022     		movs	r2, #0
 3038 00de 1A80     		strh	r2, [r3]
1203:Generated_Source\PSoC4/BLE_hts.c ****                 CyBle_HtsApplCallback((uint32)CYBLE_EVT_HTSC_WRITE_DESCR_RESPONSE, &locDescrValue);
 3039              		.loc 1 1203 0
 3040 00e0 164B     		ldr	r3, .L173
 3041 00e2 1B68     		ldr	r3, [r3]
 3042 00e4 0C22     		movs	r2, #12
 3043 00e6 B918     		adds	r1, r7, r2
 3044 00e8 DE22     		movs	r2, #222
 3045 00ea 5200     		lsls	r2, r2, #1
 3046 00ec 1000     		movs	r0, r2
 3047 00ee 9847     		blx	r3
1204:Generated_Source\PSoC4/BLE_hts.c ****                 locReqHandle = 1u;
ARM GAS  C:\Users\User\AppData\Local\Temp\ccmH1EJa.s 			page 76


 3048              		.loc 1 1204 0
 3049 00f0 1F23     		movs	r3, #31
 3050 00f2 FB18     		adds	r3, r7, r3
 3051 00f4 0122     		movs	r2, #1
 3052 00f6 1A70     		strb	r2, [r3]
 3053              	.L169:
 3054              	.LBE10:
1181:Generated_Source\PSoC4/BLE_hts.c ****         {
 3055              		.loc 1 1181 0
 3056 00f8 1E23     		movs	r3, #30
 3057 00fa FB18     		adds	r3, r7, r3
 3058 00fc 1A78     		ldrb	r2, [r3]
 3059 00fe 1E23     		movs	r3, #30
 3060 0100 FB18     		adds	r3, r7, r3
 3061 0102 0132     		adds	r2, r2, #1
 3062 0104 1A70     		strb	r2, [r3]
 3063              	.L167:
1180:Generated_Source\PSoC4/BLE_hts.c ****             locCharIndex++)
 3064              		.loc 1 1180 0 discriminator 1
 3065 0106 1E23     		movs	r3, #30
 3066 0108 FB18     		adds	r3, r7, r3
 3067 010a 1B78     		ldrb	r3, [r3]
 3068 010c 032B     		cmp	r3, #3
 3069 010e 04D8     		bhi	.L170
1180:Generated_Source\PSoC4/BLE_hts.c ****             locCharIndex++)
 3070              		.loc 1 1180 0 is_stmt 0 discriminator 2
 3071 0110 1F23     		movs	r3, #31
 3072 0112 FB18     		adds	r3, r7, r3
 3073 0114 1B78     		ldrb	r3, [r3]
 3074 0116 002B     		cmp	r3, #0
 3075 0118 89D0     		beq	.L171
 3076              	.L170:
1205:Generated_Source\PSoC4/BLE_hts.c ****             }
1206:Generated_Source\PSoC4/BLE_hts.c ****             else /* No other destination for write operation is possible */
1207:Generated_Source\PSoC4/BLE_hts.c ****             {
1208:Generated_Source\PSoC4/BLE_hts.c ****             }
1209:Generated_Source\PSoC4/BLE_hts.c ****         }
1210:Generated_Source\PSoC4/BLE_hts.c ****         if(locReqHandle != 0u)
 3077              		.loc 1 1210 0 is_stmt 1
 3078 011a 1F23     		movs	r3, #31
 3079 011c FB18     		adds	r3, r7, r3
 3080 011e 1B78     		ldrb	r3, [r3]
 3081 0120 002B     		cmp	r3, #0
 3082 0122 07D0     		beq	.L172
1211:Generated_Source\PSoC4/BLE_hts.c ****         {
1212:Generated_Source\PSoC4/BLE_hts.c ****             cyBle_eventHandlerFlag &= (uint8)~CYBLE_CALLBACK;
 3083              		.loc 1 1212 0
 3084 0124 084B     		ldr	r3, .L173+12
 3085 0126 1B78     		ldrb	r3, [r3]
 3086 0128 DBB2     		uxtb	r3, r3
 3087 012a 0122     		movs	r2, #1
 3088 012c 9343     		bics	r3, r2
 3089 012e DAB2     		uxtb	r2, r3
 3090 0130 054B     		ldr	r3, .L173+12
 3091 0132 1A70     		strb	r2, [r3]
 3092              	.L172:
1213:Generated_Source\PSoC4/BLE_hts.c ****         }
ARM GAS  C:\Users\User\AppData\Local\Temp\ccmH1EJa.s 			page 77


1214:Generated_Source\PSoC4/BLE_hts.c ****     }
1215:Generated_Source\PSoC4/BLE_hts.c **** }
 3093              		.loc 1 1215 0
 3094 0134 C046     		nop
 3095 0136 BD46     		mov	sp, r7
 3096 0138 08B0     		add	sp, sp, #32
 3097              		@ sp needed
 3098 013a 80BD     		pop	{r7, pc}
 3099              	.L174:
 3100              		.align	2
 3101              	.L173:
 3102 013c 00000000 		.word	CyBle_HtsApplCallback
 3103 0140 06000000 		.word	cyBle_htscReqHandle
 3104 0144 00000000 		.word	cyBle_htsc
 3105 0148 00000000 		.word	cyBle_eventHandlerFlag
 3106              		.cfi_endproc
 3107              	.LFE21:
 3108              		.size	CyBle_HtscWriteResponseEventHandler, .-CyBle_HtscWriteResponseEventHandler
 3109              		.section	.text.CyBle_HtscErrorResponseEventHandler,"ax",%progbits
 3110              		.align	2
 3111              		.global	CyBle_HtscErrorResponseEventHandler
 3112              		.code	16
 3113              		.thumb_func
 3114              		.type	CyBle_HtscErrorResponseEventHandler, %function
 3115              	CyBle_HtscErrorResponseEventHandler:
 3116              	.LFB22:
1216:Generated_Source\PSoC4/BLE_hts.c **** 
1217:Generated_Source\PSoC4/BLE_hts.c **** 
1218:Generated_Source\PSoC4/BLE_hts.c **** /******************************************************************************
1219:Generated_Source\PSoC4/BLE_hts.c **** * Function Name: CyBle_HtscErrorResponseEventHandler
1220:Generated_Source\PSoC4/BLE_hts.c **** ***************************************************************************//**
1221:Generated_Source\PSoC4/BLE_hts.c **** * 
1222:Generated_Source\PSoC4/BLE_hts.c **** *  Handles Error Response Event.
1223:Generated_Source\PSoC4/BLE_hts.c **** * 
1224:Generated_Source\PSoC4/BLE_hts.c **** *  \param eventParam: The pointer to a data structure specified by an event.
1225:Generated_Source\PSoC4/BLE_hts.c **** * 
1226:Generated_Source\PSoC4/BLE_hts.c **** ******************************************************************************/
1227:Generated_Source\PSoC4/BLE_hts.c **** void CyBle_HtscErrorResponseEventHandler(const CYBLE_GATTC_ERR_RSP_PARAM_T *eventParam)
1228:Generated_Source\PSoC4/BLE_hts.c **** {
 3117              		.loc 1 1228 0
 3118              		.cfi_startproc
 3119              		@ args = 0, pretend = 0, frame = 8
 3120              		@ frame_needed = 1, uses_anonymous_args = 0
 3121 0000 80B5     		push	{r7, lr}
 3122              		.cfi_def_cfa_offset 8
 3123              		.cfi_offset 7, -8
 3124              		.cfi_offset 14, -4
 3125 0002 82B0     		sub	sp, sp, #8
 3126              		.cfi_def_cfa_offset 16
 3127 0004 00AF     		add	r7, sp, #0
 3128              		.cfi_def_cfa_register 7
 3129 0006 7860     		str	r0, [r7, #4]
1229:Generated_Source\PSoC4/BLE_hts.c ****     if((eventParam != NULL) && (eventParam->attrHandle == cyBle_htscReqHandle))
 3130              		.loc 1 1229 0
 3131 0008 7B68     		ldr	r3, [r7, #4]
 3132 000a 002B     		cmp	r3, #0
 3133 000c 08D0     		beq	.L177
ARM GAS  C:\Users\User\AppData\Local\Temp\ccmH1EJa.s 			page 78


 3134              		.loc 1 1229 0 is_stmt 0 discriminator 1
 3135 000e 7B68     		ldr	r3, [r7, #4]
 3136 0010 9A88     		ldrh	r2, [r3, #4]
 3137 0012 054B     		ldr	r3, .L178
 3138 0014 1B88     		ldrh	r3, [r3]
 3139 0016 9A42     		cmp	r2, r3
 3140 0018 02D1     		bne	.L177
1230:Generated_Source\PSoC4/BLE_hts.c ****     {
1231:Generated_Source\PSoC4/BLE_hts.c ****         cyBle_htscReqHandle = CYBLE_GATT_INVALID_ATTR_HANDLE_VALUE;
 3141              		.loc 1 1231 0 is_stmt 1
 3142 001a 034B     		ldr	r3, .L178
 3143 001c 0022     		movs	r2, #0
 3144 001e 1A80     		strh	r2, [r3]
 3145              	.L177:
1232:Generated_Source\PSoC4/BLE_hts.c ****     }
1233:Generated_Source\PSoC4/BLE_hts.c **** }
 3146              		.loc 1 1233 0
 3147 0020 C046     		nop
 3148 0022 BD46     		mov	sp, r7
 3149 0024 02B0     		add	sp, sp, #8
 3150              		@ sp needed
 3151 0026 80BD     		pop	{r7, pc}
 3152              	.L179:
 3153              		.align	2
 3154              	.L178:
 3155 0028 06000000 		.word	cyBle_htscReqHandle
 3156              		.cfi_endproc
 3157              	.LFE22:
 3158              		.size	CyBle_HtscErrorResponseEventHandler, .-CyBle_HtscErrorResponseEventHandler
 3159              		.bss
 3160              		.align	2
 3161              	htsLastEndHandle.6943:
 3162 0008 00000000 		.space	4
 3163              		.section	.rodata
 3164 001a 0000     		.align	2
 3165              		.type	cyBle_htscCharUuid.6941, %object
 3166              		.size	cyBle_htscCharUuid.6941, 8
 3167              	cyBle_htscCharUuid.6941:
 3168 001c 1C2A     		.short	10780
 3169 001e 1D2A     		.short	10781
 3170 0020 1E2A     		.short	10782
 3171 0022 212A     		.short	10785
 3172              		.text
 3173              	.Letext0:
 3174              		.file 2 "Generated_Source\\PSoC4\\cytypes.h"
 3175              		.file 3 "Generated_Source\\PSoC4\\BLE_Stack.h"
 3176              		.file 4 "Generated_Source\\PSoC4\\BLE_StackGatt.h"
 3177              		.file 5 "Generated_Source\\PSoC4\\BLE_StackGattServer.h"
 3178              		.file 6 "Generated_Source\\PSoC4\\BLE_StackGattClient.h"
 3179              		.file 7 "Generated_Source\\PSoC4\\BLE_StackGattDb.h"
 3180              		.file 8 "Generated_Source\\PSoC4\\BLE.h"
 3181              		.file 9 "Generated_Source\\PSoC4\\BLE_gatt.h"
 3182              		.file 10 "Generated_Source\\PSoC4\\BLE_hts.h"
 3183              		.file 11 "Generated_Source\\PSoC4\\BLE_eventHandler.h"
 3184              		.section	.debug_info,"",%progbits
 3185              	.Ldebug_info0:
 3186 0000 471D0000 		.4byte	0x1d47
ARM GAS  C:\Users\User\AppData\Local\Temp\ccmH1EJa.s 			page 79


 3187 0004 0400     		.2byte	0x4
 3188 0006 00000000 		.4byte	.Ldebug_abbrev0
 3189 000a 04       		.byte	0x4
 3190 000b 01       		.uleb128 0x1
 3191 000c 441D0000 		.4byte	.LASF658
 3192 0010 0C       		.byte	0xc
 3193 0011 B0200000 		.4byte	.LASF659
 3194 0015 560F0000 		.4byte	.LASF660
 3195 0019 00000000 		.4byte	.Ldebug_ranges0+0
 3196 001d 00000000 		.4byte	0
 3197 0021 00000000 		.4byte	.Ldebug_line0
 3198 0025 02       		.uleb128 0x2
 3199 0026 01       		.byte	0x1
 3200 0027 06       		.byte	0x6
 3201 0028 59100000 		.4byte	.LASF0
 3202 002c 02       		.uleb128 0x2
 3203 002d 01       		.byte	0x1
 3204 002e 08       		.byte	0x8
 3205 002f A5110000 		.4byte	.LASF1
 3206 0033 02       		.uleb128 0x2
 3207 0034 02       		.byte	0x2
 3208 0035 05       		.byte	0x5
 3209 0036 6B3E0000 		.4byte	.LASF2
 3210 003a 02       		.uleb128 0x2
 3211 003b 02       		.byte	0x2
 3212 003c 07       		.byte	0x7
 3213 003d 31470000 		.4byte	.LASF3
 3214 0041 02       		.uleb128 0x2
 3215 0042 04       		.byte	0x4
 3216 0043 05       		.byte	0x5
 3217 0044 800C0000 		.4byte	.LASF4
 3218 0048 02       		.uleb128 0x2
 3219 0049 04       		.byte	0x4
 3220 004a 07       		.byte	0x7
 3221 004b 12200000 		.4byte	.LASF5
 3222 004f 02       		.uleb128 0x2
 3223 0050 08       		.byte	0x8
 3224 0051 05       		.byte	0x5
 3225 0052 D9250000 		.4byte	.LASF6
 3226 0056 02       		.uleb128 0x2
 3227 0057 08       		.byte	0x8
 3228 0058 07       		.byte	0x7
 3229 0059 CC340000 		.4byte	.LASF7
 3230 005d 03       		.uleb128 0x3
 3231 005e 04       		.byte	0x4
 3232 005f 05       		.byte	0x5
 3233 0060 696E7400 		.ascii	"int\000"
 3234 0064 02       		.uleb128 0x2
 3235 0065 04       		.byte	0x4
 3236 0066 07       		.byte	0x7
 3237 0067 5B2B0000 		.4byte	.LASF8
 3238 006b 04       		.uleb128 0x4
 3239 006c 9C3D0000 		.4byte	.LASF9
 3240 0070 02       		.byte	0x2
 3241 0071 E601     		.2byte	0x1e6
 3242 0073 2C000000 		.4byte	0x2c
 3243 0077 04       		.uleb128 0x4
ARM GAS  C:\Users\User\AppData\Local\Temp\ccmH1EJa.s 			page 80


 3244 0078 B34A0000 		.4byte	.LASF10
 3245 007c 02       		.byte	0x2
 3246 007d E701     		.2byte	0x1e7
 3247 007f 3A000000 		.4byte	0x3a
 3248 0083 04       		.uleb128 0x4
 3249 0084 D1030000 		.4byte	.LASF11
 3250 0088 02       		.byte	0x2
 3251 0089 E801     		.2byte	0x1e8
 3252 008b 48000000 		.4byte	0x48
 3253 008f 02       		.uleb128 0x2
 3254 0090 04       		.byte	0x4
 3255 0091 04       		.byte	0x4
 3256 0092 71290000 		.4byte	.LASF12
 3257 0096 02       		.uleb128 0x2
 3258 0097 08       		.byte	0x8
 3259 0098 04       		.byte	0x4
 3260 0099 3F270000 		.4byte	.LASF13
 3261 009d 02       		.uleb128 0x2
 3262 009e 01       		.byte	0x1
 3263 009f 08       		.byte	0x8
 3264 00a0 7C140000 		.4byte	.LASF14
 3265 00a4 05       		.uleb128 0x5
 3266 00a5 6B000000 		.4byte	0x6b
 3267 00a9 02       		.uleb128 0x2
 3268 00aa 08       		.byte	0x8
 3269 00ab 04       		.byte	0x4
 3270 00ac 75310000 		.4byte	.LASF15
 3271 00b0 02       		.uleb128 0x2
 3272 00b1 04       		.byte	0x4
 3273 00b2 07       		.byte	0x7
 3274 00b3 B4000000 		.4byte	.LASF16
 3275 00b7 06       		.uleb128 0x6
 3276 00b8 04       		.byte	0x4
 3277 00b9 07       		.uleb128 0x7
 3278 00ba 04       		.byte	0x4
 3279 00bb BF000000 		.4byte	0xbf
 3280 00bf 08       		.uleb128 0x8
 3281 00c0 CF000000 		.4byte	0xcf
 3282 00c4 09       		.uleb128 0x9
 3283 00c5 83000000 		.4byte	0x83
 3284 00c9 09       		.uleb128 0x9
 3285 00ca B7000000 		.4byte	0xb7
 3286 00ce 00       		.byte	0
 3287 00cf 0A       		.uleb128 0xa
 3288 00d0 01       		.byte	0x1
 3289 00d1 2C000000 		.4byte	0x2c
 3290 00d5 03       		.byte	0x3
 3291 00d6 3501     		.2byte	0x135
 3292 00d8 8D020000 		.4byte	0x28d
 3293 00dc 0B       		.uleb128 0xb
 3294 00dd 62150000 		.4byte	.LASF17
 3295 00e1 00       		.byte	0
 3296 00e2 0B       		.uleb128 0xb
 3297 00e3 810D0000 		.4byte	.LASF18
 3298 00e7 01       		.byte	0x1
 3299 00e8 0B       		.uleb128 0xb
 3300 00e9 01350000 		.4byte	.LASF19
ARM GAS  C:\Users\User\AppData\Local\Temp\ccmH1EJa.s 			page 81


 3301 00ed 02       		.byte	0x2
 3302 00ee 0B       		.uleb128 0xb
 3303 00ef E8100000 		.4byte	.LASF20
 3304 00f3 03       		.byte	0x3
 3305 00f4 0B       		.uleb128 0xb
 3306 00f5 B7480000 		.4byte	.LASF21
 3307 00f9 04       		.byte	0x4
 3308 00fa 0B       		.uleb128 0xb
 3309 00fb 53450000 		.4byte	.LASF22
 3310 00ff 05       		.byte	0x5
 3311 0100 0B       		.uleb128 0xb
 3312 0101 D4310000 		.4byte	.LASF23
 3313 0105 06       		.byte	0x6
 3314 0106 0B       		.uleb128 0xb
 3315 0107 48410000 		.4byte	.LASF24
 3316 010b 20       		.byte	0x20
 3317 010c 0B       		.uleb128 0xb
 3318 010d 32090000 		.4byte	.LASF25
 3319 0111 21       		.byte	0x21
 3320 0112 0B       		.uleb128 0xb
 3321 0113 B4240000 		.4byte	.LASF26
 3322 0117 22       		.byte	0x22
 3323 0118 0B       		.uleb128 0xb
 3324 0119 692F0000 		.4byte	.LASF27
 3325 011d 23       		.byte	0x23
 3326 011e 0B       		.uleb128 0xb
 3327 011f B21E0000 		.4byte	.LASF28
 3328 0123 24       		.byte	0x24
 3329 0124 0B       		.uleb128 0xb
 3330 0125 151F0000 		.4byte	.LASF29
 3331 0129 25       		.byte	0x25
 3332 012a 0B       		.uleb128 0xb
 3333 012b BA3C0000 		.4byte	.LASF30
 3334 012f 26       		.byte	0x26
 3335 0130 0B       		.uleb128 0xb
 3336 0131 30030000 		.4byte	.LASF31
 3337 0135 27       		.byte	0x27
 3338 0136 0B       		.uleb128 0xb
 3339 0137 014A0000 		.4byte	.LASF32
 3340 013b 28       		.byte	0x28
 3341 013c 0B       		.uleb128 0xb
 3342 013d CC320000 		.4byte	.LASF33
 3343 0141 29       		.byte	0x29
 3344 0142 0B       		.uleb128 0xb
 3345 0143 62230000 		.4byte	.LASF34
 3346 0147 2A       		.byte	0x2a
 3347 0148 0B       		.uleb128 0xb
 3348 0149 AD2E0000 		.4byte	.LASF35
 3349 014d 2B       		.byte	0x2b
 3350 014e 0B       		.uleb128 0xb
 3351 014f B1450000 		.4byte	.LASF36
 3352 0153 2C       		.byte	0x2c
 3353 0154 0B       		.uleb128 0xb
 3354 0155 0C020000 		.4byte	.LASF37
 3355 0159 2D       		.byte	0x2d
 3356 015a 0B       		.uleb128 0xb
 3357 015b E83D0000 		.4byte	.LASF38
ARM GAS  C:\Users\User\AppData\Local\Temp\ccmH1EJa.s 			page 82


 3358 015f 2E       		.byte	0x2e
 3359 0160 0B       		.uleb128 0xb
 3360 0161 830A0000 		.4byte	.LASF39
 3361 0165 2F       		.byte	0x2f
 3362 0166 0B       		.uleb128 0xb
 3363 0167 36140000 		.4byte	.LASF40
 3364 016b 30       		.byte	0x30
 3365 016c 0B       		.uleb128 0xb
 3366 016d 77280000 		.4byte	.LASF41
 3367 0171 31       		.byte	0x31
 3368 0172 0B       		.uleb128 0xb
 3369 0173 B2150000 		.4byte	.LASF42
 3370 0177 32       		.byte	0x32
 3371 0178 0B       		.uleb128 0xb
 3372 0179 D1120000 		.4byte	.LASF43
 3373 017d 33       		.byte	0x33
 3374 017e 0B       		.uleb128 0xb
 3375 017f F8120000 		.4byte	.LASF44
 3376 0183 34       		.byte	0x34
 3377 0184 0B       		.uleb128 0xb
 3378 0185 B4420000 		.4byte	.LASF45
 3379 0189 35       		.byte	0x35
 3380 018a 0B       		.uleb128 0xb
 3381 018b 280A0000 		.4byte	.LASF46
 3382 018f 36       		.byte	0x36
 3383 0190 0B       		.uleb128 0xb
 3384 0191 FC330000 		.4byte	.LASF47
 3385 0195 37       		.byte	0x37
 3386 0196 0B       		.uleb128 0xb
 3387 0197 943F0000 		.4byte	.LASF48
 3388 019b 40       		.byte	0x40
 3389 019c 0B       		.uleb128 0xb
 3390 019d 93030000 		.4byte	.LASF49
 3391 01a1 41       		.byte	0x41
 3392 01a2 0B       		.uleb128 0xb
 3393 01a3 F2480000 		.4byte	.LASF50
 3394 01a7 42       		.byte	0x42
 3395 01a8 0B       		.uleb128 0xb
 3396 01a9 4B330000 		.4byte	.LASF51
 3397 01ad 43       		.byte	0x43
 3398 01ae 0B       		.uleb128 0xb
 3399 01af B3110000 		.4byte	.LASF52
 3400 01b3 44       		.byte	0x44
 3401 01b4 0B       		.uleb128 0xb
 3402 01b5 47110000 		.4byte	.LASF53
 3403 01b9 45       		.byte	0x45
 3404 01ba 0B       		.uleb128 0xb
 3405 01bb 133A0000 		.4byte	.LASF54
 3406 01bf 46       		.byte	0x46
 3407 01c0 0B       		.uleb128 0xb
 3408 01c1 F5390000 		.4byte	.LASF55
 3409 01c5 47       		.byte	0x47
 3410 01c6 0B       		.uleb128 0xb
 3411 01c7 D7130000 		.4byte	.LASF56
 3412 01cb 48       		.byte	0x48
 3413 01cc 0B       		.uleb128 0xb
 3414 01cd 2A300000 		.4byte	.LASF57
ARM GAS  C:\Users\User\AppData\Local\Temp\ccmH1EJa.s 			page 83


 3415 01d1 49       		.byte	0x49
 3416 01d2 0B       		.uleb128 0xb
 3417 01d3 2C160000 		.4byte	.LASF58
 3418 01d7 4A       		.byte	0x4a
 3419 01d8 0B       		.uleb128 0xb
 3420 01d9 F2140000 		.4byte	.LASF59
 3421 01dd 4B       		.byte	0x4b
 3422 01de 0B       		.uleb128 0xb
 3423 01df 112F0000 		.4byte	.LASF60
 3424 01e3 4C       		.byte	0x4c
 3425 01e4 0B       		.uleb128 0xb
 3426 01e5 E03B0000 		.4byte	.LASF61
 3427 01e9 4D       		.byte	0x4d
 3428 01ea 0B       		.uleb128 0xb
 3429 01eb 1B0C0000 		.4byte	.LASF62
 3430 01ef 4E       		.byte	0x4e
 3431 01f0 0B       		.uleb128 0xb
 3432 01f1 682B0000 		.4byte	.LASF63
 3433 01f5 4F       		.byte	0x4f
 3434 01f6 0B       		.uleb128 0xb
 3435 01f7 29410000 		.4byte	.LASF64
 3436 01fb 50       		.byte	0x50
 3437 01fc 0B       		.uleb128 0xb
 3438 01fd A7160000 		.4byte	.LASF65
 3439 0201 51       		.byte	0x51
 3440 0202 0B       		.uleb128 0xb
 3441 0203 11090000 		.4byte	.LASF66
 3442 0207 52       		.byte	0x52
 3443 0208 0B       		.uleb128 0xb
 3444 0209 AD440000 		.4byte	.LASF67
 3445 020d 53       		.byte	0x53
 3446 020e 0B       		.uleb128 0xb
 3447 020f 434A0000 		.4byte	.LASF68
 3448 0213 54       		.byte	0x54
 3449 0214 0B       		.uleb128 0xb
 3450 0215 50070000 		.4byte	.LASF69
 3451 0219 55       		.byte	0x55
 3452 021a 0B       		.uleb128 0xb
 3453 021b D4170000 		.4byte	.LASF70
 3454 021f 56       		.byte	0x56
 3455 0220 0B       		.uleb128 0xb
 3456 0221 1D2A0000 		.4byte	.LASF71
 3457 0225 57       		.byte	0x57
 3458 0226 0B       		.uleb128 0xb
 3459 0227 C2490000 		.4byte	.LASF72
 3460 022b 58       		.byte	0x58
 3461 022c 0B       		.uleb128 0xb
 3462 022d 23460000 		.4byte	.LASF73
 3463 0231 70       		.byte	0x70
 3464 0232 0B       		.uleb128 0xb
 3465 0233 C21C0000 		.4byte	.LASF74
 3466 0237 71       		.byte	0x71
 3467 0238 0B       		.uleb128 0xb
 3468 0239 A70F0000 		.4byte	.LASF75
 3469 023d 72       		.byte	0x72
 3470 023e 0B       		.uleb128 0xb
 3471 023f 0B410000 		.4byte	.LASF76
ARM GAS  C:\Users\User\AppData\Local\Temp\ccmH1EJa.s 			page 84


 3472 0243 73       		.byte	0x73
 3473 0244 0B       		.uleb128 0xb
 3474 0245 97300000 		.4byte	.LASF77
 3475 0249 74       		.byte	0x74
 3476 024a 0B       		.uleb128 0xb
 3477 024b F6230000 		.4byte	.LASF78
 3478 024f 75       		.byte	0x75
 3479 0250 0B       		.uleb128 0xb
 3480 0251 B6130000 		.4byte	.LASF79
 3481 0255 76       		.byte	0x76
 3482 0256 0B       		.uleb128 0xb
 3483 0257 C6350000 		.4byte	.LASF80
 3484 025b 77       		.byte	0x77
 3485 025c 0B       		.uleb128 0xb
 3486 025d 74070000 		.4byte	.LASF81
 3487 0261 78       		.byte	0x78
 3488 0262 0B       		.uleb128 0xb
 3489 0263 5D0C0000 		.4byte	.LASF82
 3490 0267 79       		.byte	0x79
 3491 0268 0B       		.uleb128 0xb
 3492 0269 36490000 		.4byte	.LASF83
 3493 026d 7A       		.byte	0x7a
 3494 026e 0B       		.uleb128 0xb
 3495 026f A1270000 		.4byte	.LASF84
 3496 0273 FA       		.byte	0xfa
 3497 0274 0B       		.uleb128 0xb
 3498 0275 D3430000 		.4byte	.LASF85
 3499 0279 FB       		.byte	0xfb
 3500 027a 0B       		.uleb128 0xb
 3501 027b E81C0000 		.4byte	.LASF86
 3502 027f FC       		.byte	0xfc
 3503 0280 0B       		.uleb128 0xb
 3504 0281 5D310000 		.4byte	.LASF87
 3505 0285 FD       		.byte	0xfd
 3506 0286 0B       		.uleb128 0xb
 3507 0287 9F2E0000 		.4byte	.LASF88
 3508 028b FF       		.byte	0xff
 3509 028c 00       		.byte	0
 3510 028d 0A       		.uleb128 0xa
 3511 028e 02       		.byte	0x2
 3512 028f 3A000000 		.4byte	0x3a
 3513 0293 03       		.byte	0x3
 3514 0294 EA03     		.2byte	0x3ea
 3515 0296 6C030000 		.4byte	0x36c
 3516 029a 0B       		.uleb128 0xb
 3517 029b 01110000 		.4byte	.LASF89
 3518 029f 00       		.byte	0
 3519 02a0 0B       		.uleb128 0xb
 3520 02a1 31190000 		.4byte	.LASF90
 3521 02a5 01       		.byte	0x1
 3522 02a6 0B       		.uleb128 0xb
 3523 02a7 99480000 		.4byte	.LASF91
 3524 02ab 02       		.byte	0x2
 3525 02ac 0B       		.uleb128 0xb
 3526 02ad EC1A0000 		.4byte	.LASF92
 3527 02b1 03       		.byte	0x3
 3528 02b2 0B       		.uleb128 0xb
ARM GAS  C:\Users\User\AppData\Local\Temp\ccmH1EJa.s 			page 85


 3529 02b3 801F0000 		.4byte	.LASF93
 3530 02b7 04       		.byte	0x4
 3531 02b8 0B       		.uleb128 0xb
 3532 02b9 F3260000 		.4byte	.LASF94
 3533 02bd 05       		.byte	0x5
 3534 02be 0B       		.uleb128 0xb
 3535 02bf 96430000 		.4byte	.LASF95
 3536 02c3 06       		.byte	0x6
 3537 02c4 0B       		.uleb128 0xb
 3538 02c5 0F160000 		.4byte	.LASF96
 3539 02c9 07       		.byte	0x7
 3540 02ca 0B       		.uleb128 0xb
 3541 02cb 16290000 		.4byte	.LASF97
 3542 02cf 08       		.byte	0x8
 3543 02d0 0B       		.uleb128 0xb
 3544 02d1 24420000 		.4byte	.LASF98
 3545 02d5 09       		.byte	0x9
 3546 02d6 0B       		.uleb128 0xb
 3547 02d7 DE4A0000 		.4byte	.LASF99
 3548 02db 0A       		.byte	0xa
 3549 02dc 0B       		.uleb128 0xb
 3550 02dd A8090000 		.4byte	.LASF100
 3551 02e1 0B       		.byte	0xb
 3552 02e2 0B       		.uleb128 0xb
 3553 02e3 16450000 		.4byte	.LASF101
 3554 02e7 0C       		.byte	0xc
 3555 02e8 0B       		.uleb128 0xb
 3556 02e9 9B2D0000 		.4byte	.LASF102
 3557 02ed 0D       		.byte	0xd
 3558 02ee 0B       		.uleb128 0xb
 3559 02ef B9210000 		.4byte	.LASF103
 3560 02f3 0E       		.byte	0xe
 3561 02f4 0B       		.uleb128 0xb
 3562 02f5 CE260000 		.4byte	.LASF104
 3563 02f9 0F       		.byte	0xf
 3564 02fa 0B       		.uleb128 0xb
 3565 02fb A7060000 		.4byte	.LASF105
 3566 02ff 10       		.byte	0x10
 3567 0300 0B       		.uleb128 0xb
 3568 0301 E5280000 		.4byte	.LASF106
 3569 0305 11       		.byte	0x11
 3570 0306 0B       		.uleb128 0xb
 3571 0307 940D0000 		.4byte	.LASF107
 3572 030b 12       		.byte	0x12
 3573 030c 0B       		.uleb128 0xb
 3574 030d 31100000 		.4byte	.LASF108
 3575 0311 13       		.byte	0x13
 3576 0312 0B       		.uleb128 0xb
 3577 0313 46270000 		.4byte	.LASF109
 3578 0317 27       		.byte	0x27
 3579 0318 0B       		.uleb128 0xb
 3580 0319 D2290000 		.4byte	.LASF110
 3581 031d 28       		.byte	0x28
 3582 031e 0B       		.uleb128 0xb
 3583 031f F9060000 		.4byte	.LASF111
 3584 0323 29       		.byte	0x29
 3585 0324 0B       		.uleb128 0xb
ARM GAS  C:\Users\User\AppData\Local\Temp\ccmH1EJa.s 			page 86


 3586 0325 E73E0000 		.4byte	.LASF112
 3587 0329 2A       		.byte	0x2a
 3588 032a 0B       		.uleb128 0xb
 3589 032b EE200000 		.4byte	.LASF113
 3590 032f 2B       		.byte	0x2b
 3591 0330 0B       		.uleb128 0xb
 3592 0331 3B370000 		.4byte	.LASF114
 3593 0335 2C       		.byte	0x2c
 3594 0336 0B       		.uleb128 0xb
 3595 0337 693B0000 		.4byte	.LASF115
 3596 033b 2D       		.byte	0x2d
 3597 033c 0B       		.uleb128 0xb
 3598 033d 15190000 		.4byte	.LASF116
 3599 0341 FE       		.byte	0xfe
 3600 0342 0B       		.uleb128 0xb
 3601 0343 8F1C0000 		.4byte	.LASF117
 3602 0347 FF       		.byte	0xff
 3603 0348 0C       		.uleb128 0xc
 3604 0349 A82F0000 		.4byte	.LASF118
 3605 034d 0001     		.2byte	0x100
 3606 034f 0C       		.uleb128 0xc
 3607 0350 8F2F0000 		.4byte	.LASF119
 3608 0354 0101     		.2byte	0x101
 3609 0356 0C       		.uleb128 0xc
 3610 0357 AD0E0000 		.4byte	.LASF120
 3611 035b 0201     		.2byte	0x102
 3612 035d 0C       		.uleb128 0xc
 3613 035e 6D350000 		.4byte	.LASF121
 3614 0362 0301     		.2byte	0x103
 3615 0364 0C       		.uleb128 0xc
 3616 0365 4C1F0000 		.4byte	.LASF122
 3617 0369 0401     		.2byte	0x104
 3618 036b 00       		.byte	0
 3619 036c 04       		.uleb128 0x4
 3620 036d F2430000 		.4byte	.LASF123
 3621 0371 03       		.byte	0x3
 3622 0372 5C04     		.2byte	0x45c
 3623 0374 8D020000 		.4byte	0x28d
 3624 0378 07       		.uleb128 0x7
 3625 0379 04       		.byte	0x4
 3626 037a 6B000000 		.4byte	0x6b
 3627 037e 0D       		.uleb128 0xd
 3628 037f 6B000000 		.4byte	0x6b
 3629 0383 8E030000 		.4byte	0x38e
 3630 0387 0E       		.uleb128 0xe
 3631 0388 B0000000 		.4byte	0xb0
 3632 038c 0F       		.byte	0xf
 3633 038d 00       		.byte	0
 3634 038e 0F       		.uleb128 0xf
 3635 038f 01       		.byte	0x1
 3636 0390 2C000000 		.4byte	0x2c
 3637 0394 04       		.byte	0x4
 3638 0395 49       		.byte	0x49
 3639 0396 49040000 		.4byte	0x449
 3640 039a 0B       		.uleb128 0xb
 3641 039b 00190000 		.4byte	.LASF124
 3642 039f 01       		.byte	0x1
ARM GAS  C:\Users\User\AppData\Local\Temp\ccmH1EJa.s 			page 87


 3643 03a0 0B       		.uleb128 0xb
 3644 03a1 F6150000 		.4byte	.LASF125
 3645 03a5 02       		.byte	0x2
 3646 03a6 0B       		.uleb128 0xb
 3647 03a7 BC0B0000 		.4byte	.LASF126
 3648 03ab 03       		.byte	0x3
 3649 03ac 0B       		.uleb128 0xb
 3650 03ad CF100000 		.4byte	.LASF127
 3651 03b1 04       		.byte	0x4
 3652 03b2 0B       		.uleb128 0xb
 3653 03b3 BF330000 		.4byte	.LASF128
 3654 03b7 05       		.byte	0x5
 3655 03b8 0B       		.uleb128 0xb
 3656 03b9 81310000 		.4byte	.LASF129
 3657 03bd 06       		.byte	0x6
 3658 03be 0B       		.uleb128 0xb
 3659 03bf 5F0D0000 		.4byte	.LASF130
 3660 03c3 07       		.byte	0x7
 3661 03c4 0B       		.uleb128 0xb
 3662 03c5 7B300000 		.4byte	.LASF131
 3663 03c9 08       		.byte	0x8
 3664 03ca 0B       		.uleb128 0xb
 3665 03cb A4080000 		.4byte	.LASF132
 3666 03cf 09       		.byte	0x9
 3667 03d0 0B       		.uleb128 0xb
 3668 03d1 24200000 		.4byte	.LASF133
 3669 03d5 0A       		.byte	0xa
 3670 03d6 0B       		.uleb128 0xb
 3671 03d7 79430000 		.4byte	.LASF134
 3672 03db 0B       		.byte	0xb
 3673 03dc 0B       		.uleb128 0xb
 3674 03dd 62380000 		.4byte	.LASF135
 3675 03e1 0C       		.byte	0xc
 3676 03e2 0B       		.uleb128 0xb
 3677 03e3 DB0F0000 		.4byte	.LASF136
 3678 03e7 0D       		.byte	0xd
 3679 03e8 0B       		.uleb128 0xb
 3680 03e9 DF2F0000 		.4byte	.LASF137
 3681 03ed 0E       		.byte	0xe
 3682 03ee 0B       		.uleb128 0xb
 3683 03ef D8070000 		.4byte	.LASF138
 3684 03f3 0F       		.byte	0xf
 3685 03f4 0B       		.uleb128 0xb
 3686 03f5 15480000 		.4byte	.LASF139
 3687 03f9 10       		.byte	0x10
 3688 03fa 0B       		.uleb128 0xb
 3689 03fb 631F0000 		.4byte	.LASF140
 3690 03ff 11       		.byte	0x11
 3691 0400 0B       		.uleb128 0xb
 3692 0401 313E0000 		.4byte	.LASF141
 3693 0405 12       		.byte	0x12
 3694 0406 0B       		.uleb128 0xb
 3695 0407 B8140000 		.4byte	.LASF142
 3696 040b 13       		.byte	0x13
 3697 040c 0B       		.uleb128 0xb
 3698 040d BC030000 		.4byte	.LASF143
 3699 0411 52       		.byte	0x52
ARM GAS  C:\Users\User\AppData\Local\Temp\ccmH1EJa.s 			page 88


 3700 0412 0B       		.uleb128 0xb
 3701 0413 64060000 		.4byte	.LASF144
 3702 0417 16       		.byte	0x16
 3703 0418 0B       		.uleb128 0xb
 3704 0419 C02D0000 		.4byte	.LASF145
 3705 041d 17       		.byte	0x17
 3706 041e 0B       		.uleb128 0xb
 3707 041f E1450000 		.4byte	.LASF146
 3708 0423 18       		.byte	0x18
 3709 0424 0B       		.uleb128 0xb
 3710 0425 721C0000 		.4byte	.LASF147
 3711 0429 19       		.byte	0x19
 3712 042a 0B       		.uleb128 0xb
 3713 042b 55210000 		.4byte	.LASF148
 3714 042f 1B       		.byte	0x1b
 3715 0430 0B       		.uleb128 0xb
 3716 0431 F5110000 		.4byte	.LASF149
 3717 0435 1D       		.byte	0x1d
 3718 0436 0B       		.uleb128 0xb
 3719 0437 8A010000 		.4byte	.LASF150
 3720 043b 1E       		.byte	0x1e
 3721 043c 0B       		.uleb128 0xb
 3722 043d C41B0000 		.4byte	.LASF151
 3723 0441 D2       		.byte	0xd2
 3724 0442 0B       		.uleb128 0xb
 3725 0443 52350000 		.4byte	.LASF152
 3726 0447 FF       		.byte	0xff
 3727 0448 00       		.byte	0
 3728 0449 10       		.uleb128 0x10
 3729 044a F20C0000 		.4byte	.LASF153
 3730 044e 04       		.byte	0x4
 3731 044f A1       		.byte	0xa1
 3732 0450 8E030000 		.4byte	0x38e
 3733 0454 0F       		.uleb128 0xf
 3734 0455 01       		.byte	0x1
 3735 0456 2C000000 		.4byte	0x2c
 3736 045a 04       		.byte	0x4
 3737 045b A5       		.byte	0xa5
 3738 045c 4B050000 		.4byte	0x54b
 3739 0460 0B       		.uleb128 0xb
 3740 0461 E5350000 		.4byte	.LASF154
 3741 0465 00       		.byte	0
 3742 0466 0B       		.uleb128 0xb
 3743 0467 E3340000 		.4byte	.LASF155
 3744 046b 01       		.byte	0x1
 3745 046c 0B       		.uleb128 0xb
 3746 046d 0E060000 		.4byte	.LASF156
 3747 0471 02       		.byte	0x2
 3748 0472 0B       		.uleb128 0xb
 3749 0473 D7460000 		.4byte	.LASF157
 3750 0477 03       		.byte	0x3
 3751 0478 0B       		.uleb128 0xb
 3752 0479 920E0000 		.4byte	.LASF158
 3753 047d 04       		.byte	0x4
 3754 047e 0B       		.uleb128 0xb
 3755 047f 942B0000 		.4byte	.LASF159
 3756 0483 05       		.byte	0x5
ARM GAS  C:\Users\User\AppData\Local\Temp\ccmH1EJa.s 			page 89


 3757 0484 0B       		.uleb128 0xb
 3758 0485 583F0000 		.4byte	.LASF160
 3759 0489 06       		.byte	0x6
 3760 048a 0B       		.uleb128 0xb
 3761 048b 5D300000 		.4byte	.LASF161
 3762 048f 07       		.byte	0x7
 3763 0490 0B       		.uleb128 0xb
 3764 0491 AC2A0000 		.4byte	.LASF162
 3765 0495 08       		.byte	0x8
 3766 0496 0B       		.uleb128 0xb
 3767 0497 84260000 		.4byte	.LASF163
 3768 049b 09       		.byte	0x9
 3769 049c 0B       		.uleb128 0xb
 3770 049d 022E0000 		.4byte	.LASF164
 3771 04a1 0A       		.byte	0xa
 3772 04a2 0B       		.uleb128 0xb
 3773 04a3 20170000 		.4byte	.LASF165
 3774 04a7 0B       		.byte	0xb
 3775 04a8 0B       		.uleb128 0xb
 3776 04a9 BF270000 		.4byte	.LASF166
 3777 04ad 0C       		.byte	0xc
 3778 04ae 0B       		.uleb128 0xb
 3779 04af F40F0000 		.4byte	.LASF167
 3780 04b3 0D       		.byte	0xd
 3781 04b4 0B       		.uleb128 0xb
 3782 04b5 94150000 		.4byte	.LASF168
 3783 04b9 0E       		.byte	0xe
 3784 04ba 0B       		.uleb128 0xb
 3785 04bb 44470000 		.4byte	.LASF169
 3786 04bf 0F       		.byte	0xf
 3787 04c0 0B       		.uleb128 0xb
 3788 04c1 81060000 		.4byte	.LASF170
 3789 04c5 10       		.byte	0x10
 3790 04c6 0B       		.uleb128 0xb
 3791 04c7 30060000 		.4byte	.LASF171
 3792 04cb 11       		.byte	0x11
 3793 04cc 0B       		.uleb128 0xb
 3794 04cd 0F080000 		.4byte	.LASF172
 3795 04d1 80       		.byte	0x80
 3796 04d2 0B       		.uleb128 0xb
 3797 04d3 C6160000 		.4byte	.LASF173
 3798 04d7 80       		.byte	0x80
 3799 04d8 0B       		.uleb128 0xb
 3800 04d9 331E0000 		.4byte	.LASF174
 3801 04dd 80       		.byte	0x80
 3802 04de 0B       		.uleb128 0xb
 3803 04df 043F0000 		.4byte	.LASF175
 3804 04e3 80       		.byte	0x80
 3805 04e4 0B       		.uleb128 0xb
 3806 04e5 76370000 		.4byte	.LASF176
 3807 04e9 80       		.byte	0x80
 3808 04ea 0B       		.uleb128 0xb
 3809 04eb D62C0000 		.4byte	.LASF177
 3810 04ef 80       		.byte	0x80
 3811 04f0 0B       		.uleb128 0xb
 3812 04f1 C91F0000 		.4byte	.LASF178
 3813 04f5 80       		.byte	0x80
ARM GAS  C:\Users\User\AppData\Local\Temp\ccmH1EJa.s 			page 90


 3814 04f6 0B       		.uleb128 0xb
 3815 04f7 79150000 		.4byte	.LASF179
 3816 04fb 80       		.byte	0x80
 3817 04fc 0B       		.uleb128 0xb
 3818 04fd 241C0000 		.4byte	.LASF180
 3819 0501 81       		.byte	0x81
 3820 0502 0B       		.uleb128 0xb
 3821 0503 A13A0000 		.4byte	.LASF181
 3822 0507 81       		.byte	0x81
 3823 0508 0B       		.uleb128 0xb
 3824 0509 76000000 		.4byte	.LASF182
 3825 050d 81       		.byte	0x81
 3826 050e 0B       		.uleb128 0xb
 3827 050f 190E0000 		.4byte	.LASF183
 3828 0513 81       		.byte	0x81
 3829 0514 0B       		.uleb128 0xb
 3830 0515 C10A0000 		.4byte	.LASF184
 3831 0519 82       		.byte	0x82
 3832 051a 0B       		.uleb128 0xb
 3833 051b 0F430000 		.4byte	.LASF185
 3834 051f A0       		.byte	0xa0
 3835 0520 0B       		.uleb128 0xb
 3836 0521 2C220000 		.4byte	.LASF186
 3837 0525 A0       		.byte	0xa0
 3838 0526 0B       		.uleb128 0xb
 3839 0527 2F0B0000 		.4byte	.LASF187
 3840 052b A1       		.byte	0xa1
 3841 052c 0B       		.uleb128 0xb
 3842 052d FE410000 		.4byte	.LASF188
 3843 0531 A2       		.byte	0xa2
 3844 0532 0B       		.uleb128 0xb
 3845 0533 35180000 		.4byte	.LASF189
 3846 0537 A3       		.byte	0xa3
 3847 0538 0B       		.uleb128 0xb
 3848 0539 1D110000 		.4byte	.LASF190
 3849 053d FD       		.byte	0xfd
 3850 053e 0B       		.uleb128 0xb
 3851 053f 26280000 		.4byte	.LASF191
 3852 0543 FE       		.byte	0xfe
 3853 0544 0B       		.uleb128 0xb
 3854 0545 10310000 		.4byte	.LASF192
 3855 0549 FF       		.byte	0xff
 3856 054a 00       		.byte	0
 3857 054b 04       		.uleb128 0x4
 3858 054c E8410000 		.4byte	.LASF193
 3859 0550 04       		.byte	0x4
 3860 0551 5F01     		.2byte	0x15f
 3861 0553 54040000 		.4byte	0x454
 3862 0557 04       		.uleb128 0x4
 3863 0558 AE230000 		.4byte	.LASF194
 3864 055c 04       		.byte	0x4
 3865 055d 6D01     		.2byte	0x16d
 3866 055f 77000000 		.4byte	0x77
 3867 0563 11       		.uleb128 0x11
 3868 0564 10       		.byte	0x10
 3869 0565 04       		.byte	0x4
 3870 0566 7001     		.2byte	0x170
ARM GAS  C:\Users\User\AppData\Local\Temp\ccmH1EJa.s 			page 91


 3871 0568 7A050000 		.4byte	0x57a
 3872 056c 12       		.uleb128 0x12
 3873 056d F9350000 		.4byte	.LASF200
 3874 0571 04       		.byte	0x4
 3875 0572 7301     		.2byte	0x173
 3876 0574 7E030000 		.4byte	0x37e
 3877 0578 00       		.byte	0
 3878 0579 00       		.byte	0
 3879 057a 04       		.uleb128 0x4
 3880 057b E2210000 		.4byte	.LASF195
 3881 057f 04       		.byte	0x4
 3882 0580 7401     		.2byte	0x174
 3883 0582 63050000 		.4byte	0x563
 3884 0586 13       		.uleb128 0x13
 3885 0587 10       		.byte	0x10
 3886 0588 04       		.byte	0x4
 3887 0589 7701     		.2byte	0x177
 3888 058b A8050000 		.4byte	0x5a8
 3889 058f 14       		.uleb128 0x14
 3890 0590 B1360000 		.4byte	.LASF196
 3891 0594 04       		.byte	0x4
 3892 0595 7A01     		.2byte	0x17a
 3893 0597 57050000 		.4byte	0x557
 3894 059b 14       		.uleb128 0x14
 3895 059c E9320000 		.4byte	.LASF197
 3896 05a0 04       		.byte	0x4
 3897 05a1 7D01     		.2byte	0x17d
 3898 05a3 7A050000 		.4byte	0x57a
 3899 05a7 00       		.byte	0
 3900 05a8 04       		.uleb128 0x4
 3901 05a9 1D4B0000 		.4byte	.LASF198
 3902 05ad 04       		.byte	0x4
 3903 05ae 7F01     		.2byte	0x17f
 3904 05b0 86050000 		.4byte	0x586
 3905 05b4 04       		.uleb128 0x4
 3906 05b5 87350000 		.4byte	.LASF199
 3907 05b9 04       		.byte	0x4
 3908 05ba 8901     		.2byte	0x189
 3909 05bc 77000000 		.4byte	0x77
 3910 05c0 11       		.uleb128 0x11
 3911 05c1 02       		.byte	0x2
 3912 05c2 04       		.byte	0x4
 3913 05c3 9301     		.2byte	0x193
 3914 05c5 E4050000 		.4byte	0x5e4
 3915 05c9 12       		.uleb128 0x12
 3916 05ca B80A0000 		.4byte	.LASF201
 3917 05ce 04       		.byte	0x4
 3918 05cf 9A01     		.2byte	0x19a
 3919 05d1 6B000000 		.4byte	0x6b
 3920 05d5 00       		.byte	0
 3921 05d6 12       		.uleb128 0x12
 3922 05d7 93480000 		.4byte	.LASF202
 3923 05db 04       		.byte	0x4
 3924 05dc A001     		.2byte	0x1a0
 3925 05de 6B000000 		.4byte	0x6b
 3926 05e2 01       		.byte	0x1
 3927 05e3 00       		.byte	0
ARM GAS  C:\Users\User\AppData\Local\Temp\ccmH1EJa.s 			page 92


 3928 05e4 04       		.uleb128 0x4
 3929 05e5 71090000 		.4byte	.LASF203
 3930 05e9 04       		.byte	0x4
 3931 05ea A201     		.2byte	0x1a2
 3932 05ec C0050000 		.4byte	0x5c0
 3933 05f0 11       		.uleb128 0x11
 3934 05f1 08       		.byte	0x8
 3935 05f2 04       		.byte	0x4
 3936 05f3 BE01     		.2byte	0x1be
 3937 05f5 21060000 		.4byte	0x621
 3938 05f9 15       		.uleb128 0x15
 3939 05fa 76616C00 		.ascii	"val\000"
 3940 05fe 04       		.byte	0x4
 3941 05ff C101     		.2byte	0x1c1
 3942 0601 21060000 		.4byte	0x621
 3943 0605 00       		.byte	0
 3944 0606 15       		.uleb128 0x15
 3945 0607 6C656E00 		.ascii	"len\000"
 3946 060b 04       		.byte	0x4
 3947 060c C401     		.2byte	0x1c4
 3948 060e 77000000 		.4byte	0x77
 3949 0612 04       		.byte	0x4
 3950 0613 12       		.uleb128 0x12
 3951 0614 EA470000 		.4byte	.LASF204
 3952 0618 04       		.byte	0x4
 3953 0619 CB01     		.2byte	0x1cb
 3954 061b 77000000 		.4byte	0x77
 3955 061f 06       		.byte	0x6
 3956 0620 00       		.byte	0
 3957 0621 07       		.uleb128 0x7
 3958 0622 04       		.byte	0x4
 3959 0623 8F000000 		.4byte	0x8f
 3960 0627 04       		.uleb128 0x4
 3961 0628 97070000 		.4byte	.LASF205
 3962 062c 04       		.byte	0x4
 3963 062d CD01     		.2byte	0x1cd
 3964 062f F0050000 		.4byte	0x5f0
 3965 0633 11       		.uleb128 0x11
 3966 0634 0C       		.byte	0xc
 3967 0635 04       		.byte	0x4
 3968 0636 D001     		.2byte	0x1d0
 3969 0638 57060000 		.4byte	0x657
 3970 063c 12       		.uleb128 0x12
 3971 063d F9350000 		.4byte	.LASF200
 3972 0641 04       		.byte	0x4
 3973 0642 D301     		.2byte	0x1d3
 3974 0644 27060000 		.4byte	0x627
 3975 0648 00       		.byte	0
 3976 0649 12       		.uleb128 0x12
 3977 064a ED2A0000 		.4byte	.LASF206
 3978 064e 04       		.byte	0x4
 3979 064f D601     		.2byte	0x1d6
 3980 0651 B4050000 		.4byte	0x5b4
 3981 0655 08       		.byte	0x8
 3982 0656 00       		.byte	0
 3983 0657 04       		.uleb128 0x4
 3984 0658 0D0F0000 		.4byte	.LASF207
ARM GAS  C:\Users\User\AppData\Local\Temp\ccmH1EJa.s 			page 93


 3985 065c 04       		.byte	0x4
 3986 065d D801     		.2byte	0x1d8
 3987 065f 33060000 		.4byte	0x633
 3988 0663 11       		.uleb128 0x11
 3989 0664 04       		.byte	0x4
 3990 0665 04       		.byte	0x4
 3991 0666 DB01     		.2byte	0x1db
 3992 0668 87060000 		.4byte	0x687
 3993 066c 12       		.uleb128 0x12
 3994 066d 271E0000 		.4byte	.LASF208
 3995 0671 04       		.byte	0x4
 3996 0672 DE01     		.2byte	0x1de
 3997 0674 B4050000 		.4byte	0x5b4
 3998 0678 00       		.byte	0
 3999 0679 12       		.uleb128 0x12
 4000 067a 05440000 		.4byte	.LASF209
 4001 067e 04       		.byte	0x4
 4002 067f E101     		.2byte	0x1e1
 4003 0681 B4050000 		.4byte	0x5b4
 4004 0685 02       		.byte	0x2
 4005 0686 00       		.byte	0
 4006 0687 04       		.uleb128 0x4
 4007 0688 D13F0000 		.4byte	.LASF210
 4008 068c 04       		.byte	0x4
 4009 068d E301     		.2byte	0x1e3
 4010 068f 63060000 		.4byte	0x663
 4011 0693 10       		.uleb128 0x10
 4012 0694 EA000000 		.4byte	.LASF211
 4013 0698 05       		.byte	0x5
 4014 0699 34       		.byte	0x34
 4015 069a 57060000 		.4byte	0x657
 4016 069e 16       		.uleb128 0x16
 4017 069f 10       		.byte	0x10
 4018 06a0 05       		.byte	0x5
 4019 06a1 8A       		.byte	0x8a
 4020 06a2 BF060000 		.4byte	0x6bf
 4021 06a6 17       		.uleb128 0x17
 4022 06a7 E5380000 		.4byte	.LASF212
 4023 06ab 05       		.byte	0x5
 4024 06ac 8D       		.byte	0x8d
 4025 06ad E4050000 		.4byte	0x5e4
 4026 06b1 00       		.byte	0
 4027 06b2 17       		.uleb128 0x17
 4028 06b3 753E0000 		.4byte	.LASF213
 4029 06b7 05       		.byte	0x5
 4030 06b8 90       		.byte	0x90
 4031 06b9 57060000 		.4byte	0x657
 4032 06bd 04       		.byte	0x4
 4033 06be 00       		.byte	0
 4034 06bf 10       		.uleb128 0x10
 4035 06c0 3D2B0000 		.4byte	.LASF214
 4036 06c4 05       		.byte	0x5
 4037 06c5 92       		.byte	0x92
 4038 06c6 9E060000 		.4byte	0x69e
 4039 06ca 16       		.uleb128 0x16
 4040 06cb 08       		.byte	0x8
 4041 06cc 06       		.byte	0x6
ARM GAS  C:\Users\User\AppData\Local\Temp\ccmH1EJa.s 			page 94


 4042 06cd 30       		.byte	0x30
 4043 06ce 03070000 		.4byte	0x703
 4044 06d2 17       		.uleb128 0x17
 4045 06d3 E5380000 		.4byte	.LASF212
 4046 06d7 06       		.byte	0x6
 4047 06d8 33       		.byte	0x33
 4048 06d9 E4050000 		.4byte	0x5e4
 4049 06dd 00       		.byte	0
 4050 06de 17       		.uleb128 0x17
 4051 06df 1F280000 		.4byte	.LASF215
 4052 06e3 06       		.byte	0x6
 4053 06e4 36       		.byte	0x36
 4054 06e5 49040000 		.4byte	0x449
 4055 06e9 02       		.byte	0x2
 4056 06ea 17       		.uleb128 0x17
 4057 06eb ED2A0000 		.4byte	.LASF206
 4058 06ef 06       		.byte	0x6
 4059 06f0 39       		.byte	0x39
 4060 06f1 B4050000 		.4byte	0x5b4
 4061 06f5 04       		.byte	0x4
 4062 06f6 17       		.uleb128 0x17
 4063 06f7 5A130000 		.4byte	.LASF216
 4064 06fb 06       		.byte	0x6
 4065 06fc 3C       		.byte	0x3c
 4066 06fd 4B050000 		.4byte	0x54b
 4067 0701 06       		.byte	0x6
 4068 0702 00       		.byte	0
 4069 0703 10       		.uleb128 0x10
 4070 0704 1F370000 		.4byte	.LASF217
 4071 0708 06       		.byte	0x6
 4072 0709 3E       		.byte	0x3e
 4073 070a CA060000 		.4byte	0x6ca
 4074 070e 10       		.uleb128 0x10
 4075 070f C30F0000 		.4byte	.LASF218
 4076 0713 06       		.byte	0x6
 4077 0714 7A       		.byte	0x7a
 4078 0715 57060000 		.4byte	0x657
 4079 0719 16       		.uleb128 0x16
 4080 071a 0C       		.byte	0xc
 4081 071b 06       		.byte	0x6
 4082 071c 80       		.byte	0x80
 4083 071d 3A070000 		.4byte	0x73a
 4084 0721 17       		.uleb128 0x17
 4085 0722 E5380000 		.4byte	.LASF212
 4086 0726 06       		.byte	0x6
 4087 0727 83       		.byte	0x83
 4088 0728 E4050000 		.4byte	0x5e4
 4089 072c 00       		.byte	0
 4090 072d 17       		.uleb128 0x17
 4091 072e F9350000 		.4byte	.LASF200
 4092 0732 06       		.byte	0x6
 4093 0733 86       		.byte	0x86
 4094 0734 27060000 		.4byte	0x627
 4095 0738 04       		.byte	0x4
 4096 0739 00       		.byte	0
 4097 073a 10       		.uleb128 0x10
 4098 073b 13400000 		.4byte	.LASF219
ARM GAS  C:\Users\User\AppData\Local\Temp\ccmH1EJa.s 			page 95


 4099 073f 06       		.byte	0x6
 4100 0740 88       		.byte	0x88
 4101 0741 19070000 		.4byte	0x719
 4102 0745 16       		.uleb128 0x16
 4103 0746 10       		.byte	0x10
 4104 0747 06       		.byte	0x6
 4105 0748 8B       		.byte	0x8b
 4106 0749 66070000 		.4byte	0x766
 4107 074d 17       		.uleb128 0x17
 4108 074e E5380000 		.4byte	.LASF212
 4109 0752 06       		.byte	0x6
 4110 0753 8E       		.byte	0x8e
 4111 0754 E4050000 		.4byte	0x5e4
 4112 0758 00       		.byte	0
 4113 0759 17       		.uleb128 0x17
 4114 075a 753E0000 		.4byte	.LASF213
 4115 075e 06       		.byte	0x6
 4116 075f 91       		.byte	0x91
 4117 0760 57060000 		.4byte	0x657
 4118 0764 04       		.byte	0x4
 4119 0765 00       		.byte	0
 4120 0766 10       		.uleb128 0x10
 4121 0767 EC080000 		.4byte	.LASF220
 4122 076b 06       		.byte	0x6
 4123 076c 93       		.byte	0x93
 4124 076d 45070000 		.4byte	0x745
 4125 0771 10       		.uleb128 0x10
 4126 0772 70360000 		.4byte	.LASF221
 4127 0776 06       		.byte	0x6
 4128 0777 96       		.byte	0x96
 4129 0778 66070000 		.4byte	0x766
 4130 077c 16       		.uleb128 0x16
 4131 077d 08       		.byte	0x8
 4132 077e 07       		.byte	0x7
 4133 077f CE       		.byte	0xce
 4134 0780 9D070000 		.4byte	0x79d
 4135 0784 17       		.uleb128 0x17
 4136 0785 FE380000 		.4byte	.LASF222
 4137 0789 07       		.byte	0x7
 4138 078a D1       		.byte	0xd1
 4139 078b 77000000 		.4byte	0x77
 4140 078f 00       		.byte	0
 4141 0790 17       		.uleb128 0x17
 4142 0791 473D0000 		.4byte	.LASF223
 4143 0795 07       		.byte	0x7
 4144 0796 D6       		.byte	0xd6
 4145 0797 B7000000 		.4byte	0xb7
 4146 079b 04       		.byte	0x4
 4147 079c 00       		.byte	0
 4148 079d 10       		.uleb128 0x10
 4149 079e B5300000 		.4byte	.LASF224
 4150 07a2 07       		.byte	0x7
 4151 07a3 D8       		.byte	0xd8
 4152 07a4 7C070000 		.4byte	0x77c
 4153 07a8 16       		.uleb128 0x16
 4154 07a9 08       		.byte	0x8
 4155 07aa 07       		.byte	0x7
ARM GAS  C:\Users\User\AppData\Local\Temp\ccmH1EJa.s 			page 96


 4156 07ab DB       		.byte	0xdb
 4157 07ac C9070000 		.4byte	0x7c9
 4158 07b0 17       		.uleb128 0x17
 4159 07b1 8E140000 		.4byte	.LASF225
 4160 07b5 07       		.byte	0x7
 4161 07b6 DE       		.byte	0xde
 4162 07b7 77000000 		.4byte	0x77
 4163 07bb 00       		.byte	0
 4164 07bc 17       		.uleb128 0x17
 4165 07bd 9D3E0000 		.4byte	.LASF226
 4166 07c1 07       		.byte	0x7
 4167 07c2 E3       		.byte	0xe3
 4168 07c3 C9070000 		.4byte	0x7c9
 4169 07c7 04       		.byte	0x4
 4170 07c8 00       		.byte	0
 4171 07c9 07       		.uleb128 0x7
 4172 07ca 04       		.byte	0x4
 4173 07cb 9D070000 		.4byte	0x79d
 4174 07cf 10       		.uleb128 0x10
 4175 07d0 9B3C0000 		.4byte	.LASF227
 4176 07d4 07       		.byte	0x7
 4177 07d5 E5       		.byte	0xe5
 4178 07d6 A8070000 		.4byte	0x7a8
 4179 07da 18       		.uleb128 0x18
 4180 07db 08       		.byte	0x8
 4181 07dc 07       		.byte	0x7
 4182 07dd E8       		.byte	0xe8
 4183 07de F9070000 		.4byte	0x7f9
 4184 07e2 19       		.uleb128 0x19
 4185 07e3 AE3E0000 		.4byte	.LASF228
 4186 07e7 07       		.byte	0x7
 4187 07e8 EF       		.byte	0xef
 4188 07e9 CF070000 		.4byte	0x7cf
 4189 07ed 19       		.uleb128 0x19
 4190 07ee 1F220000 		.4byte	.LASF229
 4191 07f2 07       		.byte	0x7
 4192 07f3 F2       		.byte	0xf2
 4193 07f4 77000000 		.4byte	0x77
 4194 07f8 00       		.byte	0
 4195 07f9 10       		.uleb128 0x10
 4196 07fa 423C0000 		.4byte	.LASF230
 4197 07fe 07       		.byte	0x7
 4198 07ff F4       		.byte	0xf4
 4199 0800 DA070000 		.4byte	0x7da
 4200 0804 16       		.uleb128 0x16
 4201 0805 14       		.byte	0x14
 4202 0806 07       		.byte	0x7
 4203 0807 F7       		.byte	0xf7
 4204 0808 4D080000 		.4byte	0x84d
 4205 080c 17       		.uleb128 0x17
 4206 080d 10130000 		.4byte	.LASF231
 4207 0811 07       		.byte	0x7
 4208 0812 FA       		.byte	0xfa
 4209 0813 77000000 		.4byte	0x77
 4210 0817 00       		.byte	0
 4211 0818 12       		.uleb128 0x12
 4212 0819 2C0F0000 		.4byte	.LASF232
ARM GAS  C:\Users\User\AppData\Local\Temp\ccmH1EJa.s 			page 97


 4213 081d 07       		.byte	0x7
 4214 081e 0001     		.2byte	0x100
 4215 0820 77000000 		.4byte	0x77
 4216 0824 02       		.byte	0x2
 4217 0825 12       		.uleb128 0x12
 4218 0826 CD070000 		.4byte	.LASF233
 4219 082a 07       		.byte	0x7
 4220 082b 0B01     		.2byte	0x10b
 4221 082d 83000000 		.4byte	0x83
 4222 0831 04       		.byte	0x4
 4223 0832 12       		.uleb128 0x12
 4224 0833 872B0000 		.4byte	.LASF234
 4225 0837 07       		.byte	0x7
 4226 0838 0E01     		.2byte	0x10e
 4227 083a 77000000 		.4byte	0x77
 4228 083e 08       		.byte	0x8
 4229 083f 12       		.uleb128 0x12
 4230 0840 53360000 		.4byte	.LASF235
 4231 0844 07       		.byte	0x7
 4232 0845 1701     		.2byte	0x117
 4233 0847 F9070000 		.4byte	0x7f9
 4234 084b 0C       		.byte	0xc
 4235 084c 00       		.byte	0
 4236 084d 04       		.uleb128 0x4
 4237 084e 85180000 		.4byte	.LASF236
 4238 0852 07       		.byte	0x7
 4239 0853 1801     		.2byte	0x118
 4240 0855 04080000 		.4byte	0x804
 4241 0859 04       		.uleb128 0x4
 4242 085a C0080000 		.4byte	.LASF237
 4243 085e 08       		.byte	0x8
 4244 085f 0302     		.2byte	0x203
 4245 0861 B9000000 		.4byte	0xb9
 4246 0865 16       		.uleb128 0x16
 4247 0866 06       		.byte	0x6
 4248 0867 09       		.byte	0x9
 4249 0868 53       		.byte	0x53
 4250 0869 86080000 		.4byte	0x886
 4251 086d 17       		.uleb128 0x17
 4252 086e BD3E0000 		.4byte	.LASF238
 4253 0872 09       		.byte	0x9
 4254 0873 55       		.byte	0x55
 4255 0874 87060000 		.4byte	0x687
 4256 0878 00       		.byte	0
 4257 0879 17       		.uleb128 0x17
 4258 087a 382B0000 		.4byte	.LASF239
 4259 087e 09       		.byte	0x9
 4260 087f 56       		.byte	0x56
 4261 0880 77000000 		.4byte	0x77
 4262 0884 04       		.byte	0x4
 4263 0885 00       		.byte	0
 4264 0886 10       		.uleb128 0x10
 4265 0887 BF2C0000 		.4byte	.LASF240
 4266 088b 09       		.byte	0x9
 4267 088c 57       		.byte	0x57
 4268 088d 65080000 		.4byte	0x865
 4269 0891 16       		.uleb128 0x16
ARM GAS  C:\Users\User\AppData\Local\Temp\ccmH1EJa.s 			page 98


 4270 0892 18       		.byte	0x18
 4271 0893 09       		.byte	0x9
 4272 0894 6B       		.byte	0x6b
 4273 0895 D6080000 		.4byte	0x8d6
 4274 0899 17       		.uleb128 0x17
 4275 089a 43350000 		.4byte	.LASF241
 4276 089e 09       		.byte	0x9
 4277 089f 6D       		.byte	0x6d
 4278 08a0 B4050000 		.4byte	0x5b4
 4279 08a4 00       		.byte	0
 4280 08a5 17       		.uleb128 0x17
 4281 08a6 CC3A0000 		.4byte	.LASF242
 4282 08aa 09       		.byte	0x9
 4283 08ab 6E       		.byte	0x6e
 4284 08ac 6B000000 		.4byte	0x6b
 4285 08b0 02       		.byte	0x2
 4286 08b1 17       		.uleb128 0x17
 4287 08b2 694B0000 		.4byte	.LASF243
 4288 08b6 09       		.byte	0x9
 4289 08b7 6F       		.byte	0x6f
 4290 08b8 B4050000 		.4byte	0x5b4
 4291 08bc 04       		.byte	0x4
 4292 08bd 17       		.uleb128 0x17
 4293 08be 382B0000 		.4byte	.LASF239
 4294 08c2 09       		.byte	0x9
 4295 08c3 70       		.byte	0x70
 4296 08c4 A8050000 		.4byte	0x5a8
 4297 08c8 06       		.byte	0x6
 4298 08c9 17       		.uleb128 0x17
 4299 08ca 64130000 		.4byte	.LASF244
 4300 08ce 09       		.byte	0x9
 4301 08cf 71       		.byte	0x71
 4302 08d0 6B000000 		.4byte	0x6b
 4303 08d4 16       		.byte	0x16
 4304 08d5 00       		.byte	0
 4305 08d6 10       		.uleb128 0x10
 4306 08d7 46310000 		.4byte	.LASF245
 4307 08db 09       		.byte	0x9
 4308 08dc 72       		.byte	0x72
 4309 08dd 91080000 		.4byte	0x891
 4310 08e1 16       		.uleb128 0x16
 4311 08e2 16       		.byte	0x16
 4312 08e3 09       		.byte	0x9
 4313 08e4 7F       		.byte	0x7f
 4314 08e5 1A090000 		.4byte	0x91a
 4315 08e9 17       		.uleb128 0x17
 4316 08ea E5380000 		.4byte	.LASF212
 4317 08ee 09       		.byte	0x9
 4318 08ef 81       		.byte	0x81
 4319 08f0 E4050000 		.4byte	0x5e4
 4320 08f4 00       		.byte	0
 4321 08f5 17       		.uleb128 0x17
 4322 08f6 AC0A0000 		.4byte	.LASF246
 4323 08fa 09       		.byte	0x9
 4324 08fb 82       		.byte	0x82
 4325 08fc B4050000 		.4byte	0x5b4
 4326 0900 02       		.byte	0x2
ARM GAS  C:\Users\User\AppData\Local\Temp\ccmH1EJa.s 			page 99


 4327 0901 17       		.uleb128 0x17
 4328 0902 382B0000 		.4byte	.LASF239
 4329 0906 09       		.byte	0x9
 4330 0907 83       		.byte	0x83
 4331 0908 A8050000 		.4byte	0x5a8
 4332 090c 04       		.byte	0x4
 4333 090d 17       		.uleb128 0x17
 4334 090e 64130000 		.4byte	.LASF244
 4335 0912 09       		.byte	0x9
 4336 0913 84       		.byte	0x84
 4337 0914 6B000000 		.4byte	0x6b
 4338 0918 14       		.byte	0x14
 4339 0919 00       		.byte	0
 4340 091a 10       		.uleb128 0x10
 4341 091b 0F1E0000 		.4byte	.LASF247
 4342 091f 09       		.byte	0x9
 4343 0920 85       		.byte	0x85
 4344 0921 E1080000 		.4byte	0x8e1
 4345 0925 0F       		.uleb128 0xf
 4346 0926 01       		.byte	0x1
 4347 0927 2C000000 		.4byte	0x2c
 4348 092b 0A       		.byte	0xa
 4349 092c 21       		.byte	0x21
 4350 092d 50090000 		.4byte	0x950
 4351 0931 0B       		.uleb128 0xb
 4352 0932 7D3F0000 		.4byte	.LASF248
 4353 0936 00       		.byte	0
 4354 0937 0B       		.uleb128 0xb
 4355 0938 3F360000 		.4byte	.LASF249
 4356 093c 01       		.byte	0x1
 4357 093d 0B       		.uleb128 0xb
 4358 093e 030D0000 		.4byte	.LASF250
 4359 0942 02       		.byte	0x2
 4360 0943 0B       		.uleb128 0xb
 4361 0944 47230000 		.4byte	.LASF251
 4362 0948 03       		.byte	0x3
 4363 0949 0B       		.uleb128 0xb
 4364 094a 36330000 		.4byte	.LASF252
 4365 094e 04       		.byte	0x4
 4366 094f 00       		.byte	0
 4367 0950 10       		.uleb128 0x10
 4368 0951 BB230000 		.4byte	.LASF253
 4369 0955 0A       		.byte	0xa
 4370 0956 28       		.byte	0x28
 4371 0957 25090000 		.4byte	0x925
 4372 095b 0F       		.uleb128 0xf
 4373 095c 01       		.byte	0x1
 4374 095d 2C000000 		.4byte	0x2c
 4375 0961 0A       		.byte	0xa
 4376 0962 2C       		.byte	0x2c
 4377 0963 7A090000 		.4byte	0x97a
 4378 0967 0B       		.uleb128 0xb
 4379 0968 55060000 		.4byte	.LASF254
 4380 096c 00       		.byte	0
 4381 096d 0B       		.uleb128 0xb
 4382 096e AE030000 		.4byte	.LASF255
 4383 0972 01       		.byte	0x1
ARM GAS  C:\Users\User\AppData\Local\Temp\ccmH1EJa.s 			page 100


 4384 0973 0B       		.uleb128 0xb
 4385 0974 8B270000 		.4byte	.LASF256
 4386 0978 02       		.byte	0x2
 4387 0979 00       		.byte	0
 4388 097a 10       		.uleb128 0x10
 4389 097b 76320000 		.4byte	.LASF257
 4390 097f 0A       		.byte	0xa
 4391 0980 30       		.byte	0x30
 4392 0981 5B090000 		.4byte	0x95b
 4393 0985 16       		.uleb128 0x16
 4394 0986 06       		.byte	0x6
 4395 0987 0A       		.byte	0xa
 4396 0988 33       		.byte	0x33
 4397 0989 A6090000 		.4byte	0x9a6
 4398 098d 17       		.uleb128 0x17
 4399 098e 553D0000 		.4byte	.LASF258
 4400 0992 0A       		.byte	0xa
 4401 0993 35       		.byte	0x35
 4402 0994 B4050000 		.4byte	0x5b4
 4403 0998 00       		.byte	0
 4404 0999 17       		.uleb128 0x17
 4405 099a AC0A0000 		.4byte	.LASF246
 4406 099e 0A       		.byte	0xa
 4407 099f 36       		.byte	0x36
 4408 09a0 A6090000 		.4byte	0x9a6
 4409 09a4 02       		.byte	0x2
 4410 09a5 00       		.byte	0
 4411 09a6 0D       		.uleb128 0xd
 4412 09a7 B4050000 		.4byte	0x5b4
 4413 09ab B6090000 		.4byte	0x9b6
 4414 09af 0E       		.uleb128 0xe
 4415 09b0 B0000000 		.4byte	0xb0
 4416 09b4 01       		.byte	0x1
 4417 09b5 00       		.byte	0
 4418 09b6 10       		.uleb128 0x10
 4419 09b7 4F1B0000 		.4byte	.LASF259
 4420 09bb 0A       		.byte	0xa
 4421 09bc 37       		.byte	0x37
 4422 09bd 85090000 		.4byte	0x985
 4423 09c1 16       		.uleb128 0x16
 4424 09c2 1A       		.byte	0x1a
 4425 09c3 0A       		.byte	0xa
 4426 09c4 3A       		.byte	0x3a
 4427 09c5 E2090000 		.4byte	0x9e2
 4428 09c9 17       		.uleb128 0x17
 4429 09ca 600E0000 		.4byte	.LASF260
 4430 09ce 0A       		.byte	0xa
 4431 09cf 3D       		.byte	0x3d
 4432 09d0 B4050000 		.4byte	0x5b4
 4433 09d4 00       		.byte	0
 4434 09d5 17       		.uleb128 0x17
 4435 09d6 8D430000 		.4byte	.LASF261
 4436 09da 0A       		.byte	0xa
 4437 09db 40       		.byte	0x40
 4438 09dc E2090000 		.4byte	0x9e2
 4439 09e0 02       		.byte	0x2
 4440 09e1 00       		.byte	0
ARM GAS  C:\Users\User\AppData\Local\Temp\ccmH1EJa.s 			page 101


 4441 09e2 0D       		.uleb128 0xd
 4442 09e3 B6090000 		.4byte	0x9b6
 4443 09e7 F2090000 		.4byte	0x9f2
 4444 09eb 0E       		.uleb128 0xe
 4445 09ec B0000000 		.4byte	0xb0
 4446 09f0 03       		.byte	0x3
 4447 09f1 00       		.byte	0
 4448 09f2 10       		.uleb128 0x10
 4449 09f3 79460000 		.4byte	.LASF262
 4450 09f7 0A       		.byte	0xa
 4451 09f8 41       		.byte	0x41
 4452 09f9 C1090000 		.4byte	0x9c1
 4453 09fd 16       		.uleb128 0x16
 4454 09fe 0A       		.byte	0xa
 4455 09ff 0A       		.byte	0xa
 4456 0a00 47       		.byte	0x47
 4457 0a01 360A0000 		.4byte	0xa36
 4458 0a05 17       		.uleb128 0x17
 4459 0a06 AC0A0000 		.4byte	.LASF246
 4460 0a0a 0A       		.byte	0xa
 4461 0a0b 49       		.byte	0x49
 4462 0a0c A6090000 		.4byte	0x9a6
 4463 0a10 00       		.byte	0
 4464 0a11 17       		.uleb128 0x17
 4465 0a12 694B0000 		.4byte	.LASF243
 4466 0a16 0A       		.byte	0xa
 4467 0a17 4A       		.byte	0x4a
 4468 0a18 B4050000 		.4byte	0x5b4
 4469 0a1c 04       		.byte	0x4
 4470 0a1d 17       		.uleb128 0x17
 4471 0a1e 05440000 		.4byte	.LASF209
 4472 0a22 0A       		.byte	0xa
 4473 0a23 4B       		.byte	0x4b
 4474 0a24 B4050000 		.4byte	0x5b4
 4475 0a28 06       		.byte	0x6
 4476 0a29 17       		.uleb128 0x17
 4477 0a2a CC3A0000 		.4byte	.LASF242
 4478 0a2e 0A       		.byte	0xa
 4479 0a2f 4C       		.byte	0x4c
 4480 0a30 6B000000 		.4byte	0x6b
 4481 0a34 08       		.byte	0x8
 4482 0a35 00       		.byte	0
 4483 0a36 10       		.uleb128 0x10
 4484 0a37 0D280000 		.4byte	.LASF263
 4485 0a3b 0A       		.byte	0xa
 4486 0a3c 4D       		.byte	0x4d
 4487 0a3d FD090000 		.4byte	0x9fd
 4488 0a41 16       		.uleb128 0x16
 4489 0a42 28       		.byte	0x28
 4490 0a43 0A       		.byte	0xa
 4491 0a44 50       		.byte	0x50
 4492 0a45 560A0000 		.4byte	0xa56
 4493 0a49 17       		.uleb128 0x17
 4494 0a4a 8D430000 		.4byte	.LASF261
 4495 0a4e 0A       		.byte	0xa
 4496 0a4f 53       		.byte	0x53
 4497 0a50 560A0000 		.4byte	0xa56
ARM GAS  C:\Users\User\AppData\Local\Temp\ccmH1EJa.s 			page 102


 4498 0a54 00       		.byte	0
 4499 0a55 00       		.byte	0
 4500 0a56 0D       		.uleb128 0xd
 4501 0a57 360A0000 		.4byte	0xa36
 4502 0a5b 660A0000 		.4byte	0xa66
 4503 0a5f 0E       		.uleb128 0xe
 4504 0a60 B0000000 		.4byte	0xb0
 4505 0a64 03       		.byte	0x3
 4506 0a65 00       		.byte	0
 4507 0a66 10       		.uleb128 0x10
 4508 0a67 36350000 		.4byte	.LASF264
 4509 0a6b 0A       		.byte	0xa
 4510 0a6c 54       		.byte	0x54
 4511 0a6d 410A0000 		.4byte	0xa41
 4512 0a71 16       		.uleb128 0x16
 4513 0a72 08       		.byte	0x8
 4514 0a73 0A       		.byte	0xa
 4515 0a74 59       		.byte	0x59
 4516 0a75 9E0A0000 		.4byte	0xa9e
 4517 0a79 17       		.uleb128 0x17
 4518 0a7a E5380000 		.4byte	.LASF212
 4519 0a7e 0A       		.byte	0xa
 4520 0a7f 5B       		.byte	0x5b
 4521 0a80 E4050000 		.4byte	0x5e4
 4522 0a84 00       		.byte	0
 4523 0a85 17       		.uleb128 0x17
 4524 0a86 6F460000 		.4byte	.LASF265
 4525 0a8a 0A       		.byte	0xa
 4526 0a8b 5C       		.byte	0x5c
 4527 0a8c 50090000 		.4byte	0x950
 4528 0a90 02       		.byte	0x2
 4529 0a91 17       		.uleb128 0x17
 4530 0a92 F9350000 		.4byte	.LASF200
 4531 0a96 0A       		.byte	0xa
 4532 0a97 5D       		.byte	0x5d
 4533 0a98 9E0A0000 		.4byte	0xa9e
 4534 0a9c 04       		.byte	0x4
 4535 0a9d 00       		.byte	0
 4536 0a9e 07       		.uleb128 0x7
 4537 0a9f 04       		.byte	0x4
 4538 0aa0 27060000 		.4byte	0x627
 4539 0aa4 10       		.uleb128 0x10
 4540 0aa5 890C0000 		.4byte	.LASF266
 4541 0aa9 0A       		.byte	0xa
 4542 0aaa 5E       		.byte	0x5e
 4543 0aab 710A0000 		.4byte	0xa71
 4544 0aaf 16       		.uleb128 0x16
 4545 0ab0 08       		.byte	0x8
 4546 0ab1 0A       		.byte	0xa
 4547 0ab2 61       		.byte	0x61
 4548 0ab3 E80A0000 		.4byte	0xae8
 4549 0ab7 17       		.uleb128 0x17
 4550 0ab8 E5380000 		.4byte	.LASF212
 4551 0abc 0A       		.byte	0xa
 4552 0abd 63       		.byte	0x63
 4553 0abe E4050000 		.4byte	0x5e4
 4554 0ac2 00       		.byte	0
ARM GAS  C:\Users\User\AppData\Local\Temp\ccmH1EJa.s 			page 103


 4555 0ac3 17       		.uleb128 0x17
 4556 0ac4 6F460000 		.4byte	.LASF265
 4557 0ac8 0A       		.byte	0xa
 4558 0ac9 64       		.byte	0x64
 4559 0aca 50090000 		.4byte	0x950
 4560 0ace 02       		.byte	0x2
 4561 0acf 17       		.uleb128 0x17
 4562 0ad0 E22A0000 		.4byte	.LASF267
 4563 0ad4 0A       		.byte	0xa
 4564 0ad5 65       		.byte	0x65
 4565 0ad6 7A090000 		.4byte	0x97a
 4566 0ada 03       		.byte	0x3
 4567 0adb 17       		.uleb128 0x17
 4568 0adc F9350000 		.4byte	.LASF200
 4569 0ae0 0A       		.byte	0xa
 4570 0ae1 66       		.byte	0x66
 4571 0ae2 9E0A0000 		.4byte	0xa9e
 4572 0ae6 04       		.byte	0x4
 4573 0ae7 00       		.byte	0
 4574 0ae8 10       		.uleb128 0x10
 4575 0ae9 56440000 		.4byte	.LASF268
 4576 0aed 0A       		.byte	0xa
 4577 0aee 67       		.byte	0x67
 4578 0aef AF0A0000 		.4byte	0xaaf
 4579 0af3 0F       		.uleb128 0xf
 4580 0af4 02       		.byte	0x2
 4581 0af5 3A000000 		.4byte	0x3a
 4582 0af9 0B       		.byte	0xb
 4583 0afa B4       		.byte	0xb4
 4584 0afb 5E130000 		.4byte	0x135e
 4585 0aff 0C       		.uleb128 0xc
 4586 0b00 5E2D0000 		.4byte	.LASF269
 4587 0b04 0001     		.2byte	0x100
 4588 0b06 0C       		.uleb128 0xc
 4589 0b07 5A490000 		.4byte	.LASF270
 4590 0b0b 0101     		.2byte	0x101
 4591 0b0d 0C       		.uleb128 0xc
 4592 0b0e 3D0D0000 		.4byte	.LASF271
 4593 0b12 0201     		.2byte	0x102
 4594 0b14 0C       		.uleb128 0xc
 4595 0b15 10490000 		.4byte	.LASF272
 4596 0b19 0301     		.2byte	0x103
 4597 0b1b 0C       		.uleb128 0xc
 4598 0b1c A9340000 		.4byte	.LASF273
 4599 0b20 0401     		.2byte	0x104
 4600 0b22 0C       		.uleb128 0xc
 4601 0b23 0D470000 		.4byte	.LASF274
 4602 0b27 0501     		.2byte	0x105
 4603 0b29 0C       		.uleb128 0xc
 4604 0b2a 3F130000 		.4byte	.LASF275
 4605 0b2e 0601     		.2byte	0x106
 4606 0b30 0C       		.uleb128 0xc
 4607 0b31 98400000 		.4byte	.LASF276
 4608 0b35 0701     		.2byte	0x107
 4609 0b37 0C       		.uleb128 0xc
 4610 0b38 B1460000 		.4byte	.LASF277
 4611 0b3c 0801     		.2byte	0x108
ARM GAS  C:\Users\User\AppData\Local\Temp\ccmH1EJa.s 			page 104


 4612 0b3e 0C       		.uleb128 0xc
 4613 0b3f 2A070000 		.4byte	.LASF278
 4614 0b43 0901     		.2byte	0x109
 4615 0b45 0C       		.uleb128 0xc
 4616 0b46 36040000 		.4byte	.LASF279
 4617 0b4a 0A01     		.2byte	0x10a
 4618 0b4c 0C       		.uleb128 0xc
 4619 0b4d CE370000 		.4byte	.LASF280
 4620 0b51 0B01     		.2byte	0x10b
 4621 0b53 0C       		.uleb128 0xc
 4622 0b54 09260000 		.4byte	.LASF281
 4623 0b58 0C01     		.2byte	0x10c
 4624 0b5a 0C       		.uleb128 0xc
 4625 0b5b 14330000 		.4byte	.LASF282
 4626 0b5f 0D01     		.2byte	0x10d
 4627 0b61 0C       		.uleb128 0xc
 4628 0b62 05050000 		.4byte	.LASF283
 4629 0b66 0E01     		.2byte	0x10e
 4630 0b68 0C       		.uleb128 0xc
 4631 0b69 E4010000 		.4byte	.LASF284
 4632 0b6d 0F01     		.2byte	0x10f
 4633 0b6f 0C       		.uleb128 0xc
 4634 0b70 49090000 		.4byte	.LASF285
 4635 0b74 1001     		.2byte	0x110
 4636 0b76 0C       		.uleb128 0xc
 4637 0b77 32480000 		.4byte	.LASF286
 4638 0b7b 1101     		.2byte	0x111
 4639 0b7d 0C       		.uleb128 0xc
 4640 0b7e 33440000 		.4byte	.LASF287
 4641 0b82 1201     		.2byte	0x112
 4642 0b84 0C       		.uleb128 0xc
 4643 0b85 FA190000 		.4byte	.LASF288
 4644 0b89 1301     		.2byte	0x113
 4645 0b8b 0C       		.uleb128 0xc
 4646 0b8c BE4B0000 		.4byte	.LASF289
 4647 0b90 1401     		.2byte	0x114
 4648 0b92 0C       		.uleb128 0xc
 4649 0b93 A3350000 		.4byte	.LASF290
 4650 0b97 1501     		.2byte	0x115
 4651 0b99 0C       		.uleb128 0xc
 4652 0b9a E90E0000 		.4byte	.LASF291
 4653 0b9e 1601     		.2byte	0x116
 4654 0ba0 0C       		.uleb128 0xc
 4655 0ba1 30400000 		.4byte	.LASF292
 4656 0ba5 1701     		.2byte	0x117
 4657 0ba7 0C       		.uleb128 0xc
 4658 0ba8 B3370000 		.4byte	.LASF293
 4659 0bac 1801     		.2byte	0x118
 4660 0bae 0C       		.uleb128 0xc
 4661 0baf 98420000 		.4byte	.LASF294
 4662 0bb3 1901     		.2byte	0x119
 4663 0bb5 0C       		.uleb128 0xc
 4664 0bb6 35020000 		.4byte	.LASF295
 4665 0bba 1A01     		.2byte	0x11a
 4666 0bbc 0C       		.uleb128 0xc
 4667 0bbd 30150000 		.4byte	.LASF296
 4668 0bc1 1B01     		.2byte	0x11b
ARM GAS  C:\Users\User\AppData\Local\Temp\ccmH1EJa.s 			page 105


 4669 0bc3 0C       		.uleb128 0xc
 4670 0bc4 ED310000 		.4byte	.LASF297
 4671 0bc8 1C01     		.2byte	0x11c
 4672 0bca 0C       		.uleb128 0xc
 4673 0bcb C33E0000 		.4byte	.LASF298
 4674 0bcf 1D01     		.2byte	0x11d
 4675 0bd1 0C       		.uleb128 0xc
 4676 0bd2 1E3C0000 		.4byte	.LASF299
 4677 0bd6 1E01     		.2byte	0x11e
 4678 0bd8 0C       		.uleb128 0xc
 4679 0bd9 2A2D0000 		.4byte	.LASF300
 4680 0bdd 1F01     		.2byte	0x11f
 4681 0bdf 0C       		.uleb128 0xc
 4682 0be0 11150000 		.4byte	.LASF301
 4683 0be4 2001     		.2byte	0x120
 4684 0be6 0C       		.uleb128 0xc
 4685 0be7 FE130000 		.4byte	.LASF302
 4686 0beb 2101     		.2byte	0x121
 4687 0bed 0C       		.uleb128 0xc
 4688 0bee A0380000 		.4byte	.LASF303
 4689 0bf2 2201     		.2byte	0x122
 4690 0bf4 0C       		.uleb128 0xc
 4691 0bf5 48050000 		.4byte	.LASF304
 4692 0bf9 2301     		.2byte	0x123
 4693 0bfb 0C       		.uleb128 0xc
 4694 0bfc 2A3D0000 		.4byte	.LASF305
 4695 0c00 2401     		.2byte	0x124
 4696 0c02 0C       		.uleb128 0xc
 4697 0c03 BA4A0000 		.4byte	.LASF306
 4698 0c07 2501     		.2byte	0x125
 4699 0c09 0C       		.uleb128 0xc
 4700 0c0a 462A0000 		.4byte	.LASF307
 4701 0c0e 2601     		.2byte	0x126
 4702 0c10 0C       		.uleb128 0xc
 4703 0c11 69190000 		.4byte	.LASF308
 4704 0c15 2701     		.2byte	0x127
 4705 0c17 0C       		.uleb128 0xc
 4706 0c18 55400000 		.4byte	.LASF309
 4707 0c1c 2801     		.2byte	0x128
 4708 0c1e 0C       		.uleb128 0xc
 4709 0c1f CC2E0000 		.4byte	.LASF310
 4710 0c23 2901     		.2byte	0x129
 4711 0c25 0C       		.uleb128 0xc
 4712 0c26 2A4B0000 		.4byte	.LASF311
 4713 0c2a 2A01     		.2byte	0x12a
 4714 0c2c 0C       		.uleb128 0xc
 4715 0c2d E0400000 		.4byte	.LASF312
 4716 0c31 2B01     		.2byte	0x12b
 4717 0c33 0C       		.uleb128 0xc
 4718 0c34 E5490000 		.4byte	.LASF313
 4719 0c38 2C01     		.2byte	0x12c
 4720 0c3a 0C       		.uleb128 0xc
 4721 0c3b 97210000 		.4byte	.LASF314
 4722 0c3f 2D01     		.2byte	0x12d
 4723 0c41 0C       		.uleb128 0xc
 4724 0c42 6B470000 		.4byte	.LASF315
 4725 0c46 2E01     		.2byte	0x12e
ARM GAS  C:\Users\User\AppData\Local\Temp\ccmH1EJa.s 			page 106


 4726 0c48 0C       		.uleb128 0xc
 4727 0c49 EB050000 		.4byte	.LASF316
 4728 0c4d 2F01     		.2byte	0x12f
 4729 0c4f 0C       		.uleb128 0xc
 4730 0c50 31340000 		.4byte	.LASF317
 4731 0c54 3001     		.2byte	0x130
 4732 0c56 0C       		.uleb128 0xc
 4733 0c57 50220000 		.4byte	.LASF318
 4734 0c5b 3101     		.2byte	0x131
 4735 0c5d 0C       		.uleb128 0xc
 4736 0c5e 0B390000 		.4byte	.LASF319
 4737 0c62 3201     		.2byte	0x132
 4738 0c64 0C       		.uleb128 0xc
 4739 0c65 B0320000 		.4byte	.LASF320
 4740 0c69 3301     		.2byte	0x133
 4741 0c6b 0C       		.uleb128 0xc
 4742 0c6c D1420000 		.4byte	.LASF321
 4743 0c70 3401     		.2byte	0x134
 4744 0c72 0C       		.uleb128 0xc
 4745 0c73 AC100000 		.4byte	.LASF322
 4746 0c77 3501     		.2byte	0x135
 4747 0c79 0C       		.uleb128 0xc
 4748 0c7a 74400000 		.4byte	.LASF323
 4749 0c7e 3601     		.2byte	0x136
 4750 0c80 0C       		.uleb128 0xc
 4751 0c81 021C0000 		.4byte	.LASF324
 4752 0c85 3701     		.2byte	0x137
 4753 0c87 0C       		.uleb128 0xc
 4754 0c88 B70D0000 		.4byte	.LASF325
 4755 0c8c 3801     		.2byte	0x138
 4756 0c8e 0C       		.uleb128 0xc
 4757 0c8f 82040000 		.4byte	.LASF326
 4758 0c93 3901     		.2byte	0x139
 4759 0c95 0C       		.uleb128 0xc
 4760 0c96 A6040000 		.4byte	.LASF327
 4761 0c9a 3A01     		.2byte	0x13a
 4762 0c9c 0C       		.uleb128 0xc
 4763 0c9d C8000000 		.4byte	.LASF328
 4764 0ca1 3B01     		.2byte	0x13b
 4765 0ca3 0C       		.uleb128 0xc
 4766 0ca4 65100000 		.4byte	.LASF329
 4767 0ca8 3C01     		.2byte	0x13c
 4768 0caa 0C       		.uleb128 0xc
 4769 0cab 7C490000 		.4byte	.LASF330
 4770 0caf 3D01     		.2byte	0x13d
 4771 0cb1 0C       		.uleb128 0xc
 4772 0cb2 66080000 		.4byte	.LASF331
 4773 0cb6 3E01     		.2byte	0x13e
 4774 0cb8 0C       		.uleb128 0xc
 4775 0cb9 072C0000 		.4byte	.LASF332
 4776 0cbd 3F01     		.2byte	0x13f
 4777 0cbf 0C       		.uleb128 0xc
 4778 0cc0 E23C0000 		.4byte	.LASF333
 4779 0cc4 4001     		.2byte	0x140
 4780 0cc6 0C       		.uleb128 0xc
 4781 0cc7 B8180000 		.4byte	.LASF334
 4782 0ccb 4101     		.2byte	0x141
ARM GAS  C:\Users\User\AppData\Local\Temp\ccmH1EJa.s 			page 107


 4783 0ccd 0C       		.uleb128 0xc
 4784 0cce DD2D0000 		.4byte	.LASF335
 4785 0cd2 4201     		.2byte	0x142
 4786 0cd4 0C       		.uleb128 0xc
 4787 0cd5 901B0000 		.4byte	.LASF336
 4788 0cd9 4301     		.2byte	0x143
 4789 0cdb 0C       		.uleb128 0xc
 4790 0cdc 88080000 		.4byte	.LASF337
 4791 0ce0 4401     		.2byte	0x144
 4792 0ce2 0C       		.uleb128 0xc
 4793 0ce3 0E030000 		.4byte	.LASF338
 4794 0ce7 4501     		.2byte	0x145
 4795 0ce9 0C       		.uleb128 0xc
 4796 0cea 530B0000 		.4byte	.LASF339
 4797 0cee 4601     		.2byte	0x146
 4798 0cf0 0C       		.uleb128 0xc
 4799 0cf1 1B360000 		.4byte	.LASF340
 4800 0cf5 4701     		.2byte	0x147
 4801 0cf7 0C       		.uleb128 0xc
 4802 0cf8 833E0000 		.4byte	.LASF341
 4803 0cfc 4801     		.2byte	0x148
 4804 0cfe 0C       		.uleb128 0xc
 4805 0cff 490A0000 		.4byte	.LASF342
 4806 0d03 4901     		.2byte	0x149
 4807 0d05 0C       		.uleb128 0xc
 4808 0d06 BF2B0000 		.4byte	.LASF343
 4809 0d0a 4A01     		.2byte	0x14a
 4810 0d0c 0C       		.uleb128 0xc
 4811 0d0d B0430000 		.4byte	.LASF344
 4812 0d11 4B01     		.2byte	0x14b
 4813 0d13 0C       		.uleb128 0xc
 4814 0d14 11270000 		.4byte	.LASF345
 4815 0d18 4C01     		.2byte	0x14c
 4816 0d1a 0C       		.uleb128 0xc
 4817 0d1b 0F440000 		.4byte	.LASF346
 4818 0d1f 4D01     		.2byte	0x14d
 4819 0d21 0C       		.uleb128 0xc
 4820 0d22 E70A0000 		.4byte	.LASF347
 4821 0d26 4E01     		.2byte	0x14e
 4822 0d28 0C       		.uleb128 0xc
 4823 0d29 1A130000 		.4byte	.LASF348
 4824 0d2d 4F01     		.2byte	0x14f
 4825 0d2f 0C       		.uleb128 0xc
 4826 0d30 49460000 		.4byte	.LASF349
 4827 0d34 5001     		.2byte	0x150
 4828 0d36 0C       		.uleb128 0xc
 4829 0d37 6E440000 		.4byte	.LASF350
 4830 0d3b 5101     		.2byte	0x151
 4831 0d3d 0C       		.uleb128 0xc
 4832 0d3e 09010000 		.4byte	.LASF351
 4833 0d42 5201     		.2byte	0x152
 4834 0d44 0C       		.uleb128 0xc
 4835 0d45 3B3F0000 		.4byte	.LASF352
 4836 0d49 5301     		.2byte	0x153
 4837 0d4b 0C       		.uleb128 0xc
 4838 0d4c 8B230000 		.4byte	.LASF353
 4839 0d50 5401     		.2byte	0x154
ARM GAS  C:\Users\User\AppData\Local\Temp\ccmH1EJa.s 			page 108


 4840 0d52 0C       		.uleb128 0xc
 4841 0d53 783D0000 		.4byte	.LASF354
 4842 0d57 5501     		.2byte	0x155
 4843 0d59 0C       		.uleb128 0xc
 4844 0d5a 5A3A0000 		.4byte	.LASF355
 4845 0d5e 5601     		.2byte	0x156
 4846 0d60 0C       		.uleb128 0xc
 4847 0d61 B9020000 		.4byte	.LASF356
 4848 0d65 5701     		.2byte	0x157
 4849 0d67 0C       		.uleb128 0xc
 4850 0d68 4B390000 		.4byte	.LASF357
 4851 0d6c 5801     		.2byte	0x158
 4852 0d6e 0C       		.uleb128 0xc
 4853 0d6f 1F120000 		.4byte	.LASF358
 4854 0d73 5901     		.2byte	0x159
 4855 0d75 0C       		.uleb128 0xc
 4856 0d76 D50B0000 		.4byte	.LASF359
 4857 0d7a 5A01     		.2byte	0x15a
 4858 0d7c 0C       		.uleb128 0xc
 4859 0d7d 990B0000 		.4byte	.LASF360
 4860 0d81 5B01     		.2byte	0x15b
 4861 0d83 0C       		.uleb128 0xc
 4862 0d84 D1110000 		.4byte	.LASF361
 4863 0d88 5C01     		.2byte	0x15c
 4864 0d8a 0C       		.uleb128 0xc
 4865 0d8b F4240000 		.4byte	.LASF362
 4866 0d8f 5D01     		.2byte	0x15d
 4867 0d91 0C       		.uleb128 0xc
 4868 0d92 71480000 		.4byte	.LASF363
 4869 0d96 5E01     		.2byte	0x15e
 4870 0d98 0C       		.uleb128 0xc
 4871 0d99 F6170000 		.4byte	.LASF364
 4872 0d9d 5F01     		.2byte	0x15f
 4873 0d9f 0C       		.uleb128 0xc
 4874 0da0 FF350000 		.4byte	.LASF365
 4875 0da4 6001     		.2byte	0x160
 4876 0da6 0C       		.uleb128 0xc
 4877 0da7 43300000 		.4byte	.LASF366
 4878 0dab 6101     		.2byte	0x161
 4879 0dad 0C       		.uleb128 0xc
 4880 0dae 74020000 		.4byte	.LASF367
 4881 0db2 6201     		.2byte	0x162
 4882 0db4 0C       		.uleb128 0xc
 4883 0db5 DF220000 		.4byte	.LASF368
 4884 0db9 6301     		.2byte	0x163
 4885 0dbb 0C       		.uleb128 0xc
 4886 0dbc 24010000 		.4byte	.LASF369
 4887 0dc0 6401     		.2byte	0x164
 4888 0dc2 0C       		.uleb128 0xc
 4889 0dc3 390C0000 		.4byte	.LASF370
 4890 0dc7 6501     		.2byte	0x165
 4891 0dc9 0C       		.uleb128 0xc
 4892 0dca CE440000 		.4byte	.LASF371
 4893 0dce 6601     		.2byte	0x166
 4894 0dd0 0C       		.uleb128 0xc
 4895 0dd1 611B0000 		.4byte	.LASF372
 4896 0dd5 6701     		.2byte	0x167
ARM GAS  C:\Users\User\AppData\Local\Temp\ccmH1EJa.s 			page 109


 4897 0dd7 0C       		.uleb128 0xc
 4898 0dd8 1F1A0000 		.4byte	.LASF373
 4899 0ddc 6801     		.2byte	0x168
 4900 0dde 0C       		.uleb128 0xc
 4901 0ddf AA070000 		.4byte	.LASF374
 4902 0de3 6901     		.2byte	0x169
 4903 0de5 0C       		.uleb128 0xc
 4904 0de6 CE0C0000 		.4byte	.LASF375
 4905 0dea 6A01     		.2byte	0x16a
 4906 0dec 0C       		.uleb128 0xc
 4907 0ded BD280000 		.4byte	.LASF376
 4908 0df1 6B01     		.2byte	0x16b
 4909 0df3 0C       		.uleb128 0xc
 4910 0df4 17240000 		.4byte	.LASF377
 4911 0df8 6C01     		.2byte	0x16c
 4912 0dfa 0C       		.uleb128 0xc
 4913 0dfb C8090000 		.4byte	.LASF378
 4914 0dff 6D01     		.2byte	0x16d
 4915 0e01 0C       		.uleb128 0xc
 4916 0e02 D1080000 		.4byte	.LASF379
 4917 0e06 6E01     		.2byte	0x16e
 4918 0e08 0C       		.uleb128 0xc
 4919 0e09 96020000 		.4byte	.LASF380
 4920 0e0d 6F01     		.2byte	0x16f
 4921 0e0f 0C       		.uleb128 0xc
 4922 0e10 D2230000 		.4byte	.LASF381
 4923 0e14 7001     		.2byte	0x170
 4924 0e16 0C       		.uleb128 0xc
 4925 0e17 8F4A0000 		.4byte	.LASF382
 4926 0e1b 7101     		.2byte	0x171
 4927 0e1d 0C       		.uleb128 0xc
 4928 0e1e 1F1D0000 		.4byte	.LASF383
 4929 0e22 7201     		.2byte	0x172
 4930 0e24 0C       		.uleb128 0xc
 4931 0e25 451A0000 		.4byte	.LASF384
 4932 0e29 7301     		.2byte	0x173
 4933 0e2b 0C       		.uleb128 0xc
 4934 0e2c E22B0000 		.4byte	.LASF385
 4935 0e30 7401     		.2byte	0x174
 4936 0e32 0C       		.uleb128 0xc
 4937 0e33 8F410000 		.4byte	.LASF386
 4938 0e37 7501     		.2byte	0x175
 4939 0e39 0C       		.uleb128 0xc
 4940 0e3a 03370000 		.4byte	.LASF387
 4941 0e3e 7601     		.2byte	0x176
 4942 0e40 0C       		.uleb128 0xc
 4943 0e41 E3040000 		.4byte	.LASF388
 4944 0e45 7701     		.2byte	0x177
 4945 0e47 0C       		.uleb128 0xc
 4946 0e48 13350000 		.4byte	.LASF389
 4947 0e4c 7801     		.2byte	0x178
 4948 0e4e 0C       		.uleb128 0xc
 4949 0e4f 42170000 		.4byte	.LASF390
 4950 0e53 7901     		.2byte	0x179
 4951 0e55 0C       		.uleb128 0xc
 4952 0e56 96220000 		.4byte	.LASF391
 4953 0e5a 7A01     		.2byte	0x17a
ARM GAS  C:\Users\User\AppData\Local\Temp\ccmH1EJa.s 			page 110


 4954 0e5c 0C       		.uleb128 0xc
 4955 0e5d 74220000 		.4byte	.LASF392
 4956 0e61 7B01     		.2byte	0x17b
 4957 0e63 0C       		.uleb128 0xc
 4958 0e64 FA3B0000 		.4byte	.LASF393
 4959 0e68 7C01     		.2byte	0x17c
 4960 0e6a 0C       		.uleb128 0xc
 4961 0e6b 60180000 		.4byte	.LASF394
 4962 0e6f 7D01     		.2byte	0x17d
 4963 0e71 0C       		.uleb128 0xc
 4964 0e72 4F290000 		.4byte	.LASF395
 4965 0e76 7E01     		.2byte	0x17e
 4966 0e78 0C       		.uleb128 0xc
 4967 0e79 68270000 		.4byte	.LASF396
 4968 0e7d 7F01     		.2byte	0x17f
 4969 0e7f 0C       		.uleb128 0xc
 4970 0e80 982C0000 		.4byte	.LASF397
 4971 0e84 8001     		.2byte	0x180
 4972 0e86 0C       		.uleb128 0xc
 4973 0e87 C63B0000 		.4byte	.LASF398
 4974 0e8b 8101     		.2byte	0x181
 4975 0e8d 0C       		.uleb128 0xc
 4976 0e8e 34290000 		.4byte	.LASF399
 4977 0e92 8201     		.2byte	0x182
 4978 0e94 0C       		.uleb128 0xc
 4979 0e95 B6290000 		.4byte	.LASF400
 4980 0e99 8301     		.2byte	0x183
 4981 0e9b 0C       		.uleb128 0xc
 4982 0e9c 4F190000 		.4byte	.LASF401
 4983 0ea0 8401     		.2byte	0x184
 4984 0ea2 0C       		.uleb128 0xc
 4985 0ea3 340F0000 		.4byte	.LASF402
 4986 0ea7 8501     		.2byte	0x185
 4987 0ea9 0C       		.uleb128 0xc
 4988 0eaa F03F0000 		.4byte	.LASF403
 4989 0eae 8601     		.2byte	0x186
 4990 0eb0 0C       		.uleb128 0xc
 4991 0eb1 F21E0000 		.4byte	.LASF404
 4992 0eb5 8701     		.2byte	0x187
 4993 0eb7 0C       		.uleb128 0xc
 4994 0eb8 F50D0000 		.4byte	.LASF405
 4995 0ebc 8801     		.2byte	0x188
 4996 0ebe 0C       		.uleb128 0xc
 4997 0ebf BE400000 		.4byte	.LASF406
 4998 0ec3 8901     		.2byte	0x189
 4999 0ec5 0C       		.uleb128 0xc
 5000 0ec6 53370000 		.4byte	.LASF407
 5001 0eca 8A01     		.2byte	0x18a
 5002 0ecc 0C       		.uleb128 0xc
 5003 0ecd 77340000 		.4byte	.LASF408
 5004 0ed1 8B01     		.2byte	0x18b
 5005 0ed3 0C       		.uleb128 0xc
 5006 0ed4 2A260000 		.4byte	.LASF409
 5007 0ed8 8C01     		.2byte	0x18c
 5008 0eda 0C       		.uleb128 0xc
 5009 0edb DE020000 		.4byte	.LASF410
 5010 0edf 8D01     		.2byte	0x18d
ARM GAS  C:\Users\User\AppData\Local\Temp\ccmH1EJa.s 			page 111


 5011 0ee1 0C       		.uleb128 0xc
 5012 0ee2 2C310000 		.4byte	.LASF411
 5013 0ee6 8E01     		.2byte	0x18e
 5014 0ee8 0C       		.uleb128 0xc
 5015 0ee9 57480000 		.4byte	.LASF412
 5016 0eed 8F01     		.2byte	0x18f
 5017 0eef 0C       		.uleb128 0xc
 5018 0ef0 F3420000 		.4byte	.LASF413
 5019 0ef4 9001     		.2byte	0x190
 5020 0ef6 0C       		.uleb128 0xc
 5021 0ef7 39250000 		.4byte	.LASF414
 5022 0efb 9101     		.2byte	0x191
 5023 0efd 0C       		.uleb128 0xc
 5024 0efe 8E470000 		.4byte	.LASF415
 5025 0f02 9201     		.2byte	0x192
 5026 0f04 0C       		.uleb128 0xc
 5027 0f05 D3150000 		.4byte	.LASF416
 5028 0f09 9301     		.2byte	0x193
 5029 0f0b 0C       		.uleb128 0xc
 5030 0f0c 89440000 		.4byte	.LASF417
 5031 0f10 9401     		.2byte	0x194
 5032 0f12 0C       		.uleb128 0xc
 5033 0f13 754B0000 		.4byte	.LASF418
 5034 0f17 9501     		.2byte	0x195
 5035 0f19 0C       		.uleb128 0xc
 5036 0f1a F7290000 		.4byte	.LASF419
 5037 0f1e 9601     		.2byte	0x196
 5038 0f20 0C       		.uleb128 0xc
 5039 0f21 234A0000 		.4byte	.LASF420
 5040 0f25 9701     		.2byte	0x197
 5041 0f27 0C       		.uleb128 0xc
 5042 0f28 94290000 		.4byte	.LASF421
 5043 0f2c 9801     		.2byte	0x198
 5044 0f2e 0C       		.uleb128 0xc
 5045 0f2f 19100000 		.4byte	.LASF422
 5046 0f33 9901     		.2byte	0x199
 5047 0f35 0C       		.uleb128 0xc
 5048 0f36 2F1F0000 		.4byte	.LASF423
 5049 0f3a 9A01     		.2byte	0x19a
 5050 0f3c 0C       		.uleb128 0xc
 5051 0f3d E01B0000 		.4byte	.LASF424
 5052 0f41 9B01     		.2byte	0x19b
 5053 0f43 0C       		.uleb128 0xc
 5054 0f44 8A0F0000 		.4byte	.LASF425
 5055 0f48 9C01     		.2byte	0x19c
 5056 0f4a 0C       		.uleb128 0xc
 5057 0f4b 7E3A0000 		.4byte	.LASF426
 5058 0f4f 9D01     		.2byte	0x19d
 5059 0f51 0C       		.uleb128 0xc
 5060 0f52 EE1F0000 		.4byte	.LASF427
 5061 0f56 9E01     		.2byte	0x19e
 5062 0f58 0C       		.uleb128 0xc
 5063 0f59 52320000 		.4byte	.LASF428
 5064 0f5d 9F01     		.2byte	0x19f
 5065 0f5f 0C       		.uleb128 0xc
 5066 0f60 A2050000 		.4byte	.LASF429
 5067 0f64 A001     		.2byte	0x1a0
ARM GAS  C:\Users\User\AppData\Local\Temp\ccmH1EJa.s 			page 112


 5068 0f66 0C       		.uleb128 0xc
 5069 0f67 99250000 		.4byte	.LASF430
 5070 0f6b A101     		.2byte	0x1a1
 5071 0f6d 0C       		.uleb128 0xc
 5072 0f6e 69330000 		.4byte	.LASF431
 5073 0f72 A201     		.2byte	0x1a2
 5074 0f74 0C       		.uleb128 0xc
 5075 0f75 AA1B0000 		.4byte	.LASF432
 5076 0f79 A301     		.2byte	0x1a3
 5077 0f7b 0C       		.uleb128 0xc
 5078 0f7c D8240000 		.4byte	.LASF433
 5079 0f80 A401     		.2byte	0x1a4
 5080 0f82 0C       		.uleb128 0xc
 5081 0f83 AC260000 		.4byte	.LASF434
 5082 0f87 A501     		.2byte	0x1a5
 5083 0f89 0C       		.uleb128 0xc
 5084 0f8a 6C410000 		.4byte	.LASF435
 5085 0f8e A601     		.2byte	0x1a6
 5086 0f90 0C       		.uleb128 0xc
 5087 0f91 DC180000 		.4byte	.LASF436
 5088 0f95 A701     		.2byte	0x1a7
 5089 0f97 0C       		.uleb128 0xc
 5090 0f98 7C2E0000 		.4byte	.LASF437
 5091 0f9c A801     		.2byte	0x1a8
 5092 0f9e 0C       		.uleb128 0xc
 5093 0f9f 10180000 		.4byte	.LASF438
 5094 0fa3 A901     		.2byte	0x1a9
 5095 0fa5 0C       		.uleb128 0xc
 5096 0fa6 B2190000 		.4byte	.LASF439
 5097 0faa AA01     		.2byte	0x1aa
 5098 0fac 0C       		.uleb128 0xc
 5099 0fad 094C0000 		.4byte	.LASF440
 5100 0fb1 AB01     		.2byte	0x1ab
 5101 0fb3 0C       		.uleb128 0xc
 5102 0fb4 B8310000 		.4byte	.LASF441
 5103 0fb8 AC01     		.2byte	0x1ac
 5104 0fba 0C       		.uleb128 0xc
 5105 0fbb 8E320000 		.4byte	.LASF442
 5106 0fbf AD01     		.2byte	0x1ad
 5107 0fc1 0C       		.uleb128 0xc
 5108 0fc2 85090000 		.4byte	.LASF443
 5109 0fc6 AE01     		.2byte	0x1ae
 5110 0fc8 0C       		.uleb128 0xc
 5111 0fc9 111B0000 		.4byte	.LASF444
 5112 0fcd AF01     		.2byte	0x1af
 5113 0fcf 0C       		.uleb128 0xc
 5114 0fd0 453B0000 		.4byte	.LASF445
 5115 0fd4 B001     		.2byte	0x1b0
 5116 0fd6 0C       		.uleb128 0xc
 5117 0fd7 6E0E0000 		.4byte	.LASF446
 5118 0fdb B101     		.2byte	0x1b1
 5119 0fdd 0C       		.uleb128 0xc
 5120 0fde 51000000 		.4byte	.LASF447
 5121 0fe2 B201     		.2byte	0x1b2
 5122 0fe4 0C       		.uleb128 0xc
 5123 0fe5 39420000 		.4byte	.LASF448
 5124 0fe9 B301     		.2byte	0x1b3
ARM GAS  C:\Users\User\AppData\Local\Temp\ccmH1EJa.s 			page 113


 5125 0feb 0C       		.uleb128 0xc
 5126 0fec 4A160000 		.4byte	.LASF449
 5127 0ff0 B401     		.2byte	0x1b4
 5128 0ff2 0C       		.uleb128 0xc
 5129 0ff3 9A4B0000 		.4byte	.LASF450
 5130 0ff7 B501     		.2byte	0x1b5
 5131 0ff9 0C       		.uleb128 0xc
 5132 0ffa F2210000 		.4byte	.LASF451
 5133 0ffe B601     		.2byte	0x1b6
 5134 1000 0C       		.uleb128 0xc
 5135 1001 BD250000 		.4byte	.LASF452
 5136 1005 B701     		.2byte	0x1b7
 5137 1007 0C       		.uleb128 0xc
 5138 1008 4F4B0000 		.4byte	.LASF453
 5139 100c B801     		.2byte	0x1b8
 5140 100e 0C       		.uleb128 0xc
 5141 100f A23D0000 		.4byte	.LASF454
 5142 1013 B901     		.2byte	0x1b9
 5143 1015 0C       		.uleb128 0xc
 5144 1016 252E0000 		.4byte	.LASF455
 5145 101a BA01     		.2byte	0x1ba
 5146 101c 0C       		.uleb128 0xc
 5147 101d D3300000 		.4byte	.LASF456
 5148 1021 BB01     		.2byte	0x1bb
 5149 1023 0C       		.uleb128 0xc
 5150 1024 8D450000 		.4byte	.LASF457
 5151 1028 BC01     		.2byte	0x1bc
 5152 102a 0C       		.uleb128 0xc
 5153 102b 5B200000 		.4byte	.LASF458
 5154 102f BD01     		.2byte	0x1bd
 5155 1031 0C       		.uleb128 0xc
 5156 1032 FF090000 		.4byte	.LASF459
 5157 1036 BE01     		.2byte	0x1be
 5158 1038 0C       		.uleb128 0xc
 5159 1039 94130000 		.4byte	.LASF460
 5160 103d BF01     		.2byte	0x1bf
 5161 103f 0C       		.uleb128 0xc
 5162 1040 644A0000 		.4byte	.LASF461
 5163 1044 C001     		.2byte	0x1c0
 5164 1046 0C       		.uleb128 0xc
 5165 1047 3D0E0000 		.4byte	.LASF462
 5166 104b C101     		.2byte	0x1c1
 5167 104d 0C       		.uleb128 0xc
 5168 104e 38200000 		.4byte	.LASF463
 5169 1052 C201     		.2byte	0x1c2
 5170 1054 0C       		.uleb128 0xc
 5171 1055 15250000 		.4byte	.LASF464
 5172 1059 C301     		.2byte	0x1c3
 5173 105b 0C       		.uleb128 0xc
 5174 105c 6F450000 		.4byte	.LASF465
 5175 1060 C401     		.2byte	0x1c4
 5176 1062 0C       		.uleb128 0xc
 5177 1063 CB410000 		.4byte	.LASF466
 5178 1067 C501     		.2byte	0x1c5
 5179 1069 0C       		.uleb128 0xc
 5180 106a CE1A0000 		.4byte	.LASF467
 5181 106e C601     		.2byte	0x1c6
ARM GAS  C:\Users\User\AppData\Local\Temp\ccmH1EJa.s 			page 114


 5182 1070 0C       		.uleb128 0xc
 5183 1071 9B280000 		.4byte	.LASF468
 5184 1075 C701     		.2byte	0x1c7
 5185 1077 0C       		.uleb128 0xc
 5186 1078 4F030000 		.4byte	.LASF469
 5187 107c C801     		.2byte	0x1c8
 5188 107e 0C       		.uleb128 0xc
 5189 107f 0C380000 		.4byte	.LASF470
 5190 1083 C901     		.2byte	0x1c9
 5191 1085 0C       		.uleb128 0xc
 5192 1086 C0040000 		.4byte	.LASF471
 5193 108a CA01     		.2byte	0x1ca
 5194 108c 0C       		.uleb128 0xc
 5195 108d D8330000 		.4byte	.LASF472
 5196 1091 CB01     		.2byte	0x1cb
 5197 1093 0C       		.uleb128 0xc
 5198 1094 F70B0000 		.4byte	.LASF473
 5199 1098 CC01     		.2byte	0x1cc
 5200 109a 0C       		.uleb128 0xc
 5201 109b 463E0000 		.4byte	.LASF474
 5202 109f CD01     		.2byte	0x1cd
 5203 10a1 0C       		.uleb128 0xc
 5204 10a2 AC3B0000 		.4byte	.LASF475
 5205 10a6 CE01     		.2byte	0x1ce
 5206 10a8 0C       		.uleb128 0xc
 5207 10a9 F5070000 		.4byte	.LASF476
 5208 10ad CF01     		.2byte	0x1cf
 5209 10af 0C       		.uleb128 0xc
 5210 10b0 95360000 		.4byte	.LASF477
 5211 10b4 D001     		.2byte	0x1d0
 5212 10b6 0C       		.uleb128 0xc
 5213 10b7 55340000 		.4byte	.LASF478
 5214 10bb D101     		.2byte	0x1d1
 5215 10bd 0C       		.uleb128 0xc
 5216 10be 9F1C0000 		.4byte	.LASF479
 5217 10c2 D201     		.2byte	0x1d2
 5218 10c4 0C       		.uleb128 0xc
 5219 10c5 B1470000 		.4byte	.LASF480
 5220 10c9 D301     		.2byte	0x1d3
 5221 10cb 0C       		.uleb128 0xc
 5222 10cc 53280000 		.4byte	.LASF481
 5223 10d0 D401     		.2byte	0x1d4
 5224 10d2 0C       		.uleb128 0xc
 5225 10d3 F1320000 		.4byte	.LASF482
 5226 10d7 D501     		.2byte	0x1d5
 5227 10d9 0C       		.uleb128 0xc
 5228 10da 96180000 		.4byte	.LASF483
 5229 10de D601     		.2byte	0x1d6
 5230 10e0 0C       		.uleb128 0xc
 5231 10e1 2A2C0000 		.4byte	.LASF484
 5232 10e5 D701     		.2byte	0x1d7
 5233 10e7 0C       		.uleb128 0xc
 5234 10e8 60260000 		.4byte	.LASF485
 5235 10ec D801     		.2byte	0x1d8
 5236 10ee 0C       		.uleb128 0xc
 5237 10ef 5B420000 		.4byte	.LASF486
 5238 10f3 D901     		.2byte	0x1d9
ARM GAS  C:\Users\User\AppData\Local\Temp\ccmH1EJa.s 			page 115


 5239 10f5 0C       		.uleb128 0xc
 5240 10f6 32240000 		.4byte	.LASF487
 5241 10fa DA01     		.2byte	0x1da
 5242 10fc 0C       		.uleb128 0xc
 5243 10fd 66170000 		.4byte	.LASF488
 5244 1101 DB01     		.2byte	0x1db
 5245 1103 0C       		.uleb128 0xc
 5246 1104 14040000 		.4byte	.LASF489
 5247 1108 DC01     		.2byte	0x1dc
 5248 110a 0C       		.uleb128 0xc
 5249 110b 96370000 		.4byte	.LASF490
 5250 110f DD01     		.2byte	0x1dd
 5251 1111 0C       		.uleb128 0xc
 5252 1112 0C0B0000 		.4byte	.LASF491
 5253 1116 DE01     		.2byte	0x1de
 5254 1118 0C       		.uleb128 0xc
 5255 1119 760B0000 		.4byte	.LASF492
 5256 111d DF01     		.2byte	0x1df
 5257 111f 0C       		.uleb128 0xc
 5258 1120 79200000 		.4byte	.LASF493
 5259 1124 E001     		.2byte	0x1e0
 5260 1126 0C       		.uleb128 0xc
 5261 1127 941E0000 		.4byte	.LASF494
 5262 112b E101     		.2byte	0x1e1
 5263 112d 0C       		.uleb128 0xc
 5264 112e 7B380000 		.4byte	.LASF495
 5265 1132 E201     		.2byte	0x1e2
 5266 1134 0C       		.uleb128 0xc
 5267 1135 343A0000 		.4byte	.LASF496
 5268 1139 E301     		.2byte	0x1e3
 5269 113b 0C       		.uleb128 0xc
 5270 113c B9220000 		.4byte	.LASF497
 5271 1140 E401     		.2byte	0x1e4
 5272 1142 0C       		.uleb128 0xc
 5273 1143 D1200000 		.4byte	.LASF498
 5274 1147 E501     		.2byte	0x1e5
 5275 1149 0C       		.uleb128 0xc
 5276 114a 43080000 		.4byte	.LASF499
 5277 114e E601     		.2byte	0x1e6
 5278 1150 0C       		.uleb128 0xc
 5279 1151 CE1E0000 		.4byte	.LASF500
 5280 1155 E701     		.2byte	0x1e7
 5281 1157 0C       		.uleb128 0xc
 5282 1158 0C3E0000 		.4byte	.LASF501
 5283 115c E801     		.2byte	0x1e8
 5284 115e 0C       		.uleb128 0xc
 5285 115f 30390000 		.4byte	.LASF502
 5286 1163 E901     		.2byte	0x1e9
 5287 1165 0C       		.uleb128 0xc
 5288 1166 CD140000 		.4byte	.LASF503
 5289 116a EA01     		.2byte	0x1ea
 5290 116c 0C       		.uleb128 0xc
 5291 116d 71210000 		.4byte	.LASF504
 5292 1171 EB01     		.2byte	0x1eb
 5293 1173 0C       		.uleb128 0xc
 5294 1174 91000000 		.4byte	.LASF505
 5295 1178 EC01     		.2byte	0x1ec
ARM GAS  C:\Users\User\AppData\Local\Temp\ccmH1EJa.s 			page 116


 5296 117a 0C       		.uleb128 0xc
 5297 117b 6D240000 		.4byte	.LASF506
 5298 117f ED01     		.2byte	0x1ed
 5299 1181 0C       		.uleb128 0xc
 5300 1182 4D2C0000 		.4byte	.LASF507
 5301 1186 EE01     		.2byte	0x1ee
 5302 1188 0C       		.uleb128 0xc
 5303 1189 34000000 		.4byte	.LASF508
 5304 118d EF01     		.2byte	0x1ef
 5305 118f 0C       		.uleb128 0xc
 5306 1190 63050000 		.4byte	.LASF509
 5307 1194 F001     		.2byte	0x1f0
 5308 1196 0C       		.uleb128 0xc
 5309 1197 EC1D0000 		.4byte	.LASF510
 5310 119b F101     		.2byte	0x1f1
 5311 119d 0C       		.uleb128 0xc
 5312 119e 23230000 		.4byte	.LASF511
 5313 11a2 F201     		.2byte	0x1f2
 5314 11a4 0C       		.uleb128 0xc
 5315 11a5 47010000 		.4byte	.LASF512
 5316 11a9 F301     		.2byte	0x1f3
 5317 11ab 0C       		.uleb128 0xc
 5318 11ac 74250000 		.4byte	.LASF513
 5319 11b0 F401     		.2byte	0x1f4
 5320 11b2 0C       		.uleb128 0xc
 5321 11b3 603D0000 		.4byte	.LASF514
 5322 11b7 F501     		.2byte	0x1f5
 5323 11b9 0C       		.uleb128 0xc
 5324 11ba F84A0000 		.4byte	.LASF515
 5325 11be F601     		.2byte	0x1f6
 5326 11c0 0C       		.uleb128 0xc
 5327 11c1 A31F0000 		.4byte	.LASF516
 5328 11c5 F701     		.2byte	0x1f7
 5329 11c7 0C       		.uleb128 0xc
 5330 11c8 82110000 		.4byte	.LASF517
 5331 11cc F801     		.2byte	0x1f8
 5332 11ce 0C       		.uleb128 0xc
 5333 11cf 691A0000 		.4byte	.LASF518
 5334 11d3 F901     		.2byte	0x1f9
 5335 11d5 0C       		.uleb128 0xc
 5336 11d6 1D320000 		.4byte	.LASF519
 5337 11da FA01     		.2byte	0x1fa
 5338 11dc 0C       		.uleb128 0xc
 5339 11dd 2D050000 		.4byte	.LASF520
 5340 11e1 FB01     		.2byte	0x1fb
 5341 11e3 0C       		.uleb128 0xc
 5342 11e4 7E3C0000 		.4byte	.LASF521
 5343 11e8 FC01     		.2byte	0x1fc
 5344 11ea 0C       		.uleb128 0xc
 5345 11eb 6F120000 		.4byte	.LASF522
 5346 11ef FD01     		.2byte	0x1fd
 5347 11f1 0C       		.uleb128 0xc
 5348 11f2 91240000 		.4byte	.LASF523
 5349 11f6 FE01     		.2byte	0x1fe
 5350 11f8 0C       		.uleb128 0xc
 5351 11f9 8E190000 		.4byte	.LASF524
 5352 11fd FF01     		.2byte	0x1ff
ARM GAS  C:\Users\User\AppData\Local\Temp\ccmH1EJa.s 			page 117


 5353 11ff 0C       		.uleb128 0xc
 5354 1200 F2440000 		.4byte	.LASF525
 5355 1204 0002     		.2byte	0x200
 5356 1206 0C       		.uleb128 0xc
 5357 1207 5D040000 		.4byte	.LASF526
 5358 120b 0102     		.2byte	0x201
 5359 120d 0C       		.uleb128 0xc
 5360 120e 6B010000 		.4byte	.LASF527
 5361 1212 0202     		.2byte	0x202
 5362 1214 0C       		.uleb128 0xc
 5363 1215 6D160000 		.4byte	.LASF528
 5364 1219 0302     		.2byte	0x203
 5365 121b 0C       		.uleb128 0xc
 5366 121c 6F130000 		.4byte	.LASF529
 5367 1220 0402     		.2byte	0x204
 5368 1222 0C       		.uleb128 0xc
 5369 1223 722C0000 		.4byte	.LASF530
 5370 1227 0502     		.2byte	0x205
 5371 1229 0C       		.uleb128 0xc
 5372 122a 38430000 		.4byte	.LASF531
 5373 122e 0602     		.2byte	0x206
 5374 1230 0C       		.uleb128 0xc
 5375 1231 77290000 		.4byte	.LASF532
 5376 1235 0702     		.2byte	0x207
 5377 1237 0C       		.uleb128 0xc
 5378 1238 213B0000 		.4byte	.LASF533
 5379 123c 0802     		.2byte	0x208
 5380 123e 0C       		.uleb128 0xc
 5381 123f 57140000 		.4byte	.LASF534
 5382 1243 0902     		.2byte	0x209
 5383 1245 0C       		.uleb128 0xc
 5384 1246 C7050000 		.4byte	.LASF535
 5385 124a 0A02     		.2byte	0x20a
 5386 124c 0C       		.uleb128 0xc
 5387 124d FC3A0000 		.4byte	.LASF536
 5388 1251 0B02     		.2byte	0x20b
 5389 1253 0C       		.uleb128 0xc
 5390 1254 9C140000 		.4byte	.LASF537
 5391 1258 0C02     		.2byte	0x20c
 5392 125a 0C       		.uleb128 0xc
 5393 125b E7250000 		.4byte	.LASF538
 5394 125f 0D02     		.2byte	0x20d
 5395 1261 0C       		.uleb128 0xc
 5396 1262 6F390000 		.4byte	.LASF539
 5397 1266 0E02     		.2byte	0x20e
 5398 1268 0C       		.uleb128 0xc
 5399 1269 D6190000 		.4byte	.LASF540
 5400 126d 0F02     		.2byte	0x20f
 5401 126f 0C       		.uleb128 0xc
 5402 1270 A9410000 		.4byte	.LASF541
 5403 1274 1002     		.2byte	0x210
 5404 1276 0C       		.uleb128 0xc
 5405 1277 A4170000 		.4byte	.LASF542
 5406 127b 1102     		.2byte	0x211
 5407 127d 0C       		.uleb128 0xc
 5408 127e 190D0000 		.4byte	.LASF543
 5409 1282 1202     		.2byte	0x212
ARM GAS  C:\Users\User\AppData\Local\Temp\ccmH1EJa.s 			page 118


 5410 1284 0C       		.uleb128 0xc
 5411 1285 9B330000 		.4byte	.LASF544
 5412 1289 1302     		.2byte	0x213
 5413 128b 0C       		.uleb128 0xc
 5414 128c FA1C0000 		.4byte	.LASF545
 5415 1290 1402     		.2byte	0x214
 5416 1292 0C       		.uleb128 0xc
 5417 1293 D00E0000 		.4byte	.LASF546
 5418 1297 1502     		.2byte	0x215
 5419 1299 0C       		.uleb128 0xc
 5420 129a D21D0000 		.4byte	.LASF547
 5421 129e 1602     		.2byte	0x216
 5422 12a0 0C       		.uleb128 0xc
 5423 12a1 E5090000 		.4byte	.LASF548
 5424 12a5 1702     		.2byte	0x217
 5425 12a7 0C       		.uleb128 0xc
 5426 12a8 F82A0000 		.4byte	.LASF549
 5427 12ac 1802     		.2byte	0x218
 5428 12ae 0C       		.uleb128 0xc
 5429 12af 12000000 		.4byte	.LASF550
 5430 12b3 1902     		.2byte	0x219
 5431 12b5 0C       		.uleb128 0xc
 5432 12b6 2B2F0000 		.4byte	.LASF551
 5433 12ba 1A02     		.2byte	0x21a
 5434 12bc 0C       		.uleb128 0xc
 5435 12bd 75420000 		.4byte	.LASF552
 5436 12c1 1B02     		.2byte	0x21b
 5437 12c3 0C       		.uleb128 0xc
 5438 12c4 7E050000 		.4byte	.LASF553
 5439 12c8 1C02     		.2byte	0x21c
 5440 12ca 0C       		.uleb128 0xc
 5441 12cb D7390000 		.4byte	.LASF554
 5442 12cf 1D02     		.2byte	0x21d
 5443 12d1 0C       		.uleb128 0xc
 5444 12d2 E8270000 		.4byte	.LASF555
 5445 12d6 1E02     		.2byte	0x21e
 5446 12d8 0C       		.uleb128 0xc
 5447 12d9 CC480000 		.4byte	.LASF556
 5448 12dd 1F02     		.2byte	0x21f
 5449 12df 0C       		.uleb128 0xc
 5450 12e0 32210000 		.4byte	.LASF557
 5451 12e4 2002     		.2byte	0x220
 5452 12e6 0C       		.uleb128 0xc
 5453 12e7 AD120000 		.4byte	.LASF558
 5454 12eb 2102     		.2byte	0x221
 5455 12ed 0C       		.uleb128 0xc
 5456 12ee E44B0000 		.4byte	.LASF559
 5457 12f2 2202     		.2byte	0x222
 5458 12f4 0C       		.uleb128 0xc
 5459 12f5 B31A0000 		.4byte	.LASF560
 5460 12f9 2302     		.2byte	0x223
 5461 12fb 0C       		.uleb128 0xc
 5462 12fc B1010000 		.4byte	.LASF561
 5463 1300 2402     		.2byte	0x224
 5464 1302 0C       		.uleb128 0xc
 5465 1303 4E2F0000 		.4byte	.LASF562
 5466 1307 2502     		.2byte	0x225
ARM GAS  C:\Users\User\AppData\Local\Temp\ccmH1EJa.s 			page 119


 5467 1309 0C       		.uleb128 0xc
 5468 130a 142B0000 		.4byte	.LASF563
 5469 130e 2602     		.2byte	0x226
 5470 1310 0C       		.uleb128 0xc
 5471 1311 4F1C0000 		.4byte	.LASF564
 5472 1315 2702     		.2byte	0x227
 5473 1317 0C       		.uleb128 0xc
 5474 1318 063D0000 		.4byte	.LASF565
 5475 131c 2802     		.2byte	0x228
 5476 131e 0C       		.uleb128 0xc
 5477 131f FE450000 		.4byte	.LASF566
 5478 1323 2902     		.2byte	0x229
 5479 1325 0C       		.uleb128 0xc
 5480 1326 52020000 		.4byte	.LASF567
 5481 132a 2A02     		.2byte	0x22a
 5482 132c 0C       		.uleb128 0xc
 5483 132d 482E0000 		.4byte	.LASF568
 5484 1331 2B02     		.2byte	0x22b
 5485 1333 0C       		.uleb128 0xc
 5486 1334 FC160000 		.4byte	.LASF569
 5487 1338 2C02     		.2byte	0x22c
 5488 133a 0C       		.uleb128 0xc
 5489 133b 812D0000 		.4byte	.LASF570
 5490 133f 2D02     		.2byte	0x22d
 5491 1341 0C       		.uleb128 0xc
 5492 1342 A0490000 		.4byte	.LASF571
 5493 1346 2E02     		.2byte	0x22e
 5494 1348 0C       		.uleb128 0xc
 5495 1349 8A120000 		.4byte	.LASF572
 5496 134d 2F02     		.2byte	0x22f
 5497 134f 0C       		.uleb128 0xc
 5498 1350 88100000 		.4byte	.LASF573
 5499 1354 3002     		.2byte	0x230
 5500 1356 0C       		.uleb128 0xc
 5501 1357 F6300000 		.4byte	.LASF574
 5502 135b 00E0     		.2byte	0xe000
 5503 135d 00       		.byte	0
 5504 135e 0A       		.uleb128 0xa
 5505 135f 01       		.byte	0x1
 5506 1360 2C000000 		.4byte	0x2c
 5507 1364 0B       		.byte	0xb
 5508 1365 A808     		.2byte	0x8a8
 5509 1367 96130000 		.4byte	0x1396
 5510 136b 0B       		.uleb128 0xb
 5511 136c 6E110000 		.4byte	.LASF575
 5512 1370 00       		.byte	0
 5513 1371 0B       		.uleb128 0xb
 5514 1372 60430000 		.4byte	.LASF576
 5515 1376 01       		.byte	0x1
 5516 1377 0B       		.uleb128 0xb
 5517 1378 D4470000 		.4byte	.LASF577
 5518 137c 02       		.byte	0x2
 5519 137d 0B       		.uleb128 0xb
 5520 137e 6B0A0000 		.4byte	.LASF578
 5521 1382 03       		.byte	0x3
 5522 1383 0B       		.uleb128 0xb
 5523 1384 15070000 		.4byte	.LASF579
ARM GAS  C:\Users\User\AppData\Local\Temp\ccmH1EJa.s 			page 120


 5524 1388 04       		.byte	0x4
 5525 1389 0B       		.uleb128 0xb
 5526 138a 4B150000 		.4byte	.LASF580
 5527 138e 05       		.byte	0x5
 5528 138f 0B       		.uleb128 0xb
 5529 1390 5B250000 		.4byte	.LASF581
 5530 1394 06       		.byte	0x6
 5531 1395 00       		.byte	0
 5532 1396 04       		.uleb128 0x4
 5533 1397 9B340000 		.4byte	.LASF582
 5534 139b 0B       		.byte	0xb
 5535 139c B608     		.2byte	0x8b6
 5536 139e 5E130000 		.4byte	0x135e
 5537 13a2 0A       		.uleb128 0xa
 5538 13a3 01       		.byte	0x1
 5539 13a4 2C000000 		.4byte	0x2c
 5540 13a8 0B       		.byte	0xb
 5541 13a9 BC08     		.2byte	0x8bc
 5542 13ab E6130000 		.4byte	0x13e6
 5543 13af 0B       		.uleb128 0xb
 5544 13b0 EF370000 		.4byte	.LASF583
 5545 13b4 00       		.byte	0
 5546 13b5 0B       		.uleb128 0xb
 5547 13b6 80170000 		.4byte	.LASF584
 5548 13ba 01       		.byte	0x1
 5549 13bb 0B       		.uleb128 0xb
 5550 13bc 5A3C0000 		.4byte	.LASF585
 5551 13c0 02       		.byte	0x2
 5552 13c1 0B       		.uleb128 0xb
 5553 13c2 D5060000 		.4byte	.LASF586
 5554 13c6 03       		.byte	0x3
 5555 13c7 0B       		.uleb128 0xb
 5556 13c8 D73A0000 		.4byte	.LASF587
 5557 13cc 04       		.byte	0x4
 5558 13cd 0B       		.uleb128 0xb
 5559 13ce 92390000 		.4byte	.LASF588
 5560 13d2 05       		.byte	0x5
 5561 13d3 0B       		.uleb128 0xb
 5562 13d4 F02E0000 		.4byte	.LASF589
 5563 13d8 06       		.byte	0x6
 5564 13d9 0B       		.uleb128 0xb
 5565 13da 44120000 		.4byte	.LASF590
 5566 13de 07       		.byte	0x7
 5567 13df 0B       		.uleb128 0xb
 5568 13e0 4D240000 		.4byte	.LASF591
 5569 13e4 08       		.byte	0x8
 5570 13e5 00       		.byte	0
 5571 13e6 04       		.uleb128 0x4
 5572 13e7 A3310000 		.4byte	.LASF592
 5573 13eb 0B       		.byte	0xb
 5574 13ec C608     		.2byte	0x8c6
 5575 13ee A2130000 		.4byte	0x13a2
 5576 13f2 0A       		.uleb128 0xa
 5577 13f3 01       		.byte	0x1
 5578 13f4 2C000000 		.4byte	0x2c
 5579 13f8 0B       		.byte	0xb
 5580 13f9 EB08     		.2byte	0x8eb
ARM GAS  C:\Users\User\AppData\Local\Temp\ccmH1EJa.s 			page 121


 5581 13fb 24140000 		.4byte	0x1424
 5582 13ff 0B       		.uleb128 0xb
 5583 1400 B0390000 		.4byte	.LASF593
 5584 1404 00       		.byte	0
 5585 1405 0B       		.uleb128 0xb
 5586 1406 841E0000 		.4byte	.LASF594
 5587 140a 01       		.byte	0x1
 5588 140b 0B       		.uleb128 0xb
 5589 140c FA460000 		.4byte	.LASF595
 5590 1410 02       		.byte	0x2
 5591 1411 0B       		.uleb128 0xb
 5592 1412 D9360000 		.4byte	.LASF596
 5593 1416 02       		.byte	0x2
 5594 1417 0B       		.uleb128 0xb
 5595 1418 4F2D0000 		.4byte	.LASF597
 5596 141c 03       		.byte	0x3
 5597 141d 0B       		.uleb128 0xb
 5598 141e FA400000 		.4byte	.LASF598
 5599 1422 04       		.byte	0x4
 5600 1423 00       		.byte	0
 5601 1424 1A       		.uleb128 0x1a
 5602 1425 F0380000 		.4byte	.LASF661
 5603 1429 01       		.byte	0x1
 5604 142a 5C       		.byte	0x5c
 5605 142b 00000000 		.4byte	.LFB2
 5606 142f 3C000000 		.4byte	.LFE2-.LFB2
 5607 1433 01       		.uleb128 0x1
 5608 1434 9C       		.byte	0x9c
 5609 1435 1B       		.uleb128 0x1b
 5610 1436 C12F0000 		.4byte	.LASF621
 5611 143a 01       		.byte	0x1
 5612 143b 86       		.byte	0x86
 5613 143c 00000000 		.4byte	.LFB3
 5614 1440 1C000000 		.4byte	.LFE3-.LFB3
 5615 1444 01       		.uleb128 0x1
 5616 1445 9C       		.byte	0x9c
 5617 1446 59140000 		.4byte	0x1459
 5618 144a 1C       		.uleb128 0x1c
 5619 144b DA0D0000 		.4byte	.LASF599
 5620 144f 01       		.byte	0x1
 5621 1450 86       		.byte	0x86
 5622 1451 59080000 		.4byte	0x859
 5623 1455 02       		.uleb128 0x2
 5624 1456 91       		.byte	0x91
 5625 1457 74       		.sleb128 -12
 5626 1458 00       		.byte	0
 5627 1459 1D       		.uleb128 0x1d
 5628 145a 72030000 		.4byte	.LASF604
 5629 145e 01       		.byte	0x1
 5630 145f 9F       		.byte	0x9f
 5631 1460 6C030000 		.4byte	0x36c
 5632 1464 00000000 		.4byte	.LFB4
 5633 1468 88000000 		.4byte	.LFE4-.LFB4
 5634 146c 01       		.uleb128 0x1
 5635 146d 9C       		.byte	0x9c
 5636 146e B9140000 		.4byte	0x14b9
 5637 1472 1C       		.uleb128 0x1c
ARM GAS  C:\Users\User\AppData\Local\Temp\ccmH1EJa.s 			page 122


 5638 1473 6F460000 		.4byte	.LASF265
 5639 1477 01       		.byte	0x1
 5640 1478 9F       		.byte	0x9f
 5641 1479 50090000 		.4byte	0x950
 5642 147d 02       		.uleb128 0x2
 5643 147e 91       		.byte	0x91
 5644 147f 67       		.sleb128 -25
 5645 1480 1C       		.uleb128 0x1c
 5646 1481 57180000 		.4byte	.LASF600
 5647 1485 01       		.byte	0x1
 5648 1486 A0       		.byte	0xa0
 5649 1487 6B000000 		.4byte	0x6b
 5650 148b 02       		.uleb128 0x2
 5651 148c 91       		.byte	0x91
 5652 148d 66       		.sleb128 -26
 5653 148e 1C       		.uleb128 0x1c
 5654 148f 861B0000 		.4byte	.LASF601
 5655 1493 01       		.byte	0x1
 5656 1494 A0       		.byte	0xa0
 5657 1495 78030000 		.4byte	0x378
 5658 1499 02       		.uleb128 0x2
 5659 149a 91       		.byte	0x91
 5660 149b 60       		.sleb128 -32
 5661 149c 1E       		.uleb128 0x1e
 5662 149d C23A0000 		.4byte	.LASF602
 5663 14a1 01       		.byte	0x1
 5664 14a2 A2       		.byte	0xa2
 5665 14a3 6C030000 		.4byte	0x36c
 5666 14a7 02       		.uleb128 0x2
 5667 14a8 91       		.byte	0x91
 5668 14a9 76       		.sleb128 -10
 5669 14aa 1E       		.uleb128 0x1e
 5670 14ab 9D200000 		.4byte	.LASF603
 5671 14af 01       		.byte	0x1
 5672 14b0 A3       		.byte	0xa3
 5673 14b1 57060000 		.4byte	0x657
 5674 14b5 02       		.uleb128 0x2
 5675 14b6 91       		.byte	0x91
 5676 14b7 68       		.sleb128 -24
 5677 14b8 00       		.byte	0
 5678 14b9 1D       		.uleb128 0x1d
 5679 14ba 02230000 		.4byte	.LASF605
 5680 14be 01       		.byte	0x1
 5681 14bf CB       		.byte	0xcb
 5682 14c0 6C030000 		.4byte	0x36c
 5683 14c4 00000000 		.4byte	.LFB5
 5684 14c8 88000000 		.4byte	.LFE5-.LFB5
 5685 14cc 01       		.uleb128 0x1
 5686 14cd 9C       		.byte	0x9c
 5687 14ce 19150000 		.4byte	0x1519
 5688 14d2 1C       		.uleb128 0x1c
 5689 14d3 6F460000 		.4byte	.LASF265
 5690 14d7 01       		.byte	0x1
 5691 14d8 CB       		.byte	0xcb
 5692 14d9 50090000 		.4byte	0x950
 5693 14dd 02       		.uleb128 0x2
 5694 14de 91       		.byte	0x91
ARM GAS  C:\Users\User\AppData\Local\Temp\ccmH1EJa.s 			page 123


 5695 14df 67       		.sleb128 -25
 5696 14e0 1C       		.uleb128 0x1c
 5697 14e1 57180000 		.4byte	.LASF600
 5698 14e5 01       		.byte	0x1
 5699 14e6 CC       		.byte	0xcc
 5700 14e7 6B000000 		.4byte	0x6b
 5701 14eb 02       		.uleb128 0x2
 5702 14ec 91       		.byte	0x91
 5703 14ed 66       		.sleb128 -26
 5704 14ee 1C       		.uleb128 0x1c
 5705 14ef 861B0000 		.4byte	.LASF601
 5706 14f3 01       		.byte	0x1
 5707 14f4 CC       		.byte	0xcc
 5708 14f5 78030000 		.4byte	0x378
 5709 14f9 02       		.uleb128 0x2
 5710 14fa 91       		.byte	0x91
 5711 14fb 60       		.sleb128 -32
 5712 14fc 1E       		.uleb128 0x1e
 5713 14fd C23A0000 		.4byte	.LASF602
 5714 1501 01       		.byte	0x1
 5715 1502 CE       		.byte	0xce
 5716 1503 6C030000 		.4byte	0x36c
 5717 1507 02       		.uleb128 0x2
 5718 1508 91       		.byte	0x91
 5719 1509 76       		.sleb128 -10
 5720 150a 1E       		.uleb128 0x1e
 5721 150b 9D200000 		.4byte	.LASF603
 5722 150f 01       		.byte	0x1
 5723 1510 CF       		.byte	0xcf
 5724 1511 57060000 		.4byte	0x657
 5725 1515 02       		.uleb128 0x2
 5726 1516 91       		.byte	0x91
 5727 1517 68       		.sleb128 -24
 5728 1518 00       		.byte	0
 5729 1519 1D       		.uleb128 0x1d
 5730 151a 8D1A0000 		.4byte	.LASF606
 5731 151e 01       		.byte	0x1
 5732 151f F7       		.byte	0xf7
 5733 1520 6C030000 		.4byte	0x36c
 5734 1524 00000000 		.4byte	.LFB6
 5735 1528 B8000000 		.4byte	.LFE6-.LFB6
 5736 152c 01       		.uleb128 0x1
 5737 152d 9C       		.byte	0x9c
 5738 152e 87150000 		.4byte	0x1587
 5739 1532 1C       		.uleb128 0x1c
 5740 1533 6F460000 		.4byte	.LASF265
 5741 1537 01       		.byte	0x1
 5742 1538 F7       		.byte	0xf7
 5743 1539 50090000 		.4byte	0x950
 5744 153d 02       		.uleb128 0x2
 5745 153e 91       		.byte	0x91
 5746 153f 5F       		.sleb128 -33
 5747 1540 1C       		.uleb128 0x1c
 5748 1541 E22A0000 		.4byte	.LASF267
 5749 1545 01       		.byte	0x1
 5750 1546 F8       		.byte	0xf8
 5751 1547 7A090000 		.4byte	0x97a
ARM GAS  C:\Users\User\AppData\Local\Temp\ccmH1EJa.s 			page 124


 5752 154b 02       		.uleb128 0x2
 5753 154c 91       		.byte	0x91
 5754 154d 5E       		.sleb128 -34
 5755 154e 1C       		.uleb128 0x1c
 5756 154f 57180000 		.4byte	.LASF600
 5757 1553 01       		.byte	0x1
 5758 1554 F8       		.byte	0xf8
 5759 1555 6B000000 		.4byte	0x6b
 5760 1559 02       		.uleb128 0x2
 5761 155a 91       		.byte	0x91
 5762 155b 5D       		.sleb128 -35
 5763 155c 1C       		.uleb128 0x1c
 5764 155d 861B0000 		.4byte	.LASF601
 5765 1561 01       		.byte	0x1
 5766 1562 F8       		.byte	0xf8
 5767 1563 78030000 		.4byte	0x378
 5768 1567 02       		.uleb128 0x2
 5769 1568 91       		.byte	0x91
 5770 1569 58       		.sleb128 -40
 5771 156a 1E       		.uleb128 0x1e
 5772 156b C23A0000 		.4byte	.LASF602
 5773 156f 01       		.byte	0x1
 5774 1570 FA       		.byte	0xfa
 5775 1571 6C030000 		.4byte	0x36c
 5776 1575 02       		.uleb128 0x2
 5777 1576 91       		.byte	0x91
 5778 1577 6E       		.sleb128 -18
 5779 1578 1E       		.uleb128 0x1e
 5780 1579 9D200000 		.4byte	.LASF603
 5781 157d 01       		.byte	0x1
 5782 157e FB       		.byte	0xfb
 5783 157f 57060000 		.4byte	0x657
 5784 1583 02       		.uleb128 0x2
 5785 1584 91       		.byte	0x91
 5786 1585 60       		.sleb128 -32
 5787 1586 00       		.byte	0
 5788 1587 1F       		.uleb128 0x1f
 5789 1588 862A0000 		.4byte	.LASF607
 5790 158c 01       		.byte	0x1
 5791 158d 2901     		.2byte	0x129
 5792 158f 6C030000 		.4byte	0x36c
 5793 1593 00000000 		.4byte	.LFB7
 5794 1597 B8000000 		.4byte	.LFE7-.LFB7
 5795 159b 01       		.uleb128 0x1
 5796 159c 9C       		.byte	0x9c
 5797 159d FC150000 		.4byte	0x15fc
 5798 15a1 20       		.uleb128 0x20
 5799 15a2 6F460000 		.4byte	.LASF265
 5800 15a6 01       		.byte	0x1
 5801 15a7 2901     		.2byte	0x129
 5802 15a9 50090000 		.4byte	0x950
 5803 15ad 02       		.uleb128 0x2
 5804 15ae 91       		.byte	0x91
 5805 15af 5F       		.sleb128 -33
 5806 15b0 20       		.uleb128 0x20
 5807 15b1 E22A0000 		.4byte	.LASF267
 5808 15b5 01       		.byte	0x1
ARM GAS  C:\Users\User\AppData\Local\Temp\ccmH1EJa.s 			page 125


 5809 15b6 2A01     		.2byte	0x12a
 5810 15b8 7A090000 		.4byte	0x97a
 5811 15bc 02       		.uleb128 0x2
 5812 15bd 91       		.byte	0x91
 5813 15be 5E       		.sleb128 -34
 5814 15bf 20       		.uleb128 0x20
 5815 15c0 57180000 		.4byte	.LASF600
 5816 15c4 01       		.byte	0x1
 5817 15c5 2A01     		.2byte	0x12a
 5818 15c7 6B000000 		.4byte	0x6b
 5819 15cb 02       		.uleb128 0x2
 5820 15cc 91       		.byte	0x91
 5821 15cd 5D       		.sleb128 -35
 5822 15ce 20       		.uleb128 0x20
 5823 15cf 861B0000 		.4byte	.LASF601
 5824 15d3 01       		.byte	0x1
 5825 15d4 2A01     		.2byte	0x12a
 5826 15d6 78030000 		.4byte	0x378
 5827 15da 02       		.uleb128 0x2
 5828 15db 91       		.byte	0x91
 5829 15dc 58       		.sleb128 -40
 5830 15dd 21       		.uleb128 0x21
 5831 15de C23A0000 		.4byte	.LASF602
 5832 15e2 01       		.byte	0x1
 5833 15e3 2C01     		.2byte	0x12c
 5834 15e5 6C030000 		.4byte	0x36c
 5835 15e9 02       		.uleb128 0x2
 5836 15ea 91       		.byte	0x91
 5837 15eb 6E       		.sleb128 -18
 5838 15ec 21       		.uleb128 0x21
 5839 15ed 9D200000 		.4byte	.LASF603
 5840 15f1 01       		.byte	0x1
 5841 15f2 2D01     		.2byte	0x12d
 5842 15f4 57060000 		.4byte	0x657
 5843 15f8 02       		.uleb128 0x2
 5844 15f9 91       		.byte	0x91
 5845 15fa 60       		.sleb128 -32
 5846 15fb 00       		.byte	0
 5847 15fc 1F       		.uleb128 0x1f
 5848 15fd 6A2A0000 		.4byte	.LASF608
 5849 1601 01       		.byte	0x1
 5850 1602 5301     		.2byte	0x153
 5851 1604 4B050000 		.4byte	0x54b
 5852 1608 00000000 		.4byte	.LFB8
 5853 160c 00030000 		.4byte	.LFE8-.LFB8
 5854 1610 01       		.uleb128 0x1
 5855 1611 9C       		.byte	0x9c
 5856 1612 B2160000 		.4byte	0x16b2
 5857 1616 20       		.uleb128 0x20
 5858 1617 03030000 		.4byte	.LASF609
 5859 161b 01       		.byte	0x1
 5860 161c 5301     		.2byte	0x153
 5861 161e B2160000 		.4byte	0x16b2
 5862 1622 02       		.uleb128 0x2
 5863 1623 91       		.byte	0x91
 5864 1624 54       		.sleb128 -44
 5865 1625 21       		.uleb128 0x21
ARM GAS  C:\Users\User\AppData\Local\Temp\ccmH1EJa.s 			page 126


 5866 1626 8E330000 		.4byte	.LASF610
 5867 162a 01       		.byte	0x1
 5868 162b 5501     		.2byte	0x155
 5869 162d 50090000 		.4byte	0x950
 5870 1631 02       		.uleb128 0x2
 5871 1632 91       		.byte	0x91
 5872 1633 6F       		.sleb128 -17
 5873 1634 21       		.uleb128 0x21
 5874 1635 10110000 		.4byte	.LASF611
 5875 1639 01       		.byte	0x1
 5876 163a 5601     		.2byte	0x156
 5877 163c A40A0000 		.4byte	0xaa4
 5878 1640 02       		.uleb128 0x2
 5879 1641 91       		.byte	0x91
 5880 1642 5C       		.sleb128 -36
 5881 1643 21       		.uleb128 0x21
 5882 1644 A9460000 		.4byte	.LASF612
 5883 1648 01       		.byte	0x1
 5884 1649 5701     		.2byte	0x157
 5885 164b 4B050000 		.4byte	0x54b
 5886 164f 02       		.uleb128 0x2
 5887 1650 91       		.byte	0x91
 5888 1651 6E       		.sleb128 -18
 5889 1652 21       		.uleb128 0x21
 5890 1653 10320000 		.4byte	.LASF613
 5891 1657 01       		.byte	0x1
 5892 1658 5801     		.2byte	0x158
 5893 165a 6B000000 		.4byte	0x6b
 5894 165e 02       		.uleb128 0x2
 5895 165f 91       		.byte	0x91
 5896 1660 6D       		.sleb128 -19
 5897 1661 22       		.uleb128 0x22
 5898 1662 B4000000 		.4byte	.LBB2
 5899 1666 9E000000 		.4byte	.LBE2-.LBB2
 5900 166a 21       		.uleb128 0x21
 5901 166b 45320000 		.4byte	.LASF614
 5902 166f 01       		.byte	0x1
 5903 1670 6C01     		.2byte	0x16c
 5904 1672 B8160000 		.4byte	0x16b8
 5905 1676 02       		.uleb128 0x2
 5906 1677 91       		.byte	0x91
 5907 1678 58       		.sleb128 -40
 5908 1679 21       		.uleb128 0x21
 5909 167a 81140000 		.4byte	.LASF615
 5910 167e 01       		.byte	0x1
 5911 167f 6D01     		.2byte	0x16d
 5912 1681 77000000 		.4byte	0x77
 5913 1685 02       		.uleb128 0x2
 5914 1686 91       		.byte	0x91
 5915 1687 6A       		.sleb128 -22
 5916 1688 22       		.uleb128 0x22
 5917 1689 E8000000 		.4byte	.LBB3
 5918 168d 6A000000 		.4byte	.LBE3-.LBB3
 5919 1691 21       		.uleb128 0x21
 5920 1692 34270000 		.4byte	.LASF616
 5921 1696 01       		.byte	0x1
 5922 1697 7701     		.2byte	0x177
ARM GAS  C:\Users\User\AppData\Local\Temp\ccmH1EJa.s 			page 127


 5923 1699 77000000 		.4byte	0x77
 5924 169d 02       		.uleb128 0x2
 5925 169e 91       		.byte	0x91
 5926 169f 68       		.sleb128 -24
 5927 16a0 21       		.uleb128 0x21
 5928 16a1 BD000000 		.4byte	.LASF617
 5929 16a5 01       		.byte	0x1
 5930 16a6 7801     		.2byte	0x178
 5931 16a8 77000000 		.4byte	0x77
 5932 16ac 02       		.uleb128 0x2
 5933 16ad 91       		.byte	0x91
 5934 16ae 66       		.sleb128 -26
 5935 16af 00       		.byte	0
 5936 16b0 00       		.byte	0
 5937 16b1 00       		.byte	0
 5938 16b2 07       		.uleb128 0x7
 5939 16b3 04       		.byte	0x4
 5940 16b4 BF060000 		.4byte	0x6bf
 5941 16b8 0D       		.uleb128 0xd
 5942 16b9 6B000000 		.4byte	0x6b
 5943 16bd C8160000 		.4byte	0x16c8
 5944 16c1 0E       		.uleb128 0xe
 5945 16c2 B0000000 		.4byte	0xb0
 5946 16c6 03       		.byte	0x3
 5947 16c7 00       		.byte	0
 5948 16c8 1F       		.uleb128 0x1f
 5949 16c9 D8030000 		.4byte	.LASF618
 5950 16cd 01       		.byte	0x1
 5951 16ce DC01     		.2byte	0x1dc
 5952 16d0 6C030000 		.4byte	0x36c
 5953 16d4 00000000 		.4byte	.LFB9
 5954 16d8 E4000000 		.4byte	.LFE9-.LFB9
 5955 16dc 01       		.uleb128 0x1
 5956 16dd 9C       		.byte	0x9c
 5957 16de 47170000 		.4byte	0x1747
 5958 16e2 20       		.uleb128 0x20
 5959 16e3 E5380000 		.4byte	.LASF212
 5960 16e7 01       		.byte	0x1
 5961 16e8 DC01     		.2byte	0x1dc
 5962 16ea E4050000 		.4byte	0x5e4
 5963 16ee 02       		.uleb128 0x2
 5964 16ef 91       		.byte	0x91
 5965 16f0 5C       		.sleb128 -36
 5966 16f1 20       		.uleb128 0x20
 5967 16f2 6F460000 		.4byte	.LASF265
 5968 16f6 01       		.byte	0x1
 5969 16f7 DD01     		.2byte	0x1dd
 5970 16f9 50090000 		.4byte	0x950
 5971 16fd 02       		.uleb128 0x2
 5972 16fe 91       		.byte	0x91
 5973 16ff 5B       		.sleb128 -37
 5974 1700 20       		.uleb128 0x20
 5975 1701 57180000 		.4byte	.LASF600
 5976 1705 01       		.byte	0x1
 5977 1706 DD01     		.2byte	0x1dd
 5978 1708 6B000000 		.4byte	0x6b
 5979 170c 02       		.uleb128 0x2
ARM GAS  C:\Users\User\AppData\Local\Temp\ccmH1EJa.s 			page 128


 5980 170d 91       		.byte	0x91
 5981 170e 5A       		.sleb128 -38
 5982 170f 20       		.uleb128 0x20
 5983 1710 861B0000 		.4byte	.LASF601
 5984 1714 01       		.byte	0x1
 5985 1715 DD01     		.2byte	0x1dd
 5986 1717 78030000 		.4byte	0x378
 5987 171b 02       		.uleb128 0x2
 5988 171c 91       		.byte	0x91
 5989 171d 54       		.sleb128 -44
 5990 171e 21       		.uleb128 0x21
 5991 171f C23A0000 		.4byte	.LASF602
 5992 1723 01       		.byte	0x1
 5993 1724 E001     		.2byte	0x1e0
 5994 1726 6C030000 		.4byte	0x36c
 5995 172a 02       		.uleb128 0x2
 5996 172b 91       		.byte	0x91
 5997 172c 6E       		.sleb128 -18
 5998 172d 22       		.uleb128 0x22
 5999 172e 80000000 		.4byte	.LBB4
 6000 1732 4A000000 		.4byte	.LBE4-.LBB4
 6001 1736 21       		.uleb128 0x21
 6002 1737 D5450000 		.4byte	.LASF619
 6003 173b 01       		.byte	0x1
 6004 173c ED01     		.2byte	0x1ed
 6005 173e 93060000 		.4byte	0x693
 6006 1742 02       		.uleb128 0x2
 6007 1743 91       		.byte	0x91
 6008 1744 60       		.sleb128 -32
 6009 1745 00       		.byte	0
 6010 1746 00       		.byte	0
 6011 1747 1F       		.uleb128 0x1f
 6012 1748 933B0000 		.4byte	.LASF620
 6013 174c 01       		.byte	0x1
 6014 174d 2402     		.2byte	0x224
 6015 174f 6C030000 		.4byte	0x36c
 6016 1753 00000000 		.4byte	.LFB10
 6017 1757 FC000000 		.4byte	.LFE10-.LFB10
 6018 175b 01       		.uleb128 0x1
 6019 175c 9C       		.byte	0x9c
 6020 175d C6170000 		.4byte	0x17c6
 6021 1761 20       		.uleb128 0x20
 6022 1762 E5380000 		.4byte	.LASF212
 6023 1766 01       		.byte	0x1
 6024 1767 2402     		.2byte	0x224
 6025 1769 E4050000 		.4byte	0x5e4
 6026 176d 02       		.uleb128 0x2
 6027 176e 91       		.byte	0x91
 6028 176f 5C       		.sleb128 -36
 6029 1770 20       		.uleb128 0x20
 6030 1771 6F460000 		.4byte	.LASF265
 6031 1775 01       		.byte	0x1
 6032 1776 2502     		.2byte	0x225
 6033 1778 50090000 		.4byte	0x950
 6034 177c 02       		.uleb128 0x2
 6035 177d 91       		.byte	0x91
 6036 177e 5B       		.sleb128 -37
ARM GAS  C:\Users\User\AppData\Local\Temp\ccmH1EJa.s 			page 129


 6037 177f 20       		.uleb128 0x20
 6038 1780 57180000 		.4byte	.LASF600
 6039 1784 01       		.byte	0x1
 6040 1785 2502     		.2byte	0x225
 6041 1787 6B000000 		.4byte	0x6b
 6042 178b 02       		.uleb128 0x2
 6043 178c 91       		.byte	0x91
 6044 178d 5A       		.sleb128 -38
 6045 178e 20       		.uleb128 0x20
 6046 178f 861B0000 		.4byte	.LASF601
 6047 1793 01       		.byte	0x1
 6048 1794 2502     		.2byte	0x225
 6049 1796 78030000 		.4byte	0x378
 6050 179a 02       		.uleb128 0x2
 6051 179b 91       		.byte	0x91
 6052 179c 54       		.sleb128 -44
 6053 179d 21       		.uleb128 0x21
 6054 179e C23A0000 		.4byte	.LASF602
 6055 17a2 01       		.byte	0x1
 6056 17a3 2702     		.2byte	0x227
 6057 17a5 6C030000 		.4byte	0x36c
 6058 17a9 02       		.uleb128 0x2
 6059 17aa 91       		.byte	0x91
 6060 17ab 6E       		.sleb128 -18
 6061 17ac 22       		.uleb128 0x22
 6062 17ad 80000000 		.4byte	.LBB5
 6063 17b1 5E000000 		.4byte	.LBE5-.LBB5
 6064 17b5 21       		.uleb128 0x21
 6065 17b6 D5450000 		.4byte	.LASF619
 6066 17ba 01       		.byte	0x1
 6067 17bb 3402     		.2byte	0x234
 6068 17bd 93060000 		.4byte	0x693
 6069 17c1 02       		.uleb128 0x2
 6070 17c2 91       		.byte	0x91
 6071 17c3 60       		.sleb128 -32
 6072 17c4 00       		.byte	0
 6073 17c5 00       		.byte	0
 6074 17c6 23       		.uleb128 0x23
 6075 17c7 611E0000 		.4byte	.LASF622
 6076 17cb 01       		.byte	0x1
 6077 17cc 5002     		.2byte	0x250
 6078 17ce 00000000 		.4byte	.LFB11
 6079 17d2 D8000000 		.4byte	.LFE11-.LFB11
 6080 17d6 01       		.uleb128 0x1
 6081 17d7 9C       		.byte	0x9c
 6082 17d8 19180000 		.4byte	0x1819
 6083 17dc 20       		.uleb128 0x20
 6084 17dd 03030000 		.4byte	.LASF609
 6085 17e1 01       		.byte	0x1
 6086 17e2 5002     		.2byte	0x250
 6087 17e4 19180000 		.4byte	0x1819
 6088 17e8 02       		.uleb128 0x2
 6089 17e9 91       		.byte	0x91
 6090 17ea 64       		.sleb128 -28
 6091 17eb 21       		.uleb128 0x21
 6092 17ec 8E330000 		.4byte	.LASF610
 6093 17f0 01       		.byte	0x1
ARM GAS  C:\Users\User\AppData\Local\Temp\ccmH1EJa.s 			page 130


 6094 17f1 5202     		.2byte	0x252
 6095 17f3 50090000 		.4byte	0x950
 6096 17f7 02       		.uleb128 0x2
 6097 17f8 91       		.byte	0x91
 6098 17f9 77       		.sleb128 -9
 6099 17fa 21       		.uleb128 0x21
 6100 17fb 10110000 		.4byte	.LASF611
 6101 17ff 01       		.byte	0x1
 6102 1800 5302     		.2byte	0x253
 6103 1802 A40A0000 		.4byte	0xaa4
 6104 1806 02       		.uleb128 0x2
 6105 1807 91       		.byte	0x91
 6106 1808 6C       		.sleb128 -20
 6107 1809 21       		.uleb128 0x21
 6108 180a 10320000 		.4byte	.LASF613
 6109 180e 01       		.byte	0x1
 6110 180f 5402     		.2byte	0x254
 6111 1811 6B000000 		.4byte	0x6b
 6112 1815 02       		.uleb128 0x2
 6113 1816 91       		.byte	0x91
 6114 1817 76       		.sleb128 -10
 6115 1818 00       		.byte	0
 6116 1819 07       		.uleb128 0x7
 6117 181a 04       		.byte	0x4
 6118 181b 1F180000 		.4byte	0x181f
 6119 181f 24       		.uleb128 0x24
 6120 1820 E4050000 		.4byte	0x5e4
 6121 1824 23       		.uleb128 0x23
 6122 1825 FC2F0000 		.4byte	.LASF623
 6123 1829 01       		.byte	0x1
 6124 182a 7A02     		.2byte	0x27a
 6125 182c 00000000 		.4byte	.LFB12
 6126 1830 1C010000 		.4byte	.LFE12-.LFB12
 6127 1834 01       		.uleb128 0x1
 6128 1835 9C       		.byte	0x9c
 6129 1836 7B180000 		.4byte	0x187b
 6130 183a 20       		.uleb128 0x20
 6131 183b C7170000 		.4byte	.LASF624
 6132 183f 01       		.byte	0x1
 6133 1840 7A02     		.2byte	0x27a
 6134 1842 7B180000 		.4byte	0x187b
 6135 1846 02       		.uleb128 0x2
 6136 1847 91       		.byte	0x91
 6137 1848 6C       		.sleb128 -20
 6138 1849 21       		.uleb128 0x21
 6139 184a 0C220000 		.4byte	.LASF625
 6140 184e 01       		.byte	0x1
 6141 184f 7D02     		.2byte	0x27d
 6142 1851 96180000 		.4byte	0x1896
 6143 1855 05       		.uleb128 0x5
 6144 1856 03       		.byte	0x3
 6145 1857 1C000000 		.4byte	cyBle_htscCharUuid.6941
 6146 185b 25       		.uleb128 0x25
 6147 185c 6900     		.ascii	"i\000"
 6148 185e 01       		.byte	0x1
 6149 185f 8402     		.2byte	0x284
 6150 1861 6B000000 		.4byte	0x6b
ARM GAS  C:\Users\User\AppData\Local\Temp\ccmH1EJa.s 			page 131


 6151 1865 02       		.uleb128 0x2
 6152 1866 91       		.byte	0x91
 6153 1867 77       		.sleb128 -9
 6154 1868 21       		.uleb128 0x21
 6155 1869 21210000 		.4byte	.LASF626
 6156 186d 01       		.byte	0x1
 6157 186e 8502     		.2byte	0x285
 6158 1870 9B180000 		.4byte	0x189b
 6159 1874 05       		.uleb128 0x5
 6160 1875 03       		.byte	0x3
 6161 1876 08000000 		.4byte	htsLastEndHandle.6943
 6162 187a 00       		.byte	0
 6163 187b 07       		.uleb128 0x7
 6164 187c 04       		.byte	0x4
 6165 187d D6080000 		.4byte	0x8d6
 6166 1881 0D       		.uleb128 0xd
 6167 1882 91180000 		.4byte	0x1891
 6168 1886 91180000 		.4byte	0x1891
 6169 188a 0E       		.uleb128 0xe
 6170 188b B0000000 		.4byte	0xb0
 6171 188f 03       		.byte	0x3
 6172 1890 00       		.byte	0
 6173 1891 24       		.uleb128 0x24
 6174 1892 57050000 		.4byte	0x557
 6175 1896 24       		.uleb128 0x24
 6176 1897 81180000 		.4byte	0x1881
 6177 189b 07       		.uleb128 0x7
 6178 189c 04       		.byte	0x4
 6179 189d B4050000 		.4byte	0x5b4
 6180 18a1 23       		.uleb128 0x23
 6181 18a2 A00C0000 		.4byte	.LASF627
 6182 18a6 01       		.byte	0x1
 6183 18a7 B002     		.2byte	0x2b0
 6184 18a9 00000000 		.4byte	.LFB13
 6185 18ad AC000000 		.4byte	.LFE13-.LFB13
 6186 18b1 01       		.uleb128 0x1
 6187 18b2 9C       		.byte	0x9c
 6188 18b3 E5180000 		.4byte	0x18e5
 6189 18b7 20       		.uleb128 0x20
 6190 18b8 23140000 		.4byte	.LASF628
 6191 18bc 01       		.byte	0x1
 6192 18bd B002     		.2byte	0x2b0
 6193 18bf 50090000 		.4byte	0x950
 6194 18c3 02       		.uleb128 0x2
 6195 18c4 91       		.byte	0x91
 6196 18c5 67       		.sleb128 -25
 6197 18c6 20       		.uleb128 0x20
 6198 18c7 E70D0000 		.4byte	.LASF629
 6199 18cb 01       		.byte	0x1
 6200 18cc B102     		.2byte	0x2b1
 6201 18ce E5180000 		.4byte	0x18e5
 6202 18d2 02       		.uleb128 0x2
 6203 18d3 91       		.byte	0x91
 6204 18d4 60       		.sleb128 -32
 6205 18d5 21       		.uleb128 0x21
 6206 18d6 421B0000 		.4byte	.LASF630
 6207 18da 01       		.byte	0x1
ARM GAS  C:\Users\User\AppData\Local\Temp\ccmH1EJa.s 			page 132


 6208 18db B302     		.2byte	0x2b3
 6209 18dd 7A090000 		.4byte	0x97a
 6210 18e1 02       		.uleb128 0x2
 6211 18e2 91       		.byte	0x91
 6212 18e3 6F       		.sleb128 -17
 6213 18e4 00       		.byte	0
 6214 18e5 07       		.uleb128 0x7
 6215 18e6 04       		.byte	0x4
 6216 18e7 1A090000 		.4byte	0x91a
 6217 18eb 1F       		.uleb128 0x1f
 6218 18ec F3030000 		.4byte	.LASF631
 6219 18f0 01       		.byte	0x1
 6220 18f1 0003     		.2byte	0x300
 6221 18f3 6C030000 		.4byte	0x36c
 6222 18f7 00000000 		.4byte	.LFB14
 6223 18fb E8000000 		.4byte	.LFE14-.LFB14
 6224 18ff 01       		.uleb128 0x1
 6225 1900 9C       		.byte	0x9c
 6226 1901 60190000 		.4byte	0x1960
 6227 1905 20       		.uleb128 0x20
 6228 1906 E5380000 		.4byte	.LASF212
 6229 190a 01       		.byte	0x1
 6230 190b 0003     		.2byte	0x300
 6231 190d E4050000 		.4byte	0x5e4
 6232 1911 02       		.uleb128 0x2
 6233 1912 91       		.byte	0x91
 6234 1913 5C       		.sleb128 -36
 6235 1914 20       		.uleb128 0x20
 6236 1915 6F460000 		.4byte	.LASF265
 6237 1919 01       		.byte	0x1
 6238 191a 0003     		.2byte	0x300
 6239 191c 50090000 		.4byte	0x950
 6240 1920 02       		.uleb128 0x2
 6241 1921 91       		.byte	0x91
 6242 1922 5B       		.sleb128 -37
 6243 1923 20       		.uleb128 0x20
 6244 1924 57180000 		.4byte	.LASF600
 6245 1928 01       		.byte	0x1
 6246 1929 0103     		.2byte	0x301
 6247 192b 6B000000 		.4byte	0x6b
 6248 192f 02       		.uleb128 0x2
 6249 1930 91       		.byte	0x91
 6250 1931 5A       		.sleb128 -38
 6251 1932 20       		.uleb128 0x20
 6252 1933 861B0000 		.4byte	.LASF601
 6253 1937 01       		.byte	0x1
 6254 1938 0103     		.2byte	0x301
 6255 193a 78030000 		.4byte	0x378
 6256 193e 02       		.uleb128 0x2
 6257 193f 91       		.byte	0x91
 6258 1940 54       		.sleb128 -44
 6259 1941 21       		.uleb128 0x21
 6260 1942 C23A0000 		.4byte	.LASF602
 6261 1946 01       		.byte	0x1
 6262 1947 0303     		.2byte	0x303
 6263 1949 6C030000 		.4byte	0x36c
 6264 194d 02       		.uleb128 0x2
ARM GAS  C:\Users\User\AppData\Local\Temp\ccmH1EJa.s 			page 133


 6265 194e 91       		.byte	0x91
 6266 194f 6E       		.sleb128 -18
 6267 1950 21       		.uleb128 0x21
 6268 1951 341B0000 		.4byte	.LASF632
 6269 1955 01       		.byte	0x1
 6270 1956 0403     		.2byte	0x304
 6271 1958 57060000 		.4byte	0x657
 6272 195c 02       		.uleb128 0x2
 6273 195d 91       		.byte	0x91
 6274 195e 60       		.sleb128 -32
 6275 195f 00       		.byte	0
 6276 1960 1F       		.uleb128 0x1f
 6277 1961 F4470000 		.4byte	.LASF633
 6278 1965 01       		.byte	0x1
 6279 1966 5003     		.2byte	0x350
 6280 1968 6C030000 		.4byte	0x36c
 6281 196c 00000000 		.4byte	.LFB15
 6282 1970 BC000000 		.4byte	.LFE15-.LFB15
 6283 1974 01       		.uleb128 0x1
 6284 1975 9C       		.byte	0x9c
 6285 1976 A8190000 		.4byte	0x19a8
 6286 197a 20       		.uleb128 0x20
 6287 197b E5380000 		.4byte	.LASF212
 6288 197f 01       		.byte	0x1
 6289 1980 5003     		.2byte	0x350
 6290 1982 E4050000 		.4byte	0x5e4
 6291 1986 02       		.uleb128 0x2
 6292 1987 91       		.byte	0x91
 6293 1988 64       		.sleb128 -28
 6294 1989 20       		.uleb128 0x20
 6295 198a 6F460000 		.4byte	.LASF265
 6296 198e 01       		.byte	0x1
 6297 198f 5003     		.2byte	0x350
 6298 1991 50090000 		.4byte	0x950
 6299 1995 02       		.uleb128 0x2
 6300 1996 91       		.byte	0x91
 6301 1997 63       		.sleb128 -29
 6302 1998 21       		.uleb128 0x21
 6303 1999 C23A0000 		.4byte	.LASF602
 6304 199d 01       		.byte	0x1
 6305 199e 5203     		.2byte	0x352
 6306 19a0 6C030000 		.4byte	0x36c
 6307 19a4 02       		.uleb128 0x2
 6308 19a5 91       		.byte	0x91
 6309 19a6 6E       		.sleb128 -18
 6310 19a7 00       		.byte	0
 6311 19a8 1F       		.uleb128 0x1f
 6312 19a9 2D450000 		.4byte	.LASF634
 6313 19ad 01       		.byte	0x1
 6314 19ae A203     		.2byte	0x3a2
 6315 19b0 6C030000 		.4byte	0x36c
 6316 19b4 00000000 		.4byte	.LFB16
 6317 19b8 D0000000 		.4byte	.LFE16-.LFB16
 6318 19bc 01       		.uleb128 0x1
 6319 19bd 9C       		.byte	0x9c
 6320 19be 2C1A0000 		.4byte	0x1a2c
 6321 19c2 20       		.uleb128 0x20
ARM GAS  C:\Users\User\AppData\Local\Temp\ccmH1EJa.s 			page 134


 6322 19c3 E5380000 		.4byte	.LASF212
 6323 19c7 01       		.byte	0x1
 6324 19c8 A203     		.2byte	0x3a2
 6325 19ca E4050000 		.4byte	0x5e4
 6326 19ce 02       		.uleb128 0x2
 6327 19cf 91       		.byte	0x91
 6328 19d0 5C       		.sleb128 -36
 6329 19d1 20       		.uleb128 0x20
 6330 19d2 6F460000 		.4byte	.LASF265
 6331 19d6 01       		.byte	0x1
 6332 19d7 A303     		.2byte	0x3a3
 6333 19d9 50090000 		.4byte	0x950
 6334 19dd 02       		.uleb128 0x2
 6335 19de 91       		.byte	0x91
 6336 19df 5B       		.sleb128 -37
 6337 19e0 20       		.uleb128 0x20
 6338 19e1 E22A0000 		.4byte	.LASF267
 6339 19e5 01       		.byte	0x1
 6340 19e6 A303     		.2byte	0x3a3
 6341 19e8 7A090000 		.4byte	0x97a
 6342 19ec 02       		.uleb128 0x2
 6343 19ed 91       		.byte	0x91
 6344 19ee 5A       		.sleb128 -38
 6345 19ef 20       		.uleb128 0x20
 6346 19f0 57180000 		.4byte	.LASF600
 6347 19f4 01       		.byte	0x1
 6348 19f5 A303     		.2byte	0x3a3
 6349 19f7 6B000000 		.4byte	0x6b
 6350 19fb 02       		.uleb128 0x2
 6351 19fc 91       		.byte	0x91
 6352 19fd 59       		.sleb128 -39
 6353 19fe 20       		.uleb128 0x20
 6354 19ff 861B0000 		.4byte	.LASF601
 6355 1a03 01       		.byte	0x1
 6356 1a04 A303     		.2byte	0x3a3
 6357 1a06 78030000 		.4byte	0x378
 6358 1a0a 02       		.uleb128 0x2
 6359 1a0b 91       		.byte	0x91
 6360 1a0c 00       		.sleb128 0
 6361 1a0d 21       		.uleb128 0x21
 6362 1a0e C23A0000 		.4byte	.LASF602
 6363 1a12 01       		.byte	0x1
 6364 1a13 A503     		.2byte	0x3a5
 6365 1a15 6C030000 		.4byte	0x36c
 6366 1a19 02       		.uleb128 0x2
 6367 1a1a 91       		.byte	0x91
 6368 1a1b 6E       		.sleb128 -18
 6369 1a1c 21       		.uleb128 0x21
 6370 1a1d 341B0000 		.4byte	.LASF632
 6371 1a21 01       		.byte	0x1
 6372 1a22 A603     		.2byte	0x3a6
 6373 1a24 0E070000 		.4byte	0x70e
 6374 1a28 02       		.uleb128 0x2
 6375 1a29 91       		.byte	0x91
 6376 1a2a 60       		.sleb128 -32
 6377 1a2b 00       		.byte	0
 6378 1a2c 1F       		.uleb128 0x1f
ARM GAS  C:\Users\User\AppData\Local\Temp\ccmH1EJa.s 			page 135


 6379 1a2d 042D0000 		.4byte	.LASF635
 6380 1a31 01       		.byte	0x1
 6381 1a32 F303     		.2byte	0x3f3
 6382 1a34 6C030000 		.4byte	0x36c
 6383 1a38 00000000 		.4byte	.LFB17
 6384 1a3c B0000000 		.4byte	.LFE17-.LFB17
 6385 1a40 01       		.uleb128 0x1
 6386 1a41 9C       		.byte	0x9c
 6387 1a42 831A0000 		.4byte	0x1a83
 6388 1a46 20       		.uleb128 0x20
 6389 1a47 E5380000 		.4byte	.LASF212
 6390 1a4b 01       		.byte	0x1
 6391 1a4c F303     		.2byte	0x3f3
 6392 1a4e E4050000 		.4byte	0x5e4
 6393 1a52 02       		.uleb128 0x2
 6394 1a53 91       		.byte	0x91
 6395 1a54 64       		.sleb128 -28
 6396 1a55 20       		.uleb128 0x20
 6397 1a56 6F460000 		.4byte	.LASF265
 6398 1a5a 01       		.byte	0x1
 6399 1a5b F403     		.2byte	0x3f4
 6400 1a5d 50090000 		.4byte	0x950
 6401 1a61 02       		.uleb128 0x2
 6402 1a62 91       		.byte	0x91
 6403 1a63 63       		.sleb128 -29
 6404 1a64 20       		.uleb128 0x20
 6405 1a65 E22A0000 		.4byte	.LASF267
 6406 1a69 01       		.byte	0x1
 6407 1a6a F403     		.2byte	0x3f4
 6408 1a6c 7A090000 		.4byte	0x97a
 6409 1a70 02       		.uleb128 0x2
 6410 1a71 91       		.byte	0x91
 6411 1a72 62       		.sleb128 -30
 6412 1a73 21       		.uleb128 0x21
 6413 1a74 C23A0000 		.4byte	.LASF602
 6414 1a78 01       		.byte	0x1
 6415 1a79 F603     		.2byte	0x3f6
 6416 1a7b 6C030000 		.4byte	0x36c
 6417 1a7f 02       		.uleb128 0x2
 6418 1a80 91       		.byte	0x91
 6419 1a81 6E       		.sleb128 -18
 6420 1a82 00       		.byte	0
 6421 1a83 23       		.uleb128 0x23
 6422 1a84 AE3F0000 		.4byte	.LASF636
 6423 1a88 01       		.byte	0x1
 6424 1a89 1904     		.2byte	0x419
 6425 1a8b 00000000 		.4byte	.LFB18
 6426 1a8f A8000000 		.4byte	.LFE18-.LFB18
 6427 1a93 01       		.uleb128 0x1
 6428 1a94 9C       		.byte	0x9c
 6429 1a95 C71A0000 		.4byte	0x1ac7
 6430 1a99 20       		.uleb128 0x20
 6431 1a9a 03030000 		.4byte	.LASF609
 6432 1a9e 01       		.byte	0x1
 6433 1a9f 1904     		.2byte	0x419
 6434 1aa1 C71A0000 		.4byte	0x1ac7
 6435 1aa5 02       		.uleb128 0x2
ARM GAS  C:\Users\User\AppData\Local\Temp\ccmH1EJa.s 			page 136


 6436 1aa6 91       		.byte	0x91
 6437 1aa7 64       		.sleb128 -28
 6438 1aa8 21       		.uleb128 0x21
 6439 1aa9 8E330000 		.4byte	.LASF610
 6440 1aad 01       		.byte	0x1
 6441 1aae 1B04     		.2byte	0x41b
 6442 1ab0 50090000 		.4byte	0x950
 6443 1ab4 02       		.uleb128 0x2
 6444 1ab5 91       		.byte	0x91
 6445 1ab6 77       		.sleb128 -9
 6446 1ab7 21       		.uleb128 0x21
 6447 1ab8 A6010000 		.4byte	.LASF637
 6448 1abc 01       		.byte	0x1
 6449 1abd 1C04     		.2byte	0x41c
 6450 1abf A40A0000 		.4byte	0xaa4
 6451 1ac3 02       		.uleb128 0x2
 6452 1ac4 91       		.byte	0x91
 6453 1ac5 6C       		.sleb128 -20
 6454 1ac6 00       		.byte	0
 6455 1ac7 07       		.uleb128 0x7
 6456 1ac8 04       		.byte	0x4
 6457 1ac9 66070000 		.4byte	0x766
 6458 1acd 23       		.uleb128 0x23
 6459 1ace B8360000 		.4byte	.LASF638
 6460 1ad2 01       		.byte	0x1
 6461 1ad3 3904     		.2byte	0x439
 6462 1ad5 00000000 		.4byte	.LFB19
 6463 1ad9 A8000000 		.4byte	.LFE19-.LFB19
 6464 1add 01       		.uleb128 0x1
 6465 1ade 9C       		.byte	0x9c
 6466 1adf 111B0000 		.4byte	0x1b11
 6467 1ae3 20       		.uleb128 0x20
 6468 1ae4 03030000 		.4byte	.LASF609
 6469 1ae8 01       		.byte	0x1
 6470 1ae9 3904     		.2byte	0x439
 6471 1aeb 111B0000 		.4byte	0x1b11
 6472 1aef 02       		.uleb128 0x2
 6473 1af0 91       		.byte	0x91
 6474 1af1 64       		.sleb128 -28
 6475 1af2 21       		.uleb128 0x21
 6476 1af3 8E330000 		.4byte	.LASF610
 6477 1af7 01       		.byte	0x1
 6478 1af8 3B04     		.2byte	0x43b
 6479 1afa 50090000 		.4byte	0x950
 6480 1afe 02       		.uleb128 0x2
 6481 1aff 91       		.byte	0x91
 6482 1b00 77       		.sleb128 -9
 6483 1b01 21       		.uleb128 0x21
 6484 1b02 2E380000 		.4byte	.LASF639
 6485 1b06 01       		.byte	0x1
 6486 1b07 3C04     		.2byte	0x43c
 6487 1b09 A40A0000 		.4byte	0xaa4
 6488 1b0d 02       		.uleb128 0x2
 6489 1b0e 91       		.byte	0x91
 6490 1b0f 6C       		.sleb128 -20
 6491 1b10 00       		.byte	0
 6492 1b11 07       		.uleb128 0x7
ARM GAS  C:\Users\User\AppData\Local\Temp\ccmH1EJa.s 			page 137


 6493 1b12 04       		.byte	0x4
 6494 1b13 71070000 		.4byte	0x771
 6495 1b17 23       		.uleb128 0x23
 6496 1b18 86460000 		.4byte	.LASF640
 6497 1b1c 01       		.byte	0x1
 6498 1b1d 5904     		.2byte	0x459
 6499 1b1f 00000000 		.4byte	.LFB20
 6500 1b23 7C010000 		.4byte	.LFE20-.LFB20
 6501 1b27 01       		.uleb128 0x1
 6502 1b28 9C       		.byte	0x9c
 6503 1b29 AA1B0000 		.4byte	0x1baa
 6504 1b2d 20       		.uleb128 0x20
 6505 1b2e 03030000 		.4byte	.LASF609
 6506 1b32 01       		.byte	0x1
 6507 1b33 5904     		.2byte	0x459
 6508 1b35 AA1B0000 		.4byte	0x1baa
 6509 1b39 02       		.uleb128 0x2
 6510 1b3a 91       		.byte	0x91
 6511 1b3b 5C       		.sleb128 -36
 6512 1b3c 21       		.uleb128 0x21
 6513 1b3d 10320000 		.4byte	.LASF613
 6514 1b41 01       		.byte	0x1
 6515 1b42 5B04     		.2byte	0x45b
 6516 1b44 6B000000 		.4byte	0x6b
 6517 1b48 02       		.uleb128 0x2
 6518 1b49 91       		.byte	0x91
 6519 1b4a 77       		.sleb128 -9
 6520 1b4b 21       		.uleb128 0x21
 6521 1b4c 8E330000 		.4byte	.LASF610
 6522 1b50 01       		.byte	0x1
 6523 1b51 5C04     		.2byte	0x45c
 6524 1b53 50090000 		.4byte	0x950
 6525 1b57 02       		.uleb128 0x2
 6526 1b58 91       		.byte	0x91
 6527 1b59 76       		.sleb128 -10
 6528 1b5a 26       		.uleb128 0x26
 6529 1b5b 4C000000 		.4byte	.LBB6
 6530 1b5f 3E000000 		.4byte	.LBE6-.LBB6
 6531 1b63 771B0000 		.4byte	0x1b77
 6532 1b67 21       		.uleb128 0x21
 6533 1b68 10110000 		.4byte	.LASF611
 6534 1b6c 01       		.byte	0x1
 6535 1b6d 6504     		.2byte	0x465
 6536 1b6f A40A0000 		.4byte	0xaa4
 6537 1b73 02       		.uleb128 0x2
 6538 1b74 91       		.byte	0x91
 6539 1b75 6C       		.sleb128 -20
 6540 1b76 00       		.byte	0
 6541 1b77 22       		.uleb128 0x22
 6542 1b78 8C000000 		.4byte	.LBB7
 6543 1b7c 98000000 		.4byte	.LBE7-.LBB7
 6544 1b80 21       		.uleb128 0x21
 6545 1b81 421B0000 		.4byte	.LASF630
 6546 1b85 01       		.byte	0x1
 6547 1b86 7004     		.2byte	0x470
 6548 1b88 7A090000 		.4byte	0x97a
 6549 1b8c 02       		.uleb128 0x2
ARM GAS  C:\Users\User\AppData\Local\Temp\ccmH1EJa.s 			page 138


 6550 1b8d 91       		.byte	0x91
 6551 1b8e 75       		.sleb128 -11
 6552 1b8f 22       		.uleb128 0x22
 6553 1b90 B8000000 		.4byte	.LBB8
 6554 1b94 4A000000 		.4byte	.LBE8-.LBB8
 6555 1b98 21       		.uleb128 0x21
 6556 1b99 11120000 		.4byte	.LASF641
 6557 1b9d 01       		.byte	0x1
 6558 1b9e 7704     		.2byte	0x477
 6559 1ba0 E80A0000 		.4byte	0xae8
 6560 1ba4 02       		.uleb128 0x2
 6561 1ba5 91       		.byte	0x91
 6562 1ba6 64       		.sleb128 -28
 6563 1ba7 00       		.byte	0
 6564 1ba8 00       		.byte	0
 6565 1ba9 00       		.byte	0
 6566 1baa 07       		.uleb128 0x7
 6567 1bab 04       		.byte	0x4
 6568 1bac 3A070000 		.4byte	0x73a
 6569 1bb0 23       		.uleb128 0x23
 6570 1bb1 C43D0000 		.4byte	.LASF642
 6571 1bb5 01       		.byte	0x1
 6572 1bb6 9504     		.2byte	0x495
 6573 1bb8 00000000 		.4byte	.LFB21
 6574 1bbc 4C010000 		.4byte	.LFE21-.LFB21
 6575 1bc0 01       		.uleb128 0x1
 6576 1bc1 9C       		.byte	0x9c
 6577 1bc2 2A1C0000 		.4byte	0x1c2a
 6578 1bc6 20       		.uleb128 0x20
 6579 1bc7 03030000 		.4byte	.LASF609
 6580 1bcb 01       		.byte	0x1
 6581 1bcc 9504     		.2byte	0x495
 6582 1bce 19180000 		.4byte	0x1819
 6583 1bd2 02       		.uleb128 0x2
 6584 1bd3 91       		.byte	0x91
 6585 1bd4 5C       		.sleb128 -36
 6586 1bd5 21       		.uleb128 0x21
 6587 1bd6 10320000 		.4byte	.LASF613
 6588 1bda 01       		.byte	0x1
 6589 1bdb 9704     		.2byte	0x497
 6590 1bdd 6B000000 		.4byte	0x6b
 6591 1be1 02       		.uleb128 0x2
 6592 1be2 91       		.byte	0x91
 6593 1be3 77       		.sleb128 -9
 6594 1be4 21       		.uleb128 0x21
 6595 1be5 8E330000 		.4byte	.LASF610
 6596 1be9 01       		.byte	0x1
 6597 1bea 9804     		.2byte	0x498
 6598 1bec 50090000 		.4byte	0x950
 6599 1bf0 02       		.uleb128 0x2
 6600 1bf1 91       		.byte	0x91
 6601 1bf2 76       		.sleb128 -10
 6602 1bf3 26       		.uleb128 0x26
 6603 1bf4 4C000000 		.4byte	.LBB9
 6604 1bf8 44000000 		.4byte	.LBE9-.LBB9
 6605 1bfc 101C0000 		.4byte	0x1c10
 6606 1c00 21       		.uleb128 0x21
ARM GAS  C:\Users\User\AppData\Local\Temp\ccmH1EJa.s 			page 139


 6607 1c01 10110000 		.4byte	.LASF611
 6608 1c05 01       		.byte	0x1
 6609 1c06 A104     		.2byte	0x4a1
 6610 1c08 A40A0000 		.4byte	0xaa4
 6611 1c0c 02       		.uleb128 0x2
 6612 1c0d 91       		.byte	0x91
 6613 1c0e 6C       		.sleb128 -20
 6614 1c0f 00       		.byte	0
 6615 1c10 22       		.uleb128 0x22
 6616 1c11 AC000000 		.4byte	.LBB10
 6617 1c15 4C000000 		.4byte	.LBE10-.LBB10
 6618 1c19 21       		.uleb128 0x21
 6619 1c1a 11120000 		.4byte	.LASF641
 6620 1c1e 01       		.byte	0x1
 6621 1c1f AC04     		.2byte	0x4ac
 6622 1c21 E80A0000 		.4byte	0xae8
 6623 1c25 02       		.uleb128 0x2
 6624 1c26 91       		.byte	0x91
 6625 1c27 64       		.sleb128 -28
 6626 1c28 00       		.byte	0
 6627 1c29 00       		.byte	0
 6628 1c2a 27       		.uleb128 0x27
 6629 1c2b 3E380000 		.4byte	.LASF643
 6630 1c2f 01       		.byte	0x1
 6631 1c30 CB04     		.2byte	0x4cb
 6632 1c32 00000000 		.4byte	.LFB22
 6633 1c36 2C000000 		.4byte	.LFE22-.LFB22
 6634 1c3a 01       		.uleb128 0x1
 6635 1c3b 9C       		.byte	0x9c
 6636 1c3c 501C0000 		.4byte	0x1c50
 6637 1c40 20       		.uleb128 0x20
 6638 1c41 03030000 		.4byte	.LASF609
 6639 1c45 01       		.byte	0x1
 6640 1c46 CB04     		.2byte	0x4cb
 6641 1c48 501C0000 		.4byte	0x1c50
 6642 1c4c 02       		.uleb128 0x2
 6643 1c4d 91       		.byte	0x91
 6644 1c4e 74       		.sleb128 -12
 6645 1c4f 00       		.byte	0
 6646 1c50 07       		.uleb128 0x7
 6647 1c51 04       		.byte	0x4
 6648 1c52 561C0000 		.4byte	0x1c56
 6649 1c56 24       		.uleb128 0x24
 6650 1c57 03070000 		.4byte	0x703
 6651 1c5b 1E       		.uleb128 0x1e
 6652 1c5c CE010000 		.4byte	.LASF644
 6653 1c60 01       		.byte	0x1
 6654 1c61 13       		.byte	0x13
 6655 1c62 59080000 		.4byte	0x859
 6656 1c66 05       		.uleb128 0x5
 6657 1c67 03       		.byte	0x3
 6658 1c68 00000000 		.4byte	CyBle_HtsApplCallback
 6659 1c6c 1E       		.uleb128 0x1e
 6660 1c6d C6380000 		.4byte	.LASF645
 6661 1c71 01       		.byte	0x1
 6662 1c72 49       		.byte	0x49
 6663 1c73 B4050000 		.4byte	0x5b4
ARM GAS  C:\Users\User\AppData\Local\Temp\ccmH1EJa.s 			page 140


 6664 1c77 05       		.uleb128 0x5
 6665 1c78 03       		.byte	0x3
 6666 1c79 04000000 		.4byte	cyBle_htssReqHandle
 6667 1c7d 1E       		.uleb128 0x1e
 6668 1c7e 5C360000 		.4byte	.LASF646
 6669 1c82 01       		.byte	0x1
 6670 1c83 50       		.byte	0x50
 6671 1c84 B4050000 		.4byte	0x5b4
 6672 1c88 05       		.uleb128 0x5
 6673 1c89 03       		.byte	0x3
 6674 1c8a 06000000 		.4byte	cyBle_htscReqHandle
 6675 1c8e 28       		.uleb128 0x28
 6676 1c8f F0360000 		.4byte	.LASF647
 6677 1c93 08       		.byte	0x8
 6678 1c94 9C02     		.2byte	0x29c
 6679 1c96 59080000 		.4byte	0x859
 6680 1c9a 28       		.uleb128 0x28
 6681 1c9b 90160000 		.4byte	.LASF648
 6682 1c9f 08       		.byte	0x8
 6683 1ca0 A302     		.2byte	0x2a3
 6684 1ca2 A4000000 		.4byte	0xa4
 6685 1ca6 28       		.uleb128 0x28
 6686 1ca7 BF390000 		.4byte	.LASF649
 6687 1cab 08       		.byte	0x8
 6688 1cac C202     		.2byte	0x2c2
 6689 1cae 6B000000 		.4byte	0x6b
 6690 1cb2 28       		.uleb128 0x28
 6691 1cb3 00000000 		.4byte	.LASF650
 6692 1cb7 08       		.byte	0x8
 6693 1cb8 C802     		.2byte	0x2c8
 6694 1cba 6B000000 		.4byte	0x6b
 6695 1cbe 0D       		.uleb128 0xd
 6696 1cbf CE1C0000 		.4byte	0x1cce
 6697 1cc3 CE1C0000 		.4byte	0x1cce
 6698 1cc7 0E       		.uleb128 0xe
 6699 1cc8 B0000000 		.4byte	0xb0
 6700 1ccc 1F       		.byte	0x1f
 6701 1ccd 00       		.byte	0
 6702 1cce 24       		.uleb128 0x24
 6703 1ccf 4D080000 		.4byte	0x84d
 6704 1cd3 29       		.uleb128 0x29
 6705 1cd4 09290000 		.4byte	.LASF651
 6706 1cd8 09       		.byte	0x9
 6707 1cd9 ED       		.byte	0xed
 6708 1cda DE1C0000 		.4byte	0x1cde
 6709 1cde 24       		.uleb128 0x24
 6710 1cdf BE1C0000 		.4byte	0x1cbe
 6711 1ce3 2A       		.uleb128 0x2a
 6712 1ce4 D4220000 		.4byte	.LASF652
 6713 1ce8 01       		.byte	0x1
 6714 1ce9 17       		.byte	0x17
 6715 1cea F41C0000 		.4byte	0x1cf4
 6716 1cee 05       		.uleb128 0x5
 6717 1cef 03       		.byte	0x3
 6718 1cf0 00000000 		.4byte	cyBle_htss
 6719 1cf4 24       		.uleb128 0x24
 6720 1cf5 F2090000 		.4byte	0x9f2
ARM GAS  C:\Users\User\AppData\Local\Temp\ccmH1EJa.s 			page 141


 6721 1cf9 2A       		.uleb128 0x2a
 6722 1cfa DA380000 		.4byte	.LASF653
 6723 1cfe 01       		.byte	0x1
 6724 1cff 4F       		.byte	0x4f
 6725 1d00 660A0000 		.4byte	0xa66
 6726 1d04 05       		.uleb128 0x5
 6727 1d05 03       		.byte	0x3
 6728 1d06 00000000 		.4byte	cyBle_htsc
 6729 1d0a 28       		.uleb128 0x28
 6730 1d0b D62A0000 		.4byte	.LASF654
 6731 1d0f 0B       		.byte	0xb
 6732 1d10 160B     		.2byte	0xb16
 6733 1d12 96130000 		.4byte	0x1396
 6734 1d16 28       		.uleb128 0x28
 6735 1d17 4E260000 		.4byte	.LASF655
 6736 1d1b 0B       		.byte	0xb
 6737 1d1c 2A0B     		.2byte	0xb2a
 6738 1d1e E6130000 		.4byte	0x13e6
 6739 1d22 28       		.uleb128 0x28
 6740 1d23 190A0000 		.4byte	.LASF656
 6741 1d27 0B       		.byte	0xb
 6742 1d28 2B0B     		.2byte	0xb2b
 6743 1d2a 6B000000 		.4byte	0x6b
 6744 1d2e 0D       		.uleb128 0xd
 6745 1d2f 86080000 		.4byte	0x886
 6746 1d33 3E1D0000 		.4byte	0x1d3e
 6747 1d37 0E       		.uleb128 0xe
 6748 1d38 B0000000 		.4byte	0xb0
 6749 1d3c 03       		.byte	0x3
 6750 1d3d 00       		.byte	0
 6751 1d3e 28       		.uleb128 0x28
 6752 1d3f 6B2E0000 		.4byte	.LASF657
 6753 1d43 0B       		.byte	0xb
 6754 1d44 2D0B     		.2byte	0xb2d
 6755 1d46 2E1D0000 		.4byte	0x1d2e
 6756 1d4a 00       		.byte	0
 6757              		.section	.debug_abbrev,"",%progbits
 6758              	.Ldebug_abbrev0:
 6759 0000 01       		.uleb128 0x1
 6760 0001 11       		.uleb128 0x11
 6761 0002 01       		.byte	0x1
 6762 0003 25       		.uleb128 0x25
 6763 0004 0E       		.uleb128 0xe
 6764 0005 13       		.uleb128 0x13
 6765 0006 0B       		.uleb128 0xb
 6766 0007 03       		.uleb128 0x3
 6767 0008 0E       		.uleb128 0xe
 6768 0009 1B       		.uleb128 0x1b
 6769 000a 0E       		.uleb128 0xe
 6770 000b 55       		.uleb128 0x55
 6771 000c 17       		.uleb128 0x17
 6772 000d 11       		.uleb128 0x11
 6773 000e 01       		.uleb128 0x1
 6774 000f 10       		.uleb128 0x10
 6775 0010 17       		.uleb128 0x17
 6776 0011 00       		.byte	0
 6777 0012 00       		.byte	0
ARM GAS  C:\Users\User\AppData\Local\Temp\ccmH1EJa.s 			page 142


 6778 0013 02       		.uleb128 0x2
 6779 0014 24       		.uleb128 0x24
 6780 0015 00       		.byte	0
 6781 0016 0B       		.uleb128 0xb
 6782 0017 0B       		.uleb128 0xb
 6783 0018 3E       		.uleb128 0x3e
 6784 0019 0B       		.uleb128 0xb
 6785 001a 03       		.uleb128 0x3
 6786 001b 0E       		.uleb128 0xe
 6787 001c 00       		.byte	0
 6788 001d 00       		.byte	0
 6789 001e 03       		.uleb128 0x3
 6790 001f 24       		.uleb128 0x24
 6791 0020 00       		.byte	0
 6792 0021 0B       		.uleb128 0xb
 6793 0022 0B       		.uleb128 0xb
 6794 0023 3E       		.uleb128 0x3e
 6795 0024 0B       		.uleb128 0xb
 6796 0025 03       		.uleb128 0x3
 6797 0026 08       		.uleb128 0x8
 6798 0027 00       		.byte	0
 6799 0028 00       		.byte	0
 6800 0029 04       		.uleb128 0x4
 6801 002a 16       		.uleb128 0x16
 6802 002b 00       		.byte	0
 6803 002c 03       		.uleb128 0x3
 6804 002d 0E       		.uleb128 0xe
 6805 002e 3A       		.uleb128 0x3a
 6806 002f 0B       		.uleb128 0xb
 6807 0030 3B       		.uleb128 0x3b
 6808 0031 05       		.uleb128 0x5
 6809 0032 49       		.uleb128 0x49
 6810 0033 13       		.uleb128 0x13
 6811 0034 00       		.byte	0
 6812 0035 00       		.byte	0
 6813 0036 05       		.uleb128 0x5
 6814 0037 35       		.uleb128 0x35
 6815 0038 00       		.byte	0
 6816 0039 49       		.uleb128 0x49
 6817 003a 13       		.uleb128 0x13
 6818 003b 00       		.byte	0
 6819 003c 00       		.byte	0
 6820 003d 06       		.uleb128 0x6
 6821 003e 0F       		.uleb128 0xf
 6822 003f 00       		.byte	0
 6823 0040 0B       		.uleb128 0xb
 6824 0041 0B       		.uleb128 0xb
 6825 0042 00       		.byte	0
 6826 0043 00       		.byte	0
 6827 0044 07       		.uleb128 0x7
 6828 0045 0F       		.uleb128 0xf
 6829 0046 00       		.byte	0
 6830 0047 0B       		.uleb128 0xb
 6831 0048 0B       		.uleb128 0xb
 6832 0049 49       		.uleb128 0x49
 6833 004a 13       		.uleb128 0x13
 6834 004b 00       		.byte	0
ARM GAS  C:\Users\User\AppData\Local\Temp\ccmH1EJa.s 			page 143


 6835 004c 00       		.byte	0
 6836 004d 08       		.uleb128 0x8
 6837 004e 15       		.uleb128 0x15
 6838 004f 01       		.byte	0x1
 6839 0050 27       		.uleb128 0x27
 6840 0051 19       		.uleb128 0x19
 6841 0052 01       		.uleb128 0x1
 6842 0053 13       		.uleb128 0x13
 6843 0054 00       		.byte	0
 6844 0055 00       		.byte	0
 6845 0056 09       		.uleb128 0x9
 6846 0057 05       		.uleb128 0x5
 6847 0058 00       		.byte	0
 6848 0059 49       		.uleb128 0x49
 6849 005a 13       		.uleb128 0x13
 6850 005b 00       		.byte	0
 6851 005c 00       		.byte	0
 6852 005d 0A       		.uleb128 0xa
 6853 005e 04       		.uleb128 0x4
 6854 005f 01       		.byte	0x1
 6855 0060 0B       		.uleb128 0xb
 6856 0061 0B       		.uleb128 0xb
 6857 0062 49       		.uleb128 0x49
 6858 0063 13       		.uleb128 0x13
 6859 0064 3A       		.uleb128 0x3a
 6860 0065 0B       		.uleb128 0xb
 6861 0066 3B       		.uleb128 0x3b
 6862 0067 05       		.uleb128 0x5
 6863 0068 01       		.uleb128 0x1
 6864 0069 13       		.uleb128 0x13
 6865 006a 00       		.byte	0
 6866 006b 00       		.byte	0
 6867 006c 0B       		.uleb128 0xb
 6868 006d 28       		.uleb128 0x28
 6869 006e 00       		.byte	0
 6870 006f 03       		.uleb128 0x3
 6871 0070 0E       		.uleb128 0xe
 6872 0071 1C       		.uleb128 0x1c
 6873 0072 0B       		.uleb128 0xb
 6874 0073 00       		.byte	0
 6875 0074 00       		.byte	0
 6876 0075 0C       		.uleb128 0xc
 6877 0076 28       		.uleb128 0x28
 6878 0077 00       		.byte	0
 6879 0078 03       		.uleb128 0x3
 6880 0079 0E       		.uleb128 0xe
 6881 007a 1C       		.uleb128 0x1c
 6882 007b 05       		.uleb128 0x5
 6883 007c 00       		.byte	0
 6884 007d 00       		.byte	0
 6885 007e 0D       		.uleb128 0xd
 6886 007f 01       		.uleb128 0x1
 6887 0080 01       		.byte	0x1
 6888 0081 49       		.uleb128 0x49
 6889 0082 13       		.uleb128 0x13
 6890 0083 01       		.uleb128 0x1
 6891 0084 13       		.uleb128 0x13
ARM GAS  C:\Users\User\AppData\Local\Temp\ccmH1EJa.s 			page 144


 6892 0085 00       		.byte	0
 6893 0086 00       		.byte	0
 6894 0087 0E       		.uleb128 0xe
 6895 0088 21       		.uleb128 0x21
 6896 0089 00       		.byte	0
 6897 008a 49       		.uleb128 0x49
 6898 008b 13       		.uleb128 0x13
 6899 008c 2F       		.uleb128 0x2f
 6900 008d 0B       		.uleb128 0xb
 6901 008e 00       		.byte	0
 6902 008f 00       		.byte	0
 6903 0090 0F       		.uleb128 0xf
 6904 0091 04       		.uleb128 0x4
 6905 0092 01       		.byte	0x1
 6906 0093 0B       		.uleb128 0xb
 6907 0094 0B       		.uleb128 0xb
 6908 0095 49       		.uleb128 0x49
 6909 0096 13       		.uleb128 0x13
 6910 0097 3A       		.uleb128 0x3a
 6911 0098 0B       		.uleb128 0xb
 6912 0099 3B       		.uleb128 0x3b
 6913 009a 0B       		.uleb128 0xb
 6914 009b 01       		.uleb128 0x1
 6915 009c 13       		.uleb128 0x13
 6916 009d 00       		.byte	0
 6917 009e 00       		.byte	0
 6918 009f 10       		.uleb128 0x10
 6919 00a0 16       		.uleb128 0x16
 6920 00a1 00       		.byte	0
 6921 00a2 03       		.uleb128 0x3
 6922 00a3 0E       		.uleb128 0xe
 6923 00a4 3A       		.uleb128 0x3a
 6924 00a5 0B       		.uleb128 0xb
 6925 00a6 3B       		.uleb128 0x3b
 6926 00a7 0B       		.uleb128 0xb
 6927 00a8 49       		.uleb128 0x49
 6928 00a9 13       		.uleb128 0x13
 6929 00aa 00       		.byte	0
 6930 00ab 00       		.byte	0
 6931 00ac 11       		.uleb128 0x11
 6932 00ad 13       		.uleb128 0x13
 6933 00ae 01       		.byte	0x1
 6934 00af 0B       		.uleb128 0xb
 6935 00b0 0B       		.uleb128 0xb
 6936 00b1 3A       		.uleb128 0x3a
 6937 00b2 0B       		.uleb128 0xb
 6938 00b3 3B       		.uleb128 0x3b
 6939 00b4 05       		.uleb128 0x5
 6940 00b5 01       		.uleb128 0x1
 6941 00b6 13       		.uleb128 0x13
 6942 00b7 00       		.byte	0
 6943 00b8 00       		.byte	0
 6944 00b9 12       		.uleb128 0x12
 6945 00ba 0D       		.uleb128 0xd
 6946 00bb 00       		.byte	0
 6947 00bc 03       		.uleb128 0x3
 6948 00bd 0E       		.uleb128 0xe
ARM GAS  C:\Users\User\AppData\Local\Temp\ccmH1EJa.s 			page 145


 6949 00be 3A       		.uleb128 0x3a
 6950 00bf 0B       		.uleb128 0xb
 6951 00c0 3B       		.uleb128 0x3b
 6952 00c1 05       		.uleb128 0x5
 6953 00c2 49       		.uleb128 0x49
 6954 00c3 13       		.uleb128 0x13
 6955 00c4 38       		.uleb128 0x38
 6956 00c5 0B       		.uleb128 0xb
 6957 00c6 00       		.byte	0
 6958 00c7 00       		.byte	0
 6959 00c8 13       		.uleb128 0x13
 6960 00c9 17       		.uleb128 0x17
 6961 00ca 01       		.byte	0x1
 6962 00cb 0B       		.uleb128 0xb
 6963 00cc 0B       		.uleb128 0xb
 6964 00cd 3A       		.uleb128 0x3a
 6965 00ce 0B       		.uleb128 0xb
 6966 00cf 3B       		.uleb128 0x3b
 6967 00d0 05       		.uleb128 0x5
 6968 00d1 01       		.uleb128 0x1
 6969 00d2 13       		.uleb128 0x13
 6970 00d3 00       		.byte	0
 6971 00d4 00       		.byte	0
 6972 00d5 14       		.uleb128 0x14
 6973 00d6 0D       		.uleb128 0xd
 6974 00d7 00       		.byte	0
 6975 00d8 03       		.uleb128 0x3
 6976 00d9 0E       		.uleb128 0xe
 6977 00da 3A       		.uleb128 0x3a
 6978 00db 0B       		.uleb128 0xb
 6979 00dc 3B       		.uleb128 0x3b
 6980 00dd 05       		.uleb128 0x5
 6981 00de 49       		.uleb128 0x49
 6982 00df 13       		.uleb128 0x13
 6983 00e0 00       		.byte	0
 6984 00e1 00       		.byte	0
 6985 00e2 15       		.uleb128 0x15
 6986 00e3 0D       		.uleb128 0xd
 6987 00e4 00       		.byte	0
 6988 00e5 03       		.uleb128 0x3
 6989 00e6 08       		.uleb128 0x8
 6990 00e7 3A       		.uleb128 0x3a
 6991 00e8 0B       		.uleb128 0xb
 6992 00e9 3B       		.uleb128 0x3b
 6993 00ea 05       		.uleb128 0x5
 6994 00eb 49       		.uleb128 0x49
 6995 00ec 13       		.uleb128 0x13
 6996 00ed 38       		.uleb128 0x38
 6997 00ee 0B       		.uleb128 0xb
 6998 00ef 00       		.byte	0
 6999 00f0 00       		.byte	0
 7000 00f1 16       		.uleb128 0x16
 7001 00f2 13       		.uleb128 0x13
 7002 00f3 01       		.byte	0x1
 7003 00f4 0B       		.uleb128 0xb
 7004 00f5 0B       		.uleb128 0xb
 7005 00f6 3A       		.uleb128 0x3a
ARM GAS  C:\Users\User\AppData\Local\Temp\ccmH1EJa.s 			page 146


 7006 00f7 0B       		.uleb128 0xb
 7007 00f8 3B       		.uleb128 0x3b
 7008 00f9 0B       		.uleb128 0xb
 7009 00fa 01       		.uleb128 0x1
 7010 00fb 13       		.uleb128 0x13
 7011 00fc 00       		.byte	0
 7012 00fd 00       		.byte	0
 7013 00fe 17       		.uleb128 0x17
 7014 00ff 0D       		.uleb128 0xd
 7015 0100 00       		.byte	0
 7016 0101 03       		.uleb128 0x3
 7017 0102 0E       		.uleb128 0xe
 7018 0103 3A       		.uleb128 0x3a
 7019 0104 0B       		.uleb128 0xb
 7020 0105 3B       		.uleb128 0x3b
 7021 0106 0B       		.uleb128 0xb
 7022 0107 49       		.uleb128 0x49
 7023 0108 13       		.uleb128 0x13
 7024 0109 38       		.uleb128 0x38
 7025 010a 0B       		.uleb128 0xb
 7026 010b 00       		.byte	0
 7027 010c 00       		.byte	0
 7028 010d 18       		.uleb128 0x18
 7029 010e 17       		.uleb128 0x17
 7030 010f 01       		.byte	0x1
 7031 0110 0B       		.uleb128 0xb
 7032 0111 0B       		.uleb128 0xb
 7033 0112 3A       		.uleb128 0x3a
 7034 0113 0B       		.uleb128 0xb
 7035 0114 3B       		.uleb128 0x3b
 7036 0115 0B       		.uleb128 0xb
 7037 0116 01       		.uleb128 0x1
 7038 0117 13       		.uleb128 0x13
 7039 0118 00       		.byte	0
 7040 0119 00       		.byte	0
 7041 011a 19       		.uleb128 0x19
 7042 011b 0D       		.uleb128 0xd
 7043 011c 00       		.byte	0
 7044 011d 03       		.uleb128 0x3
 7045 011e 0E       		.uleb128 0xe
 7046 011f 3A       		.uleb128 0x3a
 7047 0120 0B       		.uleb128 0xb
 7048 0121 3B       		.uleb128 0x3b
 7049 0122 0B       		.uleb128 0xb
 7050 0123 49       		.uleb128 0x49
 7051 0124 13       		.uleb128 0x13
 7052 0125 00       		.byte	0
 7053 0126 00       		.byte	0
 7054 0127 1A       		.uleb128 0x1a
 7055 0128 2E       		.uleb128 0x2e
 7056 0129 00       		.byte	0
 7057 012a 3F       		.uleb128 0x3f
 7058 012b 19       		.uleb128 0x19
 7059 012c 03       		.uleb128 0x3
 7060 012d 0E       		.uleb128 0xe
 7061 012e 3A       		.uleb128 0x3a
 7062 012f 0B       		.uleb128 0xb
ARM GAS  C:\Users\User\AppData\Local\Temp\ccmH1EJa.s 			page 147


 7063 0130 3B       		.uleb128 0x3b
 7064 0131 0B       		.uleb128 0xb
 7065 0132 27       		.uleb128 0x27
 7066 0133 19       		.uleb128 0x19
 7067 0134 11       		.uleb128 0x11
 7068 0135 01       		.uleb128 0x1
 7069 0136 12       		.uleb128 0x12
 7070 0137 06       		.uleb128 0x6
 7071 0138 40       		.uleb128 0x40
 7072 0139 18       		.uleb128 0x18
 7073 013a 9642     		.uleb128 0x2116
 7074 013c 19       		.uleb128 0x19
 7075 013d 00       		.byte	0
 7076 013e 00       		.byte	0
 7077 013f 1B       		.uleb128 0x1b
 7078 0140 2E       		.uleb128 0x2e
 7079 0141 01       		.byte	0x1
 7080 0142 3F       		.uleb128 0x3f
 7081 0143 19       		.uleb128 0x19
 7082 0144 03       		.uleb128 0x3
 7083 0145 0E       		.uleb128 0xe
 7084 0146 3A       		.uleb128 0x3a
 7085 0147 0B       		.uleb128 0xb
 7086 0148 3B       		.uleb128 0x3b
 7087 0149 0B       		.uleb128 0xb
 7088 014a 27       		.uleb128 0x27
 7089 014b 19       		.uleb128 0x19
 7090 014c 11       		.uleb128 0x11
 7091 014d 01       		.uleb128 0x1
 7092 014e 12       		.uleb128 0x12
 7093 014f 06       		.uleb128 0x6
 7094 0150 40       		.uleb128 0x40
 7095 0151 18       		.uleb128 0x18
 7096 0152 9742     		.uleb128 0x2117
 7097 0154 19       		.uleb128 0x19
 7098 0155 01       		.uleb128 0x1
 7099 0156 13       		.uleb128 0x13
 7100 0157 00       		.byte	0
 7101 0158 00       		.byte	0
 7102 0159 1C       		.uleb128 0x1c
 7103 015a 05       		.uleb128 0x5
 7104 015b 00       		.byte	0
 7105 015c 03       		.uleb128 0x3
 7106 015d 0E       		.uleb128 0xe
 7107 015e 3A       		.uleb128 0x3a
 7108 015f 0B       		.uleb128 0xb
 7109 0160 3B       		.uleb128 0x3b
 7110 0161 0B       		.uleb128 0xb
 7111 0162 49       		.uleb128 0x49
 7112 0163 13       		.uleb128 0x13
 7113 0164 02       		.uleb128 0x2
 7114 0165 18       		.uleb128 0x18
 7115 0166 00       		.byte	0
 7116 0167 00       		.byte	0
 7117 0168 1D       		.uleb128 0x1d
 7118 0169 2E       		.uleb128 0x2e
 7119 016a 01       		.byte	0x1
ARM GAS  C:\Users\User\AppData\Local\Temp\ccmH1EJa.s 			page 148


 7120 016b 3F       		.uleb128 0x3f
 7121 016c 19       		.uleb128 0x19
 7122 016d 03       		.uleb128 0x3
 7123 016e 0E       		.uleb128 0xe
 7124 016f 3A       		.uleb128 0x3a
 7125 0170 0B       		.uleb128 0xb
 7126 0171 3B       		.uleb128 0x3b
 7127 0172 0B       		.uleb128 0xb
 7128 0173 27       		.uleb128 0x27
 7129 0174 19       		.uleb128 0x19
 7130 0175 49       		.uleb128 0x49
 7131 0176 13       		.uleb128 0x13
 7132 0177 11       		.uleb128 0x11
 7133 0178 01       		.uleb128 0x1
 7134 0179 12       		.uleb128 0x12
 7135 017a 06       		.uleb128 0x6
 7136 017b 40       		.uleb128 0x40
 7137 017c 18       		.uleb128 0x18
 7138 017d 9642     		.uleb128 0x2116
 7139 017f 19       		.uleb128 0x19
 7140 0180 01       		.uleb128 0x1
 7141 0181 13       		.uleb128 0x13
 7142 0182 00       		.byte	0
 7143 0183 00       		.byte	0
 7144 0184 1E       		.uleb128 0x1e
 7145 0185 34       		.uleb128 0x34
 7146 0186 00       		.byte	0
 7147 0187 03       		.uleb128 0x3
 7148 0188 0E       		.uleb128 0xe
 7149 0189 3A       		.uleb128 0x3a
 7150 018a 0B       		.uleb128 0xb
 7151 018b 3B       		.uleb128 0x3b
 7152 018c 0B       		.uleb128 0xb
 7153 018d 49       		.uleb128 0x49
 7154 018e 13       		.uleb128 0x13
 7155 018f 02       		.uleb128 0x2
 7156 0190 18       		.uleb128 0x18
 7157 0191 00       		.byte	0
 7158 0192 00       		.byte	0
 7159 0193 1F       		.uleb128 0x1f
 7160 0194 2E       		.uleb128 0x2e
 7161 0195 01       		.byte	0x1
 7162 0196 3F       		.uleb128 0x3f
 7163 0197 19       		.uleb128 0x19
 7164 0198 03       		.uleb128 0x3
 7165 0199 0E       		.uleb128 0xe
 7166 019a 3A       		.uleb128 0x3a
 7167 019b 0B       		.uleb128 0xb
 7168 019c 3B       		.uleb128 0x3b
 7169 019d 05       		.uleb128 0x5
 7170 019e 27       		.uleb128 0x27
 7171 019f 19       		.uleb128 0x19
 7172 01a0 49       		.uleb128 0x49
 7173 01a1 13       		.uleb128 0x13
 7174 01a2 11       		.uleb128 0x11
 7175 01a3 01       		.uleb128 0x1
 7176 01a4 12       		.uleb128 0x12
ARM GAS  C:\Users\User\AppData\Local\Temp\ccmH1EJa.s 			page 149


 7177 01a5 06       		.uleb128 0x6
 7178 01a6 40       		.uleb128 0x40
 7179 01a7 18       		.uleb128 0x18
 7180 01a8 9642     		.uleb128 0x2116
 7181 01aa 19       		.uleb128 0x19
 7182 01ab 01       		.uleb128 0x1
 7183 01ac 13       		.uleb128 0x13
 7184 01ad 00       		.byte	0
 7185 01ae 00       		.byte	0
 7186 01af 20       		.uleb128 0x20
 7187 01b0 05       		.uleb128 0x5
 7188 01b1 00       		.byte	0
 7189 01b2 03       		.uleb128 0x3
 7190 01b3 0E       		.uleb128 0xe
 7191 01b4 3A       		.uleb128 0x3a
 7192 01b5 0B       		.uleb128 0xb
 7193 01b6 3B       		.uleb128 0x3b
 7194 01b7 05       		.uleb128 0x5
 7195 01b8 49       		.uleb128 0x49
 7196 01b9 13       		.uleb128 0x13
 7197 01ba 02       		.uleb128 0x2
 7198 01bb 18       		.uleb128 0x18
 7199 01bc 00       		.byte	0
 7200 01bd 00       		.byte	0
 7201 01be 21       		.uleb128 0x21
 7202 01bf 34       		.uleb128 0x34
 7203 01c0 00       		.byte	0
 7204 01c1 03       		.uleb128 0x3
 7205 01c2 0E       		.uleb128 0xe
 7206 01c3 3A       		.uleb128 0x3a
 7207 01c4 0B       		.uleb128 0xb
 7208 01c5 3B       		.uleb128 0x3b
 7209 01c6 05       		.uleb128 0x5
 7210 01c7 49       		.uleb128 0x49
 7211 01c8 13       		.uleb128 0x13
 7212 01c9 02       		.uleb128 0x2
 7213 01ca 18       		.uleb128 0x18
 7214 01cb 00       		.byte	0
 7215 01cc 00       		.byte	0
 7216 01cd 22       		.uleb128 0x22
 7217 01ce 0B       		.uleb128 0xb
 7218 01cf 01       		.byte	0x1
 7219 01d0 11       		.uleb128 0x11
 7220 01d1 01       		.uleb128 0x1
 7221 01d2 12       		.uleb128 0x12
 7222 01d3 06       		.uleb128 0x6
 7223 01d4 00       		.byte	0
 7224 01d5 00       		.byte	0
 7225 01d6 23       		.uleb128 0x23
 7226 01d7 2E       		.uleb128 0x2e
 7227 01d8 01       		.byte	0x1
 7228 01d9 3F       		.uleb128 0x3f
 7229 01da 19       		.uleb128 0x19
 7230 01db 03       		.uleb128 0x3
 7231 01dc 0E       		.uleb128 0xe
 7232 01dd 3A       		.uleb128 0x3a
 7233 01de 0B       		.uleb128 0xb
ARM GAS  C:\Users\User\AppData\Local\Temp\ccmH1EJa.s 			page 150


 7234 01df 3B       		.uleb128 0x3b
 7235 01e0 05       		.uleb128 0x5
 7236 01e1 27       		.uleb128 0x27
 7237 01e2 19       		.uleb128 0x19
 7238 01e3 11       		.uleb128 0x11
 7239 01e4 01       		.uleb128 0x1
 7240 01e5 12       		.uleb128 0x12
 7241 01e6 06       		.uleb128 0x6
 7242 01e7 40       		.uleb128 0x40
 7243 01e8 18       		.uleb128 0x18
 7244 01e9 9642     		.uleb128 0x2116
 7245 01eb 19       		.uleb128 0x19
 7246 01ec 01       		.uleb128 0x1
 7247 01ed 13       		.uleb128 0x13
 7248 01ee 00       		.byte	0
 7249 01ef 00       		.byte	0
 7250 01f0 24       		.uleb128 0x24
 7251 01f1 26       		.uleb128 0x26
 7252 01f2 00       		.byte	0
 7253 01f3 49       		.uleb128 0x49
 7254 01f4 13       		.uleb128 0x13
 7255 01f5 00       		.byte	0
 7256 01f6 00       		.byte	0
 7257 01f7 25       		.uleb128 0x25
 7258 01f8 34       		.uleb128 0x34
 7259 01f9 00       		.byte	0
 7260 01fa 03       		.uleb128 0x3
 7261 01fb 08       		.uleb128 0x8
 7262 01fc 3A       		.uleb128 0x3a
 7263 01fd 0B       		.uleb128 0xb
 7264 01fe 3B       		.uleb128 0x3b
 7265 01ff 05       		.uleb128 0x5
 7266 0200 49       		.uleb128 0x49
 7267 0201 13       		.uleb128 0x13
 7268 0202 02       		.uleb128 0x2
 7269 0203 18       		.uleb128 0x18
 7270 0204 00       		.byte	0
 7271 0205 00       		.byte	0
 7272 0206 26       		.uleb128 0x26
 7273 0207 0B       		.uleb128 0xb
 7274 0208 01       		.byte	0x1
 7275 0209 11       		.uleb128 0x11
 7276 020a 01       		.uleb128 0x1
 7277 020b 12       		.uleb128 0x12
 7278 020c 06       		.uleb128 0x6
 7279 020d 01       		.uleb128 0x1
 7280 020e 13       		.uleb128 0x13
 7281 020f 00       		.byte	0
 7282 0210 00       		.byte	0
 7283 0211 27       		.uleb128 0x27
 7284 0212 2E       		.uleb128 0x2e
 7285 0213 01       		.byte	0x1
 7286 0214 3F       		.uleb128 0x3f
 7287 0215 19       		.uleb128 0x19
 7288 0216 03       		.uleb128 0x3
 7289 0217 0E       		.uleb128 0xe
 7290 0218 3A       		.uleb128 0x3a
ARM GAS  C:\Users\User\AppData\Local\Temp\ccmH1EJa.s 			page 151


 7291 0219 0B       		.uleb128 0xb
 7292 021a 3B       		.uleb128 0x3b
 7293 021b 05       		.uleb128 0x5
 7294 021c 27       		.uleb128 0x27
 7295 021d 19       		.uleb128 0x19
 7296 021e 11       		.uleb128 0x11
 7297 021f 01       		.uleb128 0x1
 7298 0220 12       		.uleb128 0x12
 7299 0221 06       		.uleb128 0x6
 7300 0222 40       		.uleb128 0x40
 7301 0223 18       		.uleb128 0x18
 7302 0224 9742     		.uleb128 0x2117
 7303 0226 19       		.uleb128 0x19
 7304 0227 01       		.uleb128 0x1
 7305 0228 13       		.uleb128 0x13
 7306 0229 00       		.byte	0
 7307 022a 00       		.byte	0
 7308 022b 28       		.uleb128 0x28
 7309 022c 34       		.uleb128 0x34
 7310 022d 00       		.byte	0
 7311 022e 03       		.uleb128 0x3
 7312 022f 0E       		.uleb128 0xe
 7313 0230 3A       		.uleb128 0x3a
 7314 0231 0B       		.uleb128 0xb
 7315 0232 3B       		.uleb128 0x3b
 7316 0233 05       		.uleb128 0x5
 7317 0234 49       		.uleb128 0x49
 7318 0235 13       		.uleb128 0x13
 7319 0236 3F       		.uleb128 0x3f
 7320 0237 19       		.uleb128 0x19
 7321 0238 3C       		.uleb128 0x3c
 7322 0239 19       		.uleb128 0x19
 7323 023a 00       		.byte	0
 7324 023b 00       		.byte	0
 7325 023c 29       		.uleb128 0x29
 7326 023d 34       		.uleb128 0x34
 7327 023e 00       		.byte	0
 7328 023f 03       		.uleb128 0x3
 7329 0240 0E       		.uleb128 0xe
 7330 0241 3A       		.uleb128 0x3a
 7331 0242 0B       		.uleb128 0xb
 7332 0243 3B       		.uleb128 0x3b
 7333 0244 0B       		.uleb128 0xb
 7334 0245 49       		.uleb128 0x49
 7335 0246 13       		.uleb128 0x13
 7336 0247 3F       		.uleb128 0x3f
 7337 0248 19       		.uleb128 0x19
 7338 0249 3C       		.uleb128 0x3c
 7339 024a 19       		.uleb128 0x19
 7340 024b 00       		.byte	0
 7341 024c 00       		.byte	0
 7342 024d 2A       		.uleb128 0x2a
 7343 024e 34       		.uleb128 0x34
 7344 024f 00       		.byte	0
 7345 0250 03       		.uleb128 0x3
 7346 0251 0E       		.uleb128 0xe
 7347 0252 3A       		.uleb128 0x3a
ARM GAS  C:\Users\User\AppData\Local\Temp\ccmH1EJa.s 			page 152


 7348 0253 0B       		.uleb128 0xb
 7349 0254 3B       		.uleb128 0x3b
 7350 0255 0B       		.uleb128 0xb
 7351 0256 49       		.uleb128 0x49
 7352 0257 13       		.uleb128 0x13
 7353 0258 3F       		.uleb128 0x3f
 7354 0259 19       		.uleb128 0x19
 7355 025a 02       		.uleb128 0x2
 7356 025b 18       		.uleb128 0x18
 7357 025c 00       		.byte	0
 7358 025d 00       		.byte	0
 7359 025e 00       		.byte	0
 7360              		.section	.debug_aranges,"",%progbits
 7361 0000 BC000000 		.4byte	0xbc
 7362 0004 0200     		.2byte	0x2
 7363 0006 00000000 		.4byte	.Ldebug_info0
 7364 000a 04       		.byte	0x4
 7365 000b 00       		.byte	0
 7366 000c 0000     		.2byte	0
 7367 000e 0000     		.2byte	0
 7368 0010 00000000 		.4byte	.LFB2
 7369 0014 3C000000 		.4byte	.LFE2-.LFB2
 7370 0018 00000000 		.4byte	.LFB3
 7371 001c 1C000000 		.4byte	.LFE3-.LFB3
 7372 0020 00000000 		.4byte	.LFB4
 7373 0024 88000000 		.4byte	.LFE4-.LFB4
 7374 0028 00000000 		.4byte	.LFB5
 7375 002c 88000000 		.4byte	.LFE5-.LFB5
 7376 0030 00000000 		.4byte	.LFB6
 7377 0034 B8000000 		.4byte	.LFE6-.LFB6
 7378 0038 00000000 		.4byte	.LFB7
 7379 003c B8000000 		.4byte	.LFE7-.LFB7
 7380 0040 00000000 		.4byte	.LFB8
 7381 0044 00030000 		.4byte	.LFE8-.LFB8
 7382 0048 00000000 		.4byte	.LFB9
 7383 004c E4000000 		.4byte	.LFE9-.LFB9
 7384 0050 00000000 		.4byte	.LFB10
 7385 0054 FC000000 		.4byte	.LFE10-.LFB10
 7386 0058 00000000 		.4byte	.LFB11
 7387 005c D8000000 		.4byte	.LFE11-.LFB11
 7388 0060 00000000 		.4byte	.LFB12
 7389 0064 1C010000 		.4byte	.LFE12-.LFB12
 7390 0068 00000000 		.4byte	.LFB13
 7391 006c AC000000 		.4byte	.LFE13-.LFB13
 7392 0070 00000000 		.4byte	.LFB14
 7393 0074 E8000000 		.4byte	.LFE14-.LFB14
 7394 0078 00000000 		.4byte	.LFB15
 7395 007c BC000000 		.4byte	.LFE15-.LFB15
 7396 0080 00000000 		.4byte	.LFB16
 7397 0084 D0000000 		.4byte	.LFE16-.LFB16
 7398 0088 00000000 		.4byte	.LFB17
 7399 008c B0000000 		.4byte	.LFE17-.LFB17
 7400 0090 00000000 		.4byte	.LFB18
 7401 0094 A8000000 		.4byte	.LFE18-.LFB18
 7402 0098 00000000 		.4byte	.LFB19
 7403 009c A8000000 		.4byte	.LFE19-.LFB19
 7404 00a0 00000000 		.4byte	.LFB20
ARM GAS  C:\Users\User\AppData\Local\Temp\ccmH1EJa.s 			page 153


 7405 00a4 7C010000 		.4byte	.LFE20-.LFB20
 7406 00a8 00000000 		.4byte	.LFB21
 7407 00ac 4C010000 		.4byte	.LFE21-.LFB21
 7408 00b0 00000000 		.4byte	.LFB22
 7409 00b4 2C000000 		.4byte	.LFE22-.LFB22
 7410 00b8 00000000 		.4byte	0
 7411 00bc 00000000 		.4byte	0
 7412              		.section	.debug_ranges,"",%progbits
 7413              	.Ldebug_ranges0:
 7414 0000 00000000 		.4byte	.LFB2
 7415 0004 3C000000 		.4byte	.LFE2
 7416 0008 00000000 		.4byte	.LFB3
 7417 000c 1C000000 		.4byte	.LFE3
 7418 0010 00000000 		.4byte	.LFB4
 7419 0014 88000000 		.4byte	.LFE4
 7420 0018 00000000 		.4byte	.LFB5
 7421 001c 88000000 		.4byte	.LFE5
 7422 0020 00000000 		.4byte	.LFB6
 7423 0024 B8000000 		.4byte	.LFE6
 7424 0028 00000000 		.4byte	.LFB7
 7425 002c B8000000 		.4byte	.LFE7
 7426 0030 00000000 		.4byte	.LFB8
 7427 0034 00030000 		.4byte	.LFE8
 7428 0038 00000000 		.4byte	.LFB9
 7429 003c E4000000 		.4byte	.LFE9
 7430 0040 00000000 		.4byte	.LFB10
 7431 0044 FC000000 		.4byte	.LFE10
 7432 0048 00000000 		.4byte	.LFB11
 7433 004c D8000000 		.4byte	.LFE11
 7434 0050 00000000 		.4byte	.LFB12
 7435 0054 1C010000 		.4byte	.LFE12
 7436 0058 00000000 		.4byte	.LFB13
 7437 005c AC000000 		.4byte	.LFE13
 7438 0060 00000000 		.4byte	.LFB14
 7439 0064 E8000000 		.4byte	.LFE14
 7440 0068 00000000 		.4byte	.LFB15
 7441 006c BC000000 		.4byte	.LFE15
 7442 0070 00000000 		.4byte	.LFB16
 7443 0074 D0000000 		.4byte	.LFE16
 7444 0078 00000000 		.4byte	.LFB17
 7445 007c B0000000 		.4byte	.LFE17
 7446 0080 00000000 		.4byte	.LFB18
 7447 0084 A8000000 		.4byte	.LFE18
 7448 0088 00000000 		.4byte	.LFB19
 7449 008c A8000000 		.4byte	.LFE19
 7450 0090 00000000 		.4byte	.LFB20
 7451 0094 7C010000 		.4byte	.LFE20
 7452 0098 00000000 		.4byte	.LFB21
 7453 009c 4C010000 		.4byte	.LFE21
 7454 00a0 00000000 		.4byte	.LFB22
 7455 00a4 2C000000 		.4byte	.LFE22
 7456 00a8 00000000 		.4byte	0
 7457 00ac 00000000 		.4byte	0
 7458              		.section	.debug_line,"",%progbits
 7459              	.Ldebug_line0:
 7460 0000 33040000 		.section	.debug_str,"MS",%progbits,1
 7460      0200E700 
ARM GAS  C:\Users\User\AppData\Local\Temp\ccmH1EJa.s 			page 154


 7460      00000201 
 7460      FB0E0D00 
 7460      01010101 
 7461              	.LASF650:
 7462 0000 6379426C 		.ascii	"cyBle_peerBonding\000"
 7462      655F7065 
 7462      6572426F 
 7462      6E64696E 
 7462      6700
 7463              	.LASF550:
 7464 0012 4359424C 		.ascii	"CYBLE_EVT_UDSC_READ_CHAR_RESPONSE\000"
 7464      455F4556 
 7464      545F5544 
 7464      53435F52 
 7464      4541445F 
 7465              	.LASF508:
 7466 0034 4359424C 		.ascii	"CYBLE_EVT_PLXSC_NOTIFICATION\000"
 7466      455F4556 
 7466      545F504C 
 7466      5853435F 
 7466      4E4F5449 
 7467              	.LASF447:
 7468 0051 4359424C 		.ascii	"CYBLE_EVT_HTSS_NOTIFICATION_DISABLED\000"
 7468      455F4556 
 7468      545F4854 
 7468      53535F4E 
 7468      4F544946 
 7469              	.LASF182:
 7470 0076 4359424C 		.ascii	"CYBLE_GATT_ERR_INVALID_CRC\000"
 7470      455F4741 
 7470      54545F45 
 7470      52525F49 
 7470      4E56414C 
 7471              	.LASF505:
 7472 0091 4359424C 		.ascii	"CYBLE_EVT_PLXSS_INDICATION_ENABLED\000"
 7472      455F4556 
 7472      545F504C 
 7472      5853535F 
 7472      494E4449 
 7473              	.LASF16:
 7474 00b4 73697A65 		.ascii	"sizetype\000"
 7474      74797065 
 7474      00
 7475              	.LASF617:
 7476 00bd 75707065 		.ascii	"upperValue\000"
 7476      7256616C 
 7476      756500
 7477              	.LASF328:
 7478 00c8 4359424C 		.ascii	"CYBLE_EVT_BCSC_READ_CHAR_RESPONSE\000"
 7478      455F4556 
 7478      545F4243 
 7478      53435F52 
 7478      4541445F 
 7479              	.LASF211:
 7480 00ea 4359424C 		.ascii	"CYBLE_GATTS_HANDLE_VALUE_NTF_T\000"
 7480      455F4741 
 7480      5454535F 
ARM GAS  C:\Users\User\AppData\Local\Temp\ccmH1EJa.s 			page 155


 7480      48414E44 
 7480      4C455F56 
 7481              	.LASF351:
 7482 0109 4359424C 		.ascii	"CYBLE_EVT_CGMSC_INDICATION\000"
 7482      455F4556 
 7482      545F4347 
 7482      4D53435F 
 7482      494E4449 
 7483              	.LASF369:
 7484 0124 4359424C 		.ascii	"CYBLE_EVT_CPSC_READ_DESCR_RESPONSE\000"
 7484      455F4556 
 7484      545F4350 
 7484      53435F52 
 7484      4541445F 
 7485              	.LASF512:
 7486 0147 4359424C 		.ascii	"CYBLE_EVT_PLXSC_READ_DESCR_RESPONSE\000"
 7486      455F4556 
 7486      545F504C 
 7486      5853435F 
 7486      52454144 
 7487              	.LASF527:
 7488 016b 4359424C 		.ascii	"CYBLE_EVT_RTUSS_WRITE_CHAR_CMD\000"
 7488      455F4556 
 7488      545F5254 
 7488      5553535F 
 7488      57524954 
 7489              	.LASF150:
 7490 018a 4359424C 		.ascii	"CYBLE_GATT_HANDLE_VALUE_CNF\000"
 7490      455F4741 
 7490      54545F48 
 7490      414E444C 
 7490      455F5641 
 7491              	.LASF637:
 7492 01a6 6E6F7469 		.ascii	"notifValue\000"
 7492      6656616C 
 7492      756500
 7493              	.LASF561:
 7494 01b1 4359424C 		.ascii	"CYBLE_EVT_WPTSC_NOTIFICATION\000"
 7494      455F4556 
 7494      545F5750 
 7494      5453435F 
 7494      4E4F5449 
 7495              	.LASF644:
 7496 01ce 4379426C 		.ascii	"CyBle_HtsApplCallback\000"
 7496      655F4874 
 7496      73417070 
 7496      6C43616C 
 7496      6C626163 
 7497              	.LASF284:
 7498 01e4 4359424C 		.ascii	"CYBLE_EVT_GATTC_INCL_DISCOVERY_COMPLETE\000"
 7498      455F4556 
 7498      545F4741 
 7498      5454435F 
 7498      494E434C 
 7499              	.LASF37:
 7500 020c 4359424C 		.ascii	"CYBLE_EVT_GAP_NUMERIC_COMPARISON_REQUEST\000"
 7500      455F4556 
ARM GAS  C:\Users\User\AppData\Local\Temp\ccmH1EJa.s 			page 156


 7500      545F4741 
 7500      505F4E55 
 7500      4D455249 
 7501              	.LASF295:
 7502 0235 4359424C 		.ascii	"CYBLE_EVT_AIOSC_NOTIFICATION\000"
 7502      455F4556 
 7502      545F4149 
 7502      4F53435F 
 7502      4E4F5449 
 7503              	.LASF567:
 7504 0252 4359424C 		.ascii	"CYBLE_EVT_WSSS_INDICATION_ENABLED\000"
 7504      455F4556 
 7504      545F5753 
 7504      53535F49 
 7504      4E444943 
 7505              	.LASF367:
 7506 0274 4359424C 		.ascii	"CYBLE_EVT_CPSC_READ_CHAR_RESPONSE\000"
 7506      455F4556 
 7506      545F4350 
 7506      53435F52 
 7506      4541445F 
 7507              	.LASF380:
 7508 0296 4359424C 		.ascii	"CYBLE_EVT_CSCSC_READ_CHAR_RESPONSE\000"
 7508      455F4556 
 7508      545F4353 
 7508      4353435F 
 7508      52454144 
 7509              	.LASF356:
 7510 02b9 4359424C 		.ascii	"CYBLE_EVT_CGMSC_WRITE_DESCR_RESPONSE\000"
 7510      455F4556 
 7510      545F4347 
 7510      4D53435F 
 7510      57524954 
 7511              	.LASF410:
 7512 02de 4359424C 		.ascii	"CYBLE_EVT_GLSS_NOTIFICATION_DISABLED\000"
 7512      455F4556 
 7512      545F474C 
 7512      53535F4E 
 7512      4F544946 
 7513              	.LASF609:
 7514 0303 6576656E 		.ascii	"eventParam\000"
 7514      74506172 
 7514      616D00
 7515              	.LASF338:
 7516 030e 4359424C 		.ascii	"CYBLE_EVT_BLSC_READ_CHAR_RESPONSE\000"
 7516      455F4556 
 7516      545F424C 
 7516      53435F52 
 7516      4541445F 
 7517              	.LASF31:
 7518 0330 4359424C 		.ascii	"CYBLE_EVT_GAP_DEVICE_CONNECTED\000"
 7518      455F4556 
 7518      545F4741 
 7518      505F4445 
 7518      56494345 
 7519              	.LASF469:
 7520 034f 4359424C 		.ascii	"CYBLE_EVT_LLSC_WRITE_CHAR_RESPONSE\000"
ARM GAS  C:\Users\User\AppData\Local\Temp\ccmH1EJa.s 			page 157


 7520      455F4556 
 7520      545F4C4C 
 7520      53435F57 
 7520      52495445 
 7521              	.LASF604:
 7522 0372 4379426C 		.ascii	"CyBle_HtssSetCharacteristicValue\000"
 7522      655F4874 
 7522      73735365 
 7522      74436861 
 7522      72616374 
 7523              	.LASF49:
 7524 0393 4359424C 		.ascii	"CYBLE_EVT_GATT_CONNECT_IND\000"
 7524      455F4556 
 7524      545F4741 
 7524      54545F43 
 7524      4F4E4E45 
 7525              	.LASF255:
 7526 03ae 4359424C 		.ascii	"CYBLE_HTS_VRD\000"
 7526      455F4854 
 7526      535F5652 
 7526      4400
 7527              	.LASF143:
 7528 03bc 4359424C 		.ascii	"CYBLE_GATT_WRITE_CMD\000"
 7528      455F4741 
 7528      54545F57 
 7528      52495445 
 7528      5F434D44 
 7529              	.LASF11:
 7530 03d1 75696E74 		.ascii	"uint32\000"
 7530      333200
 7531              	.LASF618:
 7532 03d8 4379426C 		.ascii	"CyBle_HtssSendNotification\000"
 7532      655F4874 
 7532      73735365 
 7532      6E644E6F 
 7532      74696669 
 7533              	.LASF631:
 7534 03f3 4379426C 		.ascii	"CyBle_HtscSetCharacteristicValue\000"
 7534      655F4874 
 7534      73635365 
 7534      74436861 
 7534      72616374 
 7535              	.LASF489:
 7536 0414 4359424C 		.ascii	"CYBLE_EVT_OTSC_READ_CHAR_RESPONSE\000"
 7536      455F4556 
 7536      545F4F54 
 7536      53435F52 
 7536      4541445F 
 7537              	.LASF279:
 7538 0436 4359424C 		.ascii	"CYBLE_EVT_GATTC_DESCR_DISCOVERY_FAILED\000"
 7538      455F4556 
 7538      545F4741 
 7538      5454435F 
 7538      44455343 
 7539              	.LASF526:
 7540 045d 4359424C 		.ascii	"CYBLE_EVT_RSCSC_WRITE_DESCR_RESPONSE\000"
 7540      455F4556 
ARM GAS  C:\Users\User\AppData\Local\Temp\ccmH1EJa.s 			page 158


 7540      545F5253 
 7540      4353435F 
 7540      57524954 
 7541              	.LASF326:
 7542 0482 4359424C 		.ascii	"CYBLE_EVT_BCSS_INDICATION_CONFIRMED\000"
 7542      455F4556 
 7542      545F4243 
 7542      53535F49 
 7542      4E444943 
 7543              	.LASF327:
 7544 04a6 4359424C 		.ascii	"CYBLE_EVT_BCSC_INDICATION\000"
 7544      455F4556 
 7544      545F4243 
 7544      53435F49 
 7544      4E444943 
 7545              	.LASF471:
 7546 04c0 4359424C 		.ascii	"CYBLE_EVT_LNSS_INDICATION_DISABLED\000"
 7546      455F4556 
 7546      545F4C4E 
 7546      53535F49 
 7546      4E444943 
 7547              	.LASF388:
 7548 04e3 4359424C 		.ascii	"CYBLE_EVT_CTSC_READ_CHAR_RESPONSE\000"
 7548      455F4556 
 7548      545F4354 
 7548      53435F52 
 7548      4541445F 
 7549              	.LASF283:
 7550 0505 4359424C 		.ascii	"CYBLE_EVT_GATTC_SRVC_DISCOVERY_COMPLETE\000"
 7550      455F4556 
 7550      545F4741 
 7550      5454435F 
 7550      53525643 
 7551              	.LASF520:
 7552 052d 4359424C 		.ascii	"CYBLE_EVT_RSCSS_CHAR_WRITE\000"
 7552      455F4556 
 7552      545F5253 
 7552      4353535F 
 7552      43484152 
 7553              	.LASF304:
 7554 0548 4359424C 		.ascii	"CYBLE_EVT_ANCSS_WRITE_CHAR\000"
 7554      455F4556 
 7554      545F414E 
 7554      4353535F 
 7554      57524954 
 7555              	.LASF509:
 7556 0563 4359424C 		.ascii	"CYBLE_EVT_PLXSC_INDICATION\000"
 7556      455F4556 
 7556      545F504C 
 7556      5853435F 
 7556      494E4449 
 7557              	.LASF553:
 7558 057e 4359424C 		.ascii	"CYBLE_EVT_UDSC_WRITE_DESCR_RESPONSE\000"
 7558      455F4556 
 7558      545F5544 
 7558      53435F57 
 7558      52495445 
ARM GAS  C:\Users\User\AppData\Local\Temp\ccmH1EJa.s 			page 159


 7559              	.LASF429:
 7560 05a2 4359424C 		.ascii	"CYBLE_EVT_HIDSC_WRITE_DESCR_RESPONSE\000"
 7560      455F4556 
 7560      545F4849 
 7560      4453435F 
 7560      57524954 
 7561              	.LASF535:
 7562 05c7 4359424C 		.ascii	"CYBLE_EVT_TPSS_NOTIFICATION_ENABLED\000"
 7562      455F4556 
 7562      545F5450 
 7562      53535F4E 
 7562      4F544946 
 7563              	.LASF316:
 7564 05eb 4359424C 		.ascii	"CYBLE_EVT_ANSC_READ_DESCR_RESPONSE\000"
 7564      455F4556 
 7564      545F414E 
 7564      53435F52 
 7564      4541445F 
 7565              	.LASF156:
 7566 060e 4359424C 		.ascii	"CYBLE_GATT_ERR_READ_NOT_PERMITTED\000"
 7566      455F4741 
 7566      54545F45 
 7566      52525F52 
 7566      4541445F 
 7567              	.LASF171:
 7568 0630 4359424C 		.ascii	"CYBLE_GATT_ERR_INSUFFICIENT_RESOURCE\000"
 7568      455F4741 
 7568      54545F45 
 7568      52525F49 
 7568      4E535546 
 7569              	.LASF254:
 7570 0655 4359424C 		.ascii	"CYBLE_HTS_CCCD\000"
 7570      455F4854 
 7570      535F4343 
 7570      434400
 7571              	.LASF144:
 7572 0664 4359424C 		.ascii	"CYBLE_GATT_PREPARE_WRITE_REQ\000"
 7572      455F4741 
 7572      54545F50 
 7572      52455041 
 7572      52455F57 
 7573              	.LASF170:
 7574 0681 4359424C 		.ascii	"CYBLE_GATT_ERR_UNSUPPORTED_GROUP_TYPE\000"
 7574      455F4741 
 7574      54545F45 
 7574      52525F55 
 7574      4E535550 
 7575              	.LASF105:
 7576 06a7 4359424C 		.ascii	"CYBLE_ERROR_L2CAP_CONNECTION_ENTITY_NOT_FOUND\000"
 7576      455F4552 
 7576      524F525F 
 7576      4C324341 
 7576      505F434F 
 7577              	.LASF586:
 7578 06d5 4359424C 		.ascii	"CYBLE_CLIENT_STATE_CHAR_DISCOVERING\000"
 7578      455F434C 
 7578      49454E54 
ARM GAS  C:\Users\User\AppData\Local\Temp\ccmH1EJa.s 			page 160


 7578      5F535441 
 7578      54455F43 
 7579              	.LASF111:
 7580 06f9 4359424C 		.ascii	"CYBLE_ERROR_MIC_AUTH_FAILED\000"
 7580      455F4552 
 7580      524F525F 
 7580      4D49435F 
 7580      41555448 
 7581              	.LASF579:
 7582 0715 4359424C 		.ascii	"CYBLE_STATE_SCANNING\000"
 7582      455F5354 
 7582      4154455F 
 7582      5343414E 
 7582      4E494E47 
 7583              	.LASF278:
 7584 072a 4359424C 		.ascii	"CYBLE_EVT_GATTC_CHAR_DISCOVERY_FAILED\000"
 7584      455F4556 
 7584      545F4741 
 7584      5454435F 
 7584      43484152 
 7585              	.LASF69:
 7586 0750 4359424C 		.ascii	"CYBLE_EVT_GATTS_DATA_SIGNED_CMD_REQ\000"
 7586      455F4556 
 7586      545F4741 
 7586      5454535F 
 7586      44415441 
 7587              	.LASF81:
 7588 0774 4359424C 		.ascii	"CYBLE_EVT_L2CAP_CBFC_RX_CREDIT_IND\000"
 7588      455F4556 
 7588      545F4C32 
 7588      4341505F 
 7588      43424643 
 7589              	.LASF205:
 7590 0797 4359424C 		.ascii	"CYBLE_GATT_VALUE_T\000"
 7590      455F4741 
 7590      54545F56 
 7590      414C5545 
 7590      5F5400
 7591              	.LASF374:
 7592 07aa 4359424C 		.ascii	"CYBLE_EVT_CSCSS_INDICATION_ENABLED\000"
 7592      455F4556 
 7592      545F4353 
 7592      4353535F 
 7592      494E4449 
 7593              	.LASF233:
 7594 07cd 7065726D 		.ascii	"permission\000"
 7594      69737369 
 7594      6F6E00
 7595              	.LASF138:
 7596 07d8 4359424C 		.ascii	"CYBLE_GATT_READ_MULTIPLE_RSP\000"
 7596      455F4741 
 7596      54545F52 
 7596      4541445F 
 7596      4D554C54 
 7597              	.LASF476:
 7598 07f5 4359424C 		.ascii	"CYBLE_EVT_LNSC_INDICATION\000"
 7598      455F4556 
ARM GAS  C:\Users\User\AppData\Local\Temp\ccmH1EJa.s 			page 161


 7598      545F4C4E 
 7598      53435F49 
 7598      4E444943 
 7599              	.LASF172:
 7600 080f 4359424C 		.ascii	"CYBLE_GATT_ERR_TRIGGER_CODITION_VALUE_NOT_SUPPORTED"
 7600      455F4741 
 7600      54545F45 
 7600      52525F54 
 7600      52494747 
 7601 0842 00       		.ascii	"\000"
 7602              	.LASF499:
 7603 0843 4359424C 		.ascii	"CYBLE_EVT_PASSC_READ_CHAR_RESPONSE\000"
 7603      455F4556 
 7603      545F5041 
 7603      5353435F 
 7603      52454144 
 7604              	.LASF331:
 7605 0866 4359424C 		.ascii	"CYBLE_EVT_BLSS_INDICATION_ENABLED\000"
 7605      455F4556 
 7605      545F424C 
 7605      53535F49 
 7605      4E444943 
 7606              	.LASF337:
 7607 0888 4359424C 		.ascii	"CYBLE_EVT_BLSC_NOTIFICATION\000"
 7607      455F4556 
 7607      545F424C 
 7607      53435F4E 
 7607      4F544946 
 7608              	.LASF132:
 7609 08a4 4359424C 		.ascii	"CYBLE_GATT_READ_BY_TYPE_RSP\000"
 7609      455F4741 
 7609      54545F52 
 7609      4541445F 
 7609      42595F54 
 7610              	.LASF237:
 7611 08c0 4359424C 		.ascii	"CYBLE_CALLBACK_T\000"
 7611      455F4341 
 7611      4C4C4241 
 7611      434B5F54 
 7611      00
 7612              	.LASF379:
 7613 08d1 4359424C 		.ascii	"CYBLE_EVT_CSCSC_INDICATION\000"
 7613      455F4556 
 7613      545F4353 
 7613      4353435F 
 7613      494E4449 
 7614              	.LASF220:
 7615 08ec 4359424C 		.ascii	"CYBLE_GATTC_HANDLE_VALUE_NTF_PARAM_T\000"
 7615      455F4741 
 7615      5454435F 
 7615      48414E44 
 7615      4C455F56 
 7616              	.LASF66:
 7617 0911 4359424C 		.ascii	"CYBLE_EVT_GATTC_HANDLE_VALUE_NTF\000"
 7617      455F4556 
 7617      545F4741 
 7617      5454435F 
ARM GAS  C:\Users\User\AppData\Local\Temp\ccmH1EJa.s 			page 162


 7617      48414E44 
 7618              	.LASF25:
 7619 0932 4359424C 		.ascii	"CYBLE_EVT_GAP_AUTH_REQ\000"
 7619      455F4556 
 7619      545F4741 
 7619      505F4155 
 7619      54485F52 
 7620              	.LASF285:
 7621 0949 4359424C 		.ascii	"CYBLE_EVT_GATTC_CHAR_DISCOVERY_COMPLETE\000"
 7621      455F4556 
 7621      545F4741 
 7621      5454435F 
 7621      43484152 
 7622              	.LASF203:
 7623 0971 4359424C 		.ascii	"CYBLE_CONN_HANDLE_T\000"
 7623      455F434F 
 7623      4E4E5F48 
 7623      414E444C 
 7623      455F5400 
 7624              	.LASF443:
 7625 0985 4359424C 		.ascii	"CYBLE_EVT_HRSC_WRITE_CHAR_RESPONSE\000"
 7625      455F4556 
 7625      545F4852 
 7625      53435F57 
 7625      52495445 
 7626              	.LASF100:
 7627 09a8 4359424C 		.ascii	"CYBLE_ERROR_BT_ON_NOT_COMPLETED\000"
 7627      455F4552 
 7627      524F525F 
 7627      42545F4F 
 7627      4E5F4E4F 
 7628              	.LASF378:
 7629 09c8 4359424C 		.ascii	"CYBLE_EVT_CSCSC_NOTIFICATION\000"
 7629      455F4556 
 7629      545F4353 
 7629      4353435F 
 7629      4E4F5449 
 7630              	.LASF548:
 7631 09e5 4359424C 		.ascii	"CYBLE_EVT_UDSC_INDICATION\000"
 7631      455F4556 
 7631      545F5544 
 7631      53435F49 
 7631      4E444943 
 7632              	.LASF459:
 7633 09ff 4359424C 		.ascii	"CYBLE_EVT_IPSS_WRITE_CHAR\000"
 7633      455F4556 
 7633      545F4950 
 7633      53535F57 
 7633      52495445 
 7634              	.LASF656:
 7635 0a19 6379426C 		.ascii	"cyBle_disCount\000"
 7635      655F6469 
 7635      73436F75 
 7635      6E7400
 7636              	.LASF46:
 7637 0a28 4359424C 		.ascii	"CYBLE_EVT_GAP_AUTH_REQ_REPLY_ERR\000"
 7637      455F4556 
ARM GAS  C:\Users\User\AppData\Local\Temp\ccmH1EJa.s 			page 163


 7637      545F4741 
 7637      505F4155 
 7637      54485F52 
 7638              	.LASF342:
 7639 0a49 4359424C 		.ascii	"CYBLE_EVT_BMSC_READ_CHAR_RESPONSE\000"
 7639      455F4556 
 7639      545F424D 
 7639      53435F52 
 7639      4541445F 
 7640              	.LASF578:
 7641 0a6b 4359424C 		.ascii	"CYBLE_STATE_ADVERTISING\000"
 7641      455F5354 
 7641      4154455F 
 7641      41445645 
 7641      52544953 
 7642              	.LASF39:
 7643 0a83 4359424C 		.ascii	"CYBLE_EVT_GAP_OOB_GENERATED_NOTIFICATION\000"
 7643      455F4556 
 7643      545F4741 
 7643      505F4F4F 
 7643      425F4745 
 7644              	.LASF246:
 7645 0aac 64657363 		.ascii	"descrHandle\000"
 7645      7248616E 
 7645      646C6500 
 7646              	.LASF201:
 7647 0ab8 62644861 		.ascii	"bdHandle\000"
 7647      6E646C65 
 7647      00
 7648              	.LASF184:
 7649 0ac1 4359424C 		.ascii	"CYBLE_GATTS_ERR_NETWORK_NOT_AVAILABLE\000"
 7649      455F4741 
 7649      5454535F 
 7649      4552525F 
 7649      4E455457 
 7650              	.LASF347:
 7651 0ae7 4359424C 		.ascii	"CYBLE_EVT_CGMSS_INDICATION_CONFIRMED\000"
 7651      455F4556 
 7651      545F4347 
 7651      4D53535F 
 7651      494E4449 
 7652              	.LASF491:
 7653 0b0c 4359424C 		.ascii	"CYBLE_EVT_OTSC_WRITE_CHAR_RESPONSE\000"
 7653      455F4556 
 7653      545F4F54 
 7653      53435F57 
 7653      52495445 
 7654              	.LASF187:
 7655 0b2f 4359424C 		.ascii	"CYBLE_GATT_ERR_ANCS_INVALID_COMMAND\000"
 7655      455F4741 
 7655      54545F45 
 7655      52525F41 
 7655      4E43535F 
 7656              	.LASF339:
 7657 0b53 4359424C 		.ascii	"CYBLE_EVT_BLSC_READ_DESCR_RESPONSE\000"
 7657      455F4556 
 7657      545F424C 
ARM GAS  C:\Users\User\AppData\Local\Temp\ccmH1EJa.s 			page 164


 7657      53435F52 
 7657      4541445F 
 7658              	.LASF492:
 7659 0b76 4359424C 		.ascii	"CYBLE_EVT_OTSC_READ_DESCR_RESPONSE\000"
 7659      455F4556 
 7659      545F4F54 
 7659      53435F52 
 7659      4541445F 
 7660              	.LASF360:
 7661 0b99 4359424C 		.ascii	"CYBLE_EVT_CPSS_INDICATION_DISABLED\000"
 7661      455F4556 
 7661      545F4350 
 7661      53535F49 
 7661      4E444943 
 7662              	.LASF126:
 7663 0bbc 4359424C 		.ascii	"CYBLE_GATT_XCHNG_MTU_RSP\000"
 7663      455F4741 
 7663      54545F58 
 7663      43484E47 
 7663      5F4D5455 
 7664              	.LASF359:
 7665 0bd5 4359424C 		.ascii	"CYBLE_EVT_CPSS_INDICATION_ENABLED\000"
 7665      455F4556 
 7665      545F4350 
 7665      53535F49 
 7665      4E444943 
 7666              	.LASF473:
 7667 0bf7 4359424C 		.ascii	"CYBLE_EVT_LNSS_NOTIFICATION_ENABLED\000"
 7667      455F4556 
 7667      545F4C4E 
 7667      53535F4E 
 7667      4F544946 
 7668              	.LASF62:
 7669 0c1b 4359424C 		.ascii	"CYBLE_EVT_GATTS_WRITE_CMD_REQ\000"
 7669      455F4556 
 7669      545F4741 
 7669      5454535F 
 7669      57524954 
 7670              	.LASF370:
 7671 0c39 4359424C 		.ascii	"CYBLE_EVT_CPSC_WRITE_DESCR_RESPONSE\000"
 7671      455F4556 
 7671      545F4350 
 7671      53435F57 
 7671      52495445 
 7672              	.LASF82:
 7673 0c5d 4359424C 		.ascii	"CYBLE_EVT_L2CAP_CBFC_TX_CREDIT_IND\000"
 7673      455F4556 
 7673      545F4C32 
 7673      4341505F 
 7673      43424643 
 7674              	.LASF4:
 7675 0c80 6C6F6E67 		.ascii	"long int\000"
 7675      20696E74 
 7675      00
 7676              	.LASF266:
 7677 0c89 4359424C 		.ascii	"CYBLE_HTS_CHAR_VALUE_T\000"
 7677      455F4854 
ARM GAS  C:\Users\User\AppData\Local\Temp\ccmH1EJa.s 			page 165


 7677      535F4348 
 7677      41525F56 
 7677      414C5545 
 7678              	.LASF627:
 7679 0ca0 4379426C 		.ascii	"CyBle_HtscDiscoverCharDescriptorsEventHandler\000"
 7679      655F4874 
 7679      73634469 
 7679      73636F76 
 7679      65724368 
 7680              	.LASF375:
 7681 0cce 4359424C 		.ascii	"CYBLE_EVT_CSCSS_INDICATION_DISABLED\000"
 7681      455F4556 
 7681      545F4353 
 7681      4353535F 
 7681      494E4449 
 7682              	.LASF153:
 7683 0cf2 4359424C 		.ascii	"CYBLE_GATT_PDU_T\000"
 7683      455F4741 
 7683      54545F50 
 7683      44555F54 
 7683      00
 7684              	.LASF250:
 7685 0d03 4359424C 		.ascii	"CYBLE_HTS_INTERM_TEMP\000"
 7685      455F4854 
 7685      535F494E 
 7685      5445524D 
 7685      5F54454D 
 7686              	.LASF543:
 7687 0d19 4359424C 		.ascii	"CYBLE_EVT_UDSS_INDICATION_CONFIRMED\000"
 7687      455F4556 
 7687      545F5544 
 7687      53535F49 
 7687      4E444943 
 7688              	.LASF271:
 7689 0d3d 4359424C 		.ascii	"CYBLE_LONG_TERM_KEY_REQUEST_REPLY\000"
 7689      455F4C4F 
 7689      4E475F54 
 7689      45524D5F 
 7689      4B45595F 
 7690              	.LASF130:
 7691 0d5f 4359424C 		.ascii	"CYBLE_GATT_FIND_BY_TYPE_VALUE_RSP\000"
 7691      455F4741 
 7691      54545F46 
 7691      494E445F 
 7691      42595F54 
 7692              	.LASF18:
 7693 0d81 4359424C 		.ascii	"CYBLE_EVT_STACK_ON\000"
 7693      455F4556 
 7693      545F5354 
 7693      41434B5F 
 7693      4F4E00
 7694              	.LASF107:
 7695 0d94 4359424C 		.ascii	"CYBLE_ERROR_L2CAP_PSM_NOT_IN_RANGE\000"
 7695      455F4552 
 7695      524F525F 
 7695      4C324341 
 7695      505F5053 
ARM GAS  C:\Users\User\AppData\Local\Temp\ccmH1EJa.s 			page 166


 7696              	.LASF325:
 7697 0db7 4359424C 		.ascii	"CYBLE_EVT_BCSS_INDICATION_DISABLED\000"
 7697      455F4556 
 7697      545F4243 
 7697      53535F49 
 7697      4E444943 
 7698              	.LASF599:
 7699 0dda 63616C6C 		.ascii	"callbackFunc\000"
 7699      6261636B 
 7699      46756E63 
 7699      00
 7700              	.LASF629:
 7701 0de7 64697363 		.ascii	"discDescrInfo\000"
 7701      44657363 
 7701      72496E66 
 7701      6F00
 7702              	.LASF405:
 7703 0df5 4359424C 		.ascii	"CYBLE_EVT_ESSC_WRITE_DESCR_RESPONSE\000"
 7703      455F4556 
 7703      545F4553 
 7703      53435F57 
 7703      52495445 
 7704              	.LASF183:
 7705 0e19 4359424C 		.ascii	"CYBLE_GATTS_ERR_HPS_INVALID_REQUEST\000"
 7705      455F4741 
 7705      5454535F 
 7705      4552525F 
 7705      4850535F 
 7706              	.LASF462:
 7707 0e3d 4359424C 		.ascii	"CYBLE_EVT_IPSC_WRITE_CHAR_RESPONSE\000"
 7707      455F4556 
 7707      545F4950 
 7707      53435F57 
 7707      52495445 
 7708              	.LASF260:
 7709 0e60 73657276 		.ascii	"serviceHandle\000"
 7709      69636548 
 7709      616E646C 
 7709      6500
 7710              	.LASF446:
 7711 0e6e 4359424C 		.ascii	"CYBLE_EVT_HTSS_NOTIFICATION_ENABLED\000"
 7711      455F4556 
 7711      545F4854 
 7711      53535F4E 
 7711      4F544946 
 7712              	.LASF158:
 7713 0e92 4359424C 		.ascii	"CYBLE_GATT_ERR_INVALID_PDU\000"
 7713      455F4741 
 7713      54545F45 
 7713      52525F49 
 7713      4E56414C 
 7714              	.LASF120:
 7715 0ead 4359424C 		.ascii	"CYBLE_ERROR_CHAR_IS_NOT_DISCOVERED\000"
 7715      455F4552 
 7715      524F525F 
 7715      43484152 
 7715      5F49535F 
ARM GAS  C:\Users\User\AppData\Local\Temp\ccmH1EJa.s 			page 167


 7716              	.LASF546:
 7717 0ed0 4359424C 		.ascii	"CYBLE_EVT_UDSS_READ_CHAR\000"
 7717      455F4556 
 7717      545F5544 
 7717      53535F52 
 7717      4541445F 
 7718              	.LASF291:
 7719 0ee9 4359424C 		.ascii	"CYBLE_EVT_AIOSS_INDICATION_DISABLED\000"
 7719      455F4556 
 7719      545F4149 
 7719      4F53535F 
 7719      494E4449 
 7720              	.LASF207:
 7721 0f0d 4359424C 		.ascii	"CYBLE_GATT_HANDLE_VALUE_PAIR_T\000"
 7721      455F4741 
 7721      54545F48 
 7721      414E444C 
 7721      455F5641 
 7722              	.LASF232:
 7723 0f2c 61747454 		.ascii	"attType\000"
 7723      79706500 
 7724              	.LASF402:
 7725 0f34 4359424C 		.ascii	"CYBLE_EVT_ESSC_READ_CHAR_RESPONSE\000"
 7725      455F4556 
 7725      545F4553 
 7725      53435F52 
 7725      4541445F 
 7726              	.LASF660:
 7727 0f56 433A5C55 		.ascii	"C:\\Users\\User\\Desktop\\Hi\\Demo1\\TM_Mesh_System"
 7727      73657273 
 7727      5C557365 
 7727      725C4465 
 7727      736B746F 
 7728 0f83 2E637964 		.ascii	".cydsn\000"
 7728      736E00
 7729              	.LASF425:
 7730 0f8a 4359424C 		.ascii	"CYBLE_EVT_HIDSC_NOTIFICATION\000"
 7730      455F4556 
 7730      545F4849 
 7730      4453435F 
 7730      4E4F5449 
 7731              	.LASF75:
 7732 0fa7 4359424C 		.ascii	"CYBLE_EVT_L2CAP_COMMAND_REJ\000"
 7732      455F4556 
 7732      545F4C32 
 7732      4341505F 
 7732      434F4D4D 
 7733              	.LASF218:
 7734 0fc3 4359424C 		.ascii	"CYBLE_GATTC_WRITE_REQ_T\000"
 7734      455F4741 
 7734      5454435F 
 7734      57524954 
 7734      455F5245 
 7735              	.LASF136:
 7736 0fdb 4359424C 		.ascii	"CYBLE_GATT_READ_BLOB_RSP\000"
 7736      455F4741 
 7736      54545F52 
ARM GAS  C:\Users\User\AppData\Local\Temp\ccmH1EJa.s 			page 168


 7736      4541445F 
 7736      424C4F42 
 7737              	.LASF167:
 7738 0ff4 4359424C 		.ascii	"CYBLE_GATT_ERR_INVALID_ATTRIBUTE_LEN\000"
 7738      455F4741 
 7738      54545F45 
 7738      52525F49 
 7738      4E56414C 
 7739              	.LASF422:
 7740 1019 4359424C 		.ascii	"CYBLE_EVT_HIDSS_SUSPEND\000"
 7740      455F4556 
 7740      545F4849 
 7740      4453535F 
 7740      53555350 
 7741              	.LASF108:
 7742 1031 4359424C 		.ascii	"CYBLE_ERROR_GATT_DB_INVALID_ATTR_HANDLE\000"
 7742      455F4552 
 7742      524F525F 
 7742      47415454 
 7742      5F44425F 
 7743              	.LASF0:
 7744 1059 7369676E 		.ascii	"signed char\000"
 7744      65642063 
 7744      68617200 
 7745              	.LASF329:
 7746 1065 4359424C 		.ascii	"CYBLE_EVT_BCSC_READ_DESCR_RESPONSE\000"
 7746      455F4556 
 7746      545F4243 
 7746      53435F52 
 7746      4541445F 
 7747              	.LASF573:
 7748 1088 4359424C 		.ascii	"CYBLE_EVT_WSSC_WRITE_DESCR_RESPONSE\000"
 7748      455F4556 
 7748      545F5753 
 7748      53435F57 
 7748      52495445 
 7749              	.LASF322:
 7750 10ac 4359424C 		.ascii	"CYBLE_EVT_BASC_READ_DESCR_RESPONSE\000"
 7750      455F4556 
 7750      545F4241 
 7750      53435F52 
 7750      4541445F 
 7751              	.LASF127:
 7752 10cf 4359424C 		.ascii	"CYBLE_GATT_FIND_INFO_REQ\000"
 7752      455F4741 
 7752      54545F46 
 7752      494E445F 
 7752      494E464F 
 7753              	.LASF20:
 7754 10e8 4359424C 		.ascii	"CYBLE_EVT_HARDWARE_ERROR\000"
 7754      455F4556 
 7754      545F4841 
 7754      52445741 
 7754      52455F45 
 7755              	.LASF89:
 7756 1101 4359424C 		.ascii	"CYBLE_ERROR_OK\000"
 7756      455F4552 
ARM GAS  C:\Users\User\AppData\Local\Temp\ccmH1EJa.s 			page 169


 7756      524F525F 
 7756      4F4B00
 7757              	.LASF611:
 7758 1110 6C6F6343 		.ascii	"locCharValue\000"
 7758      68617256 
 7758      616C7565 
 7758      00
 7759              	.LASF190:
 7760 111d 4359424C 		.ascii	"CYBLE_GATT_ERR_CCCD_IMPROPERLY_CONFIGURED\000"
 7760      455F4741 
 7760      54545F45 
 7760      52525F43 
 7760      4343445F 
 7761              	.LASF53:
 7762 1147 4359424C 		.ascii	"CYBLE_EVT_GATTC_READ_BY_GROUP_TYPE_RSP\000"
 7762      455F4556 
 7762      545F4741 
 7762      5454435F 
 7762      52454144 
 7763              	.LASF575:
 7764 116e 4359424C 		.ascii	"CYBLE_STATE_STOPPED\000"
 7764      455F5354 
 7764      4154455F 
 7764      53544F50 
 7764      50454400 
 7765              	.LASF517:
 7766 1182 4359424C 		.ascii	"CYBLE_EVT_RSCSS_INDICATION_ENABLED\000"
 7766      455F4556 
 7766      545F5253 
 7766      4353535F 
 7766      494E4449 
 7767              	.LASF1:
 7768 11a5 756E7369 		.ascii	"unsigned char\000"
 7768      676E6564 
 7768      20636861 
 7768      7200
 7769              	.LASF52:
 7770 11b3 4359424C 		.ascii	"CYBLE_EVT_GATTC_XCHNG_MTU_RSP\000"
 7770      455F4556 
 7770      545F4741 
 7770      5454435F 
 7770      5843484E 
 7771              	.LASF361:
 7772 11d1 4359424C 		.ascii	"CYBLE_EVT_CPSS_INDICATION_CONFIRMED\000"
 7772      455F4556 
 7772      545F4350 
 7772      53535F49 
 7772      4E444943 
 7773              	.LASF149:
 7774 11f5 4359424C 		.ascii	"CYBLE_GATT_HANDLE_VALUE_IND\000"
 7774      455F4741 
 7774      54545F48 
 7774      414E444C 
 7774      455F5641 
 7775              	.LASF641:
 7776 1211 6C6F6344 		.ascii	"locDescrValue\000"
 7776      65736372 
ARM GAS  C:\Users\User\AppData\Local\Temp\ccmH1EJa.s 			page 170


 7776      56616C75 
 7776      6500
 7777              	.LASF358:
 7778 121f 4359424C 		.ascii	"CYBLE_EVT_CPSS_NOTIFICATION_DISABLED\000"
 7778      455F4556 
 7778      545F4350 
 7778      53535F4E 
 7778      4F544946 
 7779              	.LASF590:
 7780 1244 4359424C 		.ascii	"CYBLE_CLIENT_STATE_DISCONNECTED_DISCOVERED\000"
 7780      455F434C 
 7780      49454E54 
 7780      5F535441 
 7780      54455F44 
 7781              	.LASF522:
 7782 126f 4359424C 		.ascii	"CYBLE_EVT_RSCSC_INDICATION\000"
 7782      455F4556 
 7782      545F5253 
 7782      4353435F 
 7782      494E4449 
 7783              	.LASF572:
 7784 128a 4359424C 		.ascii	"CYBLE_EVT_WSSC_READ_DESCR_RESPONSE\000"
 7784      455F4556 
 7784      545F5753 
 7784      53435F52 
 7784      4541445F 
 7785              	.LASF558:
 7786 12ad 4359424C 		.ascii	"CYBLE_EVT_WPTSS_INDICATION_DISABLED\000"
 7786      455F4556 
 7786      545F5750 
 7786      5453535F 
 7786      494E4449 
 7787              	.LASF43:
 7788 12d1 4359424C 		.ascii	"CYBLE_EVT_GAP_SMP_NEGOTIATED_AUTH_INFO\000"
 7788      455F4556 
 7788      545F4741 
 7788      505F534D 
 7788      505F4E45 
 7789              	.LASF44:
 7790 12f8 4359424C 		.ascii	"CYBLE_EVT_GAP_CONN_ESTB\000"
 7790      455F4556 
 7790      545F4741 
 7790      505F434F 
 7790      4E4E5F45 
 7791              	.LASF231:
 7792 1310 61747448 		.ascii	"attHandle\000"
 7792      616E646C 
 7792      6500
 7793              	.LASF348:
 7794 131a 4359424C 		.ascii	"CYBLE_EVT_CGMSS_NOTIFICATION_ENABLED\000"
 7794      455F4556 
 7794      545F4347 
 7794      4D53535F 
 7794      4E4F5449 
 7795              	.LASF275:
 7796 133f 4359424C 		.ascii	"CYBLE_EVT_GATTC_INDICATION\000"
 7796      455F4556 
ARM GAS  C:\Users\User\AppData\Local\Temp\ccmH1EJa.s 			page 171


 7796      545F4741 
 7796      5454435F 
 7796      494E4449 
 7797              	.LASF216:
 7798 135a 6572726F 		.ascii	"errorCode\000"
 7798      72436F64 
 7798      6500
 7799              	.LASF244:
 7800 1364 75756964 		.ascii	"uuidFormat\000"
 7800      466F726D 
 7800      617400
 7801              	.LASF529:
 7802 136f 4359424C 		.ascii	"CYBLE_EVT_SCPSS_NOTIFICATION_ENABLED\000"
 7802      455F4556 
 7802      545F5343 
 7802      5053535F 
 7802      4E4F5449 
 7803              	.LASF460:
 7804 1394 4359424C 		.ascii	"CYBLE_EVT_IPSC_READ_CHAR_RESPONSE\000"
 7804      455F4556 
 7804      545F4950 
 7804      53435F52 
 7804      4541445F 
 7805              	.LASF79:
 7806 13b6 4359424C 		.ascii	"CYBLE_EVT_L2CAP_CBFC_DISCONN_CNF\000"
 7806      455F4556 
 7806      545F4C32 
 7806      4341505F 
 7806      43424643 
 7807              	.LASF56:
 7808 13d7 4359424C 		.ascii	"CYBLE_EVT_GATTC_FIND_BY_TYPE_VALUE_RSP\000"
 7808      455F4556 
 7808      545F4741 
 7808      5454435F 
 7808      46494E44 
 7809              	.LASF302:
 7810 13fe 4359424C 		.ascii	"CYBLE_EVT_ANCSS_NOTIFICATION_ENABLED\000"
 7810      455F4556 
 7810      545F414E 
 7810      4353535F 
 7810      4E4F5449 
 7811              	.LASF628:
 7812 1423 64697363 		.ascii	"discoveryCharIndex\000"
 7812      6F766572 
 7812      79436861 
 7812      72496E64 
 7812      657800
 7813              	.LASF40:
 7814 1436 4359424C 		.ascii	"CYBLE_EVT_GAP_DATA_LENGTH_CHANGE\000"
 7814      455F4556 
 7814      545F4741 
 7814      505F4441 
 7814      54415F4C 
 7815              	.LASF534:
 7816 1457 4359424C 		.ascii	"CYBLE_EVT_SCPSC_WRITE_DESCR_RESPONSE\000"
 7816      455F4556 
 7816      545F5343 
ARM GAS  C:\Users\User\AppData\Local\Temp\ccmH1EJa.s 			page 172


 7816      5053435F 
 7816      57524954 
 7817              	.LASF14:
 7818 147c 63686172 		.ascii	"char\000"
 7818      00
 7819              	.LASF615:
 7820 1481 72657175 		.ascii	"requestValue\000"
 7820      65737456 
 7820      616C7565 
 7820      00
 7821              	.LASF225:
 7822 148e 6D617841 		.ascii	"maxAttrLength\000"
 7822      7474724C 
 7822      656E6774 
 7822      6800
 7823              	.LASF537:
 7824 149c 4359424C 		.ascii	"CYBLE_EVT_TPSC_NOTIFICATION\000"
 7824      455F4556 
 7824      545F5450 
 7824      53435F4E 
 7824      4F544946 
 7825              	.LASF142:
 7826 14b8 4359424C 		.ascii	"CYBLE_GATT_WRITE_RSP\000"
 7826      455F4741 
 7826      54545F57 
 7826      52495445 
 7826      5F525350 
 7827              	.LASF503:
 7828 14cd 4359424C 		.ascii	"CYBLE_EVT_PLXSS_NOTIFICATION_ENABLED\000"
 7828      455F4556 
 7828      545F504C 
 7828      5853535F 
 7828      4E4F5449 
 7829              	.LASF59:
 7830 14f2 4359424C 		.ascii	"CYBLE_EVT_GATTC_READ_MULTI_RSP\000"
 7830      455F4556 
 7830      545F4741 
 7830      5454435F 
 7830      52454144 
 7831              	.LASF301:
 7832 1511 4359424C 		.ascii	"CYBLE_EVT_AIOSC_ERROR_RESPONSE\000"
 7832      455F4556 
 7832      545F4149 
 7832      4F53435F 
 7832      4552524F 
 7833              	.LASF296:
 7834 1530 4359424C 		.ascii	"CYBLE_EVT_AIOSC_INDICATION\000"
 7834      455F4556 
 7834      545F4149 
 7834      4F53435F 
 7834      494E4449 
 7835              	.LASF580:
 7836 154b 4359424C 		.ascii	"CYBLE_STATE_CONNECTING\000"
 7836      455F5354 
 7836      4154455F 
 7836      434F4E4E 
 7836      45435449 
ARM GAS  C:\Users\User\AppData\Local\Temp\ccmH1EJa.s 			page 173


 7837              	.LASF17:
 7838 1562 4359424C 		.ascii	"CYBLE_EVT_HOST_INVALID\000"
 7838      455F4556 
 7838      545F484F 
 7838      53545F49 
 7838      4E56414C 
 7839              	.LASF179:
 7840 1579 4359424C 		.ascii	"CYBLE_GATT_ERR_MISSING_CRC\000"
 7840      455F4741 
 7840      54545F45 
 7840      52525F4D 
 7840      49535349 
 7841              	.LASF168:
 7842 1594 4359424C 		.ascii	"CYBLE_GATT_ERR_UNLIKELY_ERROR\000"
 7842      455F4741 
 7842      54545F45 
 7842      52525F55 
 7842      4E4C494B 
 7843              	.LASF42:
 7844 15b2 4359424C 		.ascii	"CYBLE_EVT_GAPC_DIRECT_ADV_REPORT\000"
 7844      455F4556 
 7844      545F4741 
 7844      50435F44 
 7844      49524543 
 7845              	.LASF416:
 7846 15d3 4359424C 		.ascii	"CYBLE_EVT_GLSC_READ_DESCR_RESPONSE\000"
 7846      455F4556 
 7846      545F474C 
 7846      53435F52 
 7846      4541445F 
 7847              	.LASF125:
 7848 15f6 4359424C 		.ascii	"CYBLE_GATT_XCNHG_MTU_REQ\000"
 7848      455F4741 
 7848      54545F58 
 7848      434E4847 
 7848      5F4D5455 
 7849              	.LASF96:
 7850 160f 4359424C 		.ascii	"CYBLE_ERROR_NO_DEVICE_ENTITY\000"
 7850      455F4552 
 7850      524F525F 
 7850      4E4F5F44 
 7850      45564943 
 7851              	.LASF58:
 7852 162c 4359424C 		.ascii	"CYBLE_EVT_GATTC_READ_BLOB_RSP\000"
 7852      455F4556 
 7852      545F4741 
 7852      5454435F 
 7852      52454144 
 7853              	.LASF449:
 7854 164a 4359424C 		.ascii	"CYBLE_EVT_HTSS_INDICATION_DISABLED\000"
 7854      455F4556 
 7854      545F4854 
 7854      53535F49 
 7854      4E444943 
 7855              	.LASF528:
 7856 166d 4359424C 		.ascii	"CYBLE_EVT_RTUSC_READ_CHAR_RESPONSE\000"
 7856      455F4556 
ARM GAS  C:\Users\User\AppData\Local\Temp\ccmH1EJa.s 			page 174


 7856      545F5254 
 7856      5553435F 
 7856      52454144 
 7857              	.LASF648:
 7858 1690 6379426C 		.ascii	"cyBle_eventHandlerFlag\000"
 7858      655F6576 
 7858      656E7448 
 7858      616E646C 
 7858      6572466C 
 7859              	.LASF65:
 7860 16a7 4359424C 		.ascii	"CYBLE_EVT_GATTC_EXEC_WRITE_RSP\000"
 7860      455F4556 
 7860      545F4741 
 7860      5454435F 
 7860      45584543 
 7861              	.LASF173:
 7862 16c6 4359424C 		.ascii	"CYBLE_GATT_ERR_HEART_RATE_CONTROL_POINT_NOT_SUPPORT"
 7862      455F4741 
 7862      54545F45 
 7862      52525F48 
 7862      45415254 
 7863 16f9 454400   		.ascii	"ED\000"
 7864              	.LASF569:
 7865 16fc 4359424C 		.ascii	"CYBLE_EVT_WSSS_INDICATION_CONFIRMED\000"
 7865      455F4556 
 7865      545F5753 
 7865      53535F49 
 7865      4E444943 
 7866              	.LASF165:
 7867 1720 4359424C 		.ascii	"CYBLE_GATT_ERR_ATTRIBUTE_NOT_LONG\000"
 7867      455F4741 
 7867      54545F45 
 7867      52525F41 
 7867      54545249 
 7868              	.LASF390:
 7869 1742 4359424C 		.ascii	"CYBLE_EVT_CTSC_WRITE_DESCR_RESPONSE\000"
 7869      455F4556 
 7869      545F4354 
 7869      53435F57 
 7869      52495445 
 7870              	.LASF488:
 7871 1766 4359424C 		.ascii	"CYBLE_EVT_OTSC_INDICATION\000"
 7871      455F4556 
 7871      545F4F54 
 7871      53435F49 
 7871      4E444943 
 7872              	.LASF584:
 7873 1780 4359424C 		.ascii	"CYBLE_CLIENT_STATE_SRVC_DISCOVERING\000"
 7873      455F434C 
 7873      49454E54 
 7873      5F535441 
 7873      54455F53 
 7874              	.LASF542:
 7875 17a4 4359424C 		.ascii	"CYBLE_EVT_UDSS_INDICATION_DISABLED\000"
 7875      455F4556 
 7875      545F5544 
 7875      53535F49 
ARM GAS  C:\Users\User\AppData\Local\Temp\ccmH1EJa.s 			page 175


 7875      4E444943 
 7876              	.LASF624:
 7877 17c7 64697363 		.ascii	"discCharInfo\000"
 7877      43686172 
 7877      496E666F 
 7877      00
 7878              	.LASF70:
 7879 17d4 4359424C 		.ascii	"CYBLE_EVT_GATTC_STOP_CMD_COMPLETE\000"
 7879      455F4556 
 7879      545F4741 
 7879      5454435F 
 7879      53544F50 
 7880              	.LASF364:
 7881 17f6 4359424C 		.ascii	"CYBLE_EVT_CPSS_CHAR_WRITE\000"
 7881      455F4556 
 7881      545F4350 
 7881      53535F43 
 7881      4841525F 
 7882              	.LASF438:
 7883 1810 4359424C 		.ascii	"CYBLE_EVT_HRSS_ENERGY_EXPENDED_RESET\000"
 7883      455F4556 
 7883      545F4852 
 7883      53535F45 
 7883      4E455247 
 7884              	.LASF189:
 7885 1835 4359424C 		.ascii	"CYBLE_GATT_ERR_ANCS_ACTION_FAILED\000"
 7885      455F4741 
 7885      54545F45 
 7885      52525F41 
 7885      4E43535F 
 7886              	.LASF600:
 7887 1857 61747472 		.ascii	"attrSize\000"
 7887      53697A65 
 7887      00
 7888              	.LASF394:
 7889 1860 4359424C 		.ascii	"CYBLE_EVT_ESSS_NOTIFICATION_DISABLED\000"
 7889      455F4556 
 7889      545F4553 
 7889      53535F4E 
 7889      4F544946 
 7890              	.LASF236:
 7891 1885 4359424C 		.ascii	"CYBLE_GATTS_DB_T\000"
 7891      455F4741 
 7891      5454535F 
 7891      44425F54 
 7891      00
 7892              	.LASF483:
 7893 1896 4359424C 		.ascii	"CYBLE_EVT_OTSS_INDICATION_ENABLED\000"
 7893      455F4556 
 7893      545F4F54 
 7893      53535F49 
 7893      4E444943 
 7894              	.LASF334:
 7895 18b8 4359424C 		.ascii	"CYBLE_EVT_BLSS_NOTIFICATION_ENABLED\000"
 7895      455F4556 
 7895      545F424C 
 7895      53535F4E 
ARM GAS  C:\Users\User\AppData\Local\Temp\ccmH1EJa.s 			page 176


 7895      4F544946 
 7896              	.LASF436:
 7897 18dc 4359424C 		.ascii	"CYBLE_EVT_HPSC_WRITE_DESCR_RESPONSE\000"
 7897      455F4556 
 7897      545F4850 
 7897      53435F57 
 7897      52495445 
 7898              	.LASF124:
 7899 1900 4359424C 		.ascii	"CYBLE_GATT_ERROR_RSP\000"
 7899      455F4741 
 7899      54545F45 
 7899      52524F52 
 7899      5F525350 
 7900              	.LASF116:
 7901 1915 4359424C 		.ascii	"CYBLE_ERROR_CONTROLLER_BUSY\000"
 7901      455F4552 
 7901      524F525F 
 7901      434F4E54 
 7901      524F4C4C 
 7902              	.LASF90:
 7903 1931 4359424C 		.ascii	"CYBLE_ERROR_INVALID_PARAMETER\000"
 7903      455F4552 
 7903      524F525F 
 7903      494E5641 
 7903      4C49445F 
 7904              	.LASF401:
 7905 194f 4359424C 		.ascii	"CYBLE_EVT_ESSC_INDICATION\000"
 7905      455F4556 
 7905      545F4553 
 7905      53435F49 
 7905      4E444943 
 7906              	.LASF308:
 7907 1969 4359424C 		.ascii	"CYBLE_EVT_ANCSC_WRITE_DESCR_RESPONSE\000"
 7907      455F4556 
 7907      545F414E 
 7907      4353435F 
 7907      57524954 
 7908              	.LASF524:
 7909 198e 4359424C 		.ascii	"CYBLE_EVT_RSCSC_WRITE_CHAR_RESPONSE\000"
 7909      455F4556 
 7909      545F5253 
 7909      4353435F 
 7909      57524954 
 7910              	.LASF439:
 7911 19b2 4359424C 		.ascii	"CYBLE_EVT_HRSS_NOTIFICATION_ENABLED\000"
 7911      455F4556 
 7911      545F4852 
 7911      53535F4E 
 7911      4F544946 
 7912              	.LASF540:
 7913 19d6 4359424C 		.ascii	"CYBLE_EVT_TPSC_WRITE_DESCR_RESPONSE\000"
 7913      455F4556 
 7913      545F5450 
 7913      53435F57 
 7913      52495445 
 7914              	.LASF288:
 7915 19fa 4359424C 		.ascii	"CYBLE_EVT_AIOSS_NOTIFICATION_ENABLED\000"
ARM GAS  C:\Users\User\AppData\Local\Temp\ccmH1EJa.s 			page 177


 7915      455F4556 
 7915      545F4149 
 7915      4F53535F 
 7915      4E4F5449 
 7916              	.LASF373:
 7917 1a1f 4359424C 		.ascii	"CYBLE_EVT_CSCSS_NOTIFICATION_DISABLED\000"
 7917      455F4556 
 7917      545F4353 
 7917      4353535F 
 7917      4E4F5449 
 7918              	.LASF384:
 7919 1a45 4359424C 		.ascii	"CYBLE_EVT_CTSS_NOTIFICATION_ENABLED\000"
 7919      455F4556 
 7919      545F4354 
 7919      53535F4E 
 7919      4F544946 
 7920              	.LASF518:
 7921 1a69 4359424C 		.ascii	"CYBLE_EVT_RSCSS_INDICATION_DISABLED\000"
 7921      455F4556 
 7921      545F5253 
 7921      4353535F 
 7921      494E4449 
 7922              	.LASF606:
 7923 1a8d 4379426C 		.ascii	"CyBle_HtssSetCharacteristicDescriptor\000"
 7923      655F4874 
 7923      73735365 
 7923      74436861 
 7923      72616374 
 7924              	.LASF560:
 7925 1ab3 4359424C 		.ascii	"CYBLE_EVT_WPTSS_WRITE_CHAR\000"
 7925      455F4556 
 7925      545F5750 
 7925      5453535F 
 7925      57524954 
 7926              	.LASF467:
 7927 1ace 4359424C 		.ascii	"CYBLE_EVT_LLSS_WRITE_CHAR_REQ\000"
 7927      455F4556 
 7927      545F4C4C 
 7927      53535F57 
 7927      52495445 
 7928              	.LASF92:
 7929 1aec 4359424C 		.ascii	"CYBLE_ERROR_MEMORY_ALLOCATION_FAILED\000"
 7929      455F4552 
 7929      524F525F 
 7929      4D454D4F 
 7929      52595F41 
 7930              	.LASF444:
 7931 1b11 4359424C 		.ascii	"CYBLE_EVT_HRSC_READ_DESCR_RESPONSE\000"
 7931      455F4556 
 7931      545F4852 
 7931      53435F52 
 7931      4541445F 
 7932              	.LASF632:
 7933 1b34 77726974 		.ascii	"writeReqParam\000"
 7933      65526571 
 7933      50617261 
 7933      6D00
ARM GAS  C:\Users\User\AppData\Local\Temp\ccmH1EJa.s 			page 178


 7934              	.LASF630:
 7935 1b42 6C6F6344 		.ascii	"locDescIndex\000"
 7935      65736349 
 7935      6E646578 
 7935      00
 7936              	.LASF259:
 7937 1b4f 4359424C 		.ascii	"CYBLE_HTSS_CHAR_T\000"
 7937      455F4854 
 7937      53535F43 
 7937      4841525F 
 7937      5400
 7938              	.LASF372:
 7939 1b61 4359424C 		.ascii	"CYBLE_EVT_CSCSS_NOTIFICATION_ENABLED\000"
 7939      455F4556 
 7939      545F4353 
 7939      4353535F 
 7939      4E4F5449 
 7940              	.LASF601:
 7941 1b86 61747472 		.ascii	"attrValue\000"
 7941      56616C75 
 7941      6500
 7942              	.LASF336:
 7943 1b90 4359424C 		.ascii	"CYBLE_EVT_BLSC_INDICATION\000"
 7943      455F4556 
 7943      545F424C 
 7943      53435F49 
 7943      4E444943 
 7944              	.LASF432:
 7945 1baa 4359424C 		.ascii	"CYBLE_EVT_HPSS_CHAR_WRITE\000"
 7945      455F4556 
 7945      545F4850 
 7945      53535F43 
 7945      4841525F 
 7946              	.LASF151:
 7947 1bc4 4359424C 		.ascii	"CYBLE_GATT_SIGNED_WRITE_CMD\000"
 7947      455F4741 
 7947      54545F53 
 7947      49474E45 
 7947      445F5752 
 7948              	.LASF424:
 7949 1be0 4359424C 		.ascii	"CYBLE_EVT_HIDSS_REPORT_CHAR_WRITE\000"
 7949      455F4556 
 7949      545F4849 
 7949      4453535F 
 7949      5245504F 
 7950              	.LASF324:
 7951 1c02 4359424C 		.ascii	"CYBLE_EVT_BCSS_INDICATION_ENABLED\000"
 7951      455F4556 
 7951      545F4243 
 7951      53535F49 
 7951      4E444943 
 7952              	.LASF180:
 7953 1c24 4359424C 		.ascii	"CYBLE_GATTS_ERR_CCCD_IMPROPERLY_CONFIGURED\000"
 7953      455F4741 
 7953      5454535F 
 7953      4552525F 
 7953      43434344 
ARM GAS  C:\Users\User\AppData\Local\Temp\ccmH1EJa.s 			page 179


 7954              	.LASF564:
 7955 1c4f 4359424C 		.ascii	"CYBLE_EVT_WPTSC_READ_CHAR_RESPONSE\000"
 7955      455F4556 
 7955      545F5750 
 7955      5453435F 
 7955      52454144 
 7956              	.LASF147:
 7957 1c72 4359424C 		.ascii	"CYBLE_GATT_EXECUTE_WRITE_RSP\000"
 7957      455F4741 
 7957      54545F45 
 7957      58454355 
 7957      54455F57 
 7958              	.LASF117:
 7959 1c8f 4359424C 		.ascii	"CYBLE_ERROR_MAX\000"
 7959      455F4552 
 7959      524F525F 
 7959      4D415800 
 7960              	.LASF479:
 7961 1c9f 4359424C 		.ascii	"CYBLE_EVT_LNSC_WRITE_CHAR_RESPONSE\000"
 7961      455F4556 
 7961      545F4C4E 
 7961      53435F57 
 7961      52495445 
 7962              	.LASF74:
 7963 1cc2 4359424C 		.ascii	"CYBLE_EVT_L2CAP_CONN_PARAM_UPDATE_RSP\000"
 7963      455F4556 
 7963      545F4C32 
 7963      4341505F 
 7963      434F4E4E 
 7964              	.LASF86:
 7965 1ce8 4359424C 		.ascii	"CYBLE_EVT_HCI_PKT\000"
 7965      455F4556 
 7965      545F4843 
 7965      495F504B 
 7965      5400
 7966              	.LASF545:
 7967 1cfa 4359424C 		.ascii	"CYBLE_EVT_UDSS_NOTIFICATION_DISABLED\000"
 7967      455F4556 
 7967      545F5544 
 7967      53535F4E 
 7967      4F544946 
 7968              	.LASF383:
 7969 1d1f 4359424C 		.ascii	"CYBLE_EVT_CSCSC_WRITE_DESCR_RESPONSE\000"
 7969      455F4556 
 7969      545F4353 
 7969      4353435F 
 7969      57524954 
 7970              	.LASF658:
 7971 1d44 474E5520 		.ascii	"GNU C11 5.4.1 20160609 (release) [ARM/embedded-5-br"
 7971      43313120 
 7971      352E342E 
 7971      31203230 
 7971      31363036 
 7972 1d77 616E6368 		.ascii	"anch revision 237715] -mcpu=cortex-m0 -mthumb -g -O"
 7972      20726576 
 7972      6973696F 
 7972      6E203233 
ARM GAS  C:\Users\User\AppData\Local\Temp\ccmH1EJa.s 			page 180


 7972      37373135 
 7973 1daa 30202D66 		.ascii	"0 -ffunction-sections -ffat-lto-objects\000"
 7973      66756E63 
 7973      74696F6E 
 7973      2D736563 
 7973      74696F6E 
 7974              	.LASF547:
 7975 1dd2 4359424C 		.ascii	"CYBLE_EVT_UDSS_WRITE_CHAR\000"
 7975      455F4556 
 7975      545F5544 
 7975      53535F57 
 7975      52495445 
 7976              	.LASF510:
 7977 1dec 4359424C 		.ascii	"CYBLE_EVT_PLXSC_READ_CHAR_RESPONSE\000"
 7977      455F4556 
 7977      545F504C 
 7977      5853435F 
 7977      52454144 
 7978              	.LASF247:
 7979 1e0f 4359424C 		.ascii	"CYBLE_DISC_DESCR_INFO_T\000"
 7979      455F4449 
 7979      53435F44 
 7979      45534352 
 7979      5F494E46 
 7980              	.LASF208:
 7981 1e27 73746172 		.ascii	"startHandle\000"
 7981      7448616E 
 7981      646C6500 
 7982              	.LASF174:
 7983 1e33 4359424C 		.ascii	"CYBLE_GATT_ERR_USER_DATA_ACCESS_NOT_PERMITTED\000"
 7983      455F4741 
 7983      54545F45 
 7983      52525F55 
 7983      5345525F 
 7984              	.LASF622:
 7985 1e61 4379426C 		.ascii	"CyBle_HtssConfirmationEventHandler\000"
 7985      655F4874 
 7985      7373436F 
 7985      6E666972 
 7985      6D617469 
 7986              	.LASF594:
 7987 1e84 4359424C 		.ascii	"CYBLE_SRVI_GATT\000"
 7987      455F5352 
 7987      56495F47 
 7987      41545400 
 7988              	.LASF494:
 7989 1e94 4359424C 		.ascii	"CYBLE_EVT_OTSC_ERROR_RESPONSE\000"
 7989      455F4556 
 7989      545F4F54 
 7989      53435F45 
 7989      52524F52 
 7990              	.LASF28:
 7991 1eb2 4359424C 		.ascii	"CYBLE_EVT_GAP_AUTH_COMPLETE\000"
 7991      455F4556 
 7991      545F4741 
 7991      505F4155 
 7991      54485F43 
ARM GAS  C:\Users\User\AppData\Local\Temp\ccmH1EJa.s 			page 181


 7992              	.LASF500:
 7993 1ece 4359424C 		.ascii	"CYBLE_EVT_PASSC_READ_DESCR_RESPONSE\000"
 7993      455F4556 
 7993      545F5041 
 7993      5353435F 
 7993      52454144 
 7994              	.LASF404:
 7995 1ef2 4359424C 		.ascii	"CYBLE_EVT_ESSC_READ_DESCR_RESPONSE\000"
 7995      455F4556 
 7995      545F4553 
 7995      53435F52 
 7995      4541445F 
 7996              	.LASF29:
 7997 1f15 4359424C 		.ascii	"CYBLE_EVT_GAP_AUTH_FAILED\000"
 7997      455F4556 
 7997      545F4741 
 7997      505F4155 
 7997      54485F46 
 7998              	.LASF423:
 7999 1f2f 4359424C 		.ascii	"CYBLE_EVT_HIDSS_EXIT_SUSPEND\000"
 7999      455F4556 
 7999      545F4849 
 7999      4453535F 
 7999      45584954 
 8000              	.LASF122:
 8001 1f4c 4359424C 		.ascii	"CYBLE_ERROR_STACK_BUSY\000"
 8001      455F4552 
 8001      524F525F 
 8001      53544143 
 8001      4B5F4255 
 8002              	.LASF140:
 8003 1f63 4359424C 		.ascii	"CYBLE_GATT_READ_BY_GROUP_RSP\000"
 8003      455F4741 
 8003      54545F52 
 8003      4541445F 
 8003      42595F47 
 8004              	.LASF93:
 8005 1f80 4359424C 		.ascii	"CYBLE_ERROR_INSUFFICIENT_RESOURCES\000"
 8005      455F4552 
 8005      524F525F 
 8005      494E5355 
 8005      46464943 
 8006              	.LASF516:
 8007 1fa3 4359424C 		.ascii	"CYBLE_EVT_RSCSS_NOTIFICATION_DISABLED\000"
 8007      455F4556 
 8007      545F5253 
 8007      4353535F 
 8007      4E4F5449 
 8008              	.LASF178:
 8009 1fc9 4359424C 		.ascii	"CYBLE_GATT_ERR_OP_CODE_NOT_SUPPORTED\000"
 8009      455F4741 
 8009      54545F45 
 8009      52525F4F 
 8009      505F434F 
 8010              	.LASF427:
 8011 1fee 4359424C 		.ascii	"CYBLE_EVT_HIDSC_WRITE_CHAR_RESPONSE\000"
 8011      455F4556 
ARM GAS  C:\Users\User\AppData\Local\Temp\ccmH1EJa.s 			page 182


 8011      545F4849 
 8011      4453435F 
 8011      57524954 
 8012              	.LASF5:
 8013 2012 6C6F6E67 		.ascii	"long unsigned int\000"
 8013      20756E73 
 8013      69676E65 
 8013      6420696E 
 8013      7400
 8014              	.LASF133:
 8015 2024 4359424C 		.ascii	"CYBLE_GATT_READ_REQ\000"
 8015      455F4741 
 8015      54545F52 
 8015      4541445F 
 8015      52455100 
 8016              	.LASF463:
 8017 2038 4359424C 		.ascii	"CYBLE_EVT_IPSC_READ_DESCR_RESPONSE\000"
 8017      455F4556 
 8017      545F4950 
 8017      53435F52 
 8017      4541445F 
 8018              	.LASF458:
 8019 205b 4359424C 		.ascii	"CYBLE_EVT_IASS_WRITE_CHAR_CMD\000"
 8019      455F4556 
 8019      545F4941 
 8019      53535F57 
 8019      52495445 
 8020              	.LASF493:
 8021 2079 4359424C 		.ascii	"CYBLE_EVT_OTSC_WRITE_DESCR_RESPONSE\000"
 8021      455F4556 
 8021      545F4F54 
 8021      53435F57 
 8021      52495445 
 8022              	.LASF603:
 8023 209d 6C6F6348 		.ascii	"locHandleValuePair\000"
 8023      616E646C 
 8023      6556616C 
 8023      75655061 
 8023      697200
 8024              	.LASF659:
 8025 20b0 47656E65 		.ascii	"Generated_Source\\PSoC4\\BLE_hts.c\000"
 8025      72617465 
 8025      645F536F 
 8025      75726365 
 8025      5C50536F 
 8026              	.LASF498:
 8027 20d1 4359424C 		.ascii	"CYBLE_EVT_PASSC_NOTIFICATION\000"
 8027      455F4556 
 8027      545F5041 
 8027      5353435F 
 8027      4E4F5449 
 8028              	.LASF113:
 8029 20ee 4359424C 		.ascii	"CYBLE_ERROR_UNSUPPORTED_FEATURE_OR_PARAMETER_VALUE\000"
 8029      455F4552 
 8029      524F525F 
 8029      554E5355 
 8029      50504F52 
ARM GAS  C:\Users\User\AppData\Local\Temp\ccmH1EJa.s 			page 183


 8030              	.LASF626:
 8031 2121 6874734C 		.ascii	"htsLastEndHandle\000"
 8031      61737445 
 8031      6E644861 
 8031      6E646C65 
 8031      00
 8032              	.LASF557:
 8033 2132 4359424C 		.ascii	"CYBLE_EVT_WPTSS_INDICATION_ENABLED\000"
 8033      455F4556 
 8033      545F5750 
 8033      5453535F 
 8033      494E4449 
 8034              	.LASF148:
 8035 2155 4359424C 		.ascii	"CYBLE_GATT_HANDLE_VALUE_NTF\000"
 8035      455F4741 
 8035      54545F48 
 8035      414E444C 
 8035      455F5641 
 8036              	.LASF504:
 8037 2171 4359424C 		.ascii	"CYBLE_EVT_PLXSS_NOTIFICATION_DISABLED\000"
 8037      455F4556 
 8037      545F504C 
 8037      5853535F 
 8037      4E4F5449 
 8038              	.LASF314:
 8039 2197 4359424C 		.ascii	"CYBLE_EVT_ANSC_READ_CHAR_RESPONSE\000"
 8039      455F4556 
 8039      545F414E 
 8039      53435F52 
 8039      4541445F 
 8040              	.LASF103:
 8041 21b9 4359424C 		.ascii	"CYBLE_ERROR_L2CAP_PSM_ALREADY_REGISTERED\000"
 8041      455F4552 
 8041      524F525F 
 8041      4C324341 
 8041      505F5053 
 8042              	.LASF195:
 8043 21e2 4359424C 		.ascii	"CYBLE_UUID128_T\000"
 8043      455F5555 
 8043      49443132 
 8043      385F5400 
 8044              	.LASF451:
 8045 21f2 4359424C 		.ascii	"CYBLE_EVT_HTSS_CHAR_WRITE\000"
 8045      455F4556 
 8045      545F4854 
 8045      53535F43 
 8045      4841525F 
 8046              	.LASF625:
 8047 220c 6379426C 		.ascii	"cyBle_htscCharUuid\000"
 8047      655F6874 
 8047      73634368 
 8047      61725575 
 8047      696400
 8048              	.LASF229:
 8049 221f 61747456 		.ascii	"attValueUuid\000"
 8049      616C7565 
 8049      55756964 
ARM GAS  C:\Users\User\AppData\Local\Temp\ccmH1EJa.s 			page 184


 8049      00
 8050              	.LASF186:
 8051 222c 4359424C 		.ascii	"CYBLE_GATT_ERR_ANCS_UNKNOWN_COMMAND\000"
 8051      455F4741 
 8051      54545F45 
 8051      52525F41 
 8051      4E43535F 
 8052              	.LASF318:
 8053 2250 4359424C 		.ascii	"CYBLE_EVT_BASS_NOTIFICATION_ENABLED\000"
 8053      455F4556 
 8053      545F4241 
 8053      53535F4E 
 8053      4F544946 
 8054              	.LASF392:
 8055 2274 4359424C 		.ascii	"CYBLE_EVT_DISC_READ_CHAR_RESPONSE\000"
 8055      455F4556 
 8055      545F4449 
 8055      53435F52 
 8055      4541445F 
 8056              	.LASF391:
 8057 2296 4359424C 		.ascii	"CYBLE_EVT_CTSC_WRITE_CHAR_RESPONSE\000"
 8057      455F4556 
 8057      545F4354 
 8057      53435F57 
 8057      52495445 
 8058              	.LASF497:
 8059 22b9 4359424C 		.ascii	"CYBLE_EVT_PASSS_WRITE_CHAR\000"
 8059      455F4556 
 8059      545F5041 
 8059      5353535F 
 8059      57524954 
 8060              	.LASF652:
 8061 22d4 6379426C 		.ascii	"cyBle_htss\000"
 8061      655F6874 
 8061      737300
 8062              	.LASF368:
 8063 22df 4359424C 		.ascii	"CYBLE_EVT_CPSC_WRITE_CHAR_RESPONSE\000"
 8063      455F4556 
 8063      545F4350 
 8063      53435F57 
 8063      52495445 
 8064              	.LASF605:
 8065 2302 4379426C 		.ascii	"CyBle_HtssGetCharacteristicValue\000"
 8065      655F4874 
 8065      73734765 
 8065      74436861 
 8065      72616374 
 8066              	.LASF511:
 8067 2323 4359424C 		.ascii	"CYBLE_EVT_PLXSC_WRITE_CHAR_RESPONSE\000"
 8067      455F4556 
 8067      545F504C 
 8067      5853435F 
 8067      57524954 
 8068              	.LASF251:
 8069 2347 4359424C 		.ascii	"CYBLE_HTS_MEASURE_INTERVAL\000"
 8069      455F4854 
 8069      535F4D45 
ARM GAS  C:\Users\User\AppData\Local\Temp\ccmH1EJa.s 			page 185


 8069      41535552 
 8069      455F494E 
 8070              	.LASF34:
 8071 2362 4359424C 		.ascii	"CYBLE_EVT_GAP_CONNECTION_UPDATE_COMPLETE\000"
 8071      455F4556 
 8071      545F4741 
 8071      505F434F 
 8071      4E4E4543 
 8072              	.LASF353:
 8073 238b 4359424C 		.ascii	"CYBLE_EVT_CGMSC_READ_CHAR_RESPONSE\000"
 8073      455F4556 
 8073      545F4347 
 8073      4D53435F 
 8073      52454144 
 8074              	.LASF194:
 8075 23ae 4359424C 		.ascii	"CYBLE_UUID16\000"
 8075      455F5555 
 8075      49443136 
 8075      00
 8076              	.LASF253:
 8077 23bb 4359424C 		.ascii	"CYBLE_HTS_CHAR_INDEX_T\000"
 8077      455F4854 
 8077      535F4348 
 8077      41525F49 
 8077      4E444558 
 8078              	.LASF381:
 8079 23d2 4359424C 		.ascii	"CYBLE_EVT_CSCSC_WRITE_CHAR_RESPONSE\000"
 8079      455F4556 
 8079      545F4353 
 8079      4353435F 
 8079      57524954 
 8080              	.LASF78:
 8081 23f6 4359424C 		.ascii	"CYBLE_EVT_L2CAP_CBFC_DISCONN_IND\000"
 8081      455F4556 
 8081      545F4C32 
 8081      4341505F 
 8081      43424643 
 8082              	.LASF377:
 8083 2417 4359424C 		.ascii	"CYBLE_EVT_CSCSS_CHAR_WRITE\000"
 8083      455F4556 
 8083      545F4353 
 8083      4353535F 
 8083      43484152 
 8084              	.LASF487:
 8085 2432 4359424C 		.ascii	"CYBLE_EVT_OTSS_WRITE_DESCR\000"
 8085      455F4556 
 8085      545F4F54 
 8085      53535F57 
 8085      52495445 
 8086              	.LASF591:
 8087 244d 4359424C 		.ascii	"CYBLE_CLIENT_STATE_DISCONNECTED\000"
 8087      455F434C 
 8087      49454E54 
 8087      5F535441 
 8087      54455F44 
 8088              	.LASF506:
 8089 246d 4359424C 		.ascii	"CYBLE_EVT_PLXSS_INDICATION_DISABLED\000"
ARM GAS  C:\Users\User\AppData\Local\Temp\ccmH1EJa.s 			page 186


 8089      455F4556 
 8089      545F504C 
 8089      5853535F 
 8089      494E4449 
 8090              	.LASF523:
 8091 2491 4359424C 		.ascii	"CYBLE_EVT_RSCSC_READ_CHAR_RESPONSE\000"
 8091      455F4556 
 8091      545F5253 
 8091      4353435F 
 8091      52454144 
 8092              	.LASF26:
 8093 24b4 4359424C 		.ascii	"CYBLE_EVT_GAP_PASSKEY_ENTRY_REQUEST\000"
 8093      455F4556 
 8093      545F4741 
 8093      505F5041 
 8093      53534B45 
 8094              	.LASF433:
 8095 24d8 4359424C 		.ascii	"CYBLE_EVT_HPSC_NOTIFICATION\000"
 8095      455F4556 
 8095      545F4850 
 8095      53435F4E 
 8095      4F544946 
 8096              	.LASF362:
 8097 24f4 4359424C 		.ascii	"CYBLE_EVT_CPSS_BROADCAST_ENABLED\000"
 8097      455F4556 
 8097      545F4350 
 8097      53535F42 
 8097      524F4144 
 8098              	.LASF464:
 8099 2515 4359424C 		.ascii	"CYBLE_EVT_IPSC_WRITE_DESCR_RESPONSE\000"
 8099      455F4556 
 8099      545F4950 
 8099      53435F57 
 8099      52495445 
 8100              	.LASF414:
 8101 2539 4359424C 		.ascii	"CYBLE_EVT_GLSC_READ_CHAR_RESPONSE\000"
 8101      455F4556 
 8101      545F474C 
 8101      53435F52 
 8101      4541445F 
 8102              	.LASF581:
 8103 255b 4359424C 		.ascii	"CYBLE_STATE_DISCONNECTED\000"
 8103      455F5354 
 8103      4154455F 
 8103      44495343 
 8103      4F4E4E45 
 8104              	.LASF513:
 8105 2574 4359424C 		.ascii	"CYBLE_EVT_PLXSC_WRITE_DESCR_RESPONSE\000"
 8105      455F4556 
 8105      545F504C 
 8105      5853435F 
 8105      57524954 
 8106              	.LASF430:
 8107 2599 4359424C 		.ascii	"CYBLE_EVT_HPSS_NOTIFICATION_ENABLED\000"
 8107      455F4556 
 8107      545F4850 
 8107      53535F4E 
ARM GAS  C:\Users\User\AppData\Local\Temp\ccmH1EJa.s 			page 187


 8107      4F544946 
 8108              	.LASF452:
 8109 25bd 4359424C 		.ascii	"CYBLE_EVT_HTSC_NOTIFICATION\000"
 8109      455F4556 
 8109      545F4854 
 8109      53435F4E 
 8109      4F544946 
 8110              	.LASF6:
 8111 25d9 6C6F6E67 		.ascii	"long long int\000"
 8111      206C6F6E 
 8111      6720696E 
 8111      7400
 8112              	.LASF538:
 8113 25e7 4359424C 		.ascii	"CYBLE_EVT_TPSC_READ_CHAR_RESPONSE\000"
 8113      455F4556 
 8113      545F5450 
 8113      53435F52 
 8113      4541445F 
 8114              	.LASF281:
 8115 2609 4359424C 		.ascii	"CYBLE_EVT_GATTC_CHAR_DUPLICATION\000"
 8115      455F4556 
 8115      545F4741 
 8115      5454435F 
 8115      43484152 
 8116              	.LASF409:
 8117 262a 4359424C 		.ascii	"CYBLE_EVT_GLSS_NOTIFICATION_ENABLED\000"
 8117      455F4556 
 8117      545F474C 
 8117      53535F4E 
 8117      4F544946 
 8118              	.LASF655:
 8119 264e 6379426C 		.ascii	"cyBle_clientState\000"
 8119      655F636C 
 8119      69656E74 
 8119      53746174 
 8119      6500
 8120              	.LASF485:
 8121 2660 4359424C 		.ascii	"CYBLE_EVT_OTSS_INDICATION_CONFIRMED\000"
 8121      455F4556 
 8121      545F4F54 
 8121      53535F49 
 8121      4E444943 
 8122              	.LASF163:
 8123 2684 4359424C 		.ascii	"CYBLE_GATT_ERR_PREPARE_WRITE_QUEUE_FULL\000"
 8123      455F4741 
 8123      54545F45 
 8123      52525F50 
 8123      52455041 
 8124              	.LASF434:
 8125 26ac 4359424C 		.ascii	"CYBLE_EVT_HPSC_READ_CHAR_RESPONSE\000"
 8125      455F4556 
 8125      545F4850 
 8125      53435F52 
 8125      4541445F 
 8126              	.LASF104:
 8127 26ce 4359424C 		.ascii	"CYBLE_ERROR_L2CAP_PSM_NOT_REGISTERED\000"
 8127      455F4552 
ARM GAS  C:\Users\User\AppData\Local\Temp\ccmH1EJa.s 			page 188


 8127      524F525F 
 8127      4C324341 
 8127      505F5053 
 8128              	.LASF94:
 8129 26f3 4359424C 		.ascii	"CYBLE_ERROR_OOB_NOT_AVAILABLE\000"
 8129      455F4552 
 8129      524F525F 
 8129      4F4F425F 
 8129      4E4F545F 
 8130              	.LASF345:
 8131 2711 4359424C 		.ascii	"CYBLE_EVT_CGMSS_INDICATION_ENABLED\000"
 8131      455F4556 
 8131      545F4347 
 8131      4D53535F 
 8131      494E4449 
 8132              	.LASF616:
 8133 2734 6C6F7765 		.ascii	"lowerValue\000"
 8133      7256616C 
 8133      756500
 8134              	.LASF13:
 8135 273f 646F7562 		.ascii	"double\000"
 8135      6C6500
 8136              	.LASF109:
 8137 2746 4359424C 		.ascii	"CYBLE_ERROR_DEVICE_ALREADY_EXISTS\000"
 8137      455F4552 
 8137      524F525F 
 8137      44455649 
 8137      43455F41 
 8138              	.LASF396:
 8139 2768 4359424C 		.ascii	"CYBLE_EVT_ESSS_INDICATION_DISABLED\000"
 8139      455F4556 
 8139      545F4553 
 8139      53535F49 
 8139      4E444943 
 8140              	.LASF256:
 8141 278b 4359424C 		.ascii	"CYBLE_HTS_DESCR_COUNT\000"
 8141      455F4854 
 8141      535F4445 
 8141      5343525F 
 8141      434F554E 
 8142              	.LASF84:
 8143 27a1 4359424C 		.ascii	"CYBLE_EVT_PENDING_FLASH_WRITE\000"
 8143      455F4556 
 8143      545F5045 
 8143      4E44494E 
 8143      475F464C 
 8144              	.LASF166:
 8145 27bf 4359424C 		.ascii	"CYBLE_GATT_ERR_INSUFFICIENT_ENC_KEY_SIZE\000"
 8145      455F4741 
 8145      54545F45 
 8145      52525F49 
 8145      4E535546 
 8146              	.LASF555:
 8147 27e8 4359424C 		.ascii	"CYBLE_EVT_WPTSS_NOTIFICATION_ENABLED\000"
 8147      455F4556 
 8147      545F5750 
 8147      5453535F 
ARM GAS  C:\Users\User\AppData\Local\Temp\ccmH1EJa.s 			page 189


 8147      4E4F5449 
 8148              	.LASF263:
 8149 280d 4359424C 		.ascii	"CYBLE_HTSC_CHAR_T\000"
 8149      455F4854 
 8149      53435F43 
 8149      4841525F 
 8149      5400
 8150              	.LASF215:
 8151 281f 6F70436F 		.ascii	"opCode\000"
 8151      646500
 8152              	.LASF191:
 8153 2826 4359424C 		.ascii	"CYBLE_GATT_ERR_PROCEDURE_ALREADY_IN_PROGRESS\000"
 8153      455F4741 
 8153      54545F45 
 8153      52525F50 
 8153      524F4345 
 8154              	.LASF481:
 8155 2853 4359424C 		.ascii	"CYBLE_EVT_LNSC_WRITE_DESCR_RESPONSE\000"
 8155      455F4556 
 8155      545F4C4E 
 8155      53435F57 
 8155      52495445 
 8156              	.LASF41:
 8157 2877 4359424C 		.ascii	"CYBLE_EVT_GAP_ENHANCE_CONN_COMPLETE\000"
 8157      455F4556 
 8157      545F4741 
 8157      505F454E 
 8157      48414E43 
 8158              	.LASF468:
 8159 289b 4359424C 		.ascii	"CYBLE_EVT_LLSC_READ_CHAR_RESPONSE\000"
 8159      455F4556 
 8159      545F4C4C 
 8159      53435F52 
 8159      4541445F 
 8160              	.LASF376:
 8161 28bd 4359424C 		.ascii	"CYBLE_EVT_CSCSS_INDICATION_CONFIRMATION\000"
 8161      455F4556 
 8161      545F4353 
 8161      4353535F 
 8161      494E4449 
 8162              	.LASF106:
 8163 28e5 4359424C 		.ascii	"CYBLE_ERROR_L2CAP_CHANNEL_NOT_FOUND\000"
 8163      455F4552 
 8163      524F525F 
 8163      4C324341 
 8163      505F4348 
 8164              	.LASF651:
 8165 2909 6379426C 		.ascii	"cyBle_gattDB\000"
 8165      655F6761 
 8165      74744442 
 8165      00
 8166              	.LASF97:
 8167 2916 4359424C 		.ascii	"CYBLE_ERROR_REPEATED_ATTEMPTS\000"
 8167      455F4552 
 8167      524F525F 
 8167      52455045 
 8167      41544544 
ARM GAS  C:\Users\User\AppData\Local\Temp\ccmH1EJa.s 			page 190


 8168              	.LASF399:
 8169 2934 4359424C 		.ascii	"CYBLE_EVT_ESSS_DESCR_WRITE\000"
 8169      455F4556 
 8169      545F4553 
 8169      53535F44 
 8169      45534352 
 8170              	.LASF395:
 8171 294f 4359424C 		.ascii	"CYBLE_EVT_ESSS_INDICATION_ENABLED\000"
 8171      455F4556 
 8171      545F4553 
 8171      53535F49 
 8171      4E444943 
 8172              	.LASF12:
 8173 2971 666C6F61 		.ascii	"float\000"
 8173      7400
 8174              	.LASF532:
 8175 2977 4359424C 		.ascii	"CYBLE_EVT_SCPSC_NOTIFICATION\000"
 8175      455F4556 
 8175      545F5343 
 8175      5053435F 
 8175      4E4F5449 
 8176              	.LASF421:
 8177 2994 4359424C 		.ascii	"CYBLE_EVT_HIDSS_REPORT_MODE_ENTER\000"
 8177      455F4556 
 8177      545F4849 
 8177      4453535F 
 8177      5245504F 
 8178              	.LASF400:
 8179 29b6 4359424C 		.ascii	"CYBLE_EVT_ESSC_NOTIFICATION\000"
 8179      455F4556 
 8179      545F4553 
 8179      53435F4E 
 8179      4F544946 
 8180              	.LASF110:
 8181 29d2 4359424C 		.ascii	"CYBLE_ERROR_FLASH_WRITE_NOT_PERMITED\000"
 8181      455F4552 
 8181      524F525F 
 8181      464C4153 
 8181      485F5752 
 8182              	.LASF419:
 8183 29f7 4359424C 		.ascii	"CYBLE_EVT_HIDSS_NOTIFICATION_DISABLED\000"
 8183      455F4556 
 8183      545F4849 
 8183      4453535F 
 8183      4E4F5449 
 8184              	.LASF71:
 8185 2a1d 4359424C 		.ascii	"CYBLE_EVT_GATTS_READ_CHAR_VAL_ACCESS_REQ\000"
 8185      455F4556 
 8185      545F4741 
 8185      5454535F 
 8185      52454144 
 8186              	.LASF307:
 8187 2a46 4359424C 		.ascii	"CYBLE_EVT_ANCSC_READ_DESCR_RESPONSE\000"
 8187      455F4556 
 8187      545F414E 
 8187      4353435F 
 8187      52454144 
ARM GAS  C:\Users\User\AppData\Local\Temp\ccmH1EJa.s 			page 191


 8188              	.LASF608:
 8189 2a6a 4379426C 		.ascii	"CyBle_HtssWriteEventHandler\000"
 8189      655F4874 
 8189      73735772 
 8189      69746545 
 8189      76656E74 
 8190              	.LASF607:
 8191 2a86 4379426C 		.ascii	"CyBle_HtssGetCharacteristicDescriptor\000"
 8191      655F4874 
 8191      73734765 
 8191      74436861 
 8191      72616374 
 8192              	.LASF162:
 8193 2aac 4359424C 		.ascii	"CYBLE_GATT_ERR_INSUFFICIENT_AUTHORIZATION\000"
 8193      455F4741 
 8193      54545F45 
 8193      52525F49 
 8193      4E535546 
 8194              	.LASF654:
 8195 2ad6 6379426C 		.ascii	"cyBle_state\000"
 8195      655F7374 
 8195      61746500 
 8196              	.LASF267:
 8197 2ae2 64657363 		.ascii	"descrIndex\000"
 8197      72496E64 
 8197      657800
 8198              	.LASF206:
 8199 2aed 61747472 		.ascii	"attrHandle\000"
 8199      48616E64 
 8199      6C6500
 8200              	.LASF549:
 8201 2af8 4359424C 		.ascii	"CYBLE_EVT_UDSC_NOTIFICATION\000"
 8201      455F4556 
 8201      545F5544 
 8201      53435F4E 
 8201      4F544946 
 8202              	.LASF563:
 8203 2b14 4359424C 		.ascii	"CYBLE_EVT_WPTSC_WRITE_CHAR_RESPONSE\000"
 8203      455F4556 
 8203      545F5750 
 8203      5453435F 
 8203      57524954 
 8204              	.LASF239:
 8205 2b38 75756964 		.ascii	"uuid\000"
 8205      00
 8206              	.LASF214:
 8207 2b3d 4359424C 		.ascii	"CYBLE_GATTS_WRITE_REQ_PARAM_T\000"
 8207      455F4741 
 8207      5454535F 
 8207      57524954 
 8207      455F5245 
 8208              	.LASF8:
 8209 2b5b 756E7369 		.ascii	"unsigned int\000"
 8209      676E6564 
 8209      20696E74 
 8209      00
 8210              	.LASF63:
ARM GAS  C:\Users\User\AppData\Local\Temp\ccmH1EJa.s 			page 192


 8211 2b68 4359424C 		.ascii	"CYBLE_EVT_GATTS_PREP_WRITE_REQ\000"
 8211      455F4556 
 8211      545F4741 
 8211      5454535F 
 8211      50524550 
 8212              	.LASF234:
 8213 2b87 61747445 		.ascii	"attEndHandle\000"
 8213      6E644861 
 8213      6E646C65 
 8213      00
 8214              	.LASF159:
 8215 2b94 4359424C 		.ascii	"CYBLE_GATT_ERR_INSUFFICIENT_AUTHENTICATION\000"
 8215      455F4741 
 8215      54545F45 
 8215      52525F49 
 8215      4E535546 
 8216              	.LASF343:
 8217 2bbf 4359424C 		.ascii	"CYBLE_EVT_BMSC_WRITE_CHAR_RESPONSE\000"
 8217      455F4556 
 8217      545F424D 
 8217      53435F57 
 8217      52495445 
 8218              	.LASF385:
 8219 2be2 4359424C 		.ascii	"CYBLE_EVT_CTSS_NOTIFICATION_DISABLED\000"
 8219      455F4556 
 8219      545F4354 
 8219      53535F4E 
 8219      4F544946 
 8220              	.LASF332:
 8221 2c07 4359424C 		.ascii	"CYBLE_EVT_BLSS_INDICATION_DISABLED\000"
 8221      455F4556 
 8221      545F424C 
 8221      53535F49 
 8221      4E444943 
 8222              	.LASF484:
 8223 2c2a 4359424C 		.ascii	"CYBLE_EVT_OTSS_INDICATION_DISABLED\000"
 8223      455F4556 
 8223      545F4F54 
 8223      53535F49 
 8223      4E444943 
 8224              	.LASF507:
 8225 2c4d 4359424C 		.ascii	"CYBLE_EVT_PLXSS_INDICATION_CONFIRMED\000"
 8225      455F4556 
 8225      545F504C 
 8225      5853535F 
 8225      494E4449 
 8226              	.LASF530:
 8227 2c72 4359424C 		.ascii	"CYBLE_EVT_SCPSS_NOTIFICATION_DISABLED\000"
 8227      455F4556 
 8227      545F5343 
 8227      5053535F 
 8227      4E4F5449 
 8228              	.LASF397:
 8229 2c98 4359424C 		.ascii	"CYBLE_EVT_ESSS_INDICATION_CONFIRMATION\000"
 8229      455F4556 
 8229      545F4553 
 8229      53535F49 
ARM GAS  C:\Users\User\AppData\Local\Temp\ccmH1EJa.s 			page 193


 8229      4E444943 
 8230              	.LASF240:
 8231 2cbf 4359424C 		.ascii	"CYBLE_DISC_SRVC_INFO_T\000"
 8231      455F4449 
 8231      53435F53 
 8231      5256435F 
 8231      494E464F 
 8232              	.LASF177:
 8233 2cd6 4359424C 		.ascii	"CYBLE_GATTS_ERR_PROCEDURE_ALREADY_IN_PROGRESS\000"
 8233      455F4741 
 8233      5454535F 
 8233      4552525F 
 8233      50524F43 
 8234              	.LASF635:
 8235 2d04 4379426C 		.ascii	"CyBle_HtscGetCharacteristicDescriptor\000"
 8235      655F4874 
 8235      73634765 
 8235      74436861 
 8235      72616374 
 8236              	.LASF300:
 8237 2d2a 4359424C 		.ascii	"CYBLE_EVT_AIOSC_WRITE_DESCR_RESPONSE\000"
 8237      455F4556 
 8237      545F4149 
 8237      4F53435F 
 8237      57524954 
 8238              	.LASF597:
 8239 2d4f 4359424C 		.ascii	"CYBLE_SRVI_HTS\000"
 8239      455F5352 
 8239      56495F48 
 8239      545300
 8240              	.LASF269:
 8241 2d5e 4359424C 		.ascii	"CYBLE_AUTHENTICATION_REQUEST_REPLY\000"
 8241      455F4155 
 8241      5448454E 
 8241      54494341 
 8241      54494F4E 
 8242              	.LASF570:
 8243 2d81 4359424C 		.ascii	"CYBLE_EVT_WSSC_INDICATION\000"
 8243      455F4556 
 8243      545F5753 
 8243      53435F49 
 8243      4E444943 
 8244              	.LASF102:
 8245 2d9b 4359424C 		.ascii	"CYBLE_ERROR_L2CAP_PSM_WRONG_ENCODING\000"
 8245      455F4552 
 8245      524F525F 
 8245      4C324341 
 8245      505F5053 
 8246              	.LASF145:
 8247 2dc0 4359424C 		.ascii	"CYBLE_GATT_PREPARE_WRITE_RSP\000"
 8247      455F4741 
 8247      54545F50 
 8247      52455041 
 8247      52455F57 
 8248              	.LASF335:
 8249 2ddd 4359424C 		.ascii	"CYBLE_EVT_BLSS_NOTIFICATION_DISABLED\000"
 8249      455F4556 
ARM GAS  C:\Users\User\AppData\Local\Temp\ccmH1EJa.s 			page 194


 8249      545F424C 
 8249      53535F4E 
 8249      4F544946 
 8250              	.LASF164:
 8251 2e02 4359424C 		.ascii	"CYBLE_GATT_ERR_ATTRIBUTE_NOT_FOUND\000"
 8251      455F4741 
 8251      54545F45 
 8251      52525F41 
 8251      54545249 
 8252              	.LASF455:
 8253 2e25 4359424C 		.ascii	"CYBLE_EVT_HTSC_WRITE_CHAR_RESPONSE\000"
 8253      455F4556 
 8253      545F4854 
 8253      53435F57 
 8253      52495445 
 8254              	.LASF568:
 8255 2e48 4359424C 		.ascii	"CYBLE_EVT_WSSS_INDICATION_DISABLED\000"
 8255      455F4556 
 8255      545F5753 
 8255      53535F49 
 8255      4E444943 
 8256              	.LASF657:
 8257 2e6b 6379426C 		.ascii	"cyBle_serverInfo\000"
 8257      655F7365 
 8257      72766572 
 8257      496E666F 
 8257      00
 8258              	.LASF437:
 8259 2e7c 4359424C 		.ascii	"CYBLE_EVT_HPSC_WRITE_CHAR_RESPONSE\000"
 8259      455F4556 
 8259      545F4850 
 8259      53435F57 
 8259      52495445 
 8260              	.LASF88:
 8261 2e9f 4359424C 		.ascii	"CYBLE_EVT_MAX\000"
 8261      455F4556 
 8261      545F4D41 
 8261      5800
 8262              	.LASF35:
 8263 2ead 4359424C 		.ascii	"CYBLE_EVT_GAPC_SCAN_START_STOP\000"
 8263      455F4556 
 8263      545F4741 
 8263      50435F53 
 8263      43414E5F 
 8264              	.LASF310:
 8265 2ecc 4359424C 		.ascii	"CYBLE_EVT_ANSS_NOTIFICATION_ENABLED\000"
 8265      455F4556 
 8265      545F414E 
 8265      53535F4E 
 8265      4F544946 
 8266              	.LASF589:
 8267 2ef0 4359424C 		.ascii	"CYBLE_CLIENT_STATE_DISCONNECTING\000"
 8267      455F434C 
 8267      49454E54 
 8267      5F535441 
 8267      54455F44 
 8268              	.LASF60:
ARM GAS  C:\Users\User\AppData\Local\Temp\ccmH1EJa.s 			page 195


 8269 2f11 4359424C 		.ascii	"CYBLE_EVT_GATTS_WRITE_REQ\000"
 8269      455F4556 
 8269      545F4741 
 8269      5454535F 
 8269      57524954 
 8270              	.LASF551:
 8271 2f2b 4359424C 		.ascii	"CYBLE_EVT_UDSC_WRITE_CHAR_RESPONSE\000"
 8271      455F4556 
 8271      545F5544 
 8271      53435F57 
 8271      52495445 
 8272              	.LASF562:
 8273 2f4e 4359424C 		.ascii	"CYBLE_EVT_WPTSC_INDICATION\000"
 8273      455F4556 
 8273      545F5750 
 8273      5453435F 
 8273      494E4449 
 8274              	.LASF27:
 8275 2f69 4359424C 		.ascii	"CYBLE_EVT_GAP_PASSKEY_DISPLAY_REQUEST\000"
 8275      455F4556 
 8275      545F4741 
 8275      505F5041 
 8275      53534B45 
 8276              	.LASF119:
 8277 2f8f 4359424C 		.ascii	"CYBLE_ERROR_IND_DISABLED\000"
 8277      455F4552 
 8277      524F525F 
 8277      494E445F 
 8277      44495341 
 8278              	.LASF118:
 8279 2fa8 4359424C 		.ascii	"CYBLE_ERROR_NTF_DISABLED\000"
 8279      455F4552 
 8279      524F525F 
 8279      4E54465F 
 8279      44495341 
 8280              	.LASF621:
 8281 2fc1 4379426C 		.ascii	"CyBle_HtsRegisterAttrCallback\000"
 8281      655F4874 
 8281      73526567 
 8281      69737465 
 8281      72417474 
 8282              	.LASF137:
 8283 2fdf 4359424C 		.ascii	"CYBLE_GATT_READ_MULTIPLE_REQ\000"
 8283      455F4741 
 8283      54545F52 
 8283      4541445F 
 8283      4D554C54 
 8284              	.LASF623:
 8285 2ffc 4379426C 		.ascii	"CyBle_HtscDiscoverCharacteristicsEventHandler\000"
 8285      655F4874 
 8285      73634469 
 8285      73636F76 
 8285      65724368 
 8286              	.LASF57:
 8287 302a 4359424C 		.ascii	"CYBLE_EVT_GATTC_READ_RSP\000"
 8287      455F4556 
 8287      545F4741 
ARM GAS  C:\Users\User\AppData\Local\Temp\ccmH1EJa.s 			page 196


 8287      5454435F 
 8287      52454144 
 8288              	.LASF366:
 8289 3043 4359424C 		.ascii	"CYBLE_EVT_CPSC_INDICATION\000"
 8289      455F4556 
 8289      545F4350 
 8289      53435F49 
 8289      4E444943 
 8290              	.LASF161:
 8291 305d 4359424C 		.ascii	"CYBLE_GATT_ERR_INVALID_OFFSET\000"
 8291      455F4741 
 8291      54545F45 
 8291      52525F49 
 8291      4E56414C 
 8292              	.LASF131:
 8293 307b 4359424C 		.ascii	"CYBLE_GATT_READ_BY_TYPE_REQ\000"
 8293      455F4741 
 8293      54545F52 
 8293      4541445F 
 8293      42595F54 
 8294              	.LASF77:
 8295 3097 4359424C 		.ascii	"CYBLE_EVT_L2CAP_CBFC_CONN_CNF\000"
 8295      455F4556 
 8295      545F4C32 
 8295      4341505F 
 8295      43424643 
 8296              	.LASF224:
 8297 30b5 4359424C 		.ascii	"CYBLE_GATTS_ATT_GEN_VAL_LEN_T\000"
 8297      455F4741 
 8297      5454535F 
 8297      4154545F 
 8297      47454E5F 
 8298              	.LASF456:
 8299 30d3 4359424C 		.ascii	"CYBLE_EVT_HTSC_READ_DESCR_RESPONSE\000"
 8299      455F4556 
 8299      545F4854 
 8299      53435F52 
 8299      4541445F 
 8300              	.LASF574:
 8301 30f6 4359424C 		.ascii	"CYBLE_DEBUG_EVT_BLESS_INT\000"
 8301      455F4445 
 8301      4255475F 
 8301      4556545F 
 8301      424C4553 
 8302              	.LASF192:
 8303 3110 4359424C 		.ascii	"CYBLE_GATT_ERR_OUT_OF_RANGE\000"
 8303      455F4741 
 8303      54545F45 
 8303      52525F4F 
 8303      55545F4F 
 8304              	.LASF411:
 8305 312c 4359424C 		.ascii	"CYBLE_EVT_GLSS_WRITE_CHAR\000"
 8305      455F4556 
 8305      545F474C 
 8305      53535F57 
 8305      52495445 
 8306              	.LASF245:
ARM GAS  C:\Users\User\AppData\Local\Temp\ccmH1EJa.s 			page 197


 8307 3146 4359424C 		.ascii	"CYBLE_DISC_CHAR_INFO_T\000"
 8307      455F4449 
 8307      53435F43 
 8307      4841525F 
 8307      494E464F 
 8308              	.LASF87:
 8309 315d 4359424C 		.ascii	"CYBLE_EVT_FLASH_CORRUPT\000"
 8309      455F4556 
 8309      545F464C 
 8309      4153485F 
 8309      434F5252 
 8310              	.LASF15:
 8311 3175 6C6F6E67 		.ascii	"long double\000"
 8311      20646F75 
 8311      626C6500 
 8312              	.LASF129:
 8313 3181 4359424C 		.ascii	"CYBLE_GATT_FIND_BY_TYPE_VALUE_REQ\000"
 8313      455F4741 
 8313      54545F46 
 8313      494E445F 
 8313      42595F54 
 8314              	.LASF592:
 8315 31a3 4359424C 		.ascii	"CYBLE_CLIENT_STATE_T\000"
 8315      455F434C 
 8315      49454E54 
 8315      5F535441 
 8315      54455F54 
 8316              	.LASF441:
 8317 31b8 4359424C 		.ascii	"CYBLE_EVT_HRSC_NOTIFICATION\000"
 8317      455F4556 
 8317      545F4852 
 8317      53435F4E 
 8317      4F544946 
 8318              	.LASF23:
 8319 31d4 4359424C 		.ascii	"CYBLE_EVT_MEMORY_REQUEST\000"
 8319      455F4556 
 8319      545F4D45 
 8319      4D4F5259 
 8319      5F524551 
 8320              	.LASF297:
 8321 31ed 4359424C 		.ascii	"CYBLE_EVT_AIOSC_READ_CHAR_RESPONSE\000"
 8321      455F4556 
 8321      545F4149 
 8321      4F53435F 
 8321      52454144 
 8322              	.LASF613:
 8323 3210 6C6F6352 		.ascii	"locReqHandle\000"
 8323      65714861 
 8323      6E646C65 
 8323      00
 8324              	.LASF519:
 8325 321d 4359424C 		.ascii	"CYBLE_EVT_RSCSS_INDICATION_CONFIRMATION\000"
 8325      455F4556 
 8325      545F5253 
 8325      4353535F 
 8325      494E4449 
 8326              	.LASF614:
ARM GAS  C:\Users\User\AppData\Local\Temp\ccmH1EJa.s 			page 198


 8327 3245 6C6F6341 		.ascii	"locAttrValue\000"
 8327      74747256 
 8327      616C7565 
 8327      00
 8328              	.LASF428:
 8329 3252 4359424C 		.ascii	"CYBLE_EVT_HIDSC_READ_DESCR_RESPONSE\000"
 8329      455F4556 
 8329      545F4849 
 8329      4453435F 
 8329      52454144 
 8330              	.LASF257:
 8331 3276 4359424C 		.ascii	"CYBLE_HTS_DESCR_INDEX_T\000"
 8331      455F4854 
 8331      535F4445 
 8331      5343525F 
 8331      494E4445 
 8332              	.LASF442:
 8333 328e 4359424C 		.ascii	"CYBLE_EVT_HRSC_READ_CHAR_RESPONSE\000"
 8333      455F4556 
 8333      545F4852 
 8333      53435F52 
 8333      4541445F 
 8334              	.LASF320:
 8335 32b0 4359424C 		.ascii	"CYBLE_EVT_BASC_NOTIFICATION\000"
 8335      455F4556 
 8335      545F4241 
 8335      53435F4E 
 8335      4F544946 
 8336              	.LASF33:
 8337 32cc 4359424C 		.ascii	"CYBLE_EVT_GAP_ENCRYPT_CHANGE\000"
 8337      455F4556 
 8337      545F4741 
 8337      505F454E 
 8337      43525950 
 8338              	.LASF197:
 8339 32e9 75756964 		.ascii	"uuid128\000"
 8339      31323800 
 8340              	.LASF482:
 8341 32f1 4359424C 		.ascii	"CYBLE_EVT_NDCSC_READ_CHAR_RESPONSE\000"
 8341      455F4556 
 8341      545F4E44 
 8341      4353435F 
 8341      52454144 
 8342              	.LASF282:
 8343 3314 4359424C 		.ascii	"CYBLE_EVT_GATTC_DESCR_DUPLICATION\000"
 8343      455F4556 
 8343      545F4741 
 8343      5454435F 
 8343      44455343 
 8344              	.LASF252:
 8345 3336 4359424C 		.ascii	"CYBLE_HTS_CHAR_COUNT\000"
 8345      455F4854 
 8345      535F4348 
 8345      41525F43 
 8345      4F554E54 
 8346              	.LASF51:
 8347 334b 4359424C 		.ascii	"CYBLE_EVT_GATTS_XCNHG_MTU_REQ\000"
ARM GAS  C:\Users\User\AppData\Local\Temp\ccmH1EJa.s 			page 199


 8347      455F4556 
 8347      545F4741 
 8347      5454535F 
 8347      58434E48 
 8348              	.LASF431:
 8349 3369 4359424C 		.ascii	"CYBLE_EVT_HPSS_NOTIFICATION_DISABLED\000"
 8349      455F4556 
 8349      545F4850 
 8349      53535F4E 
 8349      4F544946 
 8350              	.LASF610:
 8351 338e 6C6F6343 		.ascii	"locCharIndex\000"
 8351      68617249 
 8351      6E646578 
 8351      00
 8352              	.LASF544:
 8353 339b 4359424C 		.ascii	"CYBLE_EVT_UDSS_NOTIFICATION_ENABLED\000"
 8353      455F4556 
 8353      545F5544 
 8353      53535F4E 
 8353      4F544946 
 8354              	.LASF128:
 8355 33bf 4359424C 		.ascii	"CYBLE_GATT_FIND_INFO_RSP\000"
 8355      455F4741 
 8355      54545F46 
 8355      494E445F 
 8355      494E464F 
 8356              	.LASF472:
 8357 33d8 4359424C 		.ascii	"CYBLE_EVT_LNSS_INDICATION_CONFIRMED\000"
 8357      455F4556 
 8357      545F4C4E 
 8357      53535F49 
 8357      4E444943 
 8358              	.LASF47:
 8359 33fc 4359424C 		.ascii	"CYBLE_EVT_GAP_SMP_LOC_P256_KEYS_GEN_AND_SET_COMPLET"
 8359      455F4556 
 8359      545F4741 
 8359      505F534D 
 8359      505F4C4F 
 8360 342f 4500     		.ascii	"E\000"
 8361              	.LASF317:
 8362 3431 4359424C 		.ascii	"CYBLE_EVT_ANSC_WRITE_DESCR_RESPONSE\000"
 8362      455F4556 
 8362      545F414E 
 8362      53435F57 
 8362      52495445 
 8363              	.LASF478:
 8364 3455 4359424C 		.ascii	"CYBLE_EVT_LNSC_READ_CHAR_RESPONSE\000"
 8364      455F4556 
 8364      545F4C4E 
 8364      53435F52 
 8364      4541445F 
 8365              	.LASF408:
 8366 3477 4359424C 		.ascii	"CYBLE_EVT_GLSS_INDICATION_CONFIRMED\000"
 8366      455F4556 
 8366      545F474C 
 8366      53535F49 
ARM GAS  C:\Users\User\AppData\Local\Temp\ccmH1EJa.s 			page 200


 8366      4E444943 
 8367              	.LASF582:
 8368 349b 4359424C 		.ascii	"CYBLE_STATE_T\000"
 8368      455F5354 
 8368      4154455F 
 8368      5400
 8369              	.LASF273:
 8370 34a9 4359424C 		.ascii	"CYBLE_EVT_GATTS_INDICATION_ENABLED\000"
 8370      455F4556 
 8370      545F4741 
 8370      5454535F 
 8370      494E4449 
 8371              	.LASF7:
 8372 34cc 6C6F6E67 		.ascii	"long long unsigned int\000"
 8372      206C6F6E 
 8372      6720756E 
 8372      7369676E 
 8372      65642069 
 8373              	.LASF155:
 8374 34e3 4359424C 		.ascii	"CYBLE_GATT_ERR_INVALID_HANDLE\000"
 8374      455F4741 
 8374      54545F45 
 8374      52525F49 
 8374      4E56414C 
 8375              	.LASF19:
 8376 3501 4359424C 		.ascii	"CYBLE_EVT_TIMEOUT\000"
 8376      455F4556 
 8376      545F5449 
 8376      4D454F55 
 8376      5400
 8377              	.LASF389:
 8378 3513 4359424C 		.ascii	"CYBLE_EVT_CTSC_READ_DESCR_RESPONSE\000"
 8378      455F4556 
 8378      545F4354 
 8378      53435F52 
 8378      4541445F 
 8379              	.LASF264:
 8380 3536 4359424C 		.ascii	"CYBLE_HTSC_T\000"
 8380      455F4854 
 8380      53435F54 
 8380      00
 8381              	.LASF241:
 8382 3543 63686172 		.ascii	"charDeclHandle\000"
 8382      4465636C 
 8382      48616E64 
 8382      6C6500
 8383              	.LASF152:
 8384 3552 4359424C 		.ascii	"CYBLE_GATT_UNKNOWN_PDU_IND\000"
 8384      455F4741 
 8384      54545F55 
 8384      4E4B4E4F 
 8384      574E5F50 
 8385              	.LASF121:
 8386 356d 4359424C 		.ascii	"CYBLE_ERROR_INVALID_STATE\000"
 8386      455F4552 
 8386      524F525F 
 8386      494E5641 
ARM GAS  C:\Users\User\AppData\Local\Temp\ccmH1EJa.s 			page 201


 8386      4C49445F 
 8387              	.LASF199:
 8388 3587 4359424C 		.ascii	"CYBLE_GATT_DB_ATTR_HANDLE_T\000"
 8388      455F4741 
 8388      54545F44 
 8388      425F4154 
 8388      54525F48 
 8389              	.LASF290:
 8390 35a3 4359424C 		.ascii	"CYBLE_EVT_AIOSS_INDICATION_ENABLED\000"
 8390      455F4556 
 8390      545F4149 
 8390      4F53535F 
 8390      494E4449 
 8391              	.LASF80:
 8392 35c6 4359424C 		.ascii	"CYBLE_EVT_L2CAP_CBFC_DATA_READ\000"
 8392      455F4556 
 8392      545F4C32 
 8392      4341505F 
 8392      43424643 
 8393              	.LASF154:
 8394 35e5 4359424C 		.ascii	"CYBLE_GATT_ERR_NONE\000"
 8394      455F4741 
 8394      54545F45 
 8394      52525F4E 
 8394      4F4E4500 
 8395              	.LASF200:
 8396 35f9 76616C75 		.ascii	"value\000"
 8396      6500
 8397              	.LASF365:
 8398 35ff 4359424C 		.ascii	"CYBLE_EVT_CPSC_NOTIFICATION\000"
 8398      455F4556 
 8398      545F4350 
 8398      53435F4E 
 8398      4F544946 
 8399              	.LASF340:
 8400 361b 4359424C 		.ascii	"CYBLE_EVT_BLSC_WRITE_DESCR_RESPONSE\000"
 8400      455F4556 
 8400      545F424C 
 8400      53435F57 
 8400      52495445 
 8401              	.LASF249:
 8402 363f 4359424C 		.ascii	"CYBLE_HTS_TEMP_TYPE\000"
 8402      455F4854 
 8402      535F5445 
 8402      4D505F54 
 8402      59504500 
 8403              	.LASF235:
 8404 3653 61747456 		.ascii	"attValue\000"
 8404      616C7565 
 8404      00
 8405              	.LASF646:
 8406 365c 6379426C 		.ascii	"cyBle_htscReqHandle\000"
 8406      655F6874 
 8406      73635265 
 8406      7148616E 
 8406      646C6500 
 8407              	.LASF221:
ARM GAS  C:\Users\User\AppData\Local\Temp\ccmH1EJa.s 			page 202


 8408 3670 4359424C 		.ascii	"CYBLE_GATTC_HANDLE_VALUE_IND_PARAM_T\000"
 8408      455F4741 
 8408      5454435F 
 8408      48414E44 
 8408      4C455F56 
 8409              	.LASF477:
 8410 3695 4359424C 		.ascii	"CYBLE_EVT_LNSC_NOTIFICATION\000"
 8410      455F4556 
 8410      545F4C4E 
 8410      53435F4E 
 8410      4F544946 
 8411              	.LASF196:
 8412 36b1 75756964 		.ascii	"uuid16\000"
 8412      313600
 8413              	.LASF638:
 8414 36b8 4379426C 		.ascii	"CyBle_HtscIndicationEventHandler\000"
 8414      655F4874 
 8414      7363496E 
 8414      64696361 
 8414      74696F6E 
 8415              	.LASF596:
 8416 36d9 4359424C 		.ascii	"CYBLE_SRVI_CUSTOMS_END\000"
 8416      455F5352 
 8416      56495F43 
 8416      5553544F 
 8416      4D535F45 
 8417              	.LASF647:
 8418 36f0 4379426C 		.ascii	"CyBle_ApplCallback\000"
 8418      655F4170 
 8418      706C4361 
 8418      6C6C6261 
 8418      636B00
 8419              	.LASF387:
 8420 3703 4359424C 		.ascii	"CYBLE_EVT_CTSC_NOTIFICATION\000"
 8420      455F4556 
 8420      545F4354 
 8420      53435F4E 
 8420      4F544946 
 8421              	.LASF217:
 8422 371f 4359424C 		.ascii	"CYBLE_GATTC_ERR_RSP_PARAM_T\000"
 8422      455F4741 
 8422      5454435F 
 8422      4552525F 
 8422      5253505F 
 8423              	.LASF114:
 8424 373b 4359424C 		.ascii	"CYBLE_ERROR_FLASH_WRITE\000"
 8424      455F4552 
 8424      524F525F 
 8424      464C4153 
 8424      485F5752 
 8425              	.LASF407:
 8426 3753 4359424C 		.ascii	"CYBLE_EVT_GLSS_INDICATION_DISABLED\000"
 8426      455F4556 
 8426      545F474C 
 8426      53535F49 
 8426      4E444943 
 8427              	.LASF176:
ARM GAS  C:\Users\User\AppData\Local\Temp\ccmH1EJa.s 			page 203


 8428 3776 4359424C 		.ascii	"CYBLE_GATT_ERR_HTS_OUT_OF_RANGE\000"
 8428      455F4741 
 8428      54545F45 
 8428      52525F48 
 8428      54535F4F 
 8429              	.LASF490:
 8430 3796 4359424C 		.ascii	"CYBLE_EVT_OTSC_READ_BLOB_RSP\000"
 8430      455F4556 
 8430      545F4F54 
 8430      53435F52 
 8430      4541445F 
 8431              	.LASF293:
 8432 37b3 4359424C 		.ascii	"CYBLE_EVT_AIOSS_CHAR_WRITE\000"
 8432      455F4556 
 8432      545F4149 
 8432      4F53535F 
 8432      43484152 
 8433              	.LASF280:
 8434 37ce 4359424C 		.ascii	"CYBLE_EVT_GATTC_SRVC_DUPLICATION\000"
 8434      455F4556 
 8434      545F4741 
 8434      5454435F 
 8434      53525643 
 8435              	.LASF583:
 8436 37ef 4359424C 		.ascii	"CYBLE_CLIENT_STATE_CONNECTED\000"
 8436      455F434C 
 8436      49454E54 
 8436      5F535441 
 8436      54455F43 
 8437              	.LASF470:
 8438 380c 4359424C 		.ascii	"CYBLE_EVT_LNSS_INDICATION_ENABLED\000"
 8438      455F4556 
 8438      545F4C4E 
 8438      53535F49 
 8438      4E444943 
 8439              	.LASF639:
 8440 382e 696E6469 		.ascii	"indicationValue\000"
 8440      63617469 
 8440      6F6E5661 
 8440      6C756500 
 8441              	.LASF643:
 8442 383e 4379426C 		.ascii	"CyBle_HtscErrorResponseEventHandler\000"
 8442      655F4874 
 8442      73634572 
 8442      726F7252 
 8442      6573706F 
 8443              	.LASF135:
 8444 3862 4359424C 		.ascii	"CYBLE_GATT_READ_BLOB_REQ\000"
 8444      455F4741 
 8444      54545F52 
 8444      4541445F 
 8444      424C4F42 
 8445              	.LASF495:
 8446 387b 4359424C 		.ascii	"CYBLE_EVT_PASSS_NOTIFICATION_ENABLED\000"
 8446      455F4556 
 8446      545F5041 
 8446      5353535F 
ARM GAS  C:\Users\User\AppData\Local\Temp\ccmH1EJa.s 			page 204


 8446      4E4F5449 
 8447              	.LASF303:
 8448 38a0 4359424C 		.ascii	"CYBLE_EVT_ANCSS_NOTIFICATION_DISABLED\000"
 8448      455F4556 
 8448      545F414E 
 8448      4353535F 
 8448      4E4F5449 
 8449              	.LASF645:
 8450 38c6 6379426C 		.ascii	"cyBle_htssReqHandle\000"
 8450      655F6874 
 8450      73735265 
 8450      7148616E 
 8450      646C6500 
 8451              	.LASF653:
 8452 38da 6379426C 		.ascii	"cyBle_htsc\000"
 8452      655F6874 
 8452      736300
 8453              	.LASF212:
 8454 38e5 636F6E6E 		.ascii	"connHandle\000"
 8454      48616E64 
 8454      6C6500
 8455              	.LASF661:
 8456 38f0 4379426C 		.ascii	"CyBle_HtsInit\000"
 8456      655F4874 
 8456      73496E69 
 8456      7400
 8457              	.LASF222:
 8458 38fe 61637475 		.ascii	"actualLength\000"
 8458      616C4C65 
 8458      6E677468 
 8458      00
 8459              	.LASF319:
 8460 390b 4359424C 		.ascii	"CYBLE_EVT_BASS_NOTIFICATION_DISABLED\000"
 8460      455F4556 
 8460      545F4241 
 8460      53535F4E 
 8460      4F544946 
 8461              	.LASF502:
 8462 3930 4359424C 		.ascii	"CYBLE_EVT_PLXSS_WRITE_CHAR\000"
 8462      455F4556 
 8462      545F504C 
 8462      5853535F 
 8462      57524954 
 8463              	.LASF357:
 8464 394b 4359424C 		.ascii	"CYBLE_EVT_CPSS_NOTIFICATION_ENABLED\000"
 8464      455F4556 
 8464      545F4350 
 8464      53535F4E 
 8464      4F544946 
 8465              	.LASF539:
 8466 396f 4359424C 		.ascii	"CYBLE_EVT_TPSC_READ_DESCR_RESPONSE\000"
 8466      455F4556 
 8466      545F5450 
 8466      53435F52 
 8466      4541445F 
 8467              	.LASF588:
 8468 3992 4359424C 		.ascii	"CYBLE_CLIENT_STATE_DISCOVERED\000"
ARM GAS  C:\Users\User\AppData\Local\Temp\ccmH1EJa.s 			page 205


 8468      455F434C 
 8468      49454E54 
 8468      5F535441 
 8468      54455F44 
 8469              	.LASF593:
 8470 39b0 4359424C 		.ascii	"CYBLE_SRVI_GAP\000"
 8470      455F5352 
 8470      56495F47 
 8470      415000
 8471              	.LASF649:
 8472 39bf 6379426C 		.ascii	"cyBle_pendingFlashWrite\000"
 8472      655F7065 
 8472      6E64696E 
 8472      67466C61 
 8472      73685772 
 8473              	.LASF554:
 8474 39d7 4359424C 		.ascii	"CYBLE_EVT_UDSC_ERROR_RESPONSE\000"
 8474      455F4556 
 8474      545F5544 
 8474      53435F45 
 8474      52524F52 
 8475              	.LASF55:
 8476 39f5 4359424C 		.ascii	"CYBLE_EVT_GATTC_FIND_INFO_RSP\000"
 8476      455F4556 
 8476      545F4741 
 8476      5454435F 
 8476      46494E44 
 8477              	.LASF54:
 8478 3a13 4359424C 		.ascii	"CYBLE_EVT_GATTC_READ_BY_TYPE_RSP\000"
 8478      455F4556 
 8478      545F4741 
 8478      5454435F 
 8478      52454144 
 8479              	.LASF496:
 8480 3a34 4359424C 		.ascii	"CYBLE_EVT_PASSS_NOTIFICATION_DISABLED\000"
 8480      455F4556 
 8480      545F5041 
 8480      5353535F 
 8480      4E4F5449 
 8481              	.LASF355:
 8482 3a5a 4359424C 		.ascii	"CYBLE_EVT_CGMSC_READ_DESCR_RESPONSE\000"
 8482      455F4556 
 8482      545F4347 
 8482      4D53435F 
 8482      52454144 
 8483              	.LASF426:
 8484 3a7e 4359424C 		.ascii	"CYBLE_EVT_HIDSC_READ_CHAR_RESPONSE\000"
 8484      455F4556 
 8484      545F4849 
 8484      4453435F 
 8484      52454144 
 8485              	.LASF181:
 8486 3aa1 4359424C 		.ascii	"CYBLE_GATTS_ERR_OPERATION_FAILED\000"
 8486      455F4741 
 8486      5454535F 
 8486      4552525F 
 8486      4F504552 
ARM GAS  C:\Users\User\AppData\Local\Temp\ccmH1EJa.s 			page 206


 8487              	.LASF602:
 8488 3ac2 61706952 		.ascii	"apiResult\000"
 8488      6573756C 
 8488      7400
 8489              	.LASF242:
 8490 3acc 70726F70 		.ascii	"properties\000"
 8490      65727469 
 8490      657300
 8491              	.LASF587:
 8492 3ad7 4359424C 		.ascii	"CYBLE_CLIENT_STATE_DESCR_DISCOVERING\000"
 8492      455F434C 
 8492      49454E54 
 8492      5F535441 
 8492      54455F44 
 8493              	.LASF536:
 8494 3afc 4359424C 		.ascii	"CYBLE_EVT_TPSS_NOTIFICATION_DISABLED\000"
 8494      455F4556 
 8494      545F5450 
 8494      53535F4E 
 8494      4F544946 
 8495              	.LASF533:
 8496 3b21 4359424C 		.ascii	"CYBLE_EVT_SCPSC_READ_DESCR_RESPONSE\000"
 8496      455F4556 
 8496      545F5343 
 8496      5053435F 
 8496      52454144 
 8497              	.LASF445:
 8498 3b45 4359424C 		.ascii	"CYBLE_EVT_HRSC_WRITE_DESCR_RESPONSE\000"
 8498      455F4556 
 8498      545F4852 
 8498      53435F57 
 8498      52495445 
 8499              	.LASF115:
 8500 3b69 4359424C 		.ascii	"CYBLE_ERROR_LL_SAME_TRANSACTION_COLLISION\000"
 8500      455F4552 
 8500      524F525F 
 8500      4C4C5F53 
 8500      414D455F 
 8501              	.LASF620:
 8502 3b93 4379426C 		.ascii	"CyBle_HtssSendIndication\000"
 8502      655F4874 
 8502      73735365 
 8502      6E64496E 
 8502      64696361 
 8503              	.LASF475:
 8504 3bac 4359424C 		.ascii	"CYBLE_EVT_LNSS_WRITE_CHAR\000"
 8504      455F4556 
 8504      545F4C4E 
 8504      53535F57 
 8504      52495445 
 8505              	.LASF398:
 8506 3bc6 4359424C 		.ascii	"CYBLE_EVT_ESSS_CHAR_WRITE\000"
 8506      455F4556 
 8506      545F4553 
 8506      53535F43 
 8506      4841525F 
 8507              	.LASF61:
ARM GAS  C:\Users\User\AppData\Local\Temp\ccmH1EJa.s 			page 207


 8508 3be0 4359424C 		.ascii	"CYBLE_EVT_GATTC_WRITE_RSP\000"
 8508      455F4556 
 8508      545F4741 
 8508      5454435F 
 8508      57524954 
 8509              	.LASF393:
 8510 3bfa 4359424C 		.ascii	"CYBLE_EVT_ESSS_NOTIFICATION_ENABLED\000"
 8510      455F4556 
 8510      545F4553 
 8510      53535F4E 
 8510      4F544946 
 8511              	.LASF299:
 8512 3c1e 4359424C 		.ascii	"CYBLE_EVT_AIOSC_READ_DESCR_RESPONSE\000"
 8512      455F4556 
 8512      545F4149 
 8512      4F53435F 
 8512      52454144 
 8513              	.LASF230:
 8514 3c42 4359424C 		.ascii	"CYBLE_GATTS_ATT_VALUE_T\000"
 8514      455F4741 
 8514      5454535F 
 8514      4154545F 
 8514      56414C55 
 8515              	.LASF585:
 8516 3c5a 4359424C 		.ascii	"CYBLE_CLIENT_STATE_INCL_DISCOVERING\000"
 8516      455F434C 
 8516      49454E54 
 8516      5F535441 
 8516      54455F49 
 8517              	.LASF521:
 8518 3c7e 4359424C 		.ascii	"CYBLE_EVT_RSCSC_NOTIFICATION\000"
 8518      455F4556 
 8518      545F5253 
 8518      4353435F 
 8518      4E4F5449 
 8519              	.LASF227:
 8520 3c9b 4359424C 		.ascii	"CYBLE_GATTS_ATT_PACK_VAL_LEN_T\000"
 8520      455F4741 
 8520      5454535F 
 8520      4154545F 
 8520      5041434B 
 8521              	.LASF30:
 8522 3cba 4359424C 		.ascii	"CYBLE_EVT_GAPP_ADVERTISEMENT_START_STOP\000"
 8522      455F4556 
 8522      545F4741 
 8522      50505F41 
 8522      44564552 
 8523              	.LASF333:
 8524 3ce2 4359424C 		.ascii	"CYBLE_EVT_BLSS_INDICATION_CONFIRMED\000"
 8524      455F4556 
 8524      545F424C 
 8524      53535F49 
 8524      4E444943 
 8525              	.LASF565:
 8526 3d06 4359424C 		.ascii	"CYBLE_EVT_WPTSC_READ_DESCR_RESPONSE\000"
 8526      455F4556 
 8526      545F5750 
ARM GAS  C:\Users\User\AppData\Local\Temp\ccmH1EJa.s 			page 208


 8526      5453435F 
 8526      52454144 
 8527              	.LASF305:
 8528 3d2a 4359424C 		.ascii	"CYBLE_EVT_ANCSC_NOTIFICATION\000"
 8528      455F4556 
 8528      545F414E 
 8528      4353435F 
 8528      4E4F5449 
 8529              	.LASF223:
 8530 3d47 61747447 		.ascii	"attGenericVal\000"
 8530      656E6572 
 8530      69635661 
 8530      6C00
 8531              	.LASF258:
 8532 3d55 63686172 		.ascii	"charHandle\000"
 8532      48616E64 
 8532      6C6500
 8533              	.LASF514:
 8534 3d60 4359424C 		.ascii	"CYBLE_EVT_PLXSC_TIMEOUT\000"
 8534      455F4556 
 8534      545F504C 
 8534      5853435F 
 8534      54494D45 
 8535              	.LASF354:
 8536 3d78 4359424C 		.ascii	"CYBLE_EVT_CGMSC_WRITE_CHAR_RESPONSE\000"
 8536      455F4556 
 8536      545F4347 
 8536      4D53435F 
 8536      57524954 
 8537              	.LASF9:
 8538 3d9c 75696E74 		.ascii	"uint8\000"
 8538      3800
 8539              	.LASF454:
 8540 3da2 4359424C 		.ascii	"CYBLE_EVT_HTSC_READ_CHAR_RESPONSE\000"
 8540      455F4556 
 8540      545F4854 
 8540      53435F52 
 8540      4541445F 
 8541              	.LASF642:
 8542 3dc4 4379426C 		.ascii	"CyBle_HtscWriteResponseEventHandler\000"
 8542      655F4874 
 8542      73635772 
 8542      69746552 
 8542      6573706F 
 8543              	.LASF38:
 8544 3de8 4359424C 		.ascii	"CYBLE_EVT_GAP_KEYPRESS_NOTIFICATION\000"
 8544      455F4556 
 8544      545F4741 
 8544      505F4B45 
 8544      59505245 
 8545              	.LASF501:
 8546 3e0c 4359424C 		.ascii	"CYBLE_EVT_PASSC_WRITE_DESCR_RESPONSE\000"
 8546      455F4556 
 8546      545F5041 
 8546      5353435F 
 8546      57524954 
 8547              	.LASF141:
ARM GAS  C:\Users\User\AppData\Local\Temp\ccmH1EJa.s 			page 209


 8548 3e31 4359424C 		.ascii	"CYBLE_GATT_WRITE_REQ\000"
 8548      455F4741 
 8548      54545F57 
 8548      52495445 
 8548      5F524551 
 8549              	.LASF474:
 8550 3e46 4359424C 		.ascii	"CYBLE_EVT_LNSS_NOTIFICATION_DISABLED\000"
 8550      455F4556 
 8550      545F4C4E 
 8550      53535F4E 
 8550      4F544946 
 8551              	.LASF2:
 8552 3e6b 73686F72 		.ascii	"short int\000"
 8552      7420696E 
 8552      7400
 8553              	.LASF213:
 8554 3e75 68616E64 		.ascii	"handleValPair\000"
 8554      6C655661 
 8554      6C506169 
 8554      7200
 8555              	.LASF341:
 8556 3e83 4359424C 		.ascii	"CYBLE_EVT_BMSS_WRITE_CHAR\000"
 8556      455F4556 
 8556      545F424D 
 8556      53535F57 
 8556      52495445 
 8557              	.LASF226:
 8558 3e9d 61747447 		.ascii	"attGenericValLen\000"
 8558      656E6572 
 8558      69635661 
 8558      6C4C656E 
 8558      00
 8559              	.LASF228:
 8560 3eae 61747446 		.ascii	"attFormatValue\000"
 8560      6F726D61 
 8560      7456616C 
 8560      756500
 8561              	.LASF238:
 8562 3ebd 72616E67 		.ascii	"range\000"
 8562      6500
 8563              	.LASF298:
 8564 3ec3 4359424C 		.ascii	"CYBLE_EVT_AIOSC_WRITE_CHAR_RESPONSE\000"
 8564      455F4556 
 8564      545F4149 
 8564      4F53435F 
 8564      57524954 
 8565              	.LASF112:
 8566 3ee7 4359424C 		.ascii	"CYBLE_ERROR_HARDWARE_FAILURE\000"
 8566      455F4552 
 8566      524F525F 
 8566      48415244 
 8566      57415245 
 8567              	.LASF175:
 8568 3f04 4359424C 		.ascii	"CYBLE_GATT_ERR_CPS_INAPPROPRIATE_CONNECTION_PARAMET"
 8568      455F4741 
 8568      54545F45 
 8568      52525F43 
ARM GAS  C:\Users\User\AppData\Local\Temp\ccmH1EJa.s 			page 210


 8568      50535F49 
 8569 3f37 45525300 		.ascii	"ERS\000"
 8570              	.LASF352:
 8571 3f3b 4359424C 		.ascii	"CYBLE_EVT_CGMSC_NOTIFICATION\000"
 8571      455F4556 
 8571      545F4347 
 8571      4D53435F 
 8571      4E4F5449 
 8572              	.LASF160:
 8573 3f58 4359424C 		.ascii	"CYBLE_GATT_ERR_REQUEST_NOT_SUPPORTED\000"
 8573      455F4741 
 8573      54545F45 
 8573      52525F52 
 8573      45515545 
 8574              	.LASF248:
 8575 3f7d 4359424C 		.ascii	"CYBLE_HTS_TEMP_MEASURE\000"
 8575      455F4854 
 8575      535F5445 
 8575      4D505F4D 
 8575      45415355 
 8576              	.LASF48:
 8577 3f94 4359424C 		.ascii	"CYBLE_EVT_GATTC_ERROR_RSP\000"
 8577      455F4556 
 8577      545F4741 
 8577      5454435F 
 8577      4552524F 
 8578              	.LASF636:
 8579 3fae 4379426C 		.ascii	"CyBle_HtscNotificationEventHandler\000"
 8579      655F4874 
 8579      73634E6F 
 8579      74696669 
 8579      63617469 
 8580              	.LASF210:
 8581 3fd1 4359424C 		.ascii	"CYBLE_GATT_ATTR_HANDLE_RANGE_T\000"
 8581      455F4741 
 8581      54545F41 
 8581      5454525F 
 8581      48414E44 
 8582              	.LASF403:
 8583 3ff0 4359424C 		.ascii	"CYBLE_EVT_ESSC_WRITE_CHAR_RESPONSE\000"
 8583      455F4556 
 8583      545F4553 
 8583      53435F57 
 8583      52495445 
 8584              	.LASF219:
 8585 4013 4359424C 		.ascii	"CYBLE_GATTC_READ_RSP_PARAM_T\000"
 8585      455F4741 
 8585      5454435F 
 8585      52454144 
 8585      5F525350 
 8586              	.LASF292:
 8587 4030 4359424C 		.ascii	"CYBLE_EVT_AIOSS_INDICATION_CONFIRMED\000"
 8587      455F4556 
 8587      545F4149 
 8587      4F53535F 
 8587      494E4449 
 8588              	.LASF309:
ARM GAS  C:\Users\User\AppData\Local\Temp\ccmH1EJa.s 			page 211


 8589 4055 4359424C 		.ascii	"CYBLE_EVT_ANCSC_ERROR_RESPONSE\000"
 8589      455F4556 
 8589      545F414E 
 8589      4353435F 
 8589      4552524F 
 8590              	.LASF323:
 8591 4074 4359424C 		.ascii	"CYBLE_EVT_BASC_WRITE_DESCR_RESPONSE\000"
 8591      455F4556 
 8591      545F4241 
 8591      53435F57 
 8591      52495445 
 8592              	.LASF276:
 8593 4098 4359424C 		.ascii	"CYBLE_EVT_GATTC_SRVC_DISCOVERY_FAILED\000"
 8593      455F4556 
 8593      545F4741 
 8593      5454435F 
 8593      53525643 
 8594              	.LASF406:
 8595 40be 4359424C 		.ascii	"CYBLE_EVT_GLSS_INDICATION_ENABLED\000"
 8595      455F4556 
 8595      545F474C 
 8595      53535F49 
 8595      4E444943 
 8596              	.LASF312:
 8597 40e0 4359424C 		.ascii	"CYBLE_EVT_ANSS_CHAR_WRITE\000"
 8597      455F4556 
 8597      545F414E 
 8597      53535F43 
 8597      4841525F 
 8598              	.LASF598:
 8599 40fa 4359424C 		.ascii	"CYBLE_SRVI_COUNT\000"
 8599      455F5352 
 8599      56495F43 
 8599      4F554E54 
 8599      00
 8600              	.LASF76:
 8601 410b 4359424C 		.ascii	"CYBLE_EVT_L2CAP_CBFC_CONN_IND\000"
 8601      455F4556 
 8601      545F4C32 
 8601      4341505F 
 8601      43424643 
 8602              	.LASF64:
 8603 4129 4359424C 		.ascii	"CYBLE_EVT_GATTS_EXEC_WRITE_REQ\000"
 8603      455F4556 
 8603      545F4741 
 8603      5454535F 
 8603      45584543 
 8604              	.LASF24:
 8605 4148 4359424C 		.ascii	"CYBLE_EVT_GAPC_SCAN_PROGRESS_RESULT\000"
 8605      455F4556 
 8605      545F4741 
 8605      50435F53 
 8605      43414E5F 
 8606              	.LASF435:
 8607 416c 4359424C 		.ascii	"CYBLE_EVT_HPSC_READ_DESCR_RESPONSE\000"
 8607      455F4556 
 8607      545F4850 
ARM GAS  C:\Users\User\AppData\Local\Temp\ccmH1EJa.s 			page 212


 8607      53435F52 
 8607      4541445F 
 8608              	.LASF386:
 8609 418f 4359424C 		.ascii	"CYBLE_EVT_CTSS_CHAR_WRITE\000"
 8609      455F4556 
 8609      545F4354 
 8609      53535F43 
 8609      4841525F 
 8610              	.LASF541:
 8611 41a9 4359424C 		.ascii	"CYBLE_EVT_UDSS_INDICATION_ENABLED\000"
 8611      455F4556 
 8611      545F5544 
 8611      53535F49 
 8611      4E444943 
 8612              	.LASF466:
 8613 41cb 4359424C 		.ascii	"CYBLE_EVT_IPSC_READ_BLOB_RSP\000"
 8613      455F4556 
 8613      545F4950 
 8613      53435F52 
 8613      4541445F 
 8614              	.LASF193:
 8615 41e8 4359424C 		.ascii	"CYBLE_GATT_ERR_CODE_T\000"
 8615      455F4741 
 8615      54545F45 
 8615      52525F43 
 8615      4F44455F 
 8616              	.LASF188:
 8617 41fe 4359424C 		.ascii	"CYBLE_GATT_ERR_ANCS_INVALID_PARAMETER\000"
 8617      455F4741 
 8617      54545F45 
 8617      52525F41 
 8617      4E43535F 
 8618              	.LASF98:
 8619 4224 4359424C 		.ascii	"CYBLE_ERROR_GAP_ROLE\000"
 8619      455F4552 
 8619      524F525F 
 8619      4741505F 
 8619      524F4C45 
 8620              	.LASF448:
 8621 4239 4359424C 		.ascii	"CYBLE_EVT_HTSS_INDICATION_ENABLED\000"
 8621      455F4556 
 8621      545F4854 
 8621      53535F49 
 8621      4E444943 
 8622              	.LASF486:
 8623 425b 4359424C 		.ascii	"CYBLE_EVT_OTSS_WRITE_CHAR\000"
 8623      455F4556 
 8623      545F4F54 
 8623      53535F57 
 8623      52495445 
 8624              	.LASF552:
 8625 4275 4359424C 		.ascii	"CYBLE_EVT_UDSC_READ_DESCR_RESPONSE\000"
 8625      455F4556 
 8625      545F5544 
 8625      53435F52 
 8625      4541445F 
 8626              	.LASF294:
ARM GAS  C:\Users\User\AppData\Local\Temp\ccmH1EJa.s 			page 213


 8627 4298 4359424C 		.ascii	"CYBLE_EVT_AIOSS_DESCR_WRITE\000"
 8627      455F4556 
 8627      545F4149 
 8627      4F53535F 
 8627      44455343 
 8628              	.LASF45:
 8629 42b4 4359424C 		.ascii	"CYBLE_EVT_GAP_SCAN_REQ_RECVD\000"
 8629      455F4556 
 8629      545F4741 
 8629      505F5343 
 8629      414E5F52 
 8630              	.LASF321:
 8631 42d1 4359424C 		.ascii	"CYBLE_EVT_BASC_READ_CHAR_RESPONSE\000"
 8631      455F4556 
 8631      545F4241 
 8631      53435F52 
 8631      4541445F 
 8632              	.LASF413:
 8633 42f3 4359424C 		.ascii	"CYBLE_EVT_GLSC_NOTIFICATION\000"
 8633      455F4556 
 8633      545F474C 
 8633      53435F4E 
 8633      4F544946 
 8634              	.LASF185:
 8635 430f 4359424C 		.ascii	"CYBLE_GATT_ERR_ANS_COMMAND_NOT_SUPPORTED\000"
 8635      455F4741 
 8635      54545F45 
 8635      52525F41 
 8635      4E535F43 
 8636              	.LASF531:
 8637 4338 4359424C 		.ascii	"CYBLE_EVT_SCPSS_SCAN_INT_WIN_CHAR_WRITE\000"
 8637      455F4556 
 8637      545F5343 
 8637      5053535F 
 8637      5343414E 
 8638              	.LASF576:
 8639 4360 4359424C 		.ascii	"CYBLE_STATE_INITIALIZING\000"
 8639      455F5354 
 8639      4154455F 
 8639      494E4954 
 8639      49414C49 
 8640              	.LASF134:
 8641 4379 4359424C 		.ascii	"CYBLE_GATT_READ_RSP\000"
 8641      455F4741 
 8641      54545F52 
 8641      4541445F 
 8641      52535000 
 8642              	.LASF261:
 8643 438d 63686172 		.ascii	"charInfo\000"
 8643      496E666F 
 8643      00
 8644              	.LASF95:
 8645 4396 4359424C 		.ascii	"CYBLE_ERROR_NO_CONNECTION\000"
 8645      455F4552 
 8645      524F525F 
 8645      4E4F5F43 
 8645      4F4E4E45 
ARM GAS  C:\Users\User\AppData\Local\Temp\ccmH1EJa.s 			page 214


 8646              	.LASF344:
 8647 43b0 4359424C 		.ascii	"CYBLE_EVT_BMSC_READ_DESCR_RESPONSE\000"
 8647      455F4556 
 8647      545F424D 
 8647      53435F52 
 8647      4541445F 
 8648              	.LASF85:
 8649 43d3 4359424C 		.ascii	"CYBLE_EVT_LE_PING_AUTH_TIMEOUT\000"
 8649      455F4556 
 8649      545F4C45 
 8649      5F50494E 
 8649      475F4155 
 8650              	.LASF123:
 8651 43f2 4359424C 		.ascii	"CYBLE_API_RESULT_T\000"
 8651      455F4150 
 8651      495F5245 
 8651      53554C54 
 8651      5F5400
 8652              	.LASF209:
 8653 4405 656E6448 		.ascii	"endHandle\000"
 8653      616E646C 
 8653      6500
 8654              	.LASF346:
 8655 440f 4359424C 		.ascii	"CYBLE_EVT_CGMSS_INDICATION_DISABLED\000"
 8655      455F4556 
 8655      545F4347 
 8655      4D53535F 
 8655      494E4449 
 8656              	.LASF287:
 8657 4433 4359424C 		.ascii	"CYBLE_EVT_GATTC_DISCOVERY_COMPLETE\000"
 8657      455F4556 
 8657      545F4741 
 8657      5454435F 
 8657      44495343 
 8658              	.LASF268:
 8659 4456 4359424C 		.ascii	"CYBLE_HTS_DESCR_VALUE_T\000"
 8659      455F4854 
 8659      535F4445 
 8659      5343525F 
 8659      56414C55 
 8660              	.LASF350:
 8661 446e 4359424C 		.ascii	"CYBLE_EVT_CGMSS_WRITE_CHAR\000"
 8661      455F4556 
 8661      545F4347 
 8661      4D53535F 
 8661      57524954 
 8662              	.LASF417:
 8663 4489 4359424C 		.ascii	"CYBLE_EVT_GLSC_WRITE_DESCR_RESPONSE\000"
 8663      455F4556 
 8663      545F474C 
 8663      53435F57 
 8663      52495445 
 8664              	.LASF67:
 8665 44ad 4359424C 		.ascii	"CYBLE_EVT_GATTC_HANDLE_VALUE_IND\000"
 8665      455F4556 
 8665      545F4741 
 8665      5454435F 
ARM GAS  C:\Users\User\AppData\Local\Temp\ccmH1EJa.s 			page 215


 8665      48414E44 
 8666              	.LASF371:
 8667 44ce 4359424C 		.ascii	"CYBLE_EVT_CPSC_SCAN_PROGRESS_RESULT\000"
 8667      455F4556 
 8667      545F4350 
 8667      53435F53 
 8667      43414E5F 
 8668              	.LASF525:
 8669 44f2 4359424C 		.ascii	"CYBLE_EVT_RSCSC_READ_DESCR_RESPONSE\000"
 8669      455F4556 
 8669      545F5253 
 8669      4353435F 
 8669      52454144 
 8670              	.LASF101:
 8671 4516 4359424C 		.ascii	"CYBLE_ERROR_SEC_FAILED\000"
 8671      455F4552 
 8671      524F525F 
 8671      5345435F 
 8671      4641494C 
 8672              	.LASF634:
 8673 452d 4379426C 		.ascii	"CyBle_HtscSetCharacteristicDescriptor\000"
 8673      655F4874 
 8673      73635365 
 8673      74436861 
 8673      72616374 
 8674              	.LASF22:
 8675 4553 4359424C 		.ascii	"CYBLE_EVT_STACK_BUSY_STATUS\000"
 8675      455F4556 
 8675      545F5354 
 8675      41434B5F 
 8675      42555359 
 8676              	.LASF465:
 8677 456f 4359424C 		.ascii	"CYBLE_EVT_IPSC_ERROR_RESPONSE\000"
 8677      455F4556 
 8677      545F4950 
 8677      53435F45 
 8677      52524F52 
 8678              	.LASF457:
 8679 458d 4359424C 		.ascii	"CYBLE_EVT_HTSC_WRITE_DESCR_RESPONSE\000"
 8679      455F4556 
 8679      545F4854 
 8679      53435F57 
 8679      52495445 
 8680              	.LASF36:
 8681 45b1 4359424C 		.ascii	"CYBLE_EVT_GAP_KEYINFO_EXCHNGE_CMPLT\000"
 8681      455F4556 
 8681      545F4741 
 8681      505F4B45 
 8681      59494E46 
 8682              	.LASF619:
 8683 45d5 6E746652 		.ascii	"ntfReqParam\000"
 8683      65715061 
 8683      72616D00 
 8684              	.LASF146:
 8685 45e1 4359424C 		.ascii	"CYBLE_GATT_EXECUTE_WRITE_REQ\000"
 8685      455F4741 
 8685      54545F45 
ARM GAS  C:\Users\User\AppData\Local\Temp\ccmH1EJa.s 			page 216


 8685      58454355 
 8685      54455F57 
 8686              	.LASF566:
 8687 45fe 4359424C 		.ascii	"CYBLE_EVT_WPTSC_WRITE_DESCR_RESPONSE\000"
 8687      455F4556 
 8687      545F5750 
 8687      5453435F 
 8687      57524954 
 8688              	.LASF73:
 8689 4623 4359424C 		.ascii	"CYBLE_EVT_L2CAP_CONN_PARAM_UPDATE_REQ\000"
 8689      455F4556 
 8689      545F4C32 
 8689      4341505F 
 8689      434F4E4E 
 8690              	.LASF349:
 8691 4649 4359424C 		.ascii	"CYBLE_EVT_CGMSS_NOTIFICATION_DISABLED\000"
 8691      455F4556 
 8691      545F4347 
 8691      4D53535F 
 8691      4E4F5449 
 8692              	.LASF265:
 8693 466f 63686172 		.ascii	"charIndex\000"
 8693      496E6465 
 8693      7800
 8694              	.LASF262:
 8695 4679 4359424C 		.ascii	"CYBLE_HTSS_T\000"
 8695      455F4854 
 8695      53535F54 
 8695      00
 8696              	.LASF640:
 8697 4686 4379426C 		.ascii	"CyBle_HtscReadResponseEventHandler\000"
 8697      655F4874 
 8697      73635265 
 8697      61645265 
 8697      73706F6E 
 8698              	.LASF612:
 8699 46a9 67617474 		.ascii	"gattErr\000"
 8699      45727200 
 8700              	.LASF277:
 8701 46b1 4359424C 		.ascii	"CYBLE_EVT_GATTC_INCL_DISCOVERY_FAILED\000"
 8701      455F4556 
 8701      545F4741 
 8701      5454435F 
 8701      494E434C 
 8702              	.LASF157:
 8703 46d7 4359424C 		.ascii	"CYBLE_GATT_ERR_WRITE_NOT_PERMITTED\000"
 8703      455F4741 
 8703      54545F45 
 8703      52525F57 
 8703      52495445 
 8704              	.LASF595:
 8705 46fa 4359424C 		.ascii	"CYBLE_SRVI_CUSTOMS\000"
 8705      455F5352 
 8705      56495F43 
 8705      5553544F 
 8705      4D5300
 8706              	.LASF274:
ARM GAS  C:\Users\User\AppData\Local\Temp\ccmH1EJa.s 			page 217


 8707 470d 4359424C 		.ascii	"CYBLE_EVT_GATTS_INDICATION_DISABLED\000"
 8707      455F4556 
 8707      545F4741 
 8707      5454535F 
 8707      494E4449 
 8708              	.LASF3:
 8709 4731 73686F72 		.ascii	"short unsigned int\000"
 8709      7420756E 
 8709      7369676E 
 8709      65642069 
 8709      6E7400
 8710              	.LASF169:
 8711 4744 4359424C 		.ascii	"CYBLE_GATT_ERR_INSUFFICIENT_ENCRYPTION\000"
 8711      455F4741 
 8711      54545F45 
 8711      52525F49 
 8711      4E535546 
 8712              	.LASF315:
 8713 476b 4359424C 		.ascii	"CYBLE_EVT_ANSC_WRITE_CHAR_RESPONSE\000"
 8713      455F4556 
 8713      545F414E 
 8713      53435F57 
 8713      52495445 
 8714              	.LASF415:
 8715 478e 4359424C 		.ascii	"CYBLE_EVT_GLSC_WRITE_CHAR_RESPONSE\000"
 8715      455F4556 
 8715      545F474C 
 8715      53435F57 
 8715      52495445 
 8716              	.LASF480:
 8717 47b1 4359424C 		.ascii	"CYBLE_EVT_LNSC_READ_DESCR_RESPONSE\000"
 8717      455F4556 
 8717      545F4C4E 
 8717      53435F52 
 8717      4541445F 
 8718              	.LASF577:
 8719 47d4 4359424C 		.ascii	"CYBLE_STATE_CONNECTED\000"
 8719      455F5354 
 8719      4154455F 
 8719      434F4E4E 
 8719      45435445 
 8720              	.LASF204:
 8721 47ea 61637475 		.ascii	"actualLen\000"
 8721      616C4C65 
 8721      6E00
 8722              	.LASF633:
 8723 47f4 4379426C 		.ascii	"CyBle_HtscGetCharacteristicValue\000"
 8723      655F4874 
 8723      73634765 
 8723      74436861 
 8723      72616374 
 8724              	.LASF139:
 8725 4815 4359424C 		.ascii	"CYBLE_GATT_READ_BY_GROUP_REQ\000"
 8725      455F4741 
 8725      54545F52 
 8725      4541445F 
 8725      42595F47 
ARM GAS  C:\Users\User\AppData\Local\Temp\ccmH1EJa.s 			page 218


 8726              	.LASF286:
 8727 4832 4359424C 		.ascii	"CYBLE_EVT_GATTC_DISC_SKIPPED_SERVICE\000"
 8727      455F4556 
 8727      545F4741 
 8727      5454435F 
 8727      44495343 
 8728              	.LASF412:
 8729 4857 4359424C 		.ascii	"CYBLE_EVT_GLSC_INDICATION\000"
 8729      455F4556 
 8729      545F474C 
 8729      53435F49 
 8729      4E444943 
 8730              	.LASF363:
 8731 4871 4359424C 		.ascii	"CYBLE_EVT_CPSS_BROADCAST_DISABLED\000"
 8731      455F4556 
 8731      545F4350 
 8731      53535F42 
 8731      524F4144 
 8732              	.LASF202:
 8733 4893 61747449 		.ascii	"attId\000"
 8733      6400
 8734              	.LASF91:
 8735 4899 4359424C 		.ascii	"CYBLE_ERROR_INVALID_OPERATION\000"
 8735      455F4552 
 8735      524F525F 
 8735      494E5641 
 8735      4C49445F 
 8736              	.LASF21:
 8737 48b7 4359424C 		.ascii	"CYBLE_EVT_HCI_STATUS\000"
 8737      455F4556 
 8737      545F4843 
 8737      495F5354 
 8737      41545553 
 8738              	.LASF556:
 8739 48cc 4359424C 		.ascii	"CYBLE_EVT_WPTSS_NOTIFICATION_DISABLED\000"
 8739      455F4556 
 8739      545F5750 
 8739      5453535F 
 8739      4E4F5449 
 8740              	.LASF50:
 8741 48f2 4359424C 		.ascii	"CYBLE_EVT_GATT_DISCONNECT_IND\000"
 8741      455F4556 
 8741      545F4741 
 8741      54545F44 
 8741      4953434F 
 8742              	.LASF272:
 8743 4910 4359424C 		.ascii	"CYBLE_KEY_EXCHANGE_INFO_REQUEST_REPLY\000"
 8743      455F4B45 
 8743      595F4558 
 8743      4348414E 
 8743      47455F49 
 8744              	.LASF83:
 8745 4936 4359424C 		.ascii	"CYBLE_EVT_L2CAP_CBFC_DATA_WRITE_IND\000"
 8745      455F4556 
 8745      545F4C32 
 8745      4341505F 
 8745      43424643 
ARM GAS  C:\Users\User\AppData\Local\Temp\ccmH1EJa.s 			page 219


 8746              	.LASF270:
 8747 495a 4359424C 		.ascii	"CYBLE_PASSKEY_ENTRY_REQUEST_REPLY\000"
 8747      455F5041 
 8747      53534B45 
 8747      595F454E 
 8747      5452595F 
 8748              	.LASF330:
 8749 497c 4359424C 		.ascii	"CYBLE_EVT_BCSC_WRITE_DESCR_RESPONSE\000"
 8749      455F4556 
 8749      545F4243 
 8749      53435F57 
 8749      52495445 
 8750              	.LASF571:
 8751 49a0 4359424C 		.ascii	"CYBLE_EVT_WSSC_READ_CHAR_RESPONSE\000"
 8751      455F4556 
 8751      545F5753 
 8751      53435F52 
 8751      4541445F 
 8752              	.LASF72:
 8753 49c2 4359424C 		.ascii	"CYBLE_EVT_GATTC_LONG_PROCEDURE_END\000"
 8753      455F4556 
 8753      545F4741 
 8753      5454435F 
 8753      4C4F4E47 
 8754              	.LASF313:
 8755 49e5 4359424C 		.ascii	"CYBLE_EVT_ANSC_NOTIFICATION\000"
 8755      455F4556 
 8755      545F414E 
 8755      53435F4E 
 8755      4F544946 
 8756              	.LASF32:
 8757 4a01 4359424C 		.ascii	"CYBLE_EVT_GAP_DEVICE_DISCONNECTED\000"
 8757      455F4556 
 8757      545F4741 
 8757      505F4445 
 8757      56494345 
 8758              	.LASF420:
 8759 4a23 4359424C 		.ascii	"CYBLE_EVT_HIDSS_BOOT_MODE_ENTER\000"
 8759      455F4556 
 8759      545F4849 
 8759      4453535F 
 8759      424F4F54 
 8760              	.LASF68:
 8761 4a43 4359424C 		.ascii	"CYBLE_EVT_GATTS_HANDLE_VALUE_CNF\000"
 8761      455F4556 
 8761      545F4741 
 8761      5454535F 
 8761      48414E44 
 8762              	.LASF461:
 8763 4a64 4359424C 		.ascii	"CYBLE_EVT_IPSC_READ_MULTIPLE_CHAR_RESPONSE\000"
 8763      455F4556 
 8763      545F4950 
 8763      53435F52 
 8763      4541445F 
 8764              	.LASF382:
 8765 4a8f 4359424C 		.ascii	"CYBLE_EVT_CSCSC_READ_DESCR_RESPONSE\000"
 8765      455F4556 
ARM GAS  C:\Users\User\AppData\Local\Temp\ccmH1EJa.s 			page 220


 8765      545F4353 
 8765      4353435F 
 8765      52454144 
 8766              	.LASF10:
 8767 4ab3 75696E74 		.ascii	"uint16\000"
 8767      313600
 8768              	.LASF306:
 8769 4aba 4359424C 		.ascii	"CYBLE_EVT_ANCSC_WRITE_CHAR_RESPONSE\000"
 8769      455F4556 
 8769      545F414E 
 8769      4353435F 
 8769      57524954 
 8770              	.LASF99:
 8771 4ade 4359424C 		.ascii	"CYBLE_ERROR_TX_POWER_READ\000"
 8771      455F4552 
 8771      524F525F 
 8771      54585F50 
 8771      4F574552 
 8772              	.LASF515:
 8773 4af8 4359424C 		.ascii	"CYBLE_EVT_RSCSS_NOTIFICATION_ENABLED\000"
 8773      455F4556 
 8773      545F5253 
 8773      4353535F 
 8773      4E4F5449 
 8774              	.LASF198:
 8775 4b1d 4359424C 		.ascii	"CYBLE_UUID_T\000"
 8775      455F5555 
 8775      49445F54 
 8775      00
 8776              	.LASF311:
 8777 4b2a 4359424C 		.ascii	"CYBLE_EVT_ANSS_NOTIFICATION_DISABLED\000"
 8777      455F4556 
 8777      545F414E 
 8777      53535F4E 
 8777      4F544946 
 8778              	.LASF453:
 8779 4b4f 4359424C 		.ascii	"CYBLE_EVT_HTSC_INDICATION\000"
 8779      455F4556 
 8779      545F4854 
 8779      53435F49 
 8779      4E444943 
 8780              	.LASF243:
 8781 4b69 76616C75 		.ascii	"valueHandle\000"
 8781      6548616E 
 8781      646C6500 
 8782              	.LASF418:
 8783 4b75 4359424C 		.ascii	"CYBLE_EVT_HIDSS_NOTIFICATION_ENABLED\000"
 8783      455F4556 
 8783      545F4849 
 8783      4453535F 
 8783      4E4F5449 
 8784              	.LASF450:
 8785 4b9a 4359424C 		.ascii	"CYBLE_EVT_HTSS_INDICATION_CONFIRMED\000"
 8785      455F4556 
 8785      545F4854 
 8785      53535F49 
 8785      4E444943 
ARM GAS  C:\Users\User\AppData\Local\Temp\ccmH1EJa.s 			page 221


 8786              	.LASF289:
 8787 4bbe 4359424C 		.ascii	"CYBLE_EVT_AIOSS_NOTIFICATION_DISABLED\000"
 8787      455F4556 
 8787      545F4149 
 8787      4F53535F 
 8787      4E4F5449 
 8788              	.LASF559:
 8789 4be4 4359424C 		.ascii	"CYBLE_EVT_WPTSS_INDICATION_CONFIRMED\000"
 8789      455F4556 
 8789      545F5750 
 8789      5453535F 
 8789      494E4449 
 8790              	.LASF440:
 8791 4c09 4359424C 		.ascii	"CYBLE_EVT_HRSS_NOTIFICATION_DISABLED\000"
 8791      455F4556 
 8791      545F4852 
 8791      53535F4E 
 8791      4F544946 
 8792              		.ident	"GCC: (GNU Tools for ARM Embedded Processors) 5.4.1 20160609 (release) [ARM/embedded-5-bran
