ARM GAS  C:\Users\User\AppData\Local\Temp\ccqYjFyG.s 			page 1


   1              		.syntax unified
   2              		.cpu cortex-m0
   3              		.fpu softvfp
   4              		.eabi_attribute 20, 1
   5              		.eabi_attribute 21, 1
   6              		.eabi_attribute 23, 3
   7              		.eabi_attribute 24, 1
   8              		.eabi_attribute 25, 1
   9              		.eabi_attribute 26, 1
  10              		.eabi_attribute 30, 6
  11              		.eabi_attribute 34, 0
  12              		.eabi_attribute 18, 4
  13              		.thumb
  14              		.syntax unified
  15              		.file	"CommonFunctions.c"
  16              		.text
  17              	.Ltext0:
  18              		.cfi_sections	.debug_frame
  19              		.comm	OneWire_Sensor,32,4
  20              		.comm	OneWire_DataReady,1,1
  21              		.data
  22              		.type	flag_Timer, %object
  23              		.size	flag_Timer, 1
  24              	flag_Timer:
  25 0000 01       		.byte	1
  26              		.section	.text.InitializeSystem,"ax",%progbits
  27              		.align	2
  28              		.global	InitializeSystem
  29              		.code	16
  30              		.thumb_func
  31              		.type	InitializeSystem, %function
  32              	InitializeSystem:
  33              	.LFB36:
  34              		.file 1 "CommonFunctions.c"
   1:CommonFunctions.c **** /****************************************************************************
   2:CommonFunctions.c **** * File Name: CommonFunctions.c
   3:CommonFunctions.c **** *
   4:CommonFunctions.c **** * Description:
   5:CommonFunctions.c **** * This file implements the common functions used by the application.
   6:CommonFunctions.c **** *
   7:CommonFunctions.c **** *****************************************************************************/
   8:CommonFunctions.c **** 
   9:CommonFunctions.c **** 
  10:CommonFunctions.c **** /*****************************************************************************
  11:CommonFunctions.c **** * Included headers
  12:CommonFunctions.c **** *****************************************************************************/
  13:CommonFunctions.c **** #include "CommonFunctions.h"
  14:CommonFunctions.c **** 
  15:CommonFunctions.c **** 
  16:CommonFunctions.c **** 
  17:CommonFunctions.c **** /*****************************************************************************
  18:CommonFunctions.c **** * Function Name: InitializeSystem()
  19:CommonFunctions.c **** ******************************************************************************
  20:CommonFunctions.c **** * Summary:
  21:CommonFunctions.c **** * Initializes the complete system resources. 
  22:CommonFunctions.c **** *
  23:CommonFunctions.c **** * Parameters:
ARM GAS  C:\Users\User\AppData\Local\Temp\ccqYjFyG.s 			page 2


  24:CommonFunctions.c **** * None
  25:CommonFunctions.c **** *
  26:CommonFunctions.c **** * Return:
  27:CommonFunctions.c **** * None
  28:CommonFunctions.c **** *
  29:CommonFunctions.c **** * Theory:
  30:CommonFunctions.c **** * Initializes the system resources - enables BLE, starts UART and OneWire
  31:CommonFunctions.c **** * interrupt and drives the reference signals for temperature measurement. 
  32:CommonFunctions.c **** *
  33:CommonFunctions.c **** *****************************************************************************/
  34:CommonFunctions.c **** void InitializeSystem(void)
  35:CommonFunctions.c **** {
  35              		.loc 1 35 0
  36              		.cfi_startproc
  37              		@ args = 0, pretend = 0, frame = 0
  38              		@ frame_needed = 1, uses_anonymous_args = 0
  39 0000 80B5     		push	{r7, lr}
  40              		.cfi_def_cfa_offset 8
  41              		.cfi_offset 7, -8
  42              		.cfi_offset 14, -4
  43 0002 00AF     		add	r7, sp, #0
  44              		.cfi_def_cfa_register 7
  36:CommonFunctions.c **** 	/* Enable global interrupts. */
  37:CommonFunctions.c **** 	CyGlobalIntEnable;
  45              		.loc 1 37 0
  46              		.syntax divided
  47              	@ 37 "CommonFunctions.c" 1
  48 0004 62B6     		CPSIE   i
  49              	@ 0 "" 2
  38:CommonFunctions.c **** 	
  39:CommonFunctions.c **** 	/* Start BLE component and Register the generic Event callback function */
  40:CommonFunctions.c **** 	CyBle_Start(GenericEventHandler);
  50              		.loc 1 40 0
  51              		.thumb
  52              		.syntax unified
  53 0006 094B     		ldr	r3, .L2
  54 0008 1800     		movs	r0, r3
  55 000a FFF7FEFF 		bl	CyBle_Start
  41:CommonFunctions.c **** 	
  42:CommonFunctions.c **** 	/* Configure the Watchdog (WDT) timer for 100 millisecond timing */
  43:CommonFunctions.c **** 	InitializeWatchdog(WATCHDOG_COUNT_VAL);
  56              		.loc 1 43 0
  57 000e 084B     		ldr	r3, .L2+4
  58 0010 1800     		movs	r0, r3
  59 0012 FFF7FEFF 		bl	InitializeWatchdog
  44:CommonFunctions.c ****     
  45:CommonFunctions.c ****     /* Start OneWire */
  46:CommonFunctions.c ****     OneWire_Start();
  60              		.loc 1 46 0
  61 0016 FFF7FEFF 		bl	OneWire_Start
  47:CommonFunctions.c ****     isr_Timer_StartEx(isr_Timer);
  62              		.loc 1 47 0
  63 001a 064B     		ldr	r3, .L2+8
  64 001c 1800     		movs	r0, r3
  65 001e FFF7FEFF 		bl	isr_Timer_StartEx
  48:CommonFunctions.c **** 
  49:CommonFunctions.c **** 	#ifdef ENABLE_ADV_DATA_COUNTER
ARM GAS  C:\Users\User\AppData\Local\Temp\ccqYjFyG.s 			page 3


  50:CommonFunctions.c **** 	new_advData = *cyBle_discoveryModeInfo.advData;
  51:CommonFunctions.c **** 	
  52:CommonFunctions.c **** 	if( cyBle_discoveryModeInfo.advData->advDataLen < 29)
  53:CommonFunctions.c **** 	{
  54:CommonFunctions.c **** 		/* Initialize the DataCounter data in advertisement packet. This is custom data in 
  55:CommonFunctions.c **** 		* ADV packet and used to track whether the RGB LED data is latest or not */
  56:CommonFunctions.c **** 		new_advData.advData[cyBle_discoveryModeInfo.advData->advDataLen] = CUSTOM_ADV_DATA_MARKER;	
  57:CommonFunctions.c **** 		new_advData.advData[cyBle_discoveryModeInfo.advData->advDataLen+1] = dataADVCounter;
  58:CommonFunctions.c **** 		new_advData.advDataLen = cyBle_discoveryModeInfo.advData->advDataLen+2;
  59:CommonFunctions.c **** 	}
  60:CommonFunctions.c **** 	
  61:CommonFunctions.c **** 	/* Assign the new ADV data to stack */
  62:CommonFunctions.c **** 	cyBle_discoveryModeInfo.advData = &new_advData;
  63:CommonFunctions.c **** 	#endif
  64:CommonFunctions.c ****     
  65:CommonFunctions.c ****     /* Start UART */
  66:CommonFunctions.c **** 	UART_Start();
  66              		.loc 1 66 0
  67 0022 FFF7FEFF 		bl	UART_Start
  67:CommonFunctions.c **** 	#ifdef DEBUG_ENABLED
  68:CommonFunctions.c **** 		UART_Start();
  69:CommonFunctions.c **** 		UART_UartPutString("--------------------------Mesh Flood-----------------------------------------
  70:CommonFunctions.c **** 		UART_UartPutCRLF(' ');
  71:CommonFunctions.c **** 	#endif
  72:CommonFunctions.c **** }
  68              		.loc 1 72 0
  69 0026 C046     		nop
  70 0028 BD46     		mov	sp, r7
  71              		@ sp needed
  72 002a 80BD     		pop	{r7, pc}
  73              	.L3:
  74              		.align	2
  75              	.L2:
  76 002c 00000000 		.word	GenericEventHandler
  77 0030 CC0C0000 		.word	3276
  78 0034 00000000 		.word	isr_Timer
  79              		.cfi_endproc
  80              	.LFE36:
  81              		.size	InitializeSystem, .-InitializeSystem
  82              		.section	.text.reverse,"ax",%progbits
  83              		.align	2
  84              		.global	reverse
  85              		.code	16
  86              		.thumb_func
  87              		.type	reverse, %function
  88              	reverse:
  89              	.LFB37:
  73:CommonFunctions.c **** 
  74:CommonFunctions.c **** 
  75:CommonFunctions.c **** // Reverses a string 'str' of length 'len' 
  76:CommonFunctions.c **** void reverse(char* str, int len) 
  77:CommonFunctions.c **** { 
  90              		.loc 1 77 0
  91              		.cfi_startproc
  92              		@ args = 0, pretend = 0, frame = 24
  93              		@ frame_needed = 1, uses_anonymous_args = 0
  94 0000 80B5     		push	{r7, lr}
ARM GAS  C:\Users\User\AppData\Local\Temp\ccqYjFyG.s 			page 4


  95              		.cfi_def_cfa_offset 8
  96              		.cfi_offset 7, -8
  97              		.cfi_offset 14, -4
  98 0002 86B0     		sub	sp, sp, #24
  99              		.cfi_def_cfa_offset 32
 100 0004 00AF     		add	r7, sp, #0
 101              		.cfi_def_cfa_register 7
 102 0006 7860     		str	r0, [r7, #4]
 103 0008 3960     		str	r1, [r7]
  78:CommonFunctions.c ****     int i = 0, j = len - 1, temp; 
 104              		.loc 1 78 0
 105 000a 0023     		movs	r3, #0
 106 000c 7B61     		str	r3, [r7, #20]
 107 000e 3B68     		ldr	r3, [r7]
 108 0010 013B     		subs	r3, r3, #1
 109 0012 3B61     		str	r3, [r7, #16]
  79:CommonFunctions.c ****     while (i < j) { 
 110              		.loc 1 79 0
 111 0014 18E0     		b	.L5
 112              	.L6:
  80:CommonFunctions.c ****         temp = str[i]; 
 113              		.loc 1 80 0
 114 0016 7B69     		ldr	r3, [r7, #20]
 115 0018 7A68     		ldr	r2, [r7, #4]
 116 001a D318     		adds	r3, r2, r3
 117 001c 1B78     		ldrb	r3, [r3]
 118 001e FB60     		str	r3, [r7, #12]
  81:CommonFunctions.c ****         str[i] = str[j]; 
 119              		.loc 1 81 0
 120 0020 7B69     		ldr	r3, [r7, #20]
 121 0022 7A68     		ldr	r2, [r7, #4]
 122 0024 D318     		adds	r3, r2, r3
 123 0026 3A69     		ldr	r2, [r7, #16]
 124 0028 7968     		ldr	r1, [r7, #4]
 125 002a 8A18     		adds	r2, r1, r2
 126 002c 1278     		ldrb	r2, [r2]
 127 002e 1A70     		strb	r2, [r3]
  82:CommonFunctions.c ****         str[j] = temp; 
 128              		.loc 1 82 0
 129 0030 3B69     		ldr	r3, [r7, #16]
 130 0032 7A68     		ldr	r2, [r7, #4]
 131 0034 D318     		adds	r3, r2, r3
 132 0036 FA68     		ldr	r2, [r7, #12]
 133 0038 D2B2     		uxtb	r2, r2
 134 003a 1A70     		strb	r2, [r3]
  83:CommonFunctions.c ****         i++; 
 135              		.loc 1 83 0
 136 003c 7B69     		ldr	r3, [r7, #20]
 137 003e 0133     		adds	r3, r3, #1
 138 0040 7B61     		str	r3, [r7, #20]
  84:CommonFunctions.c ****         j--; 
 139              		.loc 1 84 0
 140 0042 3B69     		ldr	r3, [r7, #16]
 141 0044 013B     		subs	r3, r3, #1
 142 0046 3B61     		str	r3, [r7, #16]
 143              	.L5:
  79:CommonFunctions.c ****         temp = str[i]; 
ARM GAS  C:\Users\User\AppData\Local\Temp\ccqYjFyG.s 			page 5


 144              		.loc 1 79 0
 145 0048 7A69     		ldr	r2, [r7, #20]
 146 004a 3B69     		ldr	r3, [r7, #16]
 147 004c 9A42     		cmp	r2, r3
 148 004e E2DB     		blt	.L6
  85:CommonFunctions.c ****     } 
  86:CommonFunctions.c **** } 
 149              		.loc 1 86 0
 150 0050 C046     		nop
 151 0052 BD46     		mov	sp, r7
 152 0054 06B0     		add	sp, sp, #24
 153              		@ sp needed
 154 0056 80BD     		pop	{r7, pc}
 155              		.cfi_endproc
 156              	.LFE37:
 157              		.size	reverse, .-reverse
 158              		.global	__aeabi_idivmod
 159              		.global	__aeabi_idiv
 160              		.section	.text.intToStr,"ax",%progbits
 161              		.align	2
 162              		.global	intToStr
 163              		.code	16
 164              		.thumb_func
 165              		.type	intToStr, %function
 166              	intToStr:
 167              	.LFB38:
  87:CommonFunctions.c ****   
  88:CommonFunctions.c **** // Converts a given integer x to string str[].  
  89:CommonFunctions.c **** // d is the number of digits required in the output.  
  90:CommonFunctions.c **** // If d is more than the number of digits in x,  
  91:CommonFunctions.c **** // then 0s are added at the beginning. 
  92:CommonFunctions.c **** int intToStr(int x, char str[], int d) 
  93:CommonFunctions.c **** { 
 168              		.loc 1 93 0
 169              		.cfi_startproc
 170              		@ args = 0, pretend = 0, frame = 24
 171              		@ frame_needed = 1, uses_anonymous_args = 0
 172 0000 90B5     		push	{r4, r7, lr}
 173              		.cfi_def_cfa_offset 12
 174              		.cfi_offset 4, -12
 175              		.cfi_offset 7, -8
 176              		.cfi_offset 14, -4
 177 0002 87B0     		sub	sp, sp, #28
 178              		.cfi_def_cfa_offset 40
 179 0004 00AF     		add	r7, sp, #0
 180              		.cfi_def_cfa_register 7
 181 0006 F860     		str	r0, [r7, #12]
 182 0008 B960     		str	r1, [r7, #8]
 183 000a 7A60     		str	r2, [r7, #4]
  94:CommonFunctions.c ****     int i = 0; 
 184              		.loc 1 94 0
 185 000c 0023     		movs	r3, #0
 186 000e 7B61     		str	r3, [r7, #20]
  95:CommonFunctions.c ****     while (x) { 
 187              		.loc 1 95 0
 188 0010 16E0     		b	.L8
 189              	.L9:
ARM GAS  C:\Users\User\AppData\Local\Temp\ccqYjFyG.s 			page 6


  96:CommonFunctions.c ****         str[i++] = (x % 10) + '0'; 
 190              		.loc 1 96 0
 191 0012 7B69     		ldr	r3, [r7, #20]
 192 0014 5A1C     		adds	r2, r3, #1
 193 0016 7A61     		str	r2, [r7, #20]
 194 0018 1A00     		movs	r2, r3
 195 001a BB68     		ldr	r3, [r7, #8]
 196 001c 9C18     		adds	r4, r3, r2
 197 001e FB68     		ldr	r3, [r7, #12]
 198 0020 0A21     		movs	r1, #10
 199 0022 1800     		movs	r0, r3
 200 0024 FFF7FEFF 		bl	__aeabi_idivmod
 201 0028 0B00     		movs	r3, r1
 202 002a DBB2     		uxtb	r3, r3
 203 002c 3033     		adds	r3, r3, #48
 204 002e DBB2     		uxtb	r3, r3
 205 0030 2370     		strb	r3, [r4]
  97:CommonFunctions.c ****         x = x / 10; 
 206              		.loc 1 97 0
 207 0032 FB68     		ldr	r3, [r7, #12]
 208 0034 0A21     		movs	r1, #10
 209 0036 1800     		movs	r0, r3
 210 0038 FFF7FEFF 		bl	__aeabi_idiv
 211 003c 0300     		movs	r3, r0
 212 003e FB60     		str	r3, [r7, #12]
 213              	.L8:
  95:CommonFunctions.c ****     while (x) { 
 214              		.loc 1 95 0
 215 0040 FB68     		ldr	r3, [r7, #12]
 216 0042 002B     		cmp	r3, #0
 217 0044 E5D1     		bne	.L9
  98:CommonFunctions.c ****     } 
  99:CommonFunctions.c ****   
 100:CommonFunctions.c ****     // If number of digits required is more, then 
 101:CommonFunctions.c ****     // add 0s at the beginning 
 102:CommonFunctions.c ****     while (i < d) 
 218              		.loc 1 102 0
 219 0046 07E0     		b	.L10
 220              	.L11:
 103:CommonFunctions.c ****         str[i++] = '0'; 
 221              		.loc 1 103 0
 222 0048 7B69     		ldr	r3, [r7, #20]
 223 004a 5A1C     		adds	r2, r3, #1
 224 004c 7A61     		str	r2, [r7, #20]
 225 004e 1A00     		movs	r2, r3
 226 0050 BB68     		ldr	r3, [r7, #8]
 227 0052 9B18     		adds	r3, r3, r2
 228 0054 3022     		movs	r2, #48
 229 0056 1A70     		strb	r2, [r3]
 230              	.L10:
 102:CommonFunctions.c ****         str[i++] = '0'; 
 231              		.loc 1 102 0
 232 0058 7A69     		ldr	r2, [r7, #20]
 233 005a 7B68     		ldr	r3, [r7, #4]
 234 005c 9A42     		cmp	r2, r3
 235 005e F3DB     		blt	.L11
 104:CommonFunctions.c ****   
ARM GAS  C:\Users\User\AppData\Local\Temp\ccqYjFyG.s 			page 7


 105:CommonFunctions.c ****     reverse(str, i); 
 236              		.loc 1 105 0
 237 0060 7A69     		ldr	r2, [r7, #20]
 238 0062 BB68     		ldr	r3, [r7, #8]
 239 0064 1100     		movs	r1, r2
 240 0066 1800     		movs	r0, r3
 241 0068 FFF7FEFF 		bl	reverse
 106:CommonFunctions.c ****     str[i] = '\0'; 
 242              		.loc 1 106 0
 243 006c 7B69     		ldr	r3, [r7, #20]
 244 006e BA68     		ldr	r2, [r7, #8]
 245 0070 D318     		adds	r3, r2, r3
 246 0072 0022     		movs	r2, #0
 247 0074 1A70     		strb	r2, [r3]
 107:CommonFunctions.c ****     return i; 
 248              		.loc 1 107 0
 249 0076 7B69     		ldr	r3, [r7, #20]
 108:CommonFunctions.c **** } 
 250              		.loc 1 108 0
 251 0078 1800     		movs	r0, r3
 252 007a BD46     		mov	sp, r7
 253 007c 07B0     		add	sp, sp, #28
 254              		@ sp needed
 255 007e 90BD     		pop	{r4, r7, pc}
 256              		.cfi_endproc
 257              	.LFE38:
 258              		.size	intToStr, .-intToStr
 259              		.global	__aeabi_f2iz
 260              		.global	__aeabi_i2f
 261              		.global	__aeabi_fsub
 262              		.global	__aeabi_fmul
 263              		.section	.text.ftoa,"ax",%progbits
 264              		.align	2
 265              		.global	ftoa
 266              		.code	16
 267              		.thumb_func
 268              		.type	ftoa, %function
 269              	ftoa:
 270              	.LFB39:
 109:CommonFunctions.c ****   
 110:CommonFunctions.c **** // Converts a floating-point/double number to a string. 
 111:CommonFunctions.c **** void ftoa(float n, char* res, int afterpoint) 
 112:CommonFunctions.c **** { 
 271              		.loc 1 112 0
 272              		.cfi_startproc
 273              		@ args = 0, pretend = 0, frame = 32
 274              		@ frame_needed = 1, uses_anonymous_args = 0
 275 0000 80B5     		push	{r7, lr}
 276              		.cfi_def_cfa_offset 8
 277              		.cfi_offset 7, -8
 278              		.cfi_offset 14, -4
 279 0002 88B0     		sub	sp, sp, #32
 280              		.cfi_def_cfa_offset 40
 281 0004 00AF     		add	r7, sp, #0
 282              		.cfi_def_cfa_register 7
 283 0006 F860     		str	r0, [r7, #12]
 284 0008 B960     		str	r1, [r7, #8]
ARM GAS  C:\Users\User\AppData\Local\Temp\ccqYjFyG.s 			page 8


 285 000a 7A60     		str	r2, [r7, #4]
 113:CommonFunctions.c ****     // Extract integer part 
 114:CommonFunctions.c ****     int ipart = (int)n; 
 286              		.loc 1 114 0
 287 000c F868     		ldr	r0, [r7, #12]
 288 000e FFF7FEFF 		bl	__aeabi_f2iz
 289 0012 0300     		movs	r3, r0
 290 0014 FB61     		str	r3, [r7, #28]
 115:CommonFunctions.c ****   
 116:CommonFunctions.c ****     // Extract floating part 
 117:CommonFunctions.c ****     float fpart = n - (float)ipart; 
 291              		.loc 1 117 0
 292 0016 F869     		ldr	r0, [r7, #28]
 293 0018 FFF7FEFF 		bl	__aeabi_i2f
 294 001c 031C     		adds	r3, r0, #0
 295 001e 191C     		adds	r1, r3, #0
 296 0020 F868     		ldr	r0, [r7, #12]
 297 0022 FFF7FEFF 		bl	__aeabi_fsub
 298 0026 031C     		adds	r3, r0, #0
 299 0028 BB61     		str	r3, [r7, #24]
 118:CommonFunctions.c ****   
 119:CommonFunctions.c ****     // convert integer part to string 
 120:CommonFunctions.c ****     int i = intToStr(ipart, res, 0); 
 300              		.loc 1 120 0
 301 002a B968     		ldr	r1, [r7, #8]
 302 002c FB69     		ldr	r3, [r7, #28]
 303 002e 0022     		movs	r2, #0
 304 0030 1800     		movs	r0, r3
 305 0032 FFF7FEFF 		bl	intToStr
 306 0036 0300     		movs	r3, r0
 307 0038 7B61     		str	r3, [r7, #20]
 121:CommonFunctions.c ****   
 122:CommonFunctions.c ****     // check for display option after point 
 123:CommonFunctions.c ****     if (afterpoint != 0) { 
 308              		.loc 1 123 0
 309 003a 7B68     		ldr	r3, [r7, #4]
 310 003c 002B     		cmp	r3, #0
 311 003e 15D0     		beq	.L15
 124:CommonFunctions.c ****         res[i] = '.'; // add dot 
 312              		.loc 1 124 0
 313 0040 7B69     		ldr	r3, [r7, #20]
 314 0042 BA68     		ldr	r2, [r7, #8]
 315 0044 D318     		adds	r3, r2, r3
 316 0046 2E22     		movs	r2, #46
 317 0048 1A70     		strb	r2, [r3]
 125:CommonFunctions.c ****   
 126:CommonFunctions.c ****         // Get the value of fraction part upto given no. 
 127:CommonFunctions.c ****         // of points after dot. The third parameter  
 128:CommonFunctions.c ****         // is needed to handle cases like 233.007 
 129:CommonFunctions.c ****         fpart = fpart * 100; 
 318              		.loc 1 129 0
 319 004a 0A49     		ldr	r1, .L16
 320 004c B869     		ldr	r0, [r7, #24]
 321 004e FFF7FEFF 		bl	__aeabi_fmul
 322 0052 031C     		adds	r3, r0, #0
 323 0054 BB61     		str	r3, [r7, #24]
 130:CommonFunctions.c ****   
ARM GAS  C:\Users\User\AppData\Local\Temp\ccqYjFyG.s 			page 9


 131:CommonFunctions.c ****         intToStr((int)fpart, res + i + 1, afterpoint); 
 324              		.loc 1 131 0
 325 0056 B869     		ldr	r0, [r7, #24]
 326 0058 FFF7FEFF 		bl	__aeabi_f2iz
 327 005c 7B69     		ldr	r3, [r7, #20]
 328 005e 0133     		adds	r3, r3, #1
 329 0060 BA68     		ldr	r2, [r7, #8]
 330 0062 D318     		adds	r3, r2, r3
 331 0064 7A68     		ldr	r2, [r7, #4]
 332 0066 1900     		movs	r1, r3
 333 0068 FFF7FEFF 		bl	intToStr
 334              	.L15:
 132:CommonFunctions.c ****     }
 133:CommonFunctions.c **** }
 335              		.loc 1 133 0
 336 006c C046     		nop
 337 006e BD46     		mov	sp, r7
 338 0070 08B0     		add	sp, sp, #32
 339              		@ sp needed
 340 0072 80BD     		pop	{r7, pc}
 341              	.L17:
 342              		.align	2
 343              	.L16:
 344 0074 0000C842 		.word	1120403456
 345              		.cfi_endproc
 346              	.LFE39:
 347              		.size	ftoa, .-ftoa
 348              		.text
 349              	.Letext0:
 350              		.file 2 "Generated_Source\\PSoC4/cytypes.h"
 351              		.file 3 "Generated_Source\\PSoC4/OneWire.h"
 352              		.file 4 "Generated_Source\\PSoC4/BLE_Stack.h"
 353              		.file 5 "Generated_Source\\PSoC4/BLE_hts.h"
 354              		.file 6 "Generated_Source\\PSoC4/BLE_eventHandler.h"
 355              		.file 7 "Temperature.h"