ARM GAS  C:\Users\User\AppData\Local\Temp\ccKFBczQ.s 			page 1


   1              		.syntax unified
   2              		.cpu cortex-m0
   3              		.fpu softvfp
   4              		.eabi_attribute 20, 1
   5              		.eabi_attribute 21, 1
   6              		.eabi_attribute 23, 3
   7              		.eabi_attribute 24, 1
   8              		.eabi_attribute 25, 1
   9              		.eabi_attribute 26, 1
  10              		.eabi_attribute 30, 6
  11              		.eabi_attribute 34, 0
  12              		.eabi_attribute 18, 4
  13              		.thumb
  14              		.syntax unified
  15              		.file	"cyfitter_cfg.c"
  16              		.text
  17              	.Ltext0:
  18              		.cfi_sections	.debug_frame
  19              		.section	.text.CYMEMZERO,"ax",%progbits
  20              		.align	2
  21              		.code	16
  22              		.thumb_func
  23              		.type	CYMEMZERO, %function
  24              	CYMEMZERO:
  25              	.LFB2:
  26              		.file 1 "Generated_Source\\PSoC4\\cyfitter_cfg.c"
   1:Generated_Source\PSoC4/cyfitter_cfg.c **** 
   2:Generated_Source\PSoC4/cyfitter_cfg.c **** /*******************************************************************************
   3:Generated_Source\PSoC4/cyfitter_cfg.c **** * File Name: cyfitter_cfg.c
   4:Generated_Source\PSoC4/cyfitter_cfg.c **** * 
   5:Generated_Source\PSoC4/cyfitter_cfg.c **** * PSoC Creator  4.2
   6:Generated_Source\PSoC4/cyfitter_cfg.c **** *
   7:Generated_Source\PSoC4/cyfitter_cfg.c **** * Description:
   8:Generated_Source\PSoC4/cyfitter_cfg.c **** * This file contains device initialization code.
   9:Generated_Source\PSoC4/cyfitter_cfg.c **** * Except for the user defined sections in CyClockStartupError(), this file should not be modified.
  10:Generated_Source\PSoC4/cyfitter_cfg.c **** * This file is automatically generated by PSoC Creator.
  11:Generated_Source\PSoC4/cyfitter_cfg.c **** *
  12:Generated_Source\PSoC4/cyfitter_cfg.c **** ********************************************************************************
  13:Generated_Source\PSoC4/cyfitter_cfg.c **** * Copyright (c) 2007-2018 Cypress Semiconductor.  All rights reserved.
  14:Generated_Source\PSoC4/cyfitter_cfg.c **** * You may use this file only in accordance with the license, terms, conditions, 
  15:Generated_Source\PSoC4/cyfitter_cfg.c **** * disclaimers, and limitations in the end user license agreement accompanying 
  16:Generated_Source\PSoC4/cyfitter_cfg.c **** * the software package with which this file was provided.
  17:Generated_Source\PSoC4/cyfitter_cfg.c **** ********************************************************************************/
  18:Generated_Source\PSoC4/cyfitter_cfg.c **** 
  19:Generated_Source\PSoC4/cyfitter_cfg.c **** #include <string.h>
  20:Generated_Source\PSoC4/cyfitter_cfg.c **** #include "cytypes.h"
  21:Generated_Source\PSoC4/cyfitter_cfg.c **** #include "cydevice_trm.h"
  22:Generated_Source\PSoC4/cyfitter_cfg.c **** #include "cyfitter.h"
  23:Generated_Source\PSoC4/cyfitter_cfg.c **** #include "CyLib.h"
  24:Generated_Source\PSoC4/cyfitter_cfg.c **** #include "cyfitter_cfg.h"
  25:Generated_Source\PSoC4/cyfitter_cfg.c **** 
  26:Generated_Source\PSoC4/cyfitter_cfg.c **** 
  27:Generated_Source\PSoC4/cyfitter_cfg.c **** #if defined(__GNUC__) || defined(__ARMCC_VERSION)
  28:Generated_Source\PSoC4/cyfitter_cfg.c ****     #define CYPACKED 
  29:Generated_Source\PSoC4/cyfitter_cfg.c ****     #define CYPACKED_ATTR __attribute__ ((packed))
  30:Generated_Source\PSoC4/cyfitter_cfg.c ****     #define CYALIGNED __attribute__ ((aligned))
  31:Generated_Source\PSoC4/cyfitter_cfg.c ****     #define CY_CFG_UNUSED __attribute__ ((unused))
ARM GAS  C:\Users\User\AppData\Local\Temp\ccKFBczQ.s 			page 2


  32:Generated_Source\PSoC4/cyfitter_cfg.c ****     #ifndef CY_CFG_SECTION
  33:Generated_Source\PSoC4/cyfitter_cfg.c ****         #define CY_CFG_SECTION __attribute__ ((section(".psocinit")))
  34:Generated_Source\PSoC4/cyfitter_cfg.c ****     #endif
  35:Generated_Source\PSoC4/cyfitter_cfg.c ****     
  36:Generated_Source\PSoC4/cyfitter_cfg.c ****     #if defined(__ARMCC_VERSION)
  37:Generated_Source\PSoC4/cyfitter_cfg.c ****         #define CY_CFG_MEMORY_BARRIER() __memory_changed()
  38:Generated_Source\PSoC4/cyfitter_cfg.c ****     #else
  39:Generated_Source\PSoC4/cyfitter_cfg.c ****         #define CY_CFG_MEMORY_BARRIER() __sync_synchronize()
  40:Generated_Source\PSoC4/cyfitter_cfg.c ****     #endif
  41:Generated_Source\PSoC4/cyfitter_cfg.c ****     
  42:Generated_Source\PSoC4/cyfitter_cfg.c **** #elif defined(__ICCARM__)
  43:Generated_Source\PSoC4/cyfitter_cfg.c ****     #include <intrinsics.h>
  44:Generated_Source\PSoC4/cyfitter_cfg.c **** 
  45:Generated_Source\PSoC4/cyfitter_cfg.c ****     #define CYPACKED __packed
  46:Generated_Source\PSoC4/cyfitter_cfg.c ****     #define CYPACKED_ATTR 
  47:Generated_Source\PSoC4/cyfitter_cfg.c ****     #define CYALIGNED _Pragma("data_alignment=4")
  48:Generated_Source\PSoC4/cyfitter_cfg.c ****     #define CY_CFG_UNUSED _Pragma("diag_suppress=Pe177")
  49:Generated_Source\PSoC4/cyfitter_cfg.c ****     #define CY_CFG_SECTION _Pragma("location=\".psocinit\"")
  50:Generated_Source\PSoC4/cyfitter_cfg.c ****     
  51:Generated_Source\PSoC4/cyfitter_cfg.c ****     #define CY_CFG_MEMORY_BARRIER() __DMB()
  52:Generated_Source\PSoC4/cyfitter_cfg.c ****     
  53:Generated_Source\PSoC4/cyfitter_cfg.c **** #else
  54:Generated_Source\PSoC4/cyfitter_cfg.c ****     #error Unsupported toolchain
  55:Generated_Source\PSoC4/cyfitter_cfg.c **** #endif
  56:Generated_Source\PSoC4/cyfitter_cfg.c **** 
  57:Generated_Source\PSoC4/cyfitter_cfg.c **** #ifndef CYCODE
  58:Generated_Source\PSoC4/cyfitter_cfg.c ****     #define CYCODE
  59:Generated_Source\PSoC4/cyfitter_cfg.c **** #endif
  60:Generated_Source\PSoC4/cyfitter_cfg.c **** #ifndef CYDATA
  61:Generated_Source\PSoC4/cyfitter_cfg.c ****     #define CYDATA
  62:Generated_Source\PSoC4/cyfitter_cfg.c **** #endif
  63:Generated_Source\PSoC4/cyfitter_cfg.c **** #ifndef CYFAR
  64:Generated_Source\PSoC4/cyfitter_cfg.c ****     #define CYFAR
  65:Generated_Source\PSoC4/cyfitter_cfg.c **** #endif
  66:Generated_Source\PSoC4/cyfitter_cfg.c **** #ifndef CYXDATA
  67:Generated_Source\PSoC4/cyfitter_cfg.c ****     #define CYXDATA
  68:Generated_Source\PSoC4/cyfitter_cfg.c **** #endif
  69:Generated_Source\PSoC4/cyfitter_cfg.c **** 
  70:Generated_Source\PSoC4/cyfitter_cfg.c **** 
  71:Generated_Source\PSoC4/cyfitter_cfg.c **** CY_CFG_UNUSED
  72:Generated_Source\PSoC4/cyfitter_cfg.c **** static void CYMEMZERO(void *s, size_t n);
  73:Generated_Source\PSoC4/cyfitter_cfg.c **** CY_CFG_UNUSED
  74:Generated_Source\PSoC4/cyfitter_cfg.c **** static void CYMEMZERO(void *s, size_t n)
  75:Generated_Source\PSoC4/cyfitter_cfg.c **** {
  27              		.loc 1 75 0
  28              		.cfi_startproc
  29              		@ args = 0, pretend = 0, frame = 8
  30              		@ frame_needed = 1, uses_anonymous_args = 0
  31 0000 80B5     		push	{r7, lr}
  32              		.cfi_def_cfa_offset 8
  33              		.cfi_offset 7, -8
  34              		.cfi_offset 14, -4
  35 0002 82B0     		sub	sp, sp, #8
  36              		.cfi_def_cfa_offset 16
  37 0004 00AF     		add	r7, sp, #0
  38              		.cfi_def_cfa_register 7
  39 0006 7860     		str	r0, [r7, #4]
ARM GAS  C:\Users\User\AppData\Local\Temp\ccKFBczQ.s 			page 3


  40 0008 3960     		str	r1, [r7]
  76:Generated_Source\PSoC4/cyfitter_cfg.c **** 	(void)memset(s, 0, n);
  41              		.loc 1 76 0
  42 000a 3A68     		ldr	r2, [r7]
  43 000c 7B68     		ldr	r3, [r7, #4]
  44 000e 0021     		movs	r1, #0
  45 0010 1800     		movs	r0, r3
  46 0012 FFF7FEFF 		bl	memset
  77:Generated_Source\PSoC4/cyfitter_cfg.c **** }
  47              		.loc 1 77 0
  48 0016 C046     		nop
  49 0018 BD46     		mov	sp, r7
  50 001a 02B0     		add	sp, sp, #8
  51              		@ sp needed
  52 001c 80BD     		pop	{r7, pc}
  53              		.cfi_endproc
  54              	.LFE2:
  55              		.size	CYMEMZERO, .-CYMEMZERO
  56 001e C046     		.section	.text.CYCONFIGCPY,"ax",%progbits
  57              		.align	2
  58              		.code	16
  59              		.thumb_func
  60              		.type	CYCONFIGCPY, %function
  61              	CYCONFIGCPY:
  62              	.LFB3:
  78:Generated_Source\PSoC4/cyfitter_cfg.c **** CY_CFG_UNUSED
  79:Generated_Source\PSoC4/cyfitter_cfg.c **** static void CYCONFIGCPY(void *dest, const void *src, size_t n);
  80:Generated_Source\PSoC4/cyfitter_cfg.c **** CY_CFG_UNUSED
  81:Generated_Source\PSoC4/cyfitter_cfg.c **** static void CYCONFIGCPY(void *dest, const void *src, size_t n)
  82:Generated_Source\PSoC4/cyfitter_cfg.c **** {
  63              		.loc 1 82 0
  64              		.cfi_startproc
  65              		@ args = 0, pretend = 0, frame = 16
  66              		@ frame_needed = 1, uses_anonymous_args = 0
  67 0000 80B5     		push	{r7, lr}
  68              		.cfi_def_cfa_offset 8
  69              		.cfi_offset 7, -8
  70              		.cfi_offset 14, -4
  71 0002 84B0     		sub	sp, sp, #16
  72              		.cfi_def_cfa_offset 24
  73 0004 00AF     		add	r7, sp, #0
  74              		.cfi_def_cfa_register 7
  75 0006 F860     		str	r0, [r7, #12]
  76 0008 B960     		str	r1, [r7, #8]
  77 000a 7A60     		str	r2, [r7, #4]
  83:Generated_Source\PSoC4/cyfitter_cfg.c **** 	(void)memcpy(dest, src, n);
  78              		.loc 1 83 0
  79 000c 7A68     		ldr	r2, [r7, #4]
  80 000e B968     		ldr	r1, [r7, #8]
  81 0010 FB68     		ldr	r3, [r7, #12]
  82 0012 1800     		movs	r0, r3
  83 0014 FFF7FEFF 		bl	memcpy
  84:Generated_Source\PSoC4/cyfitter_cfg.c **** }
  84              		.loc 1 84 0
  85 0018 C046     		nop
  86 001a BD46     		mov	sp, r7
  87 001c 04B0     		add	sp, sp, #16
ARM GAS  C:\Users\User\AppData\Local\Temp\ccKFBczQ.s 			page 4


  88              		@ sp needed
  89 001e 80BD     		pop	{r7, pc}
  90              		.cfi_endproc
  91              	.LFE3:
  92              		.size	CYCONFIGCPY, .-CYCONFIGCPY
  93              		.section	.text.CYCONFIGCPYCODE,"ax",%progbits
  94              		.align	2
  95              		.code	16
  96              		.thumb_func
  97              		.type	CYCONFIGCPYCODE, %function
  98              	CYCONFIGCPYCODE:
  99              	.LFB4:
  85:Generated_Source\PSoC4/cyfitter_cfg.c **** CY_CFG_UNUSED
  86:Generated_Source\PSoC4/cyfitter_cfg.c **** static void CYCONFIGCPYCODE(void *dest, const void *src, size_t n);
  87:Generated_Source\PSoC4/cyfitter_cfg.c **** CY_CFG_UNUSED
  88:Generated_Source\PSoC4/cyfitter_cfg.c **** static void CYCONFIGCPYCODE(void *dest, const void *src, size_t n)
  89:Generated_Source\PSoC4/cyfitter_cfg.c **** {
 100              		.loc 1 89 0
 101              		.cfi_startproc
 102              		@ args = 0, pretend = 0, frame = 16
 103              		@ frame_needed = 1, uses_anonymous_args = 0
 104 0000 80B5     		push	{r7, lr}
 105              		.cfi_def_cfa_offset 8
 106              		.cfi_offset 7, -8
 107              		.cfi_offset 14, -4
 108 0002 84B0     		sub	sp, sp, #16
 109              		.cfi_def_cfa_offset 24
 110 0004 00AF     		add	r7, sp, #0
 111              		.cfi_def_cfa_register 7
 112 0006 F860     		str	r0, [r7, #12]
 113 0008 B960     		str	r1, [r7, #8]
 114 000a 7A60     		str	r2, [r7, #4]
  90:Generated_Source\PSoC4/cyfitter_cfg.c **** 	(void)memcpy(dest, src, n);
 115              		.loc 1 90 0
 116 000c 7A68     		ldr	r2, [r7, #4]
 117 000e B968     		ldr	r1, [r7, #8]
 118 0010 FB68     		ldr	r3, [r7, #12]
 119 0012 1800     		movs	r0, r3
 120 0014 FFF7FEFF 		bl	memcpy
  91:Generated_Source\PSoC4/cyfitter_cfg.c **** }
 121              		.loc 1 91 0
 122 0018 C046     		nop
 123 001a BD46     		mov	sp, r7
 124 001c 04B0     		add	sp, sp, #16
 125              		@ sp needed
 126 001e 80BD     		pop	{r7, pc}
 127              		.cfi_endproc
 128              	.LFE4:
 129              		.size	CYCONFIGCPYCODE, .-CYCONFIGCPYCODE
 130              		.section	.text.cfg_write_bytes32,"ax",%progbits
 131              		.align	2
 132              		.code	16
 133              		.thumb_func
 134              		.type	cfg_write_bytes32, %function
 135              	cfg_write_bytes32:
 136              	.LFB5:
  92:Generated_Source\PSoC4/cyfitter_cfg.c **** 
ARM GAS  C:\Users\User\AppData\Local\Temp\ccKFBczQ.s 			page 5


  93:Generated_Source\PSoC4/cyfitter_cfg.c **** 
  94:Generated_Source\PSoC4/cyfitter_cfg.c **** 
  95:Generated_Source\PSoC4/cyfitter_cfg.c **** 
  96:Generated_Source\PSoC4/cyfitter_cfg.c **** /* Clock startup error codes                                                   */
  97:Generated_Source\PSoC4/cyfitter_cfg.c **** #define CYCLOCKSTART_NO_ERROR    0u
  98:Generated_Source\PSoC4/cyfitter_cfg.c **** #define CYCLOCKSTART_XTAL_ERROR  1u
  99:Generated_Source\PSoC4/cyfitter_cfg.c **** #define CYCLOCKSTART_32KHZ_ERROR 2u
 100:Generated_Source\PSoC4/cyfitter_cfg.c **** #define CYCLOCKSTART_PLL_ERROR   3u
 101:Generated_Source\PSoC4/cyfitter_cfg.c **** #define CYCLOCKSTART_FLL_ERROR   4u
 102:Generated_Source\PSoC4/cyfitter_cfg.c **** #define CYCLOCKSTART_WCO_ERROR   5u
 103:Generated_Source\PSoC4/cyfitter_cfg.c **** 
 104:Generated_Source\PSoC4/cyfitter_cfg.c **** 
 105:Generated_Source\PSoC4/cyfitter_cfg.c **** #ifdef CY_NEED_CYCLOCKSTARTUPERROR
 106:Generated_Source\PSoC4/cyfitter_cfg.c **** /*******************************************************************************
 107:Generated_Source\PSoC4/cyfitter_cfg.c **** * Function Name: CyClockStartupError
 108:Generated_Source\PSoC4/cyfitter_cfg.c **** ********************************************************************************
 109:Generated_Source\PSoC4/cyfitter_cfg.c **** * Summary:
 110:Generated_Source\PSoC4/cyfitter_cfg.c **** *  If an error is encountered during clock configuration (crystal startup error,
 111:Generated_Source\PSoC4/cyfitter_cfg.c **** *  PLL lock error, etc.), the system will end up here.  Unless reimplemented by
 112:Generated_Source\PSoC4/cyfitter_cfg.c **** *  the customer, this function will stop in an infinite loop.
 113:Generated_Source\PSoC4/cyfitter_cfg.c **** *
 114:Generated_Source\PSoC4/cyfitter_cfg.c **** * Parameters:
 115:Generated_Source\PSoC4/cyfitter_cfg.c **** *   void
 116:Generated_Source\PSoC4/cyfitter_cfg.c **** *
 117:Generated_Source\PSoC4/cyfitter_cfg.c **** * Return:
 118:Generated_Source\PSoC4/cyfitter_cfg.c **** *   void
 119:Generated_Source\PSoC4/cyfitter_cfg.c **** *
 120:Generated_Source\PSoC4/cyfitter_cfg.c **** *******************************************************************************/
 121:Generated_Source\PSoC4/cyfitter_cfg.c **** CY_CFG_UNUSED
 122:Generated_Source\PSoC4/cyfitter_cfg.c **** static void CyClockStartupError(uint8 errorCode);
 123:Generated_Source\PSoC4/cyfitter_cfg.c **** CY_CFG_UNUSED
 124:Generated_Source\PSoC4/cyfitter_cfg.c **** static void CyClockStartupError(uint8 errorCode)
 125:Generated_Source\PSoC4/cyfitter_cfg.c **** {
 126:Generated_Source\PSoC4/cyfitter_cfg.c ****     /* To remove the compiler warning if errorCode not used.                */
 127:Generated_Source\PSoC4/cyfitter_cfg.c ****     errorCode = errorCode;
 128:Generated_Source\PSoC4/cyfitter_cfg.c **** 
 129:Generated_Source\PSoC4/cyfitter_cfg.c ****     /* If we have a clock startup error (bad MHz crystal, PLL lock, etc.),  */
 130:Generated_Source\PSoC4/cyfitter_cfg.c ****     /* we will end up here to allow the customer to implement something to  */
 131:Generated_Source\PSoC4/cyfitter_cfg.c ****     /* deal with the clock condition.                                       */
 132:Generated_Source\PSoC4/cyfitter_cfg.c **** 
 133:Generated_Source\PSoC4/cyfitter_cfg.c **** #ifdef CY_CFG_CLOCK_STARTUP_ERROR_CALLBACK
 134:Generated_Source\PSoC4/cyfitter_cfg.c ****     CY_CFG_Clock_Startup_ErrorCallback();
 135:Generated_Source\PSoC4/cyfitter_cfg.c **** #else
 136:Generated_Source\PSoC4/cyfitter_cfg.c ****     /*  If not using CY_CFG_CLOCK_STARTUP_ERROR_CALLBACK, place your clock startup code here. */
 137:Generated_Source\PSoC4/cyfitter_cfg.c ****     /* `#START CyClockStartupError` */
 138:Generated_Source\PSoC4/cyfitter_cfg.c **** 
 139:Generated_Source\PSoC4/cyfitter_cfg.c ****     /* If we have a clock startup error (bad MHz crystal, PLL lock, etc.),  */
 140:Generated_Source\PSoC4/cyfitter_cfg.c ****     /* we will end up here to allow the customer to implement something to  */
 141:Generated_Source\PSoC4/cyfitter_cfg.c ****     /* deal with the clock condition.                                       */
 142:Generated_Source\PSoC4/cyfitter_cfg.c **** 
 143:Generated_Source\PSoC4/cyfitter_cfg.c ****     /* `#END` */
 144:Generated_Source\PSoC4/cyfitter_cfg.c **** 
 145:Generated_Source\PSoC4/cyfitter_cfg.c ****     while(1) {}
 146:Generated_Source\PSoC4/cyfitter_cfg.c **** #endif /* CY_CFG_CLOCK_STARTUP_ERROR_CALLBACK */
 147:Generated_Source\PSoC4/cyfitter_cfg.c **** }
 148:Generated_Source\PSoC4/cyfitter_cfg.c **** #endif
 149:Generated_Source\PSoC4/cyfitter_cfg.c **** 
ARM GAS  C:\Users\User\AppData\Local\Temp\ccKFBczQ.s 			page 6


 150:Generated_Source\PSoC4/cyfitter_cfg.c **** #define CY_CFG_BASE_ADDR_COUNT 9u
 151:Generated_Source\PSoC4/cyfitter_cfg.c **** CYPACKED typedef struct
 152:Generated_Source\PSoC4/cyfitter_cfg.c **** {
 153:Generated_Source\PSoC4/cyfitter_cfg.c **** 	uint8 offset;
 154:Generated_Source\PSoC4/cyfitter_cfg.c **** 	uint8 value;
 155:Generated_Source\PSoC4/cyfitter_cfg.c **** } CYPACKED_ATTR cy_cfg_addrvalue_t;
 156:Generated_Source\PSoC4/cyfitter_cfg.c **** 
 157:Generated_Source\PSoC4/cyfitter_cfg.c **** 
 158:Generated_Source\PSoC4/cyfitter_cfg.c **** 
 159:Generated_Source\PSoC4/cyfitter_cfg.c **** /*******************************************************************************
 160:Generated_Source\PSoC4/cyfitter_cfg.c **** * Function Name: cfg_write_bytes32
 161:Generated_Source\PSoC4/cyfitter_cfg.c **** ********************************************************************************
 162:Generated_Source\PSoC4/cyfitter_cfg.c **** * Summary:
 163:Generated_Source\PSoC4/cyfitter_cfg.c **** *  This function is used for setting up the chip configuration areas that
 164:Generated_Source\PSoC4/cyfitter_cfg.c **** *  contain relatively sparse data.
 165:Generated_Source\PSoC4/cyfitter_cfg.c **** *
 166:Generated_Source\PSoC4/cyfitter_cfg.c **** * Parameters:
 167:Generated_Source\PSoC4/cyfitter_cfg.c **** *   void
 168:Generated_Source\PSoC4/cyfitter_cfg.c **** *
 169:Generated_Source\PSoC4/cyfitter_cfg.c **** * Return:
 170:Generated_Source\PSoC4/cyfitter_cfg.c **** *   void
 171:Generated_Source\PSoC4/cyfitter_cfg.c **** *
 172:Generated_Source\PSoC4/cyfitter_cfg.c **** *******************************************************************************/
 173:Generated_Source\PSoC4/cyfitter_cfg.c **** static void cfg_write_bytes32(const uint32 addr_table[], const cy_cfg_addrvalue_t data_table[]);
 174:Generated_Source\PSoC4/cyfitter_cfg.c **** static void cfg_write_bytes32(const uint32 addr_table[], const cy_cfg_addrvalue_t data_table[])
 175:Generated_Source\PSoC4/cyfitter_cfg.c **** {
 137              		.loc 1 175 0
 138              		.cfi_startproc
 139              		@ args = 0, pretend = 0, frame = 24
 140              		@ frame_needed = 1, uses_anonymous_args = 0
 141 0000 80B5     		push	{r7, lr}
 142              		.cfi_def_cfa_offset 8
 143              		.cfi_offset 7, -8
 144              		.cfi_offset 14, -4
 145 0002 86B0     		sub	sp, sp, #24
 146              		.cfi_def_cfa_offset 32
 147 0004 00AF     		add	r7, sp, #0
 148              		.cfi_def_cfa_register 7
 149 0006 7860     		str	r0, [r7, #4]
 150 0008 3960     		str	r1, [r7]
 176:Generated_Source\PSoC4/cyfitter_cfg.c **** 	/* For 32-bit little-endian architectures */
 177:Generated_Source\PSoC4/cyfitter_cfg.c **** 	uint32 i, j = 0u;
 151              		.loc 1 177 0
 152 000a 0023     		movs	r3, #0
 153 000c 3B61     		str	r3, [r7, #16]
 178:Generated_Source\PSoC4/cyfitter_cfg.c **** 	for (i = 0u; i < CY_CFG_BASE_ADDR_COUNT; i++)
 154              		.loc 1 178 0
 155 000e 0023     		movs	r3, #0
 156 0010 7B61     		str	r3, [r7, #20]
 157 0012 2FE0     		b	.L5
 158              	.L8:
 159              	.LBB2:
 179:Generated_Source\PSoC4/cyfitter_cfg.c **** 	{
 180:Generated_Source\PSoC4/cyfitter_cfg.c **** 		uint32 baseAddr = addr_table[i];
 160              		.loc 1 180 0
 161 0014 7B69     		ldr	r3, [r7, #20]
 162 0016 9B00     		lsls	r3, r3, #2
ARM GAS  C:\Users\User\AppData\Local\Temp\ccKFBczQ.s 			page 7


 163 0018 7A68     		ldr	r2, [r7, #4]
 164 001a D318     		adds	r3, r2, r3
 165 001c 1B68     		ldr	r3, [r3]
 166 001e BB60     		str	r3, [r7, #8]
 181:Generated_Source\PSoC4/cyfitter_cfg.c **** 		uint8 count = (uint8)baseAddr;
 167              		.loc 1 181 0
 168 0020 0F23     		movs	r3, #15
 169 0022 FB18     		adds	r3, r7, r3
 170 0024 BA68     		ldr	r2, [r7, #8]
 171 0026 1A70     		strb	r2, [r3]
 182:Generated_Source\PSoC4/cyfitter_cfg.c **** 		baseAddr &= 0xFFFFFF00u;
 172              		.loc 1 182 0
 173 0028 BB68     		ldr	r3, [r7, #8]
 174 002a FF22     		movs	r2, #255
 175 002c 9343     		bics	r3, r2
 176 002e BB60     		str	r3, [r7, #8]
 183:Generated_Source\PSoC4/cyfitter_cfg.c **** 		while (count != 0u)
 177              		.loc 1 183 0
 178 0030 18E0     		b	.L6
 179              	.L7:
 184:Generated_Source\PSoC4/cyfitter_cfg.c **** 		{
 185:Generated_Source\PSoC4/cyfitter_cfg.c **** 			CY_SET_REG8((void *)(baseAddr + data_table[j].offset), data_table[j].value);
 180              		.loc 1 185 0
 181 0032 3B69     		ldr	r3, [r7, #16]
 182 0034 5B00     		lsls	r3, r3, #1
 183 0036 3A68     		ldr	r2, [r7]
 184 0038 D318     		adds	r3, r2, r3
 185 003a 1B78     		ldrb	r3, [r3]
 186 003c 1A00     		movs	r2, r3
 187 003e BB68     		ldr	r3, [r7, #8]
 188 0040 D318     		adds	r3, r2, r3
 189 0042 1900     		movs	r1, r3
 190 0044 3B69     		ldr	r3, [r7, #16]
 191 0046 5B00     		lsls	r3, r3, #1
 192 0048 3A68     		ldr	r2, [r7]
 193 004a D318     		adds	r3, r2, r3
 194 004c 5B78     		ldrb	r3, [r3, #1]
 195 004e 0B70     		strb	r3, [r1]
 186:Generated_Source\PSoC4/cyfitter_cfg.c **** 			j++;
 196              		.loc 1 186 0
 197 0050 3B69     		ldr	r3, [r7, #16]
 198 0052 0133     		adds	r3, r3, #1
 199 0054 3B61     		str	r3, [r7, #16]
 187:Generated_Source\PSoC4/cyfitter_cfg.c **** 			count--;
 200              		.loc 1 187 0
 201 0056 0F23     		movs	r3, #15
 202 0058 FB18     		adds	r3, r7, r3
 203 005a 1A78     		ldrb	r2, [r3]
 204 005c 0F23     		movs	r3, #15
 205 005e FB18     		adds	r3, r7, r3
 206 0060 013A     		subs	r2, r2, #1
 207 0062 1A70     		strb	r2, [r3]
 208              	.L6:
 183:Generated_Source\PSoC4/cyfitter_cfg.c **** 		{
 209              		.loc 1 183 0
 210 0064 0F23     		movs	r3, #15
 211 0066 FB18     		adds	r3, r7, r3
ARM GAS  C:\Users\User\AppData\Local\Temp\ccKFBczQ.s 			page 8


 212 0068 1B78     		ldrb	r3, [r3]
 213 006a 002B     		cmp	r3, #0
 214 006c E1D1     		bne	.L7
 215              	.LBE2:
 178:Generated_Source\PSoC4/cyfitter_cfg.c **** 	{
 216              		.loc 1 178 0 discriminator 2
 217 006e 7B69     		ldr	r3, [r7, #20]
 218 0070 0133     		adds	r3, r3, #1
 219 0072 7B61     		str	r3, [r7, #20]
 220              	.L5:
 178:Generated_Source\PSoC4/cyfitter_cfg.c **** 	{
 221              		.loc 1 178 0 is_stmt 0 discriminator 1
 222 0074 7B69     		ldr	r3, [r7, #20]
 223 0076 082B     		cmp	r3, #8
 224 0078 CCD9     		bls	.L8
 188:Generated_Source\PSoC4/cyfitter_cfg.c **** 		}
 189:Generated_Source\PSoC4/cyfitter_cfg.c **** 	}
 190:Generated_Source\PSoC4/cyfitter_cfg.c **** }
 225              		.loc 1 190 0 is_stmt 1
 226 007a C046     		nop
 227 007c BD46     		mov	sp, r7
 228 007e 06B0     		add	sp, sp, #24
 229              		@ sp needed
 230 0080 80BD     		pop	{r7, pc}
 231              		.cfi_endproc
 232              	.LFE5:
 233              		.size	cfg_write_bytes32, .-cfg_write_bytes32
 234 0082 C046     		.section	.psocinit,"ax",%progbits
 235              		.align	2
 236              		.code	16
 237              		.thumb_func
 238              		.type	ClockSetup, %function
 239              	ClockSetup:
 240              	.LFB6:
 191:Generated_Source\PSoC4/cyfitter_cfg.c **** 
 192:Generated_Source\PSoC4/cyfitter_cfg.c **** 
 193:Generated_Source\PSoC4/cyfitter_cfg.c **** /*******************************************************************************
 194:Generated_Source\PSoC4/cyfitter_cfg.c **** * Function Name: ClockSetup
 195:Generated_Source\PSoC4/cyfitter_cfg.c **** ********************************************************************************
 196:Generated_Source\PSoC4/cyfitter_cfg.c **** *
 197:Generated_Source\PSoC4/cyfitter_cfg.c **** * Summary:
 198:Generated_Source\PSoC4/cyfitter_cfg.c **** *   Performs the initialization of all of the clocks in the device based on the
 199:Generated_Source\PSoC4/cyfitter_cfg.c **** *   settings in the Clock tab of the DWR.  This includes enabling the requested
 200:Generated_Source\PSoC4/cyfitter_cfg.c **** *   clocks and setting the necessary dividers to produce the desired frequency. 
 201:Generated_Source\PSoC4/cyfitter_cfg.c **** *
 202:Generated_Source\PSoC4/cyfitter_cfg.c **** * Parameters:
 203:Generated_Source\PSoC4/cyfitter_cfg.c **** *   void
 204:Generated_Source\PSoC4/cyfitter_cfg.c **** *
 205:Generated_Source\PSoC4/cyfitter_cfg.c **** * Return:
 206:Generated_Source\PSoC4/cyfitter_cfg.c **** *   void
 207:Generated_Source\PSoC4/cyfitter_cfg.c **** *
 208:Generated_Source\PSoC4/cyfitter_cfg.c **** *******************************************************************************/
 209:Generated_Source\PSoC4/cyfitter_cfg.c **** static void ClockSetup(void);
 210:Generated_Source\PSoC4/cyfitter_cfg.c **** CY_CFG_SECTION
 211:Generated_Source\PSoC4/cyfitter_cfg.c **** static void ClockSetup(void)
 212:Generated_Source\PSoC4/cyfitter_cfg.c **** {
 241              		.loc 1 212 0
ARM GAS  C:\Users\User\AppData\Local\Temp\ccKFBczQ.s 			page 9


 242              		.cfi_startproc
 243              		@ args = 0, pretend = 0, frame = 0
 244              		@ frame_needed = 1, uses_anonymous_args = 0
 245 0000 80B5     		push	{r7, lr}
 246              		.cfi_def_cfa_offset 8
 247              		.cfi_offset 7, -8
 248              		.cfi_offset 14, -4
 249 0002 00AF     		add	r7, sp, #0
 250              		.cfi_def_cfa_register 7
 213:Generated_Source\PSoC4/cyfitter_cfg.c **** 
 214:Generated_Source\PSoC4/cyfitter_cfg.c **** 	/* Set Flash Cycles based on max possible frequency in case a glitch occurs during ClockSetup(). *
 215:Generated_Source\PSoC4/cyfitter_cfg.c **** 	CY_SET_REG32((void CYXDATA *)(CYREG_CPUSS_FLASH_CTL), (0x0012u));
 251              		.loc 1 215 0
 252 0004 2D4B     		ldr	r3, .L10
 253 0006 1222     		movs	r2, #18
 254 0008 1A60     		str	r2, [r3]
 216:Generated_Source\PSoC4/cyfitter_cfg.c **** 
 217:Generated_Source\PSoC4/cyfitter_cfg.c **** 	/* Start the WCO */
 218:Generated_Source\PSoC4/cyfitter_cfg.c **** 	CySysClkWcoStart();
 255              		.loc 1 218 0
 256 000a FFF7FEFF 		bl	CySysClkWcoStart
 219:Generated_Source\PSoC4/cyfitter_cfg.c **** 	CyDelayCycles(12000000u); /* WCO may take up to 500ms to start */
 257              		.loc 1 219 0
 258 000e 2C4B     		ldr	r3, .L10+4
 259 0010 1800     		movs	r0, r3
 260 0012 FFF7FEFF 		bl	CyDelayCycles
 220:Generated_Source\PSoC4/cyfitter_cfg.c **** 	(void)CySysClkWcoSetPowerMode(CY_SYS_CLK_WCO_LPM);    /* Switch to the low power mode */
 261              		.loc 1 220 0
 262 0016 0120     		movs	r0, #1
 263 0018 FFF7FEFF 		bl	CySysClkWcoSetPowerMode
 221:Generated_Source\PSoC4/cyfitter_cfg.c **** 
 222:Generated_Source\PSoC4/cyfitter_cfg.c **** 	/* Setup and trim IMO based on desired frequency. */
 223:Generated_Source\PSoC4/cyfitter_cfg.c **** 	CySysClkWriteImoFreq(48u);
 264              		.loc 1 223 0
 265 001c 3020     		movs	r0, #48
 266 001e FFF7FEFF 		bl	CySysClkWriteImoFreq
 224:Generated_Source\PSoC4/cyfitter_cfg.c **** 	/* CYDEV_CLK_ILO_CONFIG Starting address: CYDEV_CLK_ILO_CONFIG */
 225:Generated_Source\PSoC4/cyfitter_cfg.c **** 	CY_SET_REG32((void *)(CYREG_CLK_ILO_CONFIG), 0x80000006u);
 267              		.loc 1 225 0
 268 0022 284B     		ldr	r3, .L10+8
 269 0024 284A     		ldr	r2, .L10+12
 270 0026 1A60     		str	r2, [r3]
 226:Generated_Source\PSoC4/cyfitter_cfg.c **** 
 227:Generated_Source\PSoC4/cyfitter_cfg.c **** 	/* CYDEV_WDT_CONFIG Starting address: CYDEV_WDT_CONFIG */
 228:Generated_Source\PSoC4/cyfitter_cfg.c **** 	CY_SET_REG32((void *)(CYREG_WDT_CONFIG), 0x40000000u);
 271              		.loc 1 228 0
 272 0028 284B     		ldr	r3, .L10+16
 273 002a 8022     		movs	r2, #128
 274 002c D205     		lsls	r2, r2, #23
 275 002e 1A60     		str	r2, [r3]
 229:Generated_Source\PSoC4/cyfitter_cfg.c **** 
 230:Generated_Source\PSoC4/cyfitter_cfg.c **** 
 231:Generated_Source\PSoC4/cyfitter_cfg.c **** 	/* Enable fast start mode for XO */
 232:Generated_Source\PSoC4/cyfitter_cfg.c **** 	CY_SET_REG32((void*)CYREG_BLE_BLERD_BB_XO, CY_GET_REG32((void*)CYREG_BLE_BLERD_BB_XO) | (uint32)0x
 276              		.loc 1 232 0
 277 0030 274B     		ldr	r3, .L10+20
 278 0032 274A     		ldr	r2, .L10+20
ARM GAS  C:\Users\User\AppData\Local\Temp\ccKFBczQ.s 			page 10


 279 0034 1268     		ldr	r2, [r2]
 280 0036 0221     		movs	r1, #2
 281 0038 0A43     		orrs	r2, r1
 282 003a 1A60     		str	r2, [r3]
 233:Generated_Source\PSoC4/cyfitter_cfg.c **** 	CY_SET_REG32((void *)(CYREG_BLE_BLERD_BB_XO_CAPTRIM), 0x00003E2Du);
 283              		.loc 1 233 0
 284 003c 254B     		ldr	r3, .L10+24
 285 003e 264A     		ldr	r2, .L10+28
 286 0040 1A60     		str	r2, [r3]
 234:Generated_Source\PSoC4/cyfitter_cfg.c **** 	/*Set XTAL(ECO) divider*/
 235:Generated_Source\PSoC4/cyfitter_cfg.c **** 	CY_SET_REG32((void *)(CYREG_BLE_BLESS_XTAL_CLK_DIV_CONFIG), 0x00000000u);
 287              		.loc 1 235 0
 288 0042 264B     		ldr	r3, .L10+32
 289 0044 0022     		movs	r2, #0
 290 0046 1A60     		str	r2, [r3]
 236:Generated_Source\PSoC4/cyfitter_cfg.c **** 	/* Disable Crystal Stable Interrupt before enabling ECO */
 237:Generated_Source\PSoC4/cyfitter_cfg.c **** 	CY_SET_REG32((void*)CYREG_BLE_BLESS_LL_DSM_CTRL, CY_GET_REG32((void*)CYREG_BLE_BLESS_LL_DSM_CTRL) 
 291              		.loc 1 237 0
 292 0048 254B     		ldr	r3, .L10+36
 293 004a 254A     		ldr	r2, .L10+36
 294 004c 1268     		ldr	r2, [r2]
 295 004e 0821     		movs	r1, #8
 296 0050 8A43     		bics	r2, r1
 297 0052 1A60     		str	r2, [r3]
 238:Generated_Source\PSoC4/cyfitter_cfg.c **** 	/* Start the ECO and do not check status since it is not needed for HFCLK */
 239:Generated_Source\PSoC4/cyfitter_cfg.c **** 	(void)CySysClkEcoStart(2000u);
 298              		.loc 1 239 0
 299 0054 FA23     		movs	r3, #250
 300 0056 DB00     		lsls	r3, r3, #3
 301 0058 1800     		movs	r0, r3
 302 005a FFF7FEFF 		bl	CySysClkEcoStart
 240:Generated_Source\PSoC4/cyfitter_cfg.c **** 	CyDelayUs(1500u); /* Wait to stabilize */
 303              		.loc 1 240 0
 304 005e 214B     		ldr	r3, .L10+40
 305 0060 1800     		movs	r0, r3
 306 0062 FFF7FEFF 		bl	CyDelayUs
 241:Generated_Source\PSoC4/cyfitter_cfg.c **** 
 242:Generated_Source\PSoC4/cyfitter_cfg.c **** 	/* Setup phase aligned clocks */
 243:Generated_Source\PSoC4/cyfitter_cfg.c **** 	CY_SET_REG32((void *)CYREG_PERI_DIV_16_CTL2, 0x00BB7F00u);
 307              		.loc 1 243 0
 308 0066 204B     		ldr	r3, .L10+44
 309 0068 204A     		ldr	r2, .L10+48
 310 006a 1A60     		str	r2, [r3]
 244:Generated_Source\PSoC4/cyfitter_cfg.c **** 	CY_SET_REG32((void *)CYREG_PERI_DIV_CMD, 0x8000FF42u);
 311              		.loc 1 244 0
 312 006c 204B     		ldr	r3, .L10+52
 313 006e 214A     		ldr	r2, .L10+56
 314 0070 1A60     		str	r2, [r3]
 245:Generated_Source\PSoC4/cyfitter_cfg.c **** 	CY_SET_REG32((void *)CYREG_PERI_DIV_16_CTL0, 0x00BB7F00u);
 315              		.loc 1 245 0
 316 0072 214B     		ldr	r3, .L10+60
 317 0074 1D4A     		ldr	r2, .L10+48
 318 0076 1A60     		str	r2, [r3]
 246:Generated_Source\PSoC4/cyfitter_cfg.c **** 	CY_SET_REG32((void *)CYREG_PERI_DIV_CMD, 0x8000FF40u);
 319              		.loc 1 246 0
 320 0078 1D4B     		ldr	r3, .L10+52
 321 007a 204A     		ldr	r2, .L10+64
ARM GAS  C:\Users\User\AppData\Local\Temp\ccKFBczQ.s 			page 11


 322 007c 1A60     		str	r2, [r3]
 247:Generated_Source\PSoC4/cyfitter_cfg.c **** 	CY_SET_REG32((void *)CYREG_PERI_DIV_16_CTL1, 0x00004400u);
 323              		.loc 1 247 0
 324 007e 204B     		ldr	r3, .L10+68
 325 0080 8822     		movs	r2, #136
 326 0082 D201     		lsls	r2, r2, #7
 327 0084 1A60     		str	r2, [r3]
 248:Generated_Source\PSoC4/cyfitter_cfg.c **** 	CY_SET_REG32((void *)CYREG_PERI_DIV_CMD, 0x8000FF41u);
 328              		.loc 1 248 0
 329 0086 1A4B     		ldr	r3, .L10+52
 330 0088 1E4A     		ldr	r2, .L10+72
 331 008a 1A60     		str	r2, [r3]
 249:Generated_Source\PSoC4/cyfitter_cfg.c **** 
 250:Generated_Source\PSoC4/cyfitter_cfg.c **** 	/* CYDEV_CLK_IMO_CONFIG Starting address: CYDEV_CLK_IMO_CONFIG */
 251:Generated_Source\PSoC4/cyfitter_cfg.c **** 	CY_SET_REG32((void *)(CYREG_CLK_IMO_CONFIG), 0x80000000u);
 332              		.loc 1 251 0
 333 008c 1E4B     		ldr	r3, .L10+76
 334 008e 8022     		movs	r2, #128
 335 0090 1206     		lsls	r2, r2, #24
 336 0092 1A60     		str	r2, [r3]
 252:Generated_Source\PSoC4/cyfitter_cfg.c **** 
 253:Generated_Source\PSoC4/cyfitter_cfg.c **** 	/* CYDEV_CLK_SELECT Starting address: CYDEV_CLK_SELECT */
 254:Generated_Source\PSoC4/cyfitter_cfg.c **** 	CY_SET_REG32((void *)(CYREG_CLK_SELECT), 0x00040000u);
 337              		.loc 1 254 0
 338 0094 1D4B     		ldr	r3, .L10+80
 339 0096 8022     		movs	r2, #128
 340 0098 D202     		lsls	r2, r2, #11
 341 009a 1A60     		str	r2, [r3]
 255:Generated_Source\PSoC4/cyfitter_cfg.c **** 
 256:Generated_Source\PSoC4/cyfitter_cfg.c **** 	/* CYDEV_PERI_PCLK_CTL14 Starting address: CYDEV_PERI_PCLK_CTL14 */
 257:Generated_Source\PSoC4/cyfitter_cfg.c **** 	CY_SET_REG32((void *)(CYREG_PERI_PCLK_CTL14), 0x00000042u);
 342              		.loc 1 257 0
 343 009c 1C4B     		ldr	r3, .L10+84
 344 009e 4222     		movs	r2, #66
 345 00a0 1A60     		str	r2, [r3]
 258:Generated_Source\PSoC4/cyfitter_cfg.c **** 
 259:Generated_Source\PSoC4/cyfitter_cfg.c **** 	/* CYDEV_PERI_PCLK_CTL12 Starting address: CYDEV_PERI_PCLK_CTL12 */
 260:Generated_Source\PSoC4/cyfitter_cfg.c **** 	CY_SET_REG32((void *)(CYREG_PERI_PCLK_CTL12), 0x00000040u);
 346              		.loc 1 260 0
 347 00a2 1C4B     		ldr	r3, .L10+88
 348 00a4 4022     		movs	r2, #64
 349 00a6 1A60     		str	r2, [r3]
 261:Generated_Source\PSoC4/cyfitter_cfg.c **** 
 262:Generated_Source\PSoC4/cyfitter_cfg.c **** 	/* CYDEV_PERI_PCLK_CTL1 Starting address: CYDEV_PERI_PCLK_CTL1 */
 263:Generated_Source\PSoC4/cyfitter_cfg.c **** 	CY_SET_REG32((void *)(CYREG_PERI_PCLK_CTL1), 0x00000041u);
 350              		.loc 1 263 0
 351 00a8 1B4B     		ldr	r3, .L10+92
 352 00aa 4122     		movs	r2, #65
 353 00ac 1A60     		str	r2, [r3]
 264:Generated_Source\PSoC4/cyfitter_cfg.c **** 
 265:Generated_Source\PSoC4/cyfitter_cfg.c **** 	CY_SET_REG32((void *)(CYREG_WDT_CONFIG), 0x40000000u);
 354              		.loc 1 265 0
 355 00ae 074B     		ldr	r3, .L10+16
 356 00b0 8022     		movs	r2, #128
 357 00b2 D205     		lsls	r2, r2, #23
 358 00b4 1A60     		str	r2, [r3]
 266:Generated_Source\PSoC4/cyfitter_cfg.c **** }
ARM GAS  C:\Users\User\AppData\Local\Temp\ccKFBczQ.s 			page 12


 359              		.loc 1 266 0
 360 00b6 C046     		nop
 361 00b8 BD46     		mov	sp, r7
 362              		@ sp needed
 363 00ba 80BD     		pop	{r7, pc}
 364              	.L11:
 365              		.align	2
 366              	.L10:
 367 00bc 30001040 		.word	1074790448
 368 00c0 001BB700 		.word	12000000
 369 00c4 04010B40 		.word	1074462980
 370 00c8 06000080 		.word	-2147483642
 371 00cc 0C020B40 		.word	1074463244
 372 00d0 78002E40 		.word	1076756600
 373 00d4 7C002E40 		.word	1076756604
 374 00d8 2D3E0000 		.word	15917
 375 00dc 64F02E40 		.word	1076818020
 376 00e0 6CF02E40 		.word	1076818028
 377 00e4 DC050000 		.word	1500
 378 00e8 08030140 		.word	1073808136
 379 00ec 007FBB00 		.word	12287744
 380 00f0 00000140 		.word	1073807360
 381 00f4 42FF0080 		.word	-2147418302
 382 00f8 00030140 		.word	1073808128
 383 00fc 40FF0080 		.word	-2147418304
 384 0100 04030140 		.word	1073808132
 385 0104 41FF0080 		.word	-2147418303
 386 0108 08010B40 		.word	1074462984
 387 010c 00010B40 		.word	1074462976
 388 0110 38010140 		.word	1073807672
 389 0114 30010140 		.word	1073807664
 390 0118 04010140 		.word	1073807620
 391              		.cfi_endproc
 392              	.LFE6:
 393              		.size	ClockSetup, .-ClockSetup
 394              		.section	.text.AnalogSetDefault,"ax",%progbits
 395              		.align	2
 396              		.code	16
 397              		.thumb_func
 398              		.type	AnalogSetDefault, %function
 399              	AnalogSetDefault:
 400              	.LFB7:
 267:Generated_Source\PSoC4/cyfitter_cfg.c **** 
 268:Generated_Source\PSoC4/cyfitter_cfg.c **** 
 269:Generated_Source\PSoC4/cyfitter_cfg.c **** /* Analog API Functions */
 270:Generated_Source\PSoC4/cyfitter_cfg.c **** 
 271:Generated_Source\PSoC4/cyfitter_cfg.c **** 
 272:Generated_Source\PSoC4/cyfitter_cfg.c **** /*******************************************************************************
 273:Generated_Source\PSoC4/cyfitter_cfg.c **** * Function Name: AnalogSetDefault
 274:Generated_Source\PSoC4/cyfitter_cfg.c **** ********************************************************************************
 275:Generated_Source\PSoC4/cyfitter_cfg.c **** *
 276:Generated_Source\PSoC4/cyfitter_cfg.c **** * Summary:
 277:Generated_Source\PSoC4/cyfitter_cfg.c **** *  Sets up the analog portions of the chip to default values based on chip
 278:Generated_Source\PSoC4/cyfitter_cfg.c **** *  configuration options from the project.
 279:Generated_Source\PSoC4/cyfitter_cfg.c **** *
 280:Generated_Source\PSoC4/cyfitter_cfg.c **** * Parameters:
 281:Generated_Source\PSoC4/cyfitter_cfg.c **** *  void
ARM GAS  C:\Users\User\AppData\Local\Temp\ccKFBczQ.s 			page 13


 282:Generated_Source\PSoC4/cyfitter_cfg.c **** *
 283:Generated_Source\PSoC4/cyfitter_cfg.c **** * Return:
 284:Generated_Source\PSoC4/cyfitter_cfg.c **** *  void
 285:Generated_Source\PSoC4/cyfitter_cfg.c **** *
 286:Generated_Source\PSoC4/cyfitter_cfg.c **** *******************************************************************************/
 287:Generated_Source\PSoC4/cyfitter_cfg.c **** static void AnalogSetDefault(void);
 288:Generated_Source\PSoC4/cyfitter_cfg.c **** static void AnalogSetDefault(void)
 289:Generated_Source\PSoC4/cyfitter_cfg.c **** {
 401              		.loc 1 289 0
 402              		.cfi_startproc
 403              		@ args = 0, pretend = 0, frame = 0
 404              		@ frame_needed = 1, uses_anonymous_args = 0
 405 0000 80B5     		push	{r7, lr}
 406              		.cfi_def_cfa_offset 8
 407              		.cfi_offset 7, -8
 408              		.cfi_offset 14, -4
 409 0002 00AF     		add	r7, sp, #0
 410              		.cfi_def_cfa_register 7
 290:Generated_Source\PSoC4/cyfitter_cfg.c **** 	CY_SET_XTND_REG32((void CYFAR *)CYREG_CTBM0_DFT_CTRL, 0x00000003u);
 411              		.loc 1 290 0
 412 0004 054B     		ldr	r3, .L13
 413 0006 0322     		movs	r2, #3
 414 0008 1A60     		str	r2, [r3]
 291:Generated_Source\PSoC4/cyfitter_cfg.c **** 	CY_SET_XTND_REG32((void CYFAR *)CYREG_CTBM1_DFT_CTRL, 0x00000003u);
 415              		.loc 1 291 0
 416 000a 054B     		ldr	r3, .L13+4
 417 000c 0322     		movs	r2, #3
 418 000e 1A60     		str	r2, [r3]
 292:Generated_Source\PSoC4/cyfitter_cfg.c **** 	CY_SET_XTND_REG32((void CYFAR *)CYREG_PASS_DSAB_DSAB_CTRL, 0x00000000u);
 419              		.loc 1 292 0
 420 0010 044B     		ldr	r3, .L13+8
 421 0012 0022     		movs	r2, #0
 422 0014 1A60     		str	r2, [r3]
 293:Generated_Source\PSoC4/cyfitter_cfg.c **** }
 423              		.loc 1 293 0
 424 0016 C046     		nop
 425 0018 BD46     		mov	sp, r7
 426              		@ sp needed
 427 001a 80BD     		pop	{r7, pc}
 428              	.L14:
 429              		.align	2
 430              	.L13:
 431 001c 30003040 		.word	1076887600
 432 0020 30003140 		.word	1076953136
 433 0024 000E3F40 		.word	1077874176
 434              		.cfi_endproc
 435              	.LFE7:
 436              		.size	AnalogSetDefault, .-AnalogSetDefault
 437              		.section	.psocinit
 438              		.align	2
 439              		.global	cyfitter_cfg
 440              		.code	16
 441              		.thumb_func
 442              		.type	cyfitter_cfg, %function
 443              	cyfitter_cfg:
 444              	.LFB8:
 294:Generated_Source\PSoC4/cyfitter_cfg.c **** 
ARM GAS  C:\Users\User\AppData\Local\Temp\ccKFBczQ.s 			page 14


 295:Generated_Source\PSoC4/cyfitter_cfg.c **** 
 296:Generated_Source\PSoC4/cyfitter_cfg.c **** 
 297:Generated_Source\PSoC4/cyfitter_cfg.c **** 
 298:Generated_Source\PSoC4/cyfitter_cfg.c **** /*******************************************************************************
 299:Generated_Source\PSoC4/cyfitter_cfg.c **** * Function Name: cyfitter_cfg
 300:Generated_Source\PSoC4/cyfitter_cfg.c **** ********************************************************************************
 301:Generated_Source\PSoC4/cyfitter_cfg.c **** * Summary:
 302:Generated_Source\PSoC4/cyfitter_cfg.c **** *  This function is called by the start-up code for the selected device. It
 303:Generated_Source\PSoC4/cyfitter_cfg.c **** *  performs all of the necessary device configuration based on the design
 304:Generated_Source\PSoC4/cyfitter_cfg.c **** *  settings.  This includes settings from the Design Wide Resources (DWR) such
 305:Generated_Source\PSoC4/cyfitter_cfg.c **** *  as Clocks and Pins as well as any component configuration that is necessary.
 306:Generated_Source\PSoC4/cyfitter_cfg.c **** *
 307:Generated_Source\PSoC4/cyfitter_cfg.c **** * Parameters:
 308:Generated_Source\PSoC4/cyfitter_cfg.c **** *   void
 309:Generated_Source\PSoC4/cyfitter_cfg.c **** *
 310:Generated_Source\PSoC4/cyfitter_cfg.c **** * Return:
 311:Generated_Source\PSoC4/cyfitter_cfg.c **** *   void
 312:Generated_Source\PSoC4/cyfitter_cfg.c **** *
 313:Generated_Source\PSoC4/cyfitter_cfg.c **** *******************************************************************************/
 314:Generated_Source\PSoC4/cyfitter_cfg.c **** CY_CFG_SECTION
 315:Generated_Source\PSoC4/cyfitter_cfg.c **** void cyfitter_cfg(void)
 316:Generated_Source\PSoC4/cyfitter_cfg.c **** {
 445              		.loc 1 316 0
 446              		.cfi_startproc
 447              		@ args = 0, pretend = 0, frame = 8
 448              		@ frame_needed = 1, uses_anonymous_args = 0
 449 011c 80B5     		push	{r7, lr}
 450              		.cfi_def_cfa_offset 8
 451              		.cfi_offset 7, -8
 452              		.cfi_offset 14, -4
 453 011e 82B0     		sub	sp, sp, #8
 454              		.cfi_def_cfa_offset 16
 455 0120 00AF     		add	r7, sp, #0
 456              		.cfi_def_cfa_register 7
 317:Generated_Source\PSoC4/cyfitter_cfg.c **** 	/* Disable interrupts by default. Let user enable if/when they want. */
 318:Generated_Source\PSoC4/cyfitter_cfg.c **** 	CyGlobalIntDisable;
 457              		.loc 1 318 0
 458              		.syntax divided
 459              	@ 318 "Generated_Source\PSoC4\cyfitter_cfg.c" 1
 460 0122 72B6     		CPSID   i
 461              	@ 0 "" 2
 319:Generated_Source\PSoC4/cyfitter_cfg.c **** 
 320:Generated_Source\PSoC4/cyfitter_cfg.c **** 	CY_SET_REG32((void *)(CYREG_BLE_BLESS_LL_DSM_CTRL), 0x00000000u);
 462              		.loc 1 320 0
 463              		.thumb
 464              		.syntax unified
 465 0124 4D4B     		ldr	r3, .L18
 466 0126 0022     		movs	r2, #0
 467 0128 1A60     		str	r2, [r3]
 321:Generated_Source\PSoC4/cyfitter_cfg.c **** 
 322:Generated_Source\PSoC4/cyfitter_cfg.c **** 	/* Enable the clock in the interrupt controller for the routed interrupts */
 323:Generated_Source\PSoC4/cyfitter_cfg.c **** 	CY_SET_REG8((void *)CYREG_UDB_UDBIF_INT_CLK_CTL, 0x01u);
 468              		.loc 1 323 0
 469 012a 4D4B     		ldr	r3, .L18+4
 470 012c 0122     		movs	r2, #1
 471 012e 1A70     		strb	r2, [r3]
 472              	.LBB3:
ARM GAS  C:\Users\User\AppData\Local\Temp\ccKFBczQ.s 			page 15


 324:Generated_Source\PSoC4/cyfitter_cfg.c **** 	{
 325:Generated_Source\PSoC4/cyfitter_cfg.c **** 		static const uint32 CYCODE cy_cfg_addr_table[] = {
 326:Generated_Source\PSoC4/cyfitter_cfg.c **** 			0x400F0003u, /* Base address: 0x400F0000 Count: 3 */
 327:Generated_Source\PSoC4/cyfitter_cfg.c **** 			0x400F3062u, /* Base address: 0x400F3000 Count: 98 */
 328:Generated_Source\PSoC4/cyfitter_cfg.c **** 			0x400F313Bu, /* Base address: 0x400F3100 Count: 59 */
 329:Generated_Source\PSoC4/cyfitter_cfg.c **** 			0x400F324Au, /* Base address: 0x400F3200 Count: 74 */
 330:Generated_Source\PSoC4/cyfitter_cfg.c **** 			0x400F3340u, /* Base address: 0x400F3300 Count: 64 */
 331:Generated_Source\PSoC4/cyfitter_cfg.c **** 			0x400F4003u, /* Base address: 0x400F4000 Count: 3 */
 332:Generated_Source\PSoC4/cyfitter_cfg.c **** 			0x400F4107u, /* Base address: 0x400F4100 Count: 7 */
 333:Generated_Source\PSoC4/cyfitter_cfg.c **** 			0x400F430Au, /* Base address: 0x400F4300 Count: 10 */
 334:Generated_Source\PSoC4/cyfitter_cfg.c **** 			0x400F6002u, /* Base address: 0x400F6000 Count: 2 */
 335:Generated_Source\PSoC4/cyfitter_cfg.c **** 		};
 336:Generated_Source\PSoC4/cyfitter_cfg.c **** 
 337:Generated_Source\PSoC4/cyfitter_cfg.c **** 		static const cy_cfg_addrvalue_t CYCODE cy_cfg_data_table[] = {
 338:Generated_Source\PSoC4/cyfitter_cfg.c **** 			{0x72u, 0x01u},
 339:Generated_Source\PSoC4/cyfitter_cfg.c **** 			{0x73u, 0x01u},
 340:Generated_Source\PSoC4/cyfitter_cfg.c **** 			{0x81u, 0x0Du},
 341:Generated_Source\PSoC4/cyfitter_cfg.c **** 			{0x0Eu, 0x02u},
 342:Generated_Source\PSoC4/cyfitter_cfg.c **** 			{0x1Fu, 0x01u},
 343:Generated_Source\PSoC4/cyfitter_cfg.c **** 			{0x2Cu, 0x01u},
 344:Generated_Source\PSoC4/cyfitter_cfg.c **** 			{0x31u, 0x01u},
 345:Generated_Source\PSoC4/cyfitter_cfg.c **** 			{0x32u, 0x01u},
 346:Generated_Source\PSoC4/cyfitter_cfg.c **** 			{0x34u, 0x02u},
 347:Generated_Source\PSoC4/cyfitter_cfg.c **** 			{0x38u, 0x02u},
 348:Generated_Source\PSoC4/cyfitter_cfg.c **** 			{0x3Bu, 0x02u},
 349:Generated_Source\PSoC4/cyfitter_cfg.c **** 			{0x3Eu, 0x05u},
 350:Generated_Source\PSoC4/cyfitter_cfg.c **** 			{0x40u, 0x41u},
 351:Generated_Source\PSoC4/cyfitter_cfg.c **** 			{0x41u, 0x05u},
 352:Generated_Source\PSoC4/cyfitter_cfg.c **** 			{0x49u, 0xFFu},
 353:Generated_Source\PSoC4/cyfitter_cfg.c **** 			{0x4Au, 0xFFu},
 354:Generated_Source\PSoC4/cyfitter_cfg.c **** 			{0x4Bu, 0xFFu},
 355:Generated_Source\PSoC4/cyfitter_cfg.c **** 			{0x4Fu, 0x01u},
 356:Generated_Source\PSoC4/cyfitter_cfg.c **** 			{0x50u, 0x18u},
 357:Generated_Source\PSoC4/cyfitter_cfg.c **** 			{0x52u, 0x01u},
 358:Generated_Source\PSoC4/cyfitter_cfg.c **** 			{0x53u, 0x01u},
 359:Generated_Source\PSoC4/cyfitter_cfg.c **** 			{0x56u, 0x10u},
 360:Generated_Source\PSoC4/cyfitter_cfg.c **** 			{0x58u, 0x04u},
 361:Generated_Source\PSoC4/cyfitter_cfg.c **** 			{0x59u, 0x04u},
 362:Generated_Source\PSoC4/cyfitter_cfg.c **** 			{0x5Au, 0x04u},
 363:Generated_Source\PSoC4/cyfitter_cfg.c **** 			{0x5Bu, 0x04u},
 364:Generated_Source\PSoC4/cyfitter_cfg.c **** 			{0x5Cu, 0x13u},
 365:Generated_Source\PSoC4/cyfitter_cfg.c **** 			{0x5Du, 0x33u},
 366:Generated_Source\PSoC4/cyfitter_cfg.c **** 			{0x5Fu, 0x01u},
 367:Generated_Source\PSoC4/cyfitter_cfg.c **** 			{0x60u, 0x40u},
 368:Generated_Source\PSoC4/cyfitter_cfg.c **** 			{0x62u, 0x40u},
 369:Generated_Source\PSoC4/cyfitter_cfg.c **** 			{0x64u, 0x40u},
 370:Generated_Source\PSoC4/cyfitter_cfg.c **** 			{0x65u, 0x40u},
 371:Generated_Source\PSoC4/cyfitter_cfg.c **** 			{0x66u, 0x80u},
 372:Generated_Source\PSoC4/cyfitter_cfg.c **** 			{0x68u, 0x80u},
 373:Generated_Source\PSoC4/cyfitter_cfg.c **** 			{0x6Au, 0x80u},
 374:Generated_Source\PSoC4/cyfitter_cfg.c **** 			{0x6Cu, 0x80u},
 375:Generated_Source\PSoC4/cyfitter_cfg.c **** 			{0x6Eu, 0x80u},
 376:Generated_Source\PSoC4/cyfitter_cfg.c **** 			{0x82u, 0xCEu},
 377:Generated_Source\PSoC4/cyfitter_cfg.c **** 			{0x83u, 0x0Eu},
 378:Generated_Source\PSoC4/cyfitter_cfg.c **** 			{0x84u, 0x02u},
 379:Generated_Source\PSoC4/cyfitter_cfg.c **** 			{0x86u, 0x11u},
 380:Generated_Source\PSoC4/cyfitter_cfg.c **** 			{0x8Bu, 0x01u},
ARM GAS  C:\Users\User\AppData\Local\Temp\ccKFBczQ.s 			page 16


 381:Generated_Source\PSoC4/cyfitter_cfg.c **** 			{0x8Cu, 0xFEu},
 382:Generated_Source\PSoC4/cyfitter_cfg.c **** 			{0x8Fu, 0x01u},
 383:Generated_Source\PSoC4/cyfitter_cfg.c **** 			{0x90u, 0x08u},
 384:Generated_Source\PSoC4/cyfitter_cfg.c **** 			{0x92u, 0x10u},
 385:Generated_Source\PSoC4/cyfitter_cfg.c **** 			{0x93u, 0x0Du},
 386:Generated_Source\PSoC4/cyfitter_cfg.c **** 			{0x94u, 0x40u},
 387:Generated_Source\PSoC4/cyfitter_cfg.c **** 			{0x98u, 0x0Eu},
 388:Generated_Source\PSoC4/cyfitter_cfg.c **** 			{0x9Au, 0x20u},
 389:Generated_Source\PSoC4/cyfitter_cfg.c **** 			{0x9Bu, 0x08u},
 390:Generated_Source\PSoC4/cyfitter_cfg.c **** 			{0x9Du, 0x0Cu},
 391:Generated_Source\PSoC4/cyfitter_cfg.c **** 			{0x9Eu, 0x9Fu},
 392:Generated_Source\PSoC4/cyfitter_cfg.c **** 			{0xA1u, 0x04u},
 393:Generated_Source\PSoC4/cyfitter_cfg.c **** 			{0xA2u, 0x40u},
 394:Generated_Source\PSoC4/cyfitter_cfg.c **** 			{0xA4u, 0x04u},
 395:Generated_Source\PSoC4/cyfitter_cfg.c **** 			{0xA6u, 0x10u},
 396:Generated_Source\PSoC4/cyfitter_cfg.c **** 			{0xA7u, 0x04u},
 397:Generated_Source\PSoC4/cyfitter_cfg.c **** 			{0xAEu, 0xDFu},
 398:Generated_Source\PSoC4/cyfitter_cfg.c **** 			{0xAFu, 0x01u},
 399:Generated_Source\PSoC4/cyfitter_cfg.c **** 			{0xB0u, 0x01u},
 400:Generated_Source\PSoC4/cyfitter_cfg.c **** 			{0xB1u, 0x01u},
 401:Generated_Source\PSoC4/cyfitter_cfg.c **** 			{0xB2u, 0x0Eu},
 402:Generated_Source\PSoC4/cyfitter_cfg.c **** 			{0xB3u, 0x0Cu},
 403:Generated_Source\PSoC4/cyfitter_cfg.c **** 			{0xB4u, 0x30u},
 404:Generated_Source\PSoC4/cyfitter_cfg.c **** 			{0xB5u, 0x02u},
 405:Generated_Source\PSoC4/cyfitter_cfg.c **** 			{0xB6u, 0xC0u},
 406:Generated_Source\PSoC4/cyfitter_cfg.c **** 			{0xB7u, 0x01u},
 407:Generated_Source\PSoC4/cyfitter_cfg.c **** 			{0xBEu, 0x01u},
 408:Generated_Source\PSoC4/cyfitter_cfg.c **** 			{0xBFu, 0x40u},
 409:Generated_Source\PSoC4/cyfitter_cfg.c **** 			{0xC0u, 0x41u},
 410:Generated_Source\PSoC4/cyfitter_cfg.c **** 			{0xC1u, 0x05u},
 411:Generated_Source\PSoC4/cyfitter_cfg.c **** 			{0xC5u, 0xECu},
 412:Generated_Source\PSoC4/cyfitter_cfg.c **** 			{0xC6u, 0x02u},
 413:Generated_Source\PSoC4/cyfitter_cfg.c **** 			{0xC8u, 0x07u},
 414:Generated_Source\PSoC4/cyfitter_cfg.c **** 			{0xC9u, 0xFFu},
 415:Generated_Source\PSoC4/cyfitter_cfg.c **** 			{0xCAu, 0xFFu},
 416:Generated_Source\PSoC4/cyfitter_cfg.c **** 			{0xCBu, 0xFFu},
 417:Generated_Source\PSoC4/cyfitter_cfg.c **** 			{0xCDu, 0x83u},
 418:Generated_Source\PSoC4/cyfitter_cfg.c **** 			{0xCEu, 0x03u},
 419:Generated_Source\PSoC4/cyfitter_cfg.c **** 			{0xCFu, 0x01u},
 420:Generated_Source\PSoC4/cyfitter_cfg.c **** 			{0xD0u, 0x18u},
 421:Generated_Source\PSoC4/cyfitter_cfg.c **** 			{0xD2u, 0x90u},
 422:Generated_Source\PSoC4/cyfitter_cfg.c **** 			{0xD4u, 0x01u},
 423:Generated_Source\PSoC4/cyfitter_cfg.c **** 			{0xD8u, 0x04u},
 424:Generated_Source\PSoC4/cyfitter_cfg.c **** 			{0xD9u, 0x04u},
 425:Generated_Source\PSoC4/cyfitter_cfg.c **** 			{0xDAu, 0x04u},
 426:Generated_Source\PSoC4/cyfitter_cfg.c **** 			{0xDBu, 0x04u},
 427:Generated_Source\PSoC4/cyfitter_cfg.c **** 			{0xDCu, 0x33u},
 428:Generated_Source\PSoC4/cyfitter_cfg.c **** 			{0xDDu, 0x33u},
 429:Generated_Source\PSoC4/cyfitter_cfg.c **** 			{0xDFu, 0x05u},
 430:Generated_Source\PSoC4/cyfitter_cfg.c **** 			{0xE0u, 0x40u},
 431:Generated_Source\PSoC4/cyfitter_cfg.c **** 			{0xE2u, 0x40u},
 432:Generated_Source\PSoC4/cyfitter_cfg.c **** 			{0xE4u, 0x40u},
 433:Generated_Source\PSoC4/cyfitter_cfg.c **** 			{0xE5u, 0x40u},
 434:Generated_Source\PSoC4/cyfitter_cfg.c **** 			{0xE6u, 0x80u},
 435:Generated_Source\PSoC4/cyfitter_cfg.c **** 			{0xE8u, 0x80u},
 436:Generated_Source\PSoC4/cyfitter_cfg.c **** 			{0xEAu, 0x80u},
 437:Generated_Source\PSoC4/cyfitter_cfg.c **** 			{0xECu, 0x80u},
ARM GAS  C:\Users\User\AppData\Local\Temp\ccKFBczQ.s 			page 17


 438:Generated_Source\PSoC4/cyfitter_cfg.c **** 			{0xEEu, 0x80u},
 439:Generated_Source\PSoC4/cyfitter_cfg.c **** 			{0x03u, 0x01u},
 440:Generated_Source\PSoC4/cyfitter_cfg.c **** 			{0x04u, 0x80u},
 441:Generated_Source\PSoC4/cyfitter_cfg.c **** 			{0x05u, 0x04u},
 442:Generated_Source\PSoC4/cyfitter_cfg.c **** 			{0x07u, 0x40u},
 443:Generated_Source\PSoC4/cyfitter_cfg.c **** 			{0x0Au, 0x01u},
 444:Generated_Source\PSoC4/cyfitter_cfg.c **** 			{0x0Bu, 0x02u},
 445:Generated_Source\PSoC4/cyfitter_cfg.c **** 			{0x0Eu, 0x09u},
 446:Generated_Source\PSoC4/cyfitter_cfg.c **** 			{0x0Fu, 0xA0u},
 447:Generated_Source\PSoC4/cyfitter_cfg.c **** 			{0x13u, 0x80u},
 448:Generated_Source\PSoC4/cyfitter_cfg.c **** 			{0x15u, 0x01u},
 449:Generated_Source\PSoC4/cyfitter_cfg.c **** 			{0x16u, 0x02u},
 450:Generated_Source\PSoC4/cyfitter_cfg.c **** 			{0x17u, 0x09u},
 451:Generated_Source\PSoC4/cyfitter_cfg.c **** 			{0x18u, 0x20u},
 452:Generated_Source\PSoC4/cyfitter_cfg.c **** 			{0x19u, 0x01u},
 453:Generated_Source\PSoC4/cyfitter_cfg.c **** 			{0x1Bu, 0x31u},
 454:Generated_Source\PSoC4/cyfitter_cfg.c **** 			{0x1Cu, 0x40u},
 455:Generated_Source\PSoC4/cyfitter_cfg.c **** 			{0x1Du, 0x06u},
 456:Generated_Source\PSoC4/cyfitter_cfg.c **** 			{0x1Eu, 0x09u},
 457:Generated_Source\PSoC4/cyfitter_cfg.c **** 			{0x21u, 0x01u},
 458:Generated_Source\PSoC4/cyfitter_cfg.c **** 			{0x24u, 0x80u},
 459:Generated_Source\PSoC4/cyfitter_cfg.c **** 			{0x25u, 0x10u},
 460:Generated_Source\PSoC4/cyfitter_cfg.c **** 			{0x26u, 0x43u},
 461:Generated_Source\PSoC4/cyfitter_cfg.c **** 			{0x27u, 0xA8u},
 462:Generated_Source\PSoC4/cyfitter_cfg.c **** 			{0x2Du, 0x01u},
 463:Generated_Source\PSoC4/cyfitter_cfg.c **** 			{0x2Fu, 0x21u},
 464:Generated_Source\PSoC4/cyfitter_cfg.c **** 			{0x32u, 0x40u},
 465:Generated_Source\PSoC4/cyfitter_cfg.c **** 			{0x37u, 0xA2u},
 466:Generated_Source\PSoC4/cyfitter_cfg.c **** 			{0x3Cu, 0x02u},
 467:Generated_Source\PSoC4/cyfitter_cfg.c **** 			{0x3Du, 0x20u},
 468:Generated_Source\PSoC4/cyfitter_cfg.c **** 			{0x3Fu, 0x80u},
 469:Generated_Source\PSoC4/cyfitter_cfg.c **** 			{0x40u, 0x40u},
 470:Generated_Source\PSoC4/cyfitter_cfg.c **** 			{0x41u, 0x80u},
 471:Generated_Source\PSoC4/cyfitter_cfg.c **** 			{0x45u, 0x82u},
 472:Generated_Source\PSoC4/cyfitter_cfg.c **** 			{0x4Au, 0x01u},
 473:Generated_Source\PSoC4/cyfitter_cfg.c **** 			{0x4Du, 0x04u},
 474:Generated_Source\PSoC4/cyfitter_cfg.c **** 			{0x4Eu, 0x02u},
 475:Generated_Source\PSoC4/cyfitter_cfg.c **** 			{0x4Fu, 0x01u},
 476:Generated_Source\PSoC4/cyfitter_cfg.c **** 			{0x55u, 0x80u},
 477:Generated_Source\PSoC4/cyfitter_cfg.c **** 			{0x57u, 0x40u},
 478:Generated_Source\PSoC4/cyfitter_cfg.c **** 			{0x5Du, 0x04u},
 479:Generated_Source\PSoC4/cyfitter_cfg.c **** 			{0x5Eu, 0x80u},
 480:Generated_Source\PSoC4/cyfitter_cfg.c **** 			{0x5Fu, 0x01u},
 481:Generated_Source\PSoC4/cyfitter_cfg.c **** 			{0x6Bu, 0x01u},
 482:Generated_Source\PSoC4/cyfitter_cfg.c **** 			{0x74u, 0x01u},
 483:Generated_Source\PSoC4/cyfitter_cfg.c **** 			{0x76u, 0x02u},
 484:Generated_Source\PSoC4/cyfitter_cfg.c **** 			{0x77u, 0x42u},
 485:Generated_Source\PSoC4/cyfitter_cfg.c **** 			{0x7Eu, 0x02u},
 486:Generated_Source\PSoC4/cyfitter_cfg.c **** 			{0x8Cu, 0x10u},
 487:Generated_Source\PSoC4/cyfitter_cfg.c **** 			{0xC0u, 0xB1u},
 488:Generated_Source\PSoC4/cyfitter_cfg.c **** 			{0xC2u, 0xF0u},
 489:Generated_Source\PSoC4/cyfitter_cfg.c **** 			{0xC4u, 0xB1u},
 490:Generated_Source\PSoC4/cyfitter_cfg.c **** 			{0xCAu, 0xD0u},
 491:Generated_Source\PSoC4/cyfitter_cfg.c **** 			{0xCCu, 0xB8u},
 492:Generated_Source\PSoC4/cyfitter_cfg.c **** 			{0xCEu, 0xB0u},
 493:Generated_Source\PSoC4/cyfitter_cfg.c **** 			{0xD0u, 0x99u},
 494:Generated_Source\PSoC4/cyfitter_cfg.c **** 			{0xD2u, 0x18u},
ARM GAS  C:\Users\User\AppData\Local\Temp\ccKFBczQ.s 			page 18


 495:Generated_Source\PSoC4/cyfitter_cfg.c **** 			{0xD6u, 0xD0u},
 496:Generated_Source\PSoC4/cyfitter_cfg.c **** 			{0xDEu, 0x10u},
 497:Generated_Source\PSoC4/cyfitter_cfg.c **** 			{0xE6u, 0x40u},
 498:Generated_Source\PSoC4/cyfitter_cfg.c **** 			{0x00u, 0x0Au},
 499:Generated_Source\PSoC4/cyfitter_cfg.c **** 			{0x02u, 0x14u},
 500:Generated_Source\PSoC4/cyfitter_cfg.c **** 			{0x06u, 0x1Eu},
 501:Generated_Source\PSoC4/cyfitter_cfg.c **** 			{0x0Au, 0x0Eu},
 502:Generated_Source\PSoC4/cyfitter_cfg.c **** 			{0x0Cu, 0x04u},
 503:Generated_Source\PSoC4/cyfitter_cfg.c **** 			{0x0Eu, 0x0Au},
 504:Generated_Source\PSoC4/cyfitter_cfg.c **** 			{0x12u, 0x7Eu},
 505:Generated_Source\PSoC4/cyfitter_cfg.c **** 			{0x14u, 0x04u},
 506:Generated_Source\PSoC4/cyfitter_cfg.c **** 			{0x16u, 0x1Au},
 507:Generated_Source\PSoC4/cyfitter_cfg.c **** 			{0x1Au, 0x3Eu},
 508:Generated_Source\PSoC4/cyfitter_cfg.c **** 			{0x1Cu, 0x03u},
 509:Generated_Source\PSoC4/cyfitter_cfg.c **** 			{0x1Eu, 0x04u},
 510:Generated_Source\PSoC4/cyfitter_cfg.c **** 			{0x20u, 0x01u},
 511:Generated_Source\PSoC4/cyfitter_cfg.c **** 			{0x22u, 0x7Cu},
 512:Generated_Source\PSoC4/cyfitter_cfg.c **** 			{0x26u, 0x0Eu},
 513:Generated_Source\PSoC4/cyfitter_cfg.c **** 			{0x28u, 0x0Eu},
 514:Generated_Source\PSoC4/cyfitter_cfg.c **** 			{0x2Au, 0x10u},
 515:Generated_Source\PSoC4/cyfitter_cfg.c **** 			{0x2Eu, 0x0Eu},
 516:Generated_Source\PSoC4/cyfitter_cfg.c **** 			{0x30u, 0x18u},
 517:Generated_Source\PSoC4/cyfitter_cfg.c **** 			{0x32u, 0x20u},
 518:Generated_Source\PSoC4/cyfitter_cfg.c **** 			{0x34u, 0x40u},
 519:Generated_Source\PSoC4/cyfitter_cfg.c **** 			{0x36u, 0x07u},
 520:Generated_Source\PSoC4/cyfitter_cfg.c **** 			{0x3Au, 0xAAu},
 521:Generated_Source\PSoC4/cyfitter_cfg.c **** 			{0x58u, 0x04u},
 522:Generated_Source\PSoC4/cyfitter_cfg.c **** 			{0x5Bu, 0x04u},
 523:Generated_Source\PSoC4/cyfitter_cfg.c **** 			{0x5Cu, 0x01u},
 524:Generated_Source\PSoC4/cyfitter_cfg.c **** 			{0x5Fu, 0x01u},
 525:Generated_Source\PSoC4/cyfitter_cfg.c **** 			{0x80u, 0x01u},
 526:Generated_Source\PSoC4/cyfitter_cfg.c **** 			{0x81u, 0x80u},
 527:Generated_Source\PSoC4/cyfitter_cfg.c **** 			{0x82u, 0x08u},
 528:Generated_Source\PSoC4/cyfitter_cfg.c **** 			{0x83u, 0x07u},
 529:Generated_Source\PSoC4/cyfitter_cfg.c **** 			{0x86u, 0x05u},
 530:Generated_Source\PSoC4/cyfitter_cfg.c **** 			{0x87u, 0x17u},
 531:Generated_Source\PSoC4/cyfitter_cfg.c **** 			{0x89u, 0x11u},
 532:Generated_Source\PSoC4/cyfitter_cfg.c **** 			{0x8Au, 0x01u},
 533:Generated_Source\PSoC4/cyfitter_cfg.c **** 			{0x8Bu, 0x06u},
 534:Generated_Source\PSoC4/cyfitter_cfg.c **** 			{0x8Eu, 0x01u},
 535:Generated_Source\PSoC4/cyfitter_cfg.c **** 			{0x8Fu, 0x15u},
 536:Generated_Source\PSoC4/cyfitter_cfg.c **** 			{0x92u, 0x1Fu},
 537:Generated_Source\PSoC4/cyfitter_cfg.c **** 			{0x93u, 0x17u},
 538:Generated_Source\PSoC4/cyfitter_cfg.c **** 			{0x95u, 0x20u},
 539:Generated_Source\PSoC4/cyfitter_cfg.c **** 			{0x96u, 0x06u},
 540:Generated_Source\PSoC4/cyfitter_cfg.c **** 			{0x97u, 0x07u},
 541:Generated_Source\PSoC4/cyfitter_cfg.c **** 			{0x99u, 0x40u},
 542:Generated_Source\PSoC4/cyfitter_cfg.c **** 			{0x9Au, 0x19u},
 543:Generated_Source\PSoC4/cyfitter_cfg.c **** 			{0x9Bu, 0x07u},
 544:Generated_Source\PSoC4/cyfitter_cfg.c **** 			{0x9Du, 0x08u},
 545:Generated_Source\PSoC4/cyfitter_cfg.c **** 			{0x9Eu, 0x01u},
 546:Generated_Source\PSoC4/cyfitter_cfg.c **** 			{0x9Fu, 0x03u},
 547:Generated_Source\PSoC4/cyfitter_cfg.c **** 			{0xA1u, 0x11u},
 548:Generated_Source\PSoC4/cyfitter_cfg.c **** 			{0xA2u, 0x19u},
 549:Generated_Source\PSoC4/cyfitter_cfg.c **** 			{0xA3u, 0x06u},
 550:Generated_Source\PSoC4/cyfitter_cfg.c **** 			{0xA4u, 0x01u},
 551:Generated_Source\PSoC4/cyfitter_cfg.c **** 			{0xA6u, 0x18u},
ARM GAS  C:\Users\User\AppData\Local\Temp\ccKFBczQ.s 			page 19


 552:Generated_Source\PSoC4/cyfitter_cfg.c **** 			{0xA7u, 0x11u},
 553:Generated_Source\PSoC4/cyfitter_cfg.c **** 			{0xAAu, 0x19u},
 554:Generated_Source\PSoC4/cyfitter_cfg.c **** 			{0xAEu, 0x01u},
 555:Generated_Source\PSoC4/cyfitter_cfg.c **** 			{0xAFu, 0x11u},
 556:Generated_Source\PSoC4/cyfitter_cfg.c **** 			{0xB0u, 0x10u},
 557:Generated_Source\PSoC4/cyfitter_cfg.c **** 			{0xB1u, 0x03u},
 558:Generated_Source\PSoC4/cyfitter_cfg.c **** 			{0xB2u, 0x03u},
 559:Generated_Source\PSoC4/cyfitter_cfg.c **** 			{0xB3u, 0x04u},
 560:Generated_Source\PSoC4/cyfitter_cfg.c **** 			{0xB4u, 0x09u},
 561:Generated_Source\PSoC4/cyfitter_cfg.c **** 			{0xB5u, 0xF8u},
 562:Generated_Source\PSoC4/cyfitter_cfg.c **** 			{0xB6u, 0x05u},
 563:Generated_Source\PSoC4/cyfitter_cfg.c **** 			{0xB9u, 0x80u},
 564:Generated_Source\PSoC4/cyfitter_cfg.c **** 			{0xBAu, 0xAAu},
 565:Generated_Source\PSoC4/cyfitter_cfg.c **** 			{0xBBu, 0x32u},
 566:Generated_Source\PSoC4/cyfitter_cfg.c **** 			{0xBFu, 0x04u},
 567:Generated_Source\PSoC4/cyfitter_cfg.c **** 			{0xD8u, 0x04u},
 568:Generated_Source\PSoC4/cyfitter_cfg.c **** 			{0xD9u, 0x04u},
 569:Generated_Source\PSoC4/cyfitter_cfg.c **** 			{0xDBu, 0x04u},
 570:Generated_Source\PSoC4/cyfitter_cfg.c **** 			{0xDCu, 0x11u},
 571:Generated_Source\PSoC4/cyfitter_cfg.c **** 			{0xDFu, 0x01u},
 572:Generated_Source\PSoC4/cyfitter_cfg.c **** 			{0x01u, 0xAAu},
 573:Generated_Source\PSoC4/cyfitter_cfg.c **** 			{0x04u, 0x28u},
 574:Generated_Source\PSoC4/cyfitter_cfg.c **** 			{0x05u, 0x82u},
 575:Generated_Source\PSoC4/cyfitter_cfg.c **** 			{0x09u, 0x20u},
 576:Generated_Source\PSoC4/cyfitter_cfg.c **** 			{0x0Au, 0x82u},
 577:Generated_Source\PSoC4/cyfitter_cfg.c **** 			{0x0Bu, 0x10u},
 578:Generated_Source\PSoC4/cyfitter_cfg.c **** 			{0x0Cu, 0x04u},
 579:Generated_Source\PSoC4/cyfitter_cfg.c **** 			{0x0Du, 0x21u},
 580:Generated_Source\PSoC4/cyfitter_cfg.c **** 			{0x0Eu, 0x02u},
 581:Generated_Source\PSoC4/cyfitter_cfg.c **** 			{0x10u, 0x04u},
 582:Generated_Source\PSoC4/cyfitter_cfg.c **** 			{0x11u, 0x01u},
 583:Generated_Source\PSoC4/cyfitter_cfg.c **** 			{0x12u, 0x20u},
 584:Generated_Source\PSoC4/cyfitter_cfg.c **** 			{0x13u, 0x80u},
 585:Generated_Source\PSoC4/cyfitter_cfg.c **** 			{0x14u, 0x40u},
 586:Generated_Source\PSoC4/cyfitter_cfg.c **** 			{0x15u, 0x24u},
 587:Generated_Source\PSoC4/cyfitter_cfg.c **** 			{0x17u, 0x80u},
 588:Generated_Source\PSoC4/cyfitter_cfg.c **** 			{0x18u, 0x28u},
 589:Generated_Source\PSoC4/cyfitter_cfg.c **** 			{0x19u, 0xAAu},
 590:Generated_Source\PSoC4/cyfitter_cfg.c **** 			{0x1Du, 0x20u},
 591:Generated_Source\PSoC4/cyfitter_cfg.c **** 			{0x1Eu, 0x02u},
 592:Generated_Source\PSoC4/cyfitter_cfg.c **** 			{0x1Fu, 0x0Au},
 593:Generated_Source\PSoC4/cyfitter_cfg.c **** 			{0x20u, 0x40u},
 594:Generated_Source\PSoC4/cyfitter_cfg.c **** 			{0x21u, 0x10u},
 595:Generated_Source\PSoC4/cyfitter_cfg.c **** 			{0x22u, 0x60u},
 596:Generated_Source\PSoC4/cyfitter_cfg.c **** 			{0x23u, 0x90u},
 597:Generated_Source\PSoC4/cyfitter_cfg.c **** 			{0x29u, 0x8Au},
 598:Generated_Source\PSoC4/cyfitter_cfg.c **** 			{0x30u, 0x44u},
 599:Generated_Source\PSoC4/cyfitter_cfg.c **** 			{0x31u, 0x20u},
 600:Generated_Source\PSoC4/cyfitter_cfg.c **** 			{0x32u, 0x41u},
 601:Generated_Source\PSoC4/cyfitter_cfg.c **** 			{0x33u, 0x0Au},
 602:Generated_Source\PSoC4/cyfitter_cfg.c **** 			{0x38u, 0x48u},
 603:Generated_Source\PSoC4/cyfitter_cfg.c **** 			{0x39u, 0x23u},
 604:Generated_Source\PSoC4/cyfitter_cfg.c **** 			{0x58u, 0x80u},
 605:Generated_Source\PSoC4/cyfitter_cfg.c **** 			{0x59u, 0x05u},
 606:Generated_Source\PSoC4/cyfitter_cfg.c **** 			{0x5Bu, 0x10u},
 607:Generated_Source\PSoC4/cyfitter_cfg.c **** 			{0x60u, 0x04u},
 608:Generated_Source\PSoC4/cyfitter_cfg.c **** 			{0x61u, 0x05u},
ARM GAS  C:\Users\User\AppData\Local\Temp\ccKFBczQ.s 			page 20


 609:Generated_Source\PSoC4/cyfitter_cfg.c **** 			{0x62u, 0x08u},
 610:Generated_Source\PSoC4/cyfitter_cfg.c **** 			{0x63u, 0x02u},
 611:Generated_Source\PSoC4/cyfitter_cfg.c **** 			{0x69u, 0x80u},
 612:Generated_Source\PSoC4/cyfitter_cfg.c **** 			{0x6Du, 0x80u},
 613:Generated_Source\PSoC4/cyfitter_cfg.c **** 			{0x84u, 0x80u},
 614:Generated_Source\PSoC4/cyfitter_cfg.c **** 			{0x89u, 0x44u},
 615:Generated_Source\PSoC4/cyfitter_cfg.c **** 			{0x8Au, 0x01u},
 616:Generated_Source\PSoC4/cyfitter_cfg.c **** 			{0x8Cu, 0x04u},
 617:Generated_Source\PSoC4/cyfitter_cfg.c **** 			{0x8Du, 0x41u},
 618:Generated_Source\PSoC4/cyfitter_cfg.c **** 			{0x8Eu, 0x09u},
 619:Generated_Source\PSoC4/cyfitter_cfg.c **** 			{0x8Fu, 0x10u},
 620:Generated_Source\PSoC4/cyfitter_cfg.c **** 			{0x91u, 0x02u},
 621:Generated_Source\PSoC4/cyfitter_cfg.c **** 			{0x96u, 0x80u},
 622:Generated_Source\PSoC4/cyfitter_cfg.c **** 			{0x99u, 0x01u},
 623:Generated_Source\PSoC4/cyfitter_cfg.c **** 			{0xA3u, 0x01u},
 624:Generated_Source\PSoC4/cyfitter_cfg.c **** 			{0xB6u, 0x01u},
 625:Generated_Source\PSoC4/cyfitter_cfg.c **** 			{0xC0u, 0xFFu},
 626:Generated_Source\PSoC4/cyfitter_cfg.c **** 			{0xC2u, 0xFFu},
 627:Generated_Source\PSoC4/cyfitter_cfg.c **** 			{0xC4u, 0xFFu},
 628:Generated_Source\PSoC4/cyfitter_cfg.c **** 			{0xCAu, 0x0Bu},
 629:Generated_Source\PSoC4/cyfitter_cfg.c **** 			{0xCCu, 0x0Fu},
 630:Generated_Source\PSoC4/cyfitter_cfg.c **** 			{0xCEu, 0x0Fu},
 631:Generated_Source\PSoC4/cyfitter_cfg.c **** 			{0xD6u, 0x0Fu},
 632:Generated_Source\PSoC4/cyfitter_cfg.c **** 			{0xD8u, 0x0Fu},
 633:Generated_Source\PSoC4/cyfitter_cfg.c **** 			{0xE2u, 0x10u},
 634:Generated_Source\PSoC4/cyfitter_cfg.c **** 			{0xE6u, 0x02u},
 635:Generated_Source\PSoC4/cyfitter_cfg.c **** 			{0xEAu, 0x10u},
 636:Generated_Source\PSoC4/cyfitter_cfg.c **** 			{0x5Bu, 0x10u},
 637:Generated_Source\PSoC4/cyfitter_cfg.c **** 			{0x8Fu, 0x10u},
 638:Generated_Source\PSoC4/cyfitter_cfg.c **** 			{0xD4u, 0x80u},
 639:Generated_Source\PSoC4/cyfitter_cfg.c **** 			{0x6Cu, 0x04u},
 640:Generated_Source\PSoC4/cyfitter_cfg.c **** 			{0x72u, 0x08u},
 641:Generated_Source\PSoC4/cyfitter_cfg.c **** 			{0x8Eu, 0x08u},
 642:Generated_Source\PSoC4/cyfitter_cfg.c **** 			{0x90u, 0x08u},
 643:Generated_Source\PSoC4/cyfitter_cfg.c **** 			{0xB4u, 0x04u},
 644:Generated_Source\PSoC4/cyfitter_cfg.c **** 			{0xDAu, 0x80u},
 645:Generated_Source\PSoC4/cyfitter_cfg.c **** 			{0xDCu, 0x20u},
 646:Generated_Source\PSoC4/cyfitter_cfg.c **** 			{0x0Bu, 0x40u},
 647:Generated_Source\PSoC4/cyfitter_cfg.c **** 			{0x30u, 0x08u},
 648:Generated_Source\PSoC4/cyfitter_cfg.c **** 			{0x61u, 0x02u},
 649:Generated_Source\PSoC4/cyfitter_cfg.c **** 			{0x87u, 0x40u},
 650:Generated_Source\PSoC4/cyfitter_cfg.c **** 			{0x89u, 0x02u},
 651:Generated_Source\PSoC4/cyfitter_cfg.c **** 			{0x8Cu, 0x08u},
 652:Generated_Source\PSoC4/cyfitter_cfg.c **** 			{0xC2u, 0x08u},
 653:Generated_Source\PSoC4/cyfitter_cfg.c **** 			{0xCCu, 0x02u},
 654:Generated_Source\PSoC4/cyfitter_cfg.c **** 			{0xD8u, 0x02u},
 655:Generated_Source\PSoC4/cyfitter_cfg.c **** 			{0xE4u, 0x0Cu},
 656:Generated_Source\PSoC4/cyfitter_cfg.c **** 			{0x10u, 0x0Au},
 657:Generated_Source\PSoC4/cyfitter_cfg.c **** 			{0x11u, 0x01u},
 658:Generated_Source\PSoC4/cyfitter_cfg.c **** 		};
 659:Generated_Source\PSoC4/cyfitter_cfg.c **** 
 660:Generated_Source\PSoC4/cyfitter_cfg.c **** 
 661:Generated_Source\PSoC4/cyfitter_cfg.c **** 
 662:Generated_Source\PSoC4/cyfitter_cfg.c **** 		CYPACKED typedef struct {
 663:Generated_Source\PSoC4/cyfitter_cfg.c **** 			void CYFAR *address;
 664:Generated_Source\PSoC4/cyfitter_cfg.c **** 			uint16 size;
 665:Generated_Source\PSoC4/cyfitter_cfg.c **** 		} CYPACKED_ATTR cfg_memset_t;
ARM GAS  C:\Users\User\AppData\Local\Temp\ccKFBczQ.s 			page 21


 666:Generated_Source\PSoC4/cyfitter_cfg.c **** 
 667:Generated_Source\PSoC4/cyfitter_cfg.c **** 		static const cfg_memset_t CYCODE cfg_memset_list[] = {
 668:Generated_Source\PSoC4/cyfitter_cfg.c **** 			/* address, size */
 669:Generated_Source\PSoC4/cyfitter_cfg.c **** 			{(void CYFAR *)(CYDEV_UDB_P0_U0_BASE), 1024u},
 670:Generated_Source\PSoC4/cyfitter_cfg.c **** 			{(void CYFAR *)(CYDEV_UDB_DSI0_BASE), 1024u},
 671:Generated_Source\PSoC4/cyfitter_cfg.c **** 		};
 672:Generated_Source\PSoC4/cyfitter_cfg.c **** 
 673:Generated_Source\PSoC4/cyfitter_cfg.c **** 		uint8 CYDATA i;
 674:Generated_Source\PSoC4/cyfitter_cfg.c **** 
 675:Generated_Source\PSoC4/cyfitter_cfg.c **** 		/* Zero out critical memory blocks before beginning configuration */
 676:Generated_Source\PSoC4/cyfitter_cfg.c **** 		for (i = 0u; i < (sizeof(cfg_memset_list)/sizeof(cfg_memset_list[0])); i++)
 473              		.loc 1 676 0
 474 0130 FB1D     		adds	r3, r7, #7
 475 0132 0022     		movs	r2, #0
 476 0134 1A70     		strb	r2, [r3]
 477 0136 22E0     		b	.L16
 478              	.L17:
 479              	.LBB4:
 677:Generated_Source\PSoC4/cyfitter_cfg.c **** 		{
 678:Generated_Source\PSoC4/cyfitter_cfg.c **** 			const cfg_memset_t CYCODE * CYDATA ms = &cfg_memset_list[i];
 480              		.loc 1 678 0 discriminator 3
 481 0138 FB1D     		adds	r3, r7, #7
 482 013a 1A78     		ldrb	r2, [r3]
 483 013c 1300     		movs	r3, r2
 484 013e 5B00     		lsls	r3, r3, #1
 485 0140 9B18     		adds	r3, r3, r2
 486 0142 5B00     		lsls	r3, r3, #1
 487 0144 474A     		ldr	r2, .L18+8
 488 0146 9B18     		adds	r3, r3, r2
 489 0148 3B60     		str	r3, [r7]
 679:Generated_Source\PSoC4/cyfitter_cfg.c **** 			CYMEMZERO(ms->address, (size_t)(uint32)(ms->size));
 490              		.loc 1 679 0 discriminator 3
 491 014a 3B68     		ldr	r3, [r7]
 492 014c 1A78     		ldrb	r2, [r3]
 493 014e 5978     		ldrb	r1, [r3, #1]
 494 0150 0902     		lsls	r1, r1, #8
 495 0152 0A43     		orrs	r2, r1
 496 0154 9978     		ldrb	r1, [r3, #2]
 497 0156 0904     		lsls	r1, r1, #16
 498 0158 0A43     		orrs	r2, r1
 499 015a DB78     		ldrb	r3, [r3, #3]
 500 015c 1B06     		lsls	r3, r3, #24
 501 015e 1343     		orrs	r3, r2
 502 0160 1800     		movs	r0, r3
 503 0162 3B68     		ldr	r3, [r7]
 504 0164 1A79     		ldrb	r2, [r3, #4]
 505 0166 5B79     		ldrb	r3, [r3, #5]
 506 0168 1B02     		lsls	r3, r3, #8
 507 016a 1343     		orrs	r3, r2
 508 016c 9BB2     		uxth	r3, r3
 509 016e 1900     		movs	r1, r3
 510 0170 FFF7FEFF 		bl	CYMEMZERO
 511              	.LBE4:
 676:Generated_Source\PSoC4/cyfitter_cfg.c **** 		{
 512              		.loc 1 676 0 discriminator 3
 513 0174 FB1D     		adds	r3, r7, #7
 514 0176 1A78     		ldrb	r2, [r3]
ARM GAS  C:\Users\User\AppData\Local\Temp\ccKFBczQ.s 			page 22


 515 0178 FB1D     		adds	r3, r7, #7
 516 017a 0132     		adds	r2, r2, #1
 517 017c 1A70     		strb	r2, [r3]
 518              	.L16:
 676:Generated_Source\PSoC4/cyfitter_cfg.c **** 		{
 519              		.loc 1 676 0 is_stmt 0 discriminator 1
 520 017e FB1D     		adds	r3, r7, #7
 521 0180 1B78     		ldrb	r3, [r3]
 522 0182 012B     		cmp	r3, #1
 523 0184 D8D9     		bls	.L17
 680:Generated_Source\PSoC4/cyfitter_cfg.c **** 		}
 681:Generated_Source\PSoC4/cyfitter_cfg.c **** 
 682:Generated_Source\PSoC4/cyfitter_cfg.c **** 		cfg_write_bytes32(cy_cfg_addr_table, cy_cfg_data_table);
 524              		.loc 1 682 0 is_stmt 1
 525 0186 384A     		ldr	r2, .L18+12
 526 0188 384B     		ldr	r3, .L18+16
 527 018a 1100     		movs	r1, r2
 528 018c 1800     		movs	r0, r3
 529 018e FFF7FEFF 		bl	cfg_write_bytes32
 683:Generated_Source\PSoC4/cyfitter_cfg.c **** 
 684:Generated_Source\PSoC4/cyfitter_cfg.c **** 		/* Perform normal device configuration. Order is not critical for these items. */
 685:Generated_Source\PSoC4/cyfitter_cfg.c **** 		CY_SET_REG16((void *)(CYREG_UDB_BCTL0_DRV), 0x0A00u);
 530              		.loc 1 685 0
 531 0192 374B     		ldr	r3, .L18+20
 532 0194 A022     		movs	r2, #160
 533 0196 1201     		lsls	r2, r2, #4
 534 0198 1A80     		strh	r2, [r3]
 686:Generated_Source\PSoC4/cyfitter_cfg.c **** 		CY_SET_REG8((void *)(CYREG_UDB_BCTL0_DRV + 0x2u), 0x01u);
 535              		.loc 1 686 0
 536 019a 364B     		ldr	r3, .L18+24
 537 019c 0122     		movs	r2, #1
 538 019e 1A70     		strb	r2, [r3]
 687:Generated_Source\PSoC4/cyfitter_cfg.c **** 
 688:Generated_Source\PSoC4/cyfitter_cfg.c **** 		/* HSIOM Starting address: CYDEV_HSIOM_BASE */
 689:Generated_Source\PSoC4/cyfitter_cfg.c **** 		CY_SET_REG32((void *)(CYDEV_HSIOM_BASE), 0xEE003000u);
 539              		.loc 1 689 0
 540 01a0 354B     		ldr	r3, .L18+28
 541 01a2 364A     		ldr	r2, .L18+32
 542 01a4 1A60     		str	r2, [r3]
 690:Generated_Source\PSoC4/cyfitter_cfg.c **** 		CY_SET_REG32((void *)(CYREG_HSIOM_PORT_SEL1), 0x00990000u);
 543              		.loc 1 690 0
 544 01a6 364B     		ldr	r3, .L18+36
 545 01a8 9922     		movs	r2, #153
 546 01aa 1204     		lsls	r2, r2, #16
 547 01ac 1A60     		str	r2, [r3]
 691:Generated_Source\PSoC4/cyfitter_cfg.c **** 		CY_SET_REG32((void *)(CYREG_HSIOM_PORT_SEL3), 0x00020000u);
 548              		.loc 1 691 0
 549 01ae 354B     		ldr	r3, .L18+40
 550 01b0 8022     		movs	r2, #128
 551 01b2 9202     		lsls	r2, r2, #10
 552 01b4 1A60     		str	r2, [r3]
 692:Generated_Source\PSoC4/cyfitter_cfg.c **** 
 693:Generated_Source\PSoC4/cyfitter_cfg.c **** 		/* UDB_PA_0 Starting address: CYDEV_UDB_PA0_BASE */
 694:Generated_Source\PSoC4/cyfitter_cfg.c **** 		CY_SET_REG32((void *)(CYDEV_UDB_PA0_BASE), 0x00990000u);
 553              		.loc 1 694 0
 554 01b6 344B     		ldr	r3, .L18+44
 555 01b8 9922     		movs	r2, #153
ARM GAS  C:\Users\User\AppData\Local\Temp\ccKFBczQ.s 			page 23


 556 01ba 1204     		lsls	r2, r2, #16
 557 01bc 1A60     		str	r2, [r3]
 695:Generated_Source\PSoC4/cyfitter_cfg.c **** 		CY_SET_REG32((void *)(CYREG_UDB_PA0_CFG8), 0x00800000u);
 558              		.loc 1 695 0
 559 01be 334B     		ldr	r3, .L18+48
 560 01c0 8022     		movs	r2, #128
 561 01c2 1204     		lsls	r2, r2, #16
 562 01c4 1A60     		str	r2, [r3]
 696:Generated_Source\PSoC4/cyfitter_cfg.c **** 
 697:Generated_Source\PSoC4/cyfitter_cfg.c **** 		/* UDB_PA_1 Starting address: CYDEV_UDB_PA1_BASE */
 698:Generated_Source\PSoC4/cyfitter_cfg.c **** 		CY_SET_REG32((void *)(CYDEV_UDB_PA1_BASE), 0x00990000u);
 563              		.loc 1 698 0
 564 01c6 324B     		ldr	r3, .L18+52
 565 01c8 9922     		movs	r2, #153
 566 01ca 1204     		lsls	r2, r2, #16
 567 01cc 1A60     		str	r2, [r3]
 699:Generated_Source\PSoC4/cyfitter_cfg.c **** 
 700:Generated_Source\PSoC4/cyfitter_cfg.c **** 		/* UDB_PA_3 Starting address: CYDEV_UDB_PA3_BASE */
 701:Generated_Source\PSoC4/cyfitter_cfg.c **** 		CY_SET_REG32((void *)(CYDEV_UDB_PA3_BASE), 0x00990004u);
 568              		.loc 1 701 0
 569 01ce 314B     		ldr	r3, .L18+56
 570 01d0 314A     		ldr	r2, .L18+60
 571 01d2 1A60     		str	r2, [r3]
 702:Generated_Source\PSoC4/cyfitter_cfg.c **** 		CY_SET_REG32((void *)(CYREG_UDB_PA3_CFG4), 0x02000000u);
 572              		.loc 1 702 0
 573 01d4 314B     		ldr	r3, .L18+64
 574 01d6 8022     		movs	r2, #128
 575 01d8 9204     		lsls	r2, r2, #18
 576 01da 1A60     		str	r2, [r3]
 703:Generated_Source\PSoC4/cyfitter_cfg.c **** 		CY_SET_REG32((void *)(CYREG_UDB_PA3_CFG8), 0x02000000u);
 577              		.loc 1 703 0
 578 01dc 304B     		ldr	r3, .L18+68
 579 01de 8022     		movs	r2, #128
 580 01e0 9204     		lsls	r2, r2, #18
 581 01e2 1A60     		str	r2, [r3]
 704:Generated_Source\PSoC4/cyfitter_cfg.c **** 		CY_SET_REG32((void *)(CYREG_UDB_PA3_CFG12), 0x00000200u);
 582              		.loc 1 704 0
 583 01e4 2F4B     		ldr	r3, .L18+72
 584 01e6 8022     		movs	r2, #128
 585 01e8 9200     		lsls	r2, r2, #2
 586 01ea 1A60     		str	r2, [r3]
 705:Generated_Source\PSoC4/cyfitter_cfg.c **** 
 706:Generated_Source\PSoC4/cyfitter_cfg.c **** 		/* INT_SELECT Starting address: CYDEV_CPUSS_INT_SEL */
 707:Generated_Source\PSoC4/cyfitter_cfg.c **** 		CY_SET_REG32((void *)(CYREG_CPUSS_INT_SEL), 0x00000006u);
 587              		.loc 1 707 0
 588 01ec 2E4B     		ldr	r3, .L18+76
 589 01ee 0622     		movs	r2, #6
 590 01f0 1A60     		str	r2, [r3]
 708:Generated_Source\PSoC4/cyfitter_cfg.c **** 
 709:Generated_Source\PSoC4/cyfitter_cfg.c **** 		/* INT_CONFIG Starting address: CYDEV_UDB_INT_CFG */
 710:Generated_Source\PSoC4/cyfitter_cfg.c **** 		CY_SET_REG32((void *)(CYREG_UDB_INT_CFG), 0x00000006u);
 591              		.loc 1 710 0
 592 01f2 2E4B     		ldr	r3, .L18+80
 593 01f4 0622     		movs	r2, #6
 594 01f6 1A60     		str	r2, [r3]
 711:Generated_Source\PSoC4/cyfitter_cfg.c **** 
 712:Generated_Source\PSoC4/cyfitter_cfg.c **** 		/* Enable UDB array and digital routing */
ARM GAS  C:\Users\User\AppData\Local\Temp\ccKFBczQ.s 			page 24


 713:Generated_Source\PSoC4/cyfitter_cfg.c **** 		CY_SET_XTND_REG8((void *)CYREG_UDB_UDBIF_WAIT_CFG, (uint8)((CY_GET_XTND_REG8((void *)CYREG_UDB_UD
 595              		.loc 1 713 0
 596 01f8 2D4A     		ldr	r2, .L18+84
 597 01fa 2D4B     		ldr	r3, .L18+84
 598 01fc 1B78     		ldrb	r3, [r3]
 599 01fe DBB2     		uxtb	r3, r3
 600 0200 3C21     		movs	r1, #60
 601 0202 8B43     		bics	r3, r1
 602 0204 DBB2     		uxtb	r3, r3
 603 0206 1421     		movs	r1, #20
 604 0208 0B43     		orrs	r3, r1
 605 020a DBB2     		uxtb	r3, r3
 606 020c 1370     		strb	r3, [r2]
 714:Generated_Source\PSoC4/cyfitter_cfg.c **** 		CY_SET_XTND_REG8((void *)CYREG_UDB_UDBIF_BANK_CTL, (uint8)(CY_GET_XTND_REG8((void *)CYREG_UDB_UDB
 607              		.loc 1 714 0
 608 020e 294A     		ldr	r2, .L18+88
 609 0210 284B     		ldr	r3, .L18+88
 610 0212 1B78     		ldrb	r3, [r3]
 611 0214 DBB2     		uxtb	r3, r3
 612 0216 1621     		movs	r1, #22
 613 0218 0B43     		orrs	r3, r1
 614 021a DBB2     		uxtb	r3, r3
 615 021c 1370     		strb	r3, [r2]
 616              	.LBE3:
 715:Generated_Source\PSoC4/cyfitter_cfg.c **** 	}
 716:Generated_Source\PSoC4/cyfitter_cfg.c **** 
 717:Generated_Source\PSoC4/cyfitter_cfg.c **** 	/* Perform second pass device configuration. These items must be configured in specific order afte
 718:Generated_Source\PSoC4/cyfitter_cfg.c **** 	/* IOPINS0_0 Starting address: CYDEV_GPIO_PRT0_BASE */
 719:Generated_Source\PSoC4/cyfitter_cfg.c **** 	CY_SET_REG32((void *)(CYDEV_GPIO_PRT0_BASE), 0x00000008u);
 617              		.loc 1 719 0
 618 021e 264B     		ldr	r3, .L18+92
 619 0220 0822     		movs	r2, #8
 620 0222 1A60     		str	r2, [r3]
 720:Generated_Source\PSoC4/cyfitter_cfg.c **** 	CY_SET_REG32((void *)(CYREG_GPIO_PRT0_PC), 0x00D80C00u);
 621              		.loc 1 720 0
 622 0224 254B     		ldr	r3, .L18+96
 623 0226 264A     		ldr	r2, .L18+100
 624 0228 1A60     		str	r2, [r3]
 721:Generated_Source\PSoC4/cyfitter_cfg.c **** 
 722:Generated_Source\PSoC4/cyfitter_cfg.c **** 	/* IOPINS0_1 Starting address: CYDEV_GPIO_PRT1_BASE */
 723:Generated_Source\PSoC4/cyfitter_cfg.c **** 	CY_SET_REG32((void *)(CYDEV_GPIO_PRT1_BASE), 0x00000020u);
 625              		.loc 1 723 0
 626 022a 264B     		ldr	r3, .L18+104
 627 022c 2022     		movs	r2, #32
 628 022e 1A60     		str	r2, [r3]
 724:Generated_Source\PSoC4/cyfitter_cfg.c **** 	CY_SET_REG32((void *)(CYREG_GPIO_PRT1_PC), 0x00031000u);
 629              		.loc 1 724 0
 630 0230 254B     		ldr	r3, .L18+108
 631 0232 C422     		movs	r2, #196
 632 0234 9202     		lsls	r2, r2, #10
 633 0236 1A60     		str	r2, [r3]
 725:Generated_Source\PSoC4/cyfitter_cfg.c **** 	CY_SET_REG32((void *)(CYREG_GPIO_PRT1_PC2), 0x00000020u);
 634              		.loc 1 725 0
 635 0238 244B     		ldr	r3, .L18+112
 636 023a 2022     		movs	r2, #32
 637 023c 1A60     		str	r2, [r3]
 726:Generated_Source\PSoC4/cyfitter_cfg.c **** 
ARM GAS  C:\Users\User\AppData\Local\Temp\ccKFBczQ.s 			page 25


 727:Generated_Source\PSoC4/cyfitter_cfg.c **** 	/* IOPINS0_3 Starting address: CYDEV_GPIO_PRT3_BASE */
 728:Generated_Source\PSoC4/cyfitter_cfg.c **** 	CY_SET_REG32((void *)(CYDEV_GPIO_PRT3_BASE), 0x00000010u);
 638              		.loc 1 728 0
 639 023e 244B     		ldr	r3, .L18+116
 640 0240 1022     		movs	r2, #16
 641 0242 1A60     		str	r2, [r3]
 729:Generated_Source\PSoC4/cyfitter_cfg.c **** 	CY_SET_REG32((void *)(CYREG_GPIO_PRT3_PC), 0x00182000u);
 642              		.loc 1 729 0
 643 0244 234B     		ldr	r3, .L18+120
 644 0246 C122     		movs	r2, #193
 645 0248 5203     		lsls	r2, r2, #13
 646 024a 1A60     		str	r2, [r3]
 730:Generated_Source\PSoC4/cyfitter_cfg.c **** 
 731:Generated_Source\PSoC4/cyfitter_cfg.c **** 
 732:Generated_Source\PSoC4/cyfitter_cfg.c **** 	/* Setup clocks based on selections from Clock DWR */
 733:Generated_Source\PSoC4/cyfitter_cfg.c **** 	ClockSetup();
 647              		.loc 1 733 0
 648 024c FFF7D8FE 		bl	ClockSetup
 734:Generated_Source\PSoC4/cyfitter_cfg.c **** 
 735:Generated_Source\PSoC4/cyfitter_cfg.c **** 	/* Perform basic analog initialization to defaults */
 736:Generated_Source\PSoC4/cyfitter_cfg.c **** 	AnalogSetDefault();
 649              		.loc 1 736 0
 650 0250 FFF7FEFF 		bl	AnalogSetDefault
 737:Generated_Source\PSoC4/cyfitter_cfg.c **** 
 738:Generated_Source\PSoC4/cyfitter_cfg.c **** }
 651              		.loc 1 738 0
 652 0254 C046     		nop
 653 0256 BD46     		mov	sp, r7
 654 0258 02B0     		add	sp, sp, #8
 655              		@ sp needed
 656 025a 80BD     		pop	{r7, pc}
 657              	.L19:
 658              		.align	2
 659              	.L18:
 660 025c 6CF02E40 		.word	1076818028
 661 0260 1C700F40 		.word	1074753564
 662 0264 00000000 		.word	cfg_memset_list.4916
 663 0268 30000000 		.word	cy_cfg_data_table.4911
 664 026c 0C000000 		.word	cy_cfg_addr_table.4910
 665 0270 00600F40 		.word	1074749440
 666 0274 02600F40 		.word	1074749442
 667 0278 00000240 		.word	1073872896
 668 027c 003000EE 		.word	-301977600
 669 0280 00010240 		.word	1073873152
 670 0284 00030240 		.word	1073873664
 671 0288 00500F40 		.word	1074745344
 672 028c 08500F40 		.word	1074745352
 673 0290 10500F40 		.word	1074745360
 674 0294 30500F40 		.word	1074745392
 675 0298 04009900 		.word	10027012
 676 029c 34500F40 		.word	1074745396
 677 02a0 38500F40 		.word	1074745400
 678 02a4 3C500F40 		.word	1074745404
 679 02a8 20001040 		.word	1074790432
 680 02ac 00800F40 		.word	1074757632
 681 02b0 01700F40 		.word	1074753537
 682 02b4 00700F40 		.word	1074753536
ARM GAS  C:\Users\User\AppData\Local\Temp\ccKFBczQ.s 			page 26


 683 02b8 00000440 		.word	1074003968
 684 02bc 08000440 		.word	1074003976
 685 02c0 000CD800 		.word	14158848
 686 02c4 00010440 		.word	1074004224
 687 02c8 08010440 		.word	1074004232
 688 02cc 18010440 		.word	1074004248
 689 02d0 00030440 		.word	1074004736
 690 02d4 08030440 		.word	1074004744
 691              		.cfi_endproc
 692              	.LFE8:
 693              		.size	cyfitter_cfg, .-cyfitter_cfg
 694              		.section	.rodata
 695              		.align	2
 696              		.type	cfg_memset_list.4916, %object
 697              		.size	cfg_memset_list.4916, 12
 698              	cfg_memset_list.4916:
 699 0000 00300F40 		.word	1074737152
 700 0004 0004     		.short	1024
 701 0006 00400F40 		.4byte	1074741248
 702 000a 0004     		.short	1024
 703              		.align	2
 704              		.type	cy_cfg_addr_table.4910, %object
 705              		.size	cy_cfg_addr_table.4910, 36
 706              	cy_cfg_addr_table.4910:
 707 000c 03000F40 		.word	1074724867
 708 0010 62300F40 		.word	1074737250
 709 0014 3B310F40 		.word	1074737467
 710 0018 4A320F40 		.word	1074737738
 711 001c 40330F40 		.word	1074737984
 712 0020 03400F40 		.word	1074741251
 713 0024 07410F40 		.word	1074741511
 714 0028 0A430F40 		.word	1074742026
 715 002c 02600F40 		.word	1074749442
 716              		.align	2
 717              		.type	cy_cfg_data_table.4911, %object
 718              		.size	cy_cfg_data_table.4911, 640
 719              	cy_cfg_data_table.4911:
 720 0030 72       		.byte	114
 721 0031 01       		.byte	1
 722 0032 73       		.byte	115
 723 0033 01       		.byte	1
 724 0034 81       		.byte	-127
 725 0035 0D       		.byte	13
 726 0036 0E       		.byte	14
 727 0037 02       		.byte	2
 728 0038 1F       		.byte	31
 729 0039 01       		.byte	1
 730 003a 2C       		.byte	44
 731 003b 01       		.byte	1
 732 003c 31       		.byte	49
 733 003d 01       		.byte	1
 734 003e 32       		.byte	50
 735 003f 01       		.byte	1
 736 0040 34       		.byte	52
 737 0041 02       		.byte	2
 738 0042 38       		.byte	56
 739 0043 02       		.byte	2
ARM GAS  C:\Users\User\AppData\Local\Temp\ccKFBczQ.s 			page 27


 740 0044 3B       		.byte	59
 741 0045 02       		.byte	2
 742 0046 3E       		.byte	62
 743 0047 05       		.byte	5
 744 0048 40       		.byte	64
 745 0049 41       		.byte	65
 746 004a 41       		.byte	65
 747 004b 05       		.byte	5
 748 004c 49       		.byte	73
 749 004d FF       		.byte	-1
 750 004e 4A       		.byte	74
 751 004f FF       		.byte	-1
 752 0050 4B       		.byte	75
 753 0051 FF       		.byte	-1
 754 0052 4F       		.byte	79
 755 0053 01       		.byte	1
 756 0054 50       		.byte	80
 757 0055 18       		.byte	24
 758 0056 52       		.byte	82
 759 0057 01       		.byte	1
 760 0058 53       		.byte	83
 761 0059 01       		.byte	1
 762 005a 56       		.byte	86
 763 005b 10       		.byte	16
 764 005c 58       		.byte	88
 765 005d 04       		.byte	4
 766 005e 59       		.byte	89
 767 005f 04       		.byte	4
 768 0060 5A       		.byte	90
 769 0061 04       		.byte	4
 770 0062 5B       		.byte	91
 771 0063 04       		.byte	4
 772 0064 5C       		.byte	92
 773 0065 13       		.byte	19
 774 0066 5D       		.byte	93
 775 0067 33       		.byte	51
 776 0068 5F       		.byte	95
 777 0069 01       		.byte	1
 778 006a 60       		.byte	96
 779 006b 40       		.byte	64
 780 006c 62       		.byte	98
 781 006d 40       		.byte	64
 782 006e 64       		.byte	100
 783 006f 40       		.byte	64
 784 0070 65       		.byte	101
 785 0071 40       		.byte	64
 786 0072 66       		.byte	102
 787 0073 80       		.byte	-128
 788 0074 68       		.byte	104
 789 0075 80       		.byte	-128
 790 0076 6A       		.byte	106
 791 0077 80       		.byte	-128
 792 0078 6C       		.byte	108
 793 0079 80       		.byte	-128
 794 007a 6E       		.byte	110
 795 007b 80       		.byte	-128
 796 007c 82       		.byte	-126
ARM GAS  C:\Users\User\AppData\Local\Temp\ccKFBczQ.s 			page 28


 797 007d CE       		.byte	-50
 798 007e 83       		.byte	-125
 799 007f 0E       		.byte	14
 800 0080 84       		.byte	-124
 801 0081 02       		.byte	2
 802 0082 86       		.byte	-122
 803 0083 11       		.byte	17
 804 0084 8B       		.byte	-117
 805 0085 01       		.byte	1
 806 0086 8C       		.byte	-116
 807 0087 FE       		.byte	-2
 808 0088 8F       		.byte	-113
 809 0089 01       		.byte	1
 810 008a 90       		.byte	-112
 811 008b 08       		.byte	8
 812 008c 92       		.byte	-110
 813 008d 10       		.byte	16
 814 008e 93       		.byte	-109
 815 008f 0D       		.byte	13
 816 0090 94       		.byte	-108
 817 0091 40       		.byte	64
 818 0092 98       		.byte	-104
 819 0093 0E       		.byte	14
 820 0094 9A       		.byte	-102
 821 0095 20       		.byte	32
 822 0096 9B       		.byte	-101
 823 0097 08       		.byte	8
 824 0098 9D       		.byte	-99
 825 0099 0C       		.byte	12
 826 009a 9E       		.byte	-98
 827 009b 9F       		.byte	-97
 828 009c A1       		.byte	-95
 829 009d 04       		.byte	4
 830 009e A2       		.byte	-94
 831 009f 40       		.byte	64
 832 00a0 A4       		.byte	-92
 833 00a1 04       		.byte	4
 834 00a2 A6       		.byte	-90
 835 00a3 10       		.byte	16
 836 00a4 A7       		.byte	-89
 837 00a5 04       		.byte	4
 838 00a6 AE       		.byte	-82
 839 00a7 DF       		.byte	-33
 840 00a8 AF       		.byte	-81
 841 00a9 01       		.byte	1
 842 00aa B0       		.byte	-80
 843 00ab 01       		.byte	1
 844 00ac B1       		.byte	-79
 845 00ad 01       		.byte	1
 846 00ae B2       		.byte	-78
 847 00af 0E       		.byte	14
 848 00b0 B3       		.byte	-77
 849 00b1 0C       		.byte	12
 850 00b2 B4       		.byte	-76
 851 00b3 30       		.byte	48
 852 00b4 B5       		.byte	-75
 853 00b5 02       		.byte	2
ARM GAS  C:\Users\User\AppData\Local\Temp\ccKFBczQ.s 			page 29


 854 00b6 B6       		.byte	-74
 855 00b7 C0       		.byte	-64
 856 00b8 B7       		.byte	-73
 857 00b9 01       		.byte	1
 858 00ba BE       		.byte	-66
 859 00bb 01       		.byte	1
 860 00bc BF       		.byte	-65
 861 00bd 40       		.byte	64
 862 00be C0       		.byte	-64
 863 00bf 41       		.byte	65
 864 00c0 C1       		.byte	-63
 865 00c1 05       		.byte	5
 866 00c2 C5       		.byte	-59
 867 00c3 EC       		.byte	-20
 868 00c4 C6       		.byte	-58
 869 00c5 02       		.byte	2
 870 00c6 C8       		.byte	-56
 871 00c7 07       		.byte	7
 872 00c8 C9       		.byte	-55
 873 00c9 FF       		.byte	-1
 874 00ca CA       		.byte	-54
 875 00cb FF       		.byte	-1
 876 00cc CB       		.byte	-53
 877 00cd FF       		.byte	-1
 878 00ce CD       		.byte	-51
 879 00cf 83       		.byte	-125
 880 00d0 CE       		.byte	-50
 881 00d1 03       		.byte	3
 882 00d2 CF       		.byte	-49
 883 00d3 01       		.byte	1
 884 00d4 D0       		.byte	-48
 885 00d5 18       		.byte	24
 886 00d6 D2       		.byte	-46
 887 00d7 90       		.byte	-112
 888 00d8 D4       		.byte	-44
 889 00d9 01       		.byte	1
 890 00da D8       		.byte	-40
 891 00db 04       		.byte	4
 892 00dc D9       		.byte	-39
 893 00dd 04       		.byte	4
 894 00de DA       		.byte	-38
 895 00df 04       		.byte	4
 896 00e0 DB       		.byte	-37
 897 00e1 04       		.byte	4
 898 00e2 DC       		.byte	-36
 899 00e3 33       		.byte	51
 900 00e4 DD       		.byte	-35
 901 00e5 33       		.byte	51
 902 00e6 DF       		.byte	-33
 903 00e7 05       		.byte	5
 904 00e8 E0       		.byte	-32
 905 00e9 40       		.byte	64
 906 00ea E2       		.byte	-30
 907 00eb 40       		.byte	64
 908 00ec E4       		.byte	-28
 909 00ed 40       		.byte	64
 910 00ee E5       		.byte	-27
ARM GAS  C:\Users\User\AppData\Local\Temp\ccKFBczQ.s 			page 30


 911 00ef 40       		.byte	64
 912 00f0 E6       		.byte	-26
 913 00f1 80       		.byte	-128
 914 00f2 E8       		.byte	-24
 915 00f3 80       		.byte	-128
 916 00f4 EA       		.byte	-22
 917 00f5 80       		.byte	-128
 918 00f6 EC       		.byte	-20
 919 00f7 80       		.byte	-128
 920 00f8 EE       		.byte	-18
 921 00f9 80       		.byte	-128
 922 00fa 03       		.byte	3
 923 00fb 01       		.byte	1
 924 00fc 04       		.byte	4
 925 00fd 80       		.byte	-128
 926 00fe 05       		.byte	5
 927 00ff 04       		.byte	4
 928 0100 07       		.byte	7
 929 0101 40       		.byte	64
 930 0102 0A       		.byte	10
 931 0103 01       		.byte	1
 932 0104 0B       		.byte	11
 933 0105 02       		.byte	2
 934 0106 0E       		.byte	14
 935 0107 09       		.byte	9
 936 0108 0F       		.byte	15
 937 0109 A0       		.byte	-96
 938 010a 13       		.byte	19
 939 010b 80       		.byte	-128
 940 010c 15       		.byte	21
 941 010d 01       		.byte	1
 942 010e 16       		.byte	22
 943 010f 02       		.byte	2
 944 0110 17       		.byte	23
 945 0111 09       		.byte	9
 946 0112 18       		.byte	24
 947 0113 20       		.byte	32
 948 0114 19       		.byte	25
 949 0115 01       		.byte	1
 950 0116 1B       		.byte	27
 951 0117 31       		.byte	49
 952 0118 1C       		.byte	28
 953 0119 40       		.byte	64
 954 011a 1D       		.byte	29
 955 011b 06       		.byte	6
 956 011c 1E       		.byte	30
 957 011d 09       		.byte	9
 958 011e 21       		.byte	33
 959 011f 01       		.byte	1
 960 0120 24       		.byte	36
 961 0121 80       		.byte	-128
 962 0122 25       		.byte	37
 963 0123 10       		.byte	16
 964 0124 26       		.byte	38
 965 0125 43       		.byte	67
 966 0126 27       		.byte	39
 967 0127 A8       		.byte	-88
ARM GAS  C:\Users\User\AppData\Local\Temp\ccKFBczQ.s 			page 31


 968 0128 2D       		.byte	45
 969 0129 01       		.byte	1
 970 012a 2F       		.byte	47
 971 012b 21       		.byte	33
 972 012c 32       		.byte	50
 973 012d 40       		.byte	64
 974 012e 37       		.byte	55
 975 012f A2       		.byte	-94
 976 0130 3C       		.byte	60
 977 0131 02       		.byte	2
 978 0132 3D       		.byte	61
 979 0133 20       		.byte	32
 980 0134 3F       		.byte	63
 981 0135 80       		.byte	-128
 982 0136 40       		.byte	64
 983 0137 40       		.byte	64
 984 0138 41       		.byte	65
 985 0139 80       		.byte	-128
 986 013a 45       		.byte	69
 987 013b 82       		.byte	-126
 988 013c 4A       		.byte	74
 989 013d 01       		.byte	1
 990 013e 4D       		.byte	77
 991 013f 04       		.byte	4
 992 0140 4E       		.byte	78
 993 0141 02       		.byte	2
 994 0142 4F       		.byte	79
 995 0143 01       		.byte	1
 996 0144 55       		.byte	85
 997 0145 80       		.byte	-128
 998 0146 57       		.byte	87
 999 0147 40       		.byte	64
 1000 0148 5D       		.byte	93
 1001 0149 04       		.byte	4
 1002 014a 5E       		.byte	94
 1003 014b 80       		.byte	-128
 1004 014c 5F       		.byte	95
 1005 014d 01       		.byte	1
 1006 014e 6B       		.byte	107
 1007 014f 01       		.byte	1
 1008 0150 74       		.byte	116
 1009 0151 01       		.byte	1
 1010 0152 76       		.byte	118
 1011 0153 02       		.byte	2
 1012 0154 77       		.byte	119
 1013 0155 42       		.byte	66
 1014 0156 7E       		.byte	126
 1015 0157 02       		.byte	2
 1016 0158 8C       		.byte	-116
 1017 0159 10       		.byte	16
 1018 015a C0       		.byte	-64
 1019 015b B1       		.byte	-79
 1020 015c C2       		.byte	-62
 1021 015d F0       		.byte	-16
 1022 015e C4       		.byte	-60
 1023 015f B1       		.byte	-79
 1024 0160 CA       		.byte	-54
ARM GAS  C:\Users\User\AppData\Local\Temp\ccKFBczQ.s 			page 32


 1025 0161 D0       		.byte	-48
 1026 0162 CC       		.byte	-52
 1027 0163 B8       		.byte	-72
 1028 0164 CE       		.byte	-50
 1029 0165 B0       		.byte	-80
 1030 0166 D0       		.byte	-48
 1031 0167 99       		.byte	-103
 1032 0168 D2       		.byte	-46
 1033 0169 18       		.byte	24
 1034 016a D6       		.byte	-42
 1035 016b D0       		.byte	-48
 1036 016c DE       		.byte	-34
 1037 016d 10       		.byte	16
 1038 016e E6       		.byte	-26
 1039 016f 40       		.byte	64
 1040 0170 00       		.byte	0
 1041 0171 0A       		.byte	10
 1042 0172 02       		.byte	2
 1043 0173 14       		.byte	20
 1044 0174 06       		.byte	6
 1045 0175 1E       		.byte	30
 1046 0176 0A       		.byte	10
 1047 0177 0E       		.byte	14
 1048 0178 0C       		.byte	12
 1049 0179 04       		.byte	4
 1050 017a 0E       		.byte	14
 1051 017b 0A       		.byte	10
 1052 017c 12       		.byte	18
 1053 017d 7E       		.byte	126
 1054 017e 14       		.byte	20
 1055 017f 04       		.byte	4
 1056 0180 16       		.byte	22
 1057 0181 1A       		.byte	26
 1058 0182 1A       		.byte	26
 1059 0183 3E       		.byte	62
 1060 0184 1C       		.byte	28
 1061 0185 03       		.byte	3
 1062 0186 1E       		.byte	30
 1063 0187 04       		.byte	4
 1064 0188 20       		.byte	32
 1065 0189 01       		.byte	1
 1066 018a 22       		.byte	34
 1067 018b 7C       		.byte	124
 1068 018c 26       		.byte	38
 1069 018d 0E       		.byte	14
 1070 018e 28       		.byte	40
 1071 018f 0E       		.byte	14
 1072 0190 2A       		.byte	42
 1073 0191 10       		.byte	16
 1074 0192 2E       		.byte	46
 1075 0193 0E       		.byte	14
 1076 0194 30       		.byte	48
 1077 0195 18       		.byte	24
 1078 0196 32       		.byte	50
 1079 0197 20       		.byte	32
 1080 0198 34       		.byte	52
 1081 0199 40       		.byte	64
ARM GAS  C:\Users\User\AppData\Local\Temp\ccKFBczQ.s 			page 33


 1082 019a 36       		.byte	54
 1083 019b 07       		.byte	7
 1084 019c 3A       		.byte	58
 1085 019d AA       		.byte	-86
 1086 019e 58       		.byte	88
 1087 019f 04       		.byte	4
 1088 01a0 5B       		.byte	91
 1089 01a1 04       		.byte	4
 1090 01a2 5C       		.byte	92
 1091 01a3 01       		.byte	1
 1092 01a4 5F       		.byte	95
 1093 01a5 01       		.byte	1
 1094 01a6 80       		.byte	-128
 1095 01a7 01       		.byte	1
 1096 01a8 81       		.byte	-127
 1097 01a9 80       		.byte	-128
 1098 01aa 82       		.byte	-126
 1099 01ab 08       		.byte	8
 1100 01ac 83       		.byte	-125
 1101 01ad 07       		.byte	7
 1102 01ae 86       		.byte	-122
 1103 01af 05       		.byte	5
 1104 01b0 87       		.byte	-121
 1105 01b1 17       		.byte	23
 1106 01b2 89       		.byte	-119
 1107 01b3 11       		.byte	17
 1108 01b4 8A       		.byte	-118
 1109 01b5 01       		.byte	1
 1110 01b6 8B       		.byte	-117
 1111 01b7 06       		.byte	6
 1112 01b8 8E       		.byte	-114
 1113 01b9 01       		.byte	1
 1114 01ba 8F       		.byte	-113
 1115 01bb 15       		.byte	21
 1116 01bc 92       		.byte	-110
 1117 01bd 1F       		.byte	31
 1118 01be 93       		.byte	-109
 1119 01bf 17       		.byte	23
 1120 01c0 95       		.byte	-107
 1121 01c1 20       		.byte	32
 1122 01c2 96       		.byte	-106
 1123 01c3 06       		.byte	6
 1124 01c4 97       		.byte	-105
 1125 01c5 07       		.byte	7
 1126 01c6 99       		.byte	-103
 1127 01c7 40       		.byte	64
 1128 01c8 9A       		.byte	-102
 1129 01c9 19       		.byte	25
 1130 01ca 9B       		.byte	-101
 1131 01cb 07       		.byte	7
 1132 01cc 9D       		.byte	-99
 1133 01cd 08       		.byte	8
 1134 01ce 9E       		.byte	-98
 1135 01cf 01       		.byte	1
 1136 01d0 9F       		.byte	-97
 1137 01d1 03       		.byte	3
 1138 01d2 A1       		.byte	-95
ARM GAS  C:\Users\User\AppData\Local\Temp\ccKFBczQ.s 			page 34


 1139 01d3 11       		.byte	17
 1140 01d4 A2       		.byte	-94
 1141 01d5 19       		.byte	25
 1142 01d6 A3       		.byte	-93
 1143 01d7 06       		.byte	6
 1144 01d8 A4       		.byte	-92
 1145 01d9 01       		.byte	1
 1146 01da A6       		.byte	-90
 1147 01db 18       		.byte	24
 1148 01dc A7       		.byte	-89
 1149 01dd 11       		.byte	17
 1150 01de AA       		.byte	-86
 1151 01df 19       		.byte	25
 1152 01e0 AE       		.byte	-82
 1153 01e1 01       		.byte	1
 1154 01e2 AF       		.byte	-81
 1155 01e3 11       		.byte	17
 1156 01e4 B0       		.byte	-80
 1157 01e5 10       		.byte	16
 1158 01e6 B1       		.byte	-79
 1159 01e7 03       		.byte	3
 1160 01e8 B2       		.byte	-78
 1161 01e9 03       		.byte	3
 1162 01ea B3       		.byte	-77
 1163 01eb 04       		.byte	4
 1164 01ec B4       		.byte	-76
 1165 01ed 09       		.byte	9
 1166 01ee B5       		.byte	-75
 1167 01ef F8       		.byte	-8
 1168 01f0 B6       		.byte	-74
 1169 01f1 05       		.byte	5
 1170 01f2 B9       		.byte	-71
 1171 01f3 80       		.byte	-128
 1172 01f4 BA       		.byte	-70
 1173 01f5 AA       		.byte	-86
 1174 01f6 BB       		.byte	-69
 1175 01f7 32       		.byte	50
 1176 01f8 BF       		.byte	-65
 1177 01f9 04       		.byte	4
 1178 01fa D8       		.byte	-40
 1179 01fb 04       		.byte	4
 1180 01fc D9       		.byte	-39
 1181 01fd 04       		.byte	4
 1182 01fe DB       		.byte	-37
 1183 01ff 04       		.byte	4
 1184 0200 DC       		.byte	-36
 1185 0201 11       		.byte	17
 1186 0202 DF       		.byte	-33
 1187 0203 01       		.byte	1
 1188 0204 01       		.byte	1
 1189 0205 AA       		.byte	-86
 1190 0206 04       		.byte	4
 1191 0207 28       		.byte	40
 1192 0208 05       		.byte	5
 1193 0209 82       		.byte	-126
 1194 020a 09       		.byte	9
 1195 020b 20       		.byte	32
ARM GAS  C:\Users\User\AppData\Local\Temp\ccKFBczQ.s 			page 35


 1196 020c 0A       		.byte	10
 1197 020d 82       		.byte	-126
 1198 020e 0B       		.byte	11
 1199 020f 10       		.byte	16
 1200 0210 0C       		.byte	12
 1201 0211 04       		.byte	4
 1202 0212 0D       		.byte	13
 1203 0213 21       		.byte	33
 1204 0214 0E       		.byte	14
 1205 0215 02       		.byte	2
 1206 0216 10       		.byte	16
 1207 0217 04       		.byte	4
 1208 0218 11       		.byte	17
 1209 0219 01       		.byte	1
 1210 021a 12       		.byte	18
 1211 021b 20       		.byte	32
 1212 021c 13       		.byte	19
 1213 021d 80       		.byte	-128
 1214 021e 14       		.byte	20
 1215 021f 40       		.byte	64
 1216 0220 15       		.byte	21
 1217 0221 24       		.byte	36
 1218 0222 17       		.byte	23
 1219 0223 80       		.byte	-128
 1220 0224 18       		.byte	24
 1221 0225 28       		.byte	40
 1222 0226 19       		.byte	25
 1223 0227 AA       		.byte	-86
 1224 0228 1D       		.byte	29
 1225 0229 20       		.byte	32
 1226 022a 1E       		.byte	30
 1227 022b 02       		.byte	2
 1228 022c 1F       		.byte	31
 1229 022d 0A       		.byte	10
 1230 022e 20       		.byte	32
 1231 022f 40       		.byte	64
 1232 0230 21       		.byte	33
 1233 0231 10       		.byte	16
 1234 0232 22       		.byte	34
 1235 0233 60       		.byte	96
 1236 0234 23       		.byte	35
 1237 0235 90       		.byte	-112
 1238 0236 29       		.byte	41
 1239 0237 8A       		.byte	-118
 1240 0238 30       		.byte	48
 1241 0239 44       		.byte	68
 1242 023a 31       		.byte	49
 1243 023b 20       		.byte	32
 1244 023c 32       		.byte	50
 1245 023d 41       		.byte	65
 1246 023e 33       		.byte	51
 1247 023f 0A       		.byte	10
 1248 0240 38       		.byte	56
 1249 0241 48       		.byte	72
 1250 0242 39       		.byte	57
 1251 0243 23       		.byte	35
 1252 0244 58       		.byte	88
ARM GAS  C:\Users\User\AppData\Local\Temp\ccKFBczQ.s 			page 36


 1253 0245 80       		.byte	-128
 1254 0246 59       		.byte	89
 1255 0247 05       		.byte	5
 1256 0248 5B       		.byte	91
 1257 0249 10       		.byte	16
 1258 024a 60       		.byte	96
 1259 024b 04       		.byte	4
 1260 024c 61       		.byte	97
 1261 024d 05       		.byte	5
 1262 024e 62       		.byte	98
 1263 024f 08       		.byte	8
 1264 0250 63       		.byte	99
 1265 0251 02       		.byte	2
 1266 0252 69       		.byte	105
 1267 0253 80       		.byte	-128
 1268 0254 6D       		.byte	109
 1269 0255 80       		.byte	-128
 1270 0256 84       		.byte	-124
 1271 0257 80       		.byte	-128
 1272 0258 89       		.byte	-119
 1273 0259 44       		.byte	68
 1274 025a 8A       		.byte	-118
 1275 025b 01       		.byte	1
 1276 025c 8C       		.byte	-116
 1277 025d 04       		.byte	4
 1278 025e 8D       		.byte	-115
 1279 025f 41       		.byte	65
 1280 0260 8E       		.byte	-114
 1281 0261 09       		.byte	9
 1282 0262 8F       		.byte	-113
 1283 0263 10       		.byte	16
 1284 0264 91       		.byte	-111
 1285 0265 02       		.byte	2
 1286 0266 96       		.byte	-106
 1287 0267 80       		.byte	-128
 1288 0268 99       		.byte	-103
 1289 0269 01       		.byte	1
 1290 026a A3       		.byte	-93
 1291 026b 01       		.byte	1
 1292 026c B6       		.byte	-74
 1293 026d 01       		.byte	1
 1294 026e C0       		.byte	-64
 1295 026f FF       		.byte	-1
 1296 0270 C2       		.byte	-62
 1297 0271 FF       		.byte	-1
 1298 0272 C4       		.byte	-60
 1299 0273 FF       		.byte	-1
 1300 0274 CA       		.byte	-54
 1301 0275 0B       		.byte	11
 1302 0276 CC       		.byte	-52
 1303 0277 0F       		.byte	15
 1304 0278 CE       		.byte	-50
 1305 0279 0F       		.byte	15
 1306 027a D6       		.byte	-42
 1307 027b 0F       		.byte	15
 1308 027c D8       		.byte	-40
 1309 027d 0F       		.byte	15
ARM GAS  C:\Users\User\AppData\Local\Temp\ccKFBczQ.s 			page 37


 1310 027e E2       		.byte	-30
 1311 027f 10       		.byte	16
 1312 0280 E6       		.byte	-26
 1313 0281 02       		.byte	2
 1314 0282 EA       		.byte	-22
 1315 0283 10       		.byte	16
 1316 0284 5B       		.byte	91
 1317 0285 10       		.byte	16
 1318 0286 8F       		.byte	-113
 1319 0287 10       		.byte	16
 1320 0288 D4       		.byte	-44
 1321 0289 80       		.byte	-128
 1322 028a 6C       		.byte	108
 1323 028b 04       		.byte	4
 1324 028c 72       		.byte	114
 1325 028d 08       		.byte	8
 1326 028e 8E       		.byte	-114
 1327 028f 08       		.byte	8
 1328 0290 90       		.byte	-112
 1329 0291 08       		.byte	8
 1330 0292 B4       		.byte	-76
 1331 0293 04       		.byte	4
 1332 0294 DA       		.byte	-38
 1333 0295 80       		.byte	-128
 1334 0296 DC       		.byte	-36
 1335 0297 20       		.byte	32
 1336 0298 0B       		.byte	11
 1337 0299 40       		.byte	64
 1338 029a 30       		.byte	48
 1339 029b 08       		.byte	8
 1340 029c 61       		.byte	97
 1341 029d 02       		.byte	2
 1342 029e 87       		.byte	-121
 1343 029f 40       		.byte	64
 1344 02a0 89       		.byte	-119
 1345 02a1 02       		.byte	2
 1346 02a2 8C       		.byte	-116
 1347 02a3 08       		.byte	8
 1348 02a4 C2       		.byte	-62
 1349 02a5 08       		.byte	8
 1350 02a6 CC       		.byte	-52
 1351 02a7 02       		.byte	2
 1352 02a8 D8       		.byte	-40
 1353 02a9 02       		.byte	2
 1354 02aa E4       		.byte	-28
 1355 02ab 0C       		.byte	12
 1356 02ac 10       		.byte	16
 1357 02ad 0A       		.byte	10
 1358 02ae 11       		.byte	17
 1359 02af 01       		.byte	1
 1360              		.text
 1361              	.Letext0:
 1362              		.file 2 "c:\\program files (x86)\\cypress\\psoc creator\\4.2\\psoc creator\\import\\gnu\\arm\\5.4.
 1363              		.file 3 "Generated_Source\\PSoC4\\cytypes.h"