ARM GAS  C:\Users\User\AppData\Local\Temp\ccpB5AqC.s 			page 1


   1              		.syntax unified
   2              		.cpu cortex-m0
   3              		.fpu softvfp
   4              		.eabi_attribute 20, 1
   5              		.eabi_attribute 21, 1
   6              		.eabi_attribute 23, 3
   7              		.eabi_attribute 24, 1
   8              		.eabi_attribute 25, 1
   9              		.eabi_attribute 26, 1
  10              		.eabi_attribute 30, 6
  11              		.eabi_attribute 34, 0
  12              		.eabi_attribute 18, 4
  13              		.thumb
  14              		.syntax unified
  15              		.file	"debug.c"
  16              		.text
  17              	.Ltext0:
  18              		.cfi_sections	.debug_frame
  19              		.comm	OneWire_Sensor,32,4
  20              		.comm	OneWire_DataReady,1,1
  21              		.bss
  22              	flag_Timer:
  23 0000 00       		.space	1
  24              		.comm	current_watchdog_counter,2,2
  25              		.section	.text.SendBLEStatetoUART,"ax",%progbits
  26              		.align	2
  27              		.global	SendBLEStatetoUART
  28              		.code	16
  29              		.thumb_func
  30              		.type	SendBLEStatetoUART, %function
  31              	SendBLEStatetoUART:
  32              	.LFB35:
  33              		.file 1 "..\\..\\..\\PSoC-4-BLE-master\\100_Projects_in_100_Days\\Day049_BLE_Mesh_Flood\\Mesh_Floo
   1:..\..\..\PSoC-4-BLE-master\100_Projects_in_100_Days\Day049_BLE_Mesh_Flood\Mesh_Flood\Mesh_Flood_PSoC4BLE.cydsn/debug.c **** /*******************************************************************************
   2:..\..\..\PSoC-4-BLE-master\100_Projects_in_100_Days\Day049_BLE_Mesh_Flood\Mesh_Flood\Mesh_Flood_PSoC4BLE.cydsn/debug.c **** * File Name: debug.c
   3:..\..\..\PSoC-4-BLE-master\100_Projects_in_100_Days\Day049_BLE_Mesh_Flood\Mesh_Flood\Mesh_Flood_PSoC4BLE.cydsn/debug.c **** *
   4:..\..\..\PSoC-4-BLE-master\100_Projects_in_100_Days\Day049_BLE_Mesh_Flood\Mesh_Flood\Mesh_Flood_PSoC4BLE.cydsn/debug.c **** * Version: 1.0
   5:..\..\..\PSoC-4-BLE-master\100_Projects_in_100_Days\Day049_BLE_Mesh_Flood\Mesh_Flood\Mesh_Flood_PSoC4BLE.cydsn/debug.c **** *
   6:..\..\..\PSoC-4-BLE-master\100_Projects_in_100_Days\Day049_BLE_Mesh_Flood\Mesh_Flood\Mesh_Flood_PSoC4BLE.cydsn/debug.c **** * Description:
   7:..\..\..\PSoC-4-BLE-master\100_Projects_in_100_Days\Day049_BLE_Mesh_Flood\Mesh_Flood\Mesh_Flood_PSoC4BLE.cydsn/debug.c **** * This file contains the definiton for debug functions, using UART as communication
   8:..\..\..\PSoC-4-BLE-master\100_Projects_in_100_Days\Day049_BLE_Mesh_Flood\Mesh_Flood\Mesh_Flood_PSoC4BLE.cydsn/debug.c **** * medium. These function sends UART data to KitProg/PSoC 5LP, which enumerats as
   9:..\..\..\PSoC-4-BLE-master\100_Projects_in_100_Days\Day049_BLE_Mesh_Flood\Mesh_Flood\Mesh_Flood_PSoC4BLE.cydsn/debug.c **** * COM port on connected PC.
  10:..\..\..\PSoC-4-BLE-master\100_Projects_in_100_Days\Day049_BLE_Mesh_Flood\Mesh_Flood\Mesh_Flood_PSoC4BLE.cydsn/debug.c **** *
  11:..\..\..\PSoC-4-BLE-master\100_Projects_in_100_Days\Day049_BLE_Mesh_Flood\Mesh_Flood\Mesh_Flood_PSoC4BLE.cydsn/debug.c **** ********************************************************************************
  12:..\..\..\PSoC-4-BLE-master\100_Projects_in_100_Days\Day049_BLE_Mesh_Flood\Mesh_Flood\Mesh_Flood_PSoC4BLE.cydsn/debug.c **** * Copyright 2015, Cypress Semiconductor Corporation.  All rights reserved.
  13:..\..\..\PSoC-4-BLE-master\100_Projects_in_100_Days\Day049_BLE_Mesh_Flood\Mesh_Flood\Mesh_Flood_PSoC4BLE.cydsn/debug.c **** * You may use this file only in accordance with the license, terms, conditions,
  14:..\..\..\PSoC-4-BLE-master\100_Projects_in_100_Days\Day049_BLE_Mesh_Flood\Mesh_Flood\Mesh_Flood_PSoC4BLE.cydsn/debug.c **** * disclaimers, and limitations in the end user license agreement accompanying
  15:..\..\..\PSoC-4-BLE-master\100_Projects_in_100_Days\Day049_BLE_Mesh_Flood\Mesh_Flood\Mesh_Flood_PSoC4BLE.cydsn/debug.c **** * the software package with which this file was provided.
  16:..\..\..\PSoC-4-BLE-master\100_Projects_in_100_Days\Day049_BLE_Mesh_Flood\Mesh_Flood\Mesh_Flood_PSoC4BLE.cydsn/debug.c **** *******************************************************************************/
  17:..\..\..\PSoC-4-BLE-master\100_Projects_in_100_Days\Day049_BLE_Mesh_Flood\Mesh_Flood\Mesh_Flood_PSoC4BLE.cydsn/debug.c **** #include "debug.h"
  18:..\..\..\PSoC-4-BLE-master\100_Projects_in_100_Days\Day049_BLE_Mesh_Flood\Mesh_Flood\Mesh_Flood_PSoC4BLE.cydsn/debug.c **** 
  19:..\..\..\PSoC-4-BLE-master\100_Projects_in_100_Days\Day049_BLE_Mesh_Flood\Mesh_Flood\Mesh_Flood_PSoC4BLE.cydsn/debug.c **** /*******************************************************************************
  20:..\..\..\PSoC-4-BLE-master\100_Projects_in_100_Days\Day049_BLE_Mesh_Flood\Mesh_Flood\Mesh_Flood_PSoC4BLE.cydsn/debug.c **** * Function Name: SendBLEStatetoUART
  21:..\..\..\PSoC-4-BLE-master\100_Projects_in_100_Days\Day049_BLE_Mesh_Flood\Mesh_Flood\Mesh_Flood_PSoC4BLE.cydsn/debug.c **** ********************************************************************************
  22:..\..\..\PSoC-4-BLE-master\100_Projects_in_100_Days\Day049_BLE_Mesh_Flood\Mesh_Flood\Mesh_Flood_PSoC4BLE.cydsn/debug.c **** * Summary:
  23:..\..\..\PSoC-4-BLE-master\100_Projects_in_100_Days\Day049_BLE_Mesh_Flood\Mesh_Flood\Mesh_Flood_PSoC4BLE.cydsn/debug.c **** *        Sends the string to UART corresponding to the present BLE state
  24:..\..\..\PSoC-4-BLE-master\100_Projects_in_100_Days\Day049_BLE_Mesh_Flood\Mesh_Flood\Mesh_Flood_PSoC4BLE.cydsn/debug.c **** *
ARM GAS  C:\Users\User\AppData\Local\Temp\ccpB5AqC.s 			page 2


  25:..\..\..\PSoC-4-BLE-master\100_Projects_in_100_Days\Day049_BLE_Mesh_Flood\Mesh_Flood\Mesh_Flood_PSoC4BLE.cydsn/debug.c **** * Parameters:
  26:..\..\..\PSoC-4-BLE-master\100_Projects_in_100_Days\Day049_BLE_Mesh_Flood\Mesh_Flood\Mesh_Flood_PSoC4BLE.cydsn/debug.c **** *  ble_state: current state of the BLE.
  27:..\..\..\PSoC-4-BLE-master\100_Projects_in_100_Days\Day049_BLE_Mesh_Flood\Mesh_Flood\Mesh_Flood_PSoC4BLE.cydsn/debug.c **** *
  28:..\..\..\PSoC-4-BLE-master\100_Projects_in_100_Days\Day049_BLE_Mesh_Flood\Mesh_Flood\Mesh_Flood_PSoC4BLE.cydsn/debug.c **** * Return:
  29:..\..\..\PSoC-4-BLE-master\100_Projects_in_100_Days\Day049_BLE_Mesh_Flood\Mesh_Flood\Mesh_Flood_PSoC4BLE.cydsn/debug.c **** *  void
  30:..\..\..\PSoC-4-BLE-master\100_Projects_in_100_Days\Day049_BLE_Mesh_Flood\Mesh_Flood\Mesh_Flood_PSoC4BLE.cydsn/debug.c **** *
  31:..\..\..\PSoC-4-BLE-master\100_Projects_in_100_Days\Day049_BLE_Mesh_Flood\Mesh_Flood\Mesh_Flood_PSoC4BLE.cydsn/debug.c **** *******************************************************************************/
  32:..\..\..\PSoC-4-BLE-master\100_Projects_in_100_Days\Day049_BLE_Mesh_Flood\Mesh_Flood\Mesh_Flood_PSoC4BLE.cydsn/debug.c **** void SendBLEStatetoUART(CYBLE_STATE_T ble_state)
  33:..\..\..\PSoC-4-BLE-master\100_Projects_in_100_Days\Day049_BLE_Mesh_Flood\Mesh_Flood\Mesh_Flood_PSoC4BLE.cydsn/debug.c **** {
  34              		.loc 1 33 0
  35              		.cfi_startproc
  36              		@ args = 0, pretend = 0, frame = 8
  37              		@ frame_needed = 1, uses_anonymous_args = 0
  38 0000 80B5     		push	{r7, lr}
  39              		.cfi_def_cfa_offset 8
  40              		.cfi_offset 7, -8
  41              		.cfi_offset 14, -4
  42 0002 82B0     		sub	sp, sp, #8
  43              		.cfi_def_cfa_offset 16
  44 0004 00AF     		add	r7, sp, #0
  45              		.cfi_def_cfa_register 7
  46 0006 0200     		movs	r2, r0
  47 0008 FB1D     		adds	r3, r7, #7
  48 000a 1A70     		strb	r2, [r3]
  34:..\..\..\PSoC-4-BLE-master\100_Projects_in_100_Days\Day049_BLE_Mesh_Flood\Mesh_Flood\Mesh_Flood_PSoC4BLE.cydsn/debug.c **** 	switch(ble_state)
  49              		.loc 1 34 0
  50 000c FB1D     		adds	r3, r7, #7
  51 000e 1B78     		ldrb	r3, [r3]
  52 0010 062B     		cmp	r3, #6
  53 0012 04D8     		bhi	.L12
  54 0014 9A00     		lsls	r2, r3, #2
  55 0016 054B     		ldr	r3, .L14
  56 0018 D318     		adds	r3, r2, r3
  57 001a 1B68     		ldr	r3, [r3]
  58 001c 9F46     		mov	pc, r3
  59              		.section	.rodata
  60              		.align	2
  61              	.L4:
  62 0000 22000000 		.word	.L13
  63 0004 22000000 		.word	.L13
  64 0008 22000000 		.word	.L13
  65 000c 22000000 		.word	.L13
  66 0010 22000000 		.word	.L13
  67 0014 22000000 		.word	.L13
  68 0018 22000000 		.word	.L13
  69              		.section	.text.SendBLEStatetoUART
  70              	.L12:
  35:..\..\..\PSoC-4-BLE-master\100_Projects_in_100_Days\Day049_BLE_Mesh_Flood\Mesh_Flood\Mesh_Flood_PSoC4BLE.cydsn/debug.c **** 	{
  36:..\..\..\PSoC-4-BLE-master\100_Projects_in_100_Days\Day049_BLE_Mesh_Flood\Mesh_Flood\Mesh_Flood_PSoC4BLE.cydsn/debug.c **** 		case CYBLE_STATE_STOPPED:
  37:..\..\..\PSoC-4-BLE-master\100_Projects_in_100_Days\Day049_BLE_Mesh_Flood\Mesh_Flood\Mesh_Flood_PSoC4BLE.cydsn/debug.c **** 		#ifdef DEBUG_ENABLED
  38:..\..\..\PSoC-4-BLE-master\100_Projects_in_100_Days\Day049_BLE_Mesh_Flood\Mesh_Flood\Mesh_Flood_PSoC4BLE.cydsn/debug.c **** 			UART_UartPutString(" |BLE State: CYBLE_STATE_STOPPED ");
  39:..\..\..\PSoC-4-BLE-master\100_Projects_in_100_Days\Day049_BLE_Mesh_Flood\Mesh_Flood\Mesh_Flood_PSoC4BLE.cydsn/debug.c **** 		#endif
  40:..\..\..\PSoC-4-BLE-master\100_Projects_in_100_Days\Day049_BLE_Mesh_Flood\Mesh_Flood\Mesh_Flood_PSoC4BLE.cydsn/debug.c **** 		break;
  41:..\..\..\PSoC-4-BLE-master\100_Projects_in_100_Days\Day049_BLE_Mesh_Flood\Mesh_Flood\Mesh_Flood_PSoC4BLE.cydsn/debug.c **** 		
  42:..\..\..\PSoC-4-BLE-master\100_Projects_in_100_Days\Day049_BLE_Mesh_Flood\Mesh_Flood\Mesh_Flood_PSoC4BLE.cydsn/debug.c **** 		case CYBLE_STATE_INITIALIZING:
  43:..\..\..\PSoC-4-BLE-master\100_Projects_in_100_Days\Day049_BLE_Mesh_Flood\Mesh_Flood\Mesh_Flood_PSoC4BLE.cydsn/debug.c **** 		#ifdef DEBUG_ENABLED
  44:..\..\..\PSoC-4-BLE-master\100_Projects_in_100_Days\Day049_BLE_Mesh_Flood\Mesh_Flood\Mesh_Flood_PSoC4BLE.cydsn/debug.c **** 			UART_UartPutString(" |BLE State: CYBLE_STATE_INITIALIZING ");
ARM GAS  C:\Users\User\AppData\Local\Temp\ccpB5AqC.s 			page 3


  45:..\..\..\PSoC-4-BLE-master\100_Projects_in_100_Days\Day049_BLE_Mesh_Flood\Mesh_Flood\Mesh_Flood_PSoC4BLE.cydsn/debug.c **** 		#endif
  46:..\..\..\PSoC-4-BLE-master\100_Projects_in_100_Days\Day049_BLE_Mesh_Flood\Mesh_Flood\Mesh_Flood_PSoC4BLE.cydsn/debug.c **** 		break;
  47:..\..\..\PSoC-4-BLE-master\100_Projects_in_100_Days\Day049_BLE_Mesh_Flood\Mesh_Flood\Mesh_Flood_PSoC4BLE.cydsn/debug.c **** 		
  48:..\..\..\PSoC-4-BLE-master\100_Projects_in_100_Days\Day049_BLE_Mesh_Flood\Mesh_Flood\Mesh_Flood_PSoC4BLE.cydsn/debug.c **** 		case CYBLE_STATE_CONNECTED:
  49:..\..\..\PSoC-4-BLE-master\100_Projects_in_100_Days\Day049_BLE_Mesh_Flood\Mesh_Flood\Mesh_Flood_PSoC4BLE.cydsn/debug.c **** 		#ifdef DEBUG_ENABLED
  50:..\..\..\PSoC-4-BLE-master\100_Projects_in_100_Days\Day049_BLE_Mesh_Flood\Mesh_Flood\Mesh_Flood_PSoC4BLE.cydsn/debug.c **** 			UART_UartPutString(" |BLE State: CYBLE_STATE_CONNECTED ");
  51:..\..\..\PSoC-4-BLE-master\100_Projects_in_100_Days\Day049_BLE_Mesh_Flood\Mesh_Flood\Mesh_Flood_PSoC4BLE.cydsn/debug.c **** 		#endif
  52:..\..\..\PSoC-4-BLE-master\100_Projects_in_100_Days\Day049_BLE_Mesh_Flood\Mesh_Flood\Mesh_Flood_PSoC4BLE.cydsn/debug.c **** 		break;
  53:..\..\..\PSoC-4-BLE-master\100_Projects_in_100_Days\Day049_BLE_Mesh_Flood\Mesh_Flood\Mesh_Flood_PSoC4BLE.cydsn/debug.c **** 		
  54:..\..\..\PSoC-4-BLE-master\100_Projects_in_100_Days\Day049_BLE_Mesh_Flood\Mesh_Flood\Mesh_Flood_PSoC4BLE.cydsn/debug.c **** 		case CYBLE_STATE_ADVERTISING:
  55:..\..\..\PSoC-4-BLE-master\100_Projects_in_100_Days\Day049_BLE_Mesh_Flood\Mesh_Flood\Mesh_Flood_PSoC4BLE.cydsn/debug.c **** 		#ifdef DEBUG_ENABLED
  56:..\..\..\PSoC-4-BLE-master\100_Projects_in_100_Days\Day049_BLE_Mesh_Flood\Mesh_Flood\Mesh_Flood_PSoC4BLE.cydsn/debug.c **** 			UART_UartPutString(" |BLE State: CYBLE_STATE_ADVERTISING ");
  57:..\..\..\PSoC-4-BLE-master\100_Projects_in_100_Days\Day049_BLE_Mesh_Flood\Mesh_Flood\Mesh_Flood_PSoC4BLE.cydsn/debug.c **** 		#endif
  58:..\..\..\PSoC-4-BLE-master\100_Projects_in_100_Days\Day049_BLE_Mesh_Flood\Mesh_Flood\Mesh_Flood_PSoC4BLE.cydsn/debug.c **** 		break;
  59:..\..\..\PSoC-4-BLE-master\100_Projects_in_100_Days\Day049_BLE_Mesh_Flood\Mesh_Flood\Mesh_Flood_PSoC4BLE.cydsn/debug.c **** 		
  60:..\..\..\PSoC-4-BLE-master\100_Projects_in_100_Days\Day049_BLE_Mesh_Flood\Mesh_Flood\Mesh_Flood_PSoC4BLE.cydsn/debug.c **** 		case CYBLE_STATE_SCANNING:
  61:..\..\..\PSoC-4-BLE-master\100_Projects_in_100_Days\Day049_BLE_Mesh_Flood\Mesh_Flood\Mesh_Flood_PSoC4BLE.cydsn/debug.c **** 		#ifdef DEBUG_ENABLED
  62:..\..\..\PSoC-4-BLE-master\100_Projects_in_100_Days\Day049_BLE_Mesh_Flood\Mesh_Flood\Mesh_Flood_PSoC4BLE.cydsn/debug.c **** 			UART_UartPutString(" |BLE State: CYBLE_STATE_SCANNING ");
  63:..\..\..\PSoC-4-BLE-master\100_Projects_in_100_Days\Day049_BLE_Mesh_Flood\Mesh_Flood\Mesh_Flood_PSoC4BLE.cydsn/debug.c **** 		#endif
  64:..\..\..\PSoC-4-BLE-master\100_Projects_in_100_Days\Day049_BLE_Mesh_Flood\Mesh_Flood\Mesh_Flood_PSoC4BLE.cydsn/debug.c **** 		break;
  65:..\..\..\PSoC-4-BLE-master\100_Projects_in_100_Days\Day049_BLE_Mesh_Flood\Mesh_Flood\Mesh_Flood_PSoC4BLE.cydsn/debug.c **** 		
  66:..\..\..\PSoC-4-BLE-master\100_Projects_in_100_Days\Day049_BLE_Mesh_Flood\Mesh_Flood\Mesh_Flood_PSoC4BLE.cydsn/debug.c **** 		case CYBLE_STATE_CONNECTING:
  67:..\..\..\PSoC-4-BLE-master\100_Projects_in_100_Days\Day049_BLE_Mesh_Flood\Mesh_Flood\Mesh_Flood_PSoC4BLE.cydsn/debug.c **** 		#ifdef DEBUG_ENABLED
  68:..\..\..\PSoC-4-BLE-master\100_Projects_in_100_Days\Day049_BLE_Mesh_Flood\Mesh_Flood\Mesh_Flood_PSoC4BLE.cydsn/debug.c **** 			UART_UartPutString(" |BLE State: CYBLE_STATE_CONNECTING ");
  69:..\..\..\PSoC-4-BLE-master\100_Projects_in_100_Days\Day049_BLE_Mesh_Flood\Mesh_Flood\Mesh_Flood_PSoC4BLE.cydsn/debug.c **** 		#endif
  70:..\..\..\PSoC-4-BLE-master\100_Projects_in_100_Days\Day049_BLE_Mesh_Flood\Mesh_Flood\Mesh_Flood_PSoC4BLE.cydsn/debug.c **** 		break;
  71:..\..\..\PSoC-4-BLE-master\100_Projects_in_100_Days\Day049_BLE_Mesh_Flood\Mesh_Flood\Mesh_Flood_PSoC4BLE.cydsn/debug.c **** 		
  72:..\..\..\PSoC-4-BLE-master\100_Projects_in_100_Days\Day049_BLE_Mesh_Flood\Mesh_Flood\Mesh_Flood_PSoC4BLE.cydsn/debug.c **** 		case CYBLE_STATE_DISCONNECTED:
  73:..\..\..\PSoC-4-BLE-master\100_Projects_in_100_Days\Day049_BLE_Mesh_Flood\Mesh_Flood\Mesh_Flood_PSoC4BLE.cydsn/debug.c **** 		#ifdef DEBUG_ENABLED
  74:..\..\..\PSoC-4-BLE-master\100_Projects_in_100_Days\Day049_BLE_Mesh_Flood\Mesh_Flood\Mesh_Flood_PSoC4BLE.cydsn/debug.c **** 			UART_UartPutString(" |BLE State: CYBLE_STATE_DISCONNECTED ");
  75:..\..\..\PSoC-4-BLE-master\100_Projects_in_100_Days\Day049_BLE_Mesh_Flood\Mesh_Flood\Mesh_Flood_PSoC4BLE.cydsn/debug.c **** 		#endif
  76:..\..\..\PSoC-4-BLE-master\100_Projects_in_100_Days\Day049_BLE_Mesh_Flood\Mesh_Flood\Mesh_Flood_PSoC4BLE.cydsn/debug.c **** 		break;
  77:..\..\..\PSoC-4-BLE-master\100_Projects_in_100_Days\Day049_BLE_Mesh_Flood\Mesh_Flood\Mesh_Flood_PSoC4BLE.cydsn/debug.c **** 		
  78:..\..\..\PSoC-4-BLE-master\100_Projects_in_100_Days\Day049_BLE_Mesh_Flood\Mesh_Flood\Mesh_Flood_PSoC4BLE.cydsn/debug.c **** 		default:
  79:..\..\..\PSoC-4-BLE-master\100_Projects_in_100_Days\Day049_BLE_Mesh_Flood\Mesh_Flood\Mesh_Flood_PSoC4BLE.cydsn/debug.c **** 		#ifdef DEBUG_ENABLED
  80:..\..\..\PSoC-4-BLE-master\100_Projects_in_100_Days\Day049_BLE_Mesh_Flood\Mesh_Flood\Mesh_Flood_PSoC4BLE.cydsn/debug.c **** 			UART_UartPutString(" |BLE State: UNKNOWN STATE ");
  81:..\..\..\PSoC-4-BLE-master\100_Projects_in_100_Days\Day049_BLE_Mesh_Flood\Mesh_Flood\Mesh_Flood_PSoC4BLE.cydsn/debug.c **** 		#endif
  82:..\..\..\PSoC-4-BLE-master\100_Projects_in_100_Days\Day049_BLE_Mesh_Flood\Mesh_Flood\Mesh_Flood_PSoC4BLE.cydsn/debug.c **** 		break;
  71              		.loc 1 82 0
  72 001e C046     		nop
  73 0020 00E0     		b	.L11
  74              	.L13:
  76:..\..\..\PSoC-4-BLE-master\100_Projects_in_100_Days\Day049_BLE_Mesh_Flood\Mesh_Flood\Mesh_Flood_PSoC4BLE.cydsn/debug.c **** 		
  75              		.loc 1 76 0
  76 0022 C046     		nop
  77              	.L11:
  83:..\..\..\PSoC-4-BLE-master\100_Projects_in_100_Days\Day049_BLE_Mesh_Flood\Mesh_Flood\Mesh_Flood_PSoC4BLE.cydsn/debug.c **** 	}
  84:..\..\..\PSoC-4-BLE-master\100_Projects_in_100_Days\Day049_BLE_Mesh_Flood\Mesh_Flood\Mesh_Flood_PSoC4BLE.cydsn/debug.c **** }
  78              		.loc 1 84 0
  79 0024 C046     		nop
  80 0026 BD46     		mov	sp, r7
  81 0028 02B0     		add	sp, sp, #8
  82              		@ sp needed
  83 002a 80BD     		pop	{r7, pc}
  84              	.L15:
  85              		.align	2
  86              	.L14:
ARM GAS  C:\Users\User\AppData\Local\Temp\ccpB5AqC.s 			page 4


  87 002c 00000000 		.word	.L4
  88              		.cfi_endproc
  89              	.LFE35:
  90              		.size	SendBLEStatetoUART, .-SendBLEStatetoUART
  91              		.section	.text.PrintNum,"ax",%progbits
  92              		.align	2
  93              		.global	PrintNum
  94              		.code	16
  95              		.thumb_func
  96              		.type	PrintNum, %function
  97              	PrintNum:
  98              	.LFB36:
  85:..\..\..\PSoC-4-BLE-master\100_Projects_in_100_Days\Day049_BLE_Mesh_Flood\Mesh_Flood\Mesh_Flood_PSoC4BLE.cydsn/debug.c **** 
  86:..\..\..\PSoC-4-BLE-master\100_Projects_in_100_Days\Day049_BLE_Mesh_Flood\Mesh_Flood\Mesh_Flood_PSoC4BLE.cydsn/debug.c **** /*******************************************************************************
  87:..\..\..\PSoC-4-BLE-master\100_Projects_in_100_Days\Day049_BLE_Mesh_Flood\Mesh_Flood\Mesh_Flood_PSoC4BLE.cydsn/debug.c **** * Function Name: PrintNum
  88:..\..\..\PSoC-4-BLE-master\100_Projects_in_100_Days\Day049_BLE_Mesh_Flood\Mesh_Flood\Mesh_Flood_PSoC4BLE.cydsn/debug.c **** ********************************************************************************
  89:..\..\..\PSoC-4-BLE-master\100_Projects_in_100_Days\Day049_BLE_Mesh_Flood\Mesh_Flood\Mesh_Flood_PSoC4BLE.cydsn/debug.c **** * Summary:
  90:..\..\..\PSoC-4-BLE-master\100_Projects_in_100_Days\Day049_BLE_Mesh_Flood\Mesh_Flood\Mesh_Flood_PSoC4BLE.cydsn/debug.c **** *        Converts decimal number to characters in ASCII that can be printed on 
  91:..\..\..\PSoC-4-BLE-master\100_Projects_in_100_Days\Day049_BLE_Mesh_Flood\Mesh_Flood\Mesh_Flood_PSoC4BLE.cydsn/debug.c **** * terminal.
  92:..\..\..\PSoC-4-BLE-master\100_Projects_in_100_Days\Day049_BLE_Mesh_Flood\Mesh_Flood\Mesh_Flood_PSoC4BLE.cydsn/debug.c **** *
  93:..\..\..\PSoC-4-BLE-master\100_Projects_in_100_Days\Day049_BLE_Mesh_Flood\Mesh_Flood\Mesh_Flood_PSoC4BLE.cydsn/debug.c **** * Parameters:
  94:..\..\..\PSoC-4-BLE-master\100_Projects_in_100_Days\Day049_BLE_Mesh_Flood\Mesh_Flood\Mesh_Flood_PSoC4BLE.cydsn/debug.c **** *  num: number to be converted to string.
  95:..\..\..\PSoC-4-BLE-master\100_Projects_in_100_Days\Day049_BLE_Mesh_Flood\Mesh_Flood\Mesh_Flood_PSoC4BLE.cydsn/debug.c **** *
  96:..\..\..\PSoC-4-BLE-master\100_Projects_in_100_Days\Day049_BLE_Mesh_Flood\Mesh_Flood\Mesh_Flood_PSoC4BLE.cydsn/debug.c **** * Return:
  97:..\..\..\PSoC-4-BLE-master\100_Projects_in_100_Days\Day049_BLE_Mesh_Flood\Mesh_Flood\Mesh_Flood_PSoC4BLE.cydsn/debug.c **** *  void
  98:..\..\..\PSoC-4-BLE-master\100_Projects_in_100_Days\Day049_BLE_Mesh_Flood\Mesh_Flood\Mesh_Flood_PSoC4BLE.cydsn/debug.c **** *
  99:..\..\..\PSoC-4-BLE-master\100_Projects_in_100_Days\Day049_BLE_Mesh_Flood\Mesh_Flood\Mesh_Flood_PSoC4BLE.cydsn/debug.c **** *******************************************************************************/
 100:..\..\..\PSoC-4-BLE-master\100_Projects_in_100_Days\Day049_BLE_Mesh_Flood\Mesh_Flood\Mesh_Flood_PSoC4BLE.cydsn/debug.c **** void PrintNum(uint8 num)
 101:..\..\..\PSoC-4-BLE-master\100_Projects_in_100_Days\Day049_BLE_Mesh_Flood\Mesh_Flood\Mesh_Flood_PSoC4BLE.cydsn/debug.c **** {
  99              		.loc 1 101 0
 100              		.cfi_startproc
 101              		@ args = 0, pretend = 0, frame = 8
 102              		@ frame_needed = 1, uses_anonymous_args = 0
 103 0000 80B5     		push	{r7, lr}
 104              		.cfi_def_cfa_offset 8
 105              		.cfi_offset 7, -8
 106              		.cfi_offset 14, -4
 107 0002 82B0     		sub	sp, sp, #8
 108              		.cfi_def_cfa_offset 16
 109 0004 00AF     		add	r7, sp, #0
 110              		.cfi_def_cfa_register 7
 111 0006 0200     		movs	r2, r0
 112 0008 FB1D     		adds	r3, r7, #7
 113 000a 1A70     		strb	r2, [r3]
 102:..\..\..\PSoC-4-BLE-master\100_Projects_in_100_Days\Day049_BLE_Mesh_Flood\Mesh_Flood\Mesh_Flood_PSoC4BLE.cydsn/debug.c **** 	#ifdef DEBUG_ENABLED
 103:..\..\..\PSoC-4-BLE-master\100_Projects_in_100_Days\Day049_BLE_Mesh_Flood\Mesh_Flood\Mesh_Flood_PSoC4BLE.cydsn/debug.c **** 	uint8 temp[3];
 104:..\..\..\PSoC-4-BLE-master\100_Projects_in_100_Days\Day049_BLE_Mesh_Flood\Mesh_Flood\Mesh_Flood_PSoC4BLE.cydsn/debug.c **** 	
 105:..\..\..\PSoC-4-BLE-master\100_Projects_in_100_Days\Day049_BLE_Mesh_Flood\Mesh_Flood\Mesh_Flood_PSoC4BLE.cydsn/debug.c **** 	temp[0] = num%10;
 106:..\..\..\PSoC-4-BLE-master\100_Projects_in_100_Days\Day049_BLE_Mesh_Flood\Mesh_Flood\Mesh_Flood_PSoC4BLE.cydsn/debug.c **** 	num = num/10;
 107:..\..\..\PSoC-4-BLE-master\100_Projects_in_100_Days\Day049_BLE_Mesh_Flood\Mesh_Flood\Mesh_Flood_PSoC4BLE.cydsn/debug.c **** 	temp[1] = num%10;
 108:..\..\..\PSoC-4-BLE-master\100_Projects_in_100_Days\Day049_BLE_Mesh_Flood\Mesh_Flood\Mesh_Flood_PSoC4BLE.cydsn/debug.c **** 	num = num/10;
 109:..\..\..\PSoC-4-BLE-master\100_Projects_in_100_Days\Day049_BLE_Mesh_Flood\Mesh_Flood\Mesh_Flood_PSoC4BLE.cydsn/debug.c **** 	temp[2] = num%10;
 110:..\..\..\PSoC-4-BLE-master\100_Projects_in_100_Days\Day049_BLE_Mesh_Flood\Mesh_Flood\Mesh_Flood_PSoC4BLE.cydsn/debug.c **** 	
 111:..\..\..\PSoC-4-BLE-master\100_Projects_in_100_Days\Day049_BLE_Mesh_Flood\Mesh_Flood\Mesh_Flood_PSoC4BLE.cydsn/debug.c **** 	if(temp[2] == 0)
 112:..\..\..\PSoC-4-BLE-master\100_Projects_in_100_Days\Day049_BLE_Mesh_Flood\Mesh_Flood\Mesh_Flood_PSoC4BLE.cydsn/debug.c **** 	{
 113:..\..\..\PSoC-4-BLE-master\100_Projects_in_100_Days\Day049_BLE_Mesh_Flood\Mesh_Flood\Mesh_Flood_PSoC4BLE.cydsn/debug.c **** 		if(temp[1] == 0)
 114:..\..\..\PSoC-4-BLE-master\100_Projects_in_100_Days\Day049_BLE_Mesh_Flood\Mesh_Flood\Mesh_Flood_PSoC4BLE.cydsn/debug.c **** 		{
ARM GAS  C:\Users\User\AppData\Local\Temp\ccpB5AqC.s 			page 5


 115:..\..\..\PSoC-4-BLE-master\100_Projects_in_100_Days\Day049_BLE_Mesh_Flood\Mesh_Flood\Mesh_Flood_PSoC4BLE.cydsn/debug.c **** 			UART_UartPutChar('0' + temp[0]);
 116:..\..\..\PSoC-4-BLE-master\100_Projects_in_100_Days\Day049_BLE_Mesh_Flood\Mesh_Flood\Mesh_Flood_PSoC4BLE.cydsn/debug.c **** 		}
 117:..\..\..\PSoC-4-BLE-master\100_Projects_in_100_Days\Day049_BLE_Mesh_Flood\Mesh_Flood\Mesh_Flood_PSoC4BLE.cydsn/debug.c **** 		else
 118:..\..\..\PSoC-4-BLE-master\100_Projects_in_100_Days\Day049_BLE_Mesh_Flood\Mesh_Flood\Mesh_Flood_PSoC4BLE.cydsn/debug.c **** 		{
 119:..\..\..\PSoC-4-BLE-master\100_Projects_in_100_Days\Day049_BLE_Mesh_Flood\Mesh_Flood\Mesh_Flood_PSoC4BLE.cydsn/debug.c **** 			UART_UartPutChar('0' + temp[1]);
 120:..\..\..\PSoC-4-BLE-master\100_Projects_in_100_Days\Day049_BLE_Mesh_Flood\Mesh_Flood\Mesh_Flood_PSoC4BLE.cydsn/debug.c **** 			UART_UartPutChar('0' + temp[0]);	
 121:..\..\..\PSoC-4-BLE-master\100_Projects_in_100_Days\Day049_BLE_Mesh_Flood\Mesh_Flood\Mesh_Flood_PSoC4BLE.cydsn/debug.c **** 		}
 122:..\..\..\PSoC-4-BLE-master\100_Projects_in_100_Days\Day049_BLE_Mesh_Flood\Mesh_Flood\Mesh_Flood_PSoC4BLE.cydsn/debug.c **** 	}
 123:..\..\..\PSoC-4-BLE-master\100_Projects_in_100_Days\Day049_BLE_Mesh_Flood\Mesh_Flood\Mesh_Flood_PSoC4BLE.cydsn/debug.c **** 	else
 124:..\..\..\PSoC-4-BLE-master\100_Projects_in_100_Days\Day049_BLE_Mesh_Flood\Mesh_Flood\Mesh_Flood_PSoC4BLE.cydsn/debug.c **** 	{
 125:..\..\..\PSoC-4-BLE-master\100_Projects_in_100_Days\Day049_BLE_Mesh_Flood\Mesh_Flood\Mesh_Flood_PSoC4BLE.cydsn/debug.c **** 		UART_UartPutChar('0' + temp[2]);
 126:..\..\..\PSoC-4-BLE-master\100_Projects_in_100_Days\Day049_BLE_Mesh_Flood\Mesh_Flood\Mesh_Flood_PSoC4BLE.cydsn/debug.c **** 		UART_UartPutChar('0' + temp[1]);
 127:..\..\..\PSoC-4-BLE-master\100_Projects_in_100_Days\Day049_BLE_Mesh_Flood\Mesh_Flood\Mesh_Flood_PSoC4BLE.cydsn/debug.c **** 		UART_UartPutChar('0' + temp[0]);
 128:..\..\..\PSoC-4-BLE-master\100_Projects_in_100_Days\Day049_BLE_Mesh_Flood\Mesh_Flood\Mesh_Flood_PSoC4BLE.cydsn/debug.c **** 	}
 129:..\..\..\PSoC-4-BLE-master\100_Projects_in_100_Days\Day049_BLE_Mesh_Flood\Mesh_Flood\Mesh_Flood_PSoC4BLE.cydsn/debug.c **** 	#else
 130:..\..\..\PSoC-4-BLE-master\100_Projects_in_100_Days\Day049_BLE_Mesh_Flood\Mesh_Flood\Mesh_Flood_PSoC4BLE.cydsn/debug.c **** 		num = num;
 114              		.loc 1 130 0
 115 000c FB1D     		adds	r3, r7, #7
 116 000e FA1D     		adds	r2, r7, #7
 117 0010 1278     		ldrb	r2, [r2]
 118 0012 1A70     		strb	r2, [r3]
 131:..\..\..\PSoC-4-BLE-master\100_Projects_in_100_Days\Day049_BLE_Mesh_Flood\Mesh_Flood\Mesh_Flood_PSoC4BLE.cydsn/debug.c **** 	#endif
 132:..\..\..\PSoC-4-BLE-master\100_Projects_in_100_Days\Day049_BLE_Mesh_Flood\Mesh_Flood\Mesh_Flood_PSoC4BLE.cydsn/debug.c **** }
 119              		.loc 1 132 0
 120 0014 C046     		nop
 121 0016 BD46     		mov	sp, r7
 122 0018 02B0     		add	sp, sp, #8
 123              		@ sp needed
 124 001a 80BD     		pop	{r7, pc}
 125              		.cfi_endproc
 126              	.LFE36:
 127              		.size	PrintNum, .-PrintNum
 128              		.section	.text.PrintHex,"ax",%progbits
 129              		.align	2
 130              		.global	PrintHex
 131              		.code	16
 132              		.thumb_func
 133              		.type	PrintHex, %function
 134              	PrintHex:
 135              	.LFB37:
 133:..\..\..\PSoC-4-BLE-master\100_Projects_in_100_Days\Day049_BLE_Mesh_Flood\Mesh_Flood\Mesh_Flood_PSoC4BLE.cydsn/debug.c **** 
 134:..\..\..\PSoC-4-BLE-master\100_Projects_in_100_Days\Day049_BLE_Mesh_Flood\Mesh_Flood\Mesh_Flood_PSoC4BLE.cydsn/debug.c **** /*******************************************************************************
 135:..\..\..\PSoC-4-BLE-master\100_Projects_in_100_Days\Day049_BLE_Mesh_Flood\Mesh_Flood\Mesh_Flood_PSoC4BLE.cydsn/debug.c **** * Function Name: PrintHex
 136:..\..\..\PSoC-4-BLE-master\100_Projects_in_100_Days\Day049_BLE_Mesh_Flood\Mesh_Flood\Mesh_Flood_PSoC4BLE.cydsn/debug.c **** ********************************************************************************
 137:..\..\..\PSoC-4-BLE-master\100_Projects_in_100_Days\Day049_BLE_Mesh_Flood\Mesh_Flood\Mesh_Flood_PSoC4BLE.cydsn/debug.c **** * Summary:
 138:..\..\..\PSoC-4-BLE-master\100_Projects_in_100_Days\Day049_BLE_Mesh_Flood\Mesh_Flood\Mesh_Flood_PSoC4BLE.cydsn/debug.c **** *        Converts HEX number to characters in ASCII that can be printed on 
 139:..\..\..\PSoC-4-BLE-master\100_Projects_in_100_Days\Day049_BLE_Mesh_Flood\Mesh_Flood\Mesh_Flood_PSoC4BLE.cydsn/debug.c **** * terminal.
 140:..\..\..\PSoC-4-BLE-master\100_Projects_in_100_Days\Day049_BLE_Mesh_Flood\Mesh_Flood\Mesh_Flood_PSoC4BLE.cydsn/debug.c **** *
 141:..\..\..\PSoC-4-BLE-master\100_Projects_in_100_Days\Day049_BLE_Mesh_Flood\Mesh_Flood\Mesh_Flood_PSoC4BLE.cydsn/debug.c **** * Parameters:
 142:..\..\..\PSoC-4-BLE-master\100_Projects_in_100_Days\Day049_BLE_Mesh_Flood\Mesh_Flood\Mesh_Flood_PSoC4BLE.cydsn/debug.c **** *  num: HEX to be converted to string.
 143:..\..\..\PSoC-4-BLE-master\100_Projects_in_100_Days\Day049_BLE_Mesh_Flood\Mesh_Flood\Mesh_Flood_PSoC4BLE.cydsn/debug.c **** *
 144:..\..\..\PSoC-4-BLE-master\100_Projects_in_100_Days\Day049_BLE_Mesh_Flood\Mesh_Flood\Mesh_Flood_PSoC4BLE.cydsn/debug.c **** * Return:
 145:..\..\..\PSoC-4-BLE-master\100_Projects_in_100_Days\Day049_BLE_Mesh_Flood\Mesh_Flood\Mesh_Flood_PSoC4BLE.cydsn/debug.c **** *  void
 146:..\..\..\PSoC-4-BLE-master\100_Projects_in_100_Days\Day049_BLE_Mesh_Flood\Mesh_Flood\Mesh_Flood_PSoC4BLE.cydsn/debug.c **** *
 147:..\..\..\PSoC-4-BLE-master\100_Projects_in_100_Days\Day049_BLE_Mesh_Flood\Mesh_Flood\Mesh_Flood_PSoC4BLE.cydsn/debug.c **** *******************************************************************************/
 148:..\..\..\PSoC-4-BLE-master\100_Projects_in_100_Days\Day049_BLE_Mesh_Flood\Mesh_Flood\Mesh_Flood_PSoC4BLE.cydsn/debug.c **** void PrintHex(uint8 num)
 149:..\..\..\PSoC-4-BLE-master\100_Projects_in_100_Days\Day049_BLE_Mesh_Flood\Mesh_Flood\Mesh_Flood_PSoC4BLE.cydsn/debug.c **** {
ARM GAS  C:\Users\User\AppData\Local\Temp\ccpB5AqC.s 			page 6


 136              		.loc 1 149 0
 137              		.cfi_startproc
 138              		@ args = 0, pretend = 0, frame = 8
 139              		@ frame_needed = 1, uses_anonymous_args = 0
 140 0000 80B5     		push	{r7, lr}
 141              		.cfi_def_cfa_offset 8
 142              		.cfi_offset 7, -8
 143              		.cfi_offset 14, -4
 144 0002 82B0     		sub	sp, sp, #8
 145              		.cfi_def_cfa_offset 16
 146 0004 00AF     		add	r7, sp, #0
 147              		.cfi_def_cfa_register 7
 148 0006 0200     		movs	r2, r0
 149 0008 FB1D     		adds	r3, r7, #7
 150 000a 1A70     		strb	r2, [r3]
 150:..\..\..\PSoC-4-BLE-master\100_Projects_in_100_Days\Day049_BLE_Mesh_Flood\Mesh_Flood\Mesh_Flood_PSoC4BLE.cydsn/debug.c **** 	#ifdef DEBUG_ENABLED
 151:..\..\..\PSoC-4-BLE-master\100_Projects_in_100_Days\Day049_BLE_Mesh_Flood\Mesh_Flood\Mesh_Flood_PSoC4BLE.cydsn/debug.c **** 	uint8 temp[2];
 152:..\..\..\PSoC-4-BLE-master\100_Projects_in_100_Days\Day049_BLE_Mesh_Flood\Mesh_Flood\Mesh_Flood_PSoC4BLE.cydsn/debug.c **** 	
 153:..\..\..\PSoC-4-BLE-master\100_Projects_in_100_Days\Day049_BLE_Mesh_Flood\Mesh_Flood\Mesh_Flood_PSoC4BLE.cydsn/debug.c **** 	temp[0] = num%16;
 154:..\..\..\PSoC-4-BLE-master\100_Projects_in_100_Days\Day049_BLE_Mesh_Flood\Mesh_Flood\Mesh_Flood_PSoC4BLE.cydsn/debug.c **** 	num = num/16;
 155:..\..\..\PSoC-4-BLE-master\100_Projects_in_100_Days\Day049_BLE_Mesh_Flood\Mesh_Flood\Mesh_Flood_PSoC4BLE.cydsn/debug.c **** 	temp[1] = num%16;
 156:..\..\..\PSoC-4-BLE-master\100_Projects_in_100_Days\Day049_BLE_Mesh_Flood\Mesh_Flood\Mesh_Flood_PSoC4BLE.cydsn/debug.c **** 
 157:..\..\..\PSoC-4-BLE-master\100_Projects_in_100_Days\Day049_BLE_Mesh_Flood\Mesh_Flood\Mesh_Flood_PSoC4BLE.cydsn/debug.c **** 	UART_UartPutString("0x");
 158:..\..\..\PSoC-4-BLE-master\100_Projects_in_100_Days\Day049_BLE_Mesh_Flood\Mesh_Flood\Mesh_Flood_PSoC4BLE.cydsn/debug.c **** 	if(temp[1] < 10)
 159:..\..\..\PSoC-4-BLE-master\100_Projects_in_100_Days\Day049_BLE_Mesh_Flood\Mesh_Flood\Mesh_Flood_PSoC4BLE.cydsn/debug.c **** 	{
 160:..\..\..\PSoC-4-BLE-master\100_Projects_in_100_Days\Day049_BLE_Mesh_Flood\Mesh_Flood\Mesh_Flood_PSoC4BLE.cydsn/debug.c **** 		UART_UartPutChar('0' + temp[1]);
 161:..\..\..\PSoC-4-BLE-master\100_Projects_in_100_Days\Day049_BLE_Mesh_Flood\Mesh_Flood\Mesh_Flood_PSoC4BLE.cydsn/debug.c **** 	}
 162:..\..\..\PSoC-4-BLE-master\100_Projects_in_100_Days\Day049_BLE_Mesh_Flood\Mesh_Flood\Mesh_Flood_PSoC4BLE.cydsn/debug.c **** 	else
 163:..\..\..\PSoC-4-BLE-master\100_Projects_in_100_Days\Day049_BLE_Mesh_Flood\Mesh_Flood\Mesh_Flood_PSoC4BLE.cydsn/debug.c **** 	{
 164:..\..\..\PSoC-4-BLE-master\100_Projects_in_100_Days\Day049_BLE_Mesh_Flood\Mesh_Flood\Mesh_Flood_PSoC4BLE.cydsn/debug.c **** 		UART_UartPutChar('A' + (temp[1] - 10));
 165:..\..\..\PSoC-4-BLE-master\100_Projects_in_100_Days\Day049_BLE_Mesh_Flood\Mesh_Flood\Mesh_Flood_PSoC4BLE.cydsn/debug.c **** 	}
 166:..\..\..\PSoC-4-BLE-master\100_Projects_in_100_Days\Day049_BLE_Mesh_Flood\Mesh_Flood\Mesh_Flood_PSoC4BLE.cydsn/debug.c **** 
 167:..\..\..\PSoC-4-BLE-master\100_Projects_in_100_Days\Day049_BLE_Mesh_Flood\Mesh_Flood\Mesh_Flood_PSoC4BLE.cydsn/debug.c **** 	if(temp[0] < 10)
 168:..\..\..\PSoC-4-BLE-master\100_Projects_in_100_Days\Day049_BLE_Mesh_Flood\Mesh_Flood\Mesh_Flood_PSoC4BLE.cydsn/debug.c **** 	{
 169:..\..\..\PSoC-4-BLE-master\100_Projects_in_100_Days\Day049_BLE_Mesh_Flood\Mesh_Flood\Mesh_Flood_PSoC4BLE.cydsn/debug.c **** 		UART_UartPutChar('0' + temp[0]);
 170:..\..\..\PSoC-4-BLE-master\100_Projects_in_100_Days\Day049_BLE_Mesh_Flood\Mesh_Flood\Mesh_Flood_PSoC4BLE.cydsn/debug.c **** 	}
 171:..\..\..\PSoC-4-BLE-master\100_Projects_in_100_Days\Day049_BLE_Mesh_Flood\Mesh_Flood\Mesh_Flood_PSoC4BLE.cydsn/debug.c **** 	else
 172:..\..\..\PSoC-4-BLE-master\100_Projects_in_100_Days\Day049_BLE_Mesh_Flood\Mesh_Flood\Mesh_Flood_PSoC4BLE.cydsn/debug.c **** 	{
 173:..\..\..\PSoC-4-BLE-master\100_Projects_in_100_Days\Day049_BLE_Mesh_Flood\Mesh_Flood\Mesh_Flood_PSoC4BLE.cydsn/debug.c **** 		UART_UartPutChar('A' + (temp[0] - 10));
 174:..\..\..\PSoC-4-BLE-master\100_Projects_in_100_Days\Day049_BLE_Mesh_Flood\Mesh_Flood\Mesh_Flood_PSoC4BLE.cydsn/debug.c **** 	}	
 175:..\..\..\PSoC-4-BLE-master\100_Projects_in_100_Days\Day049_BLE_Mesh_Flood\Mesh_Flood\Mesh_Flood_PSoC4BLE.cydsn/debug.c **** 	#else
 176:..\..\..\PSoC-4-BLE-master\100_Projects_in_100_Days\Day049_BLE_Mesh_Flood\Mesh_Flood\Mesh_Flood_PSoC4BLE.cydsn/debug.c **** 		num = num;
 151              		.loc 1 176 0
 152 000c FB1D     		adds	r3, r7, #7
 153 000e FA1D     		adds	r2, r7, #7
 154 0010 1278     		ldrb	r2, [r2]
 155 0012 1A70     		strb	r2, [r3]
 177:..\..\..\PSoC-4-BLE-master\100_Projects_in_100_Days\Day049_BLE_Mesh_Flood\Mesh_Flood\Mesh_Flood_PSoC4BLE.cydsn/debug.c **** 	#endif
 178:..\..\..\PSoC-4-BLE-master\100_Projects_in_100_Days\Day049_BLE_Mesh_Flood\Mesh_Flood\Mesh_Flood_PSoC4BLE.cydsn/debug.c **** }
 156              		.loc 1 178 0
 157 0014 C046     		nop
 158 0016 BD46     		mov	sp, r7
 159 0018 02B0     		add	sp, sp, #8
 160              		@ sp needed
 161 001a 80BD     		pop	{r7, pc}
 162              		.cfi_endproc
 163              	.LFE37:
ARM GAS  C:\Users\User\AppData\Local\Temp\ccpB5AqC.s 			page 7


 164              		.size	PrintHex, .-PrintHex
 165              		.text
 166              	.Letext0:
 167              		.file 2 "Generated_Source\\PSoC4/cytypes.h"
 168              		.file 3 "Generated_Source\\PSoC4/OneWire.h"
 169              		.file 4 "Generated_Source\\PSoC4/BLE_Stack.h"
 170              		.file 5 "Generated_Source\\PSoC4/BLE_hts.h"
 171              		.file 6 "Generated_Source\\PSoC4/BLE_eventHandler.h"
 172              		.file 7 "..\\..\\..\\PSoC-4-BLE-master\\100_Projects_in_100_Days\\Day049_BLE_Mesh_Flood\\Mesh_Floo
 173              		.file 8 "./Temperature.h"