ARM GAS  C:\Users\User\AppData\Local\Temp\cclWatFh.s 			page 1


   1              		.syntax unified
   2              		.cpu cortex-m0
   3              		.fpu softvfp
   4              		.eabi_attribute 20, 1
   5              		.eabi_attribute 21, 1
   6              		.eabi_attribute 23, 3
   7              		.eabi_attribute 24, 1
   8              		.eabi_attribute 25, 1
   9              		.eabi_attribute 26, 1
  10              		.eabi_attribute 30, 6
  11              		.eabi_attribute 34, 0
  12              		.eabi_attribute 18, 4
  13              		.thumb
  14              		.syntax unified
  15              		.file	"main.c"
  16              		.text
  17              	.Ltext0:
  18              		.cfi_sections	.debug_frame
  19              		.comm	OneWire_Sensor,32,4
  20              		.comm	OneWire_DataReady,1,1
  21              		.data
  22              		.type	flag_Timer, %object
  23              		.size	flag_Timer, 1
  24              	flag_Timer:
  25 0000 01       		.byte	1
  26              		.comm	current_watchdog_counter,2,2
  27              		.comm	TemperatureStorage,16,4
  28              		.section	.text.main,"ax",%progbits
  29              		.align	2
  30              		.global	main
  31              		.code	16
  32              		.thumb_func
  33              		.type	main, %function
  34              	main:
  35              	.LFB36:
  36              		.file 1 "main.c"
   1:main.c        **** /****************************************************************************
   2:main.c        **** * File Name: main.c
   3:main.c        **** *
   4:main.c        **** * Description:
   5:main.c        **** * This file merges the whole code and send temperature
   6:main.c        **** * measurements via BLE and UART.
   7:main.c        **** *
   8:main.c        **** * Authors: Yaroslav Morozevych, Sophiia Myntiuk, Yana Mularska
   9:main.c        **** *
  10:main.c        **** *****************************************************************************/
  11:main.c        **** 
  12:main.c        **** 
  13:main.c        **** /*****************************************************************************
  14:main.c        **** * Included header files with the initialization of all need functions
  15:main.c        **** *****************************************************************************/
  16:main.c        **** #include <project.h>
  17:main.c        **** #include "main.h"
  18:main.c        **** #include "ble_process.h"
  19:main.c        **** #include "CommonFunctions.h"
  20:main.c        **** 
  21:main.c        **** #define DEVICE_NUMBER 4
ARM GAS  C:\Users\User\AppData\Local\Temp\cclWatFh.s 			page 2


  22:main.c        **** 
  23:main.c        **** 
  24:main.c        **** /*****************************************************
  25:main.c        **** *                  Variables
  26:main.c        **** *****************************************************/ 
  27:main.c        **** volatile uint16 current_watchdog_counter;
  28:main.c        **** CYBLE_GATTS_WRITE_REQ_PARAM_T TemperatureStorage;
  29:main.c        **** 
  30:main.c        **** 
  31:main.c        **** 
  32:main.c        ****   
  33:main.c        **** 
  34:main.c        **** /*******************************************************************************
  35:main.c        **** * Function Name: main
  36:main.c        **** ********************************************************************************
  37:main.c        **** * Summary:
  38:main.c        **** *       Entry point for the firmware, Starts the system and continuously processes
  39:main.c        **** * Application and BLE events.
  40:main.c        **** *
  41:main.c        **** * Parameters:
  42:main.c        **** *  void
  43:main.c        **** *
  44:main.c        **** * Return:
  45:main.c        **** *  int
  46:main.c        **** *
  47:main.c        **** *******************************************************************************/
  48:main.c        **** int main()
  49:main.c        **** {
  37              		.loc 1 49 0
  38              		.cfi_startproc
  39              		@ args = 0, pretend = 0, frame = 16
  40              		@ frame_needed = 1, uses_anonymous_args = 0
  41 0000 80B5     		push	{r7, lr}
  42              		.cfi_def_cfa_offset 8
  43              		.cfi_offset 7, -8
  44              		.cfi_offset 14, -4
  45 0002 84B0     		sub	sp, sp, #16
  46              		.cfi_def_cfa_offset 24
  47 0004 00AF     		add	r7, sp, #0
  48              		.cfi_def_cfa_register 7
  50:main.c        ****     /* Initialize system */	
  51:main.c        **** 	InitializeSystem();
  49              		.loc 1 51 0
  50 0006 FFF7FEFF 		bl	InitializeSystem
  52:main.c        ****     flag_Timer = 1;
  51              		.loc 1 52 0
  52 000a 094B     		ldr	r3, .L3
  53 000c 0122     		movs	r2, #1
  54 000e 1A70     		strb	r2, [r3]
  53:main.c        ****     GREEN_LED_Pin_Write(1);
  55              		.loc 1 53 0
  56 0010 0120     		movs	r0, #1
  57 0012 FFF7FEFF 		bl	GREEN_LED_Pin_Write
  54:main.c        **** 	
  55:main.c        ****     float temps[4];
  56:main.c        ****     TemperatureStorage.handleValPair.value.val = temps;
  58              		.loc 1 56 0
ARM GAS  C:\Users\User\AppData\Local\Temp\cclWatFh.s 			page 3


  59 0016 074B     		ldr	r3, .L3+4
  60 0018 3A00     		movs	r2, r7
  61 001a 5A60     		str	r2, [r3, #4]
  62              	.L2:
  57:main.c        ****     
  58:main.c        **** 	#ifdef DEBUG_ENABLED
  59:main.c        **** 		UART_UartPutString("Sytem Started ");
  60:main.c        **** 		UART_UartPutCRLF(' ');
  61:main.c        **** 	#endif
  62:main.c        **** 	
  63:main.c        ****     
  64:main.c        ****     for(;;)
  65:main.c        ****     {
  66:main.c        ****         //float tmp = ProcessTemperature(flag_Timer);
  67:main.c        **** 		/* Process BLE Events. This function generates the respective 
  68:main.c        **** 		* events to application layer */
  69:main.c        **** 		CyBle_ProcessEvents();
  63              		.loc 1 69 0 discriminator 1
  64 001c FFF7FEFF 		bl	CyBle_ProcessEvents
  70:main.c        **** 
  71:main.c        **** 		/* If flag is set, then switch the GAP role between Peripheral and 
  72:main.c        **** 		* Central. This function disconnects existing connection, if any, 
  73:main.c        **** 		* before switching role. Depending on switched role, the system will
  74:main.c        **** 		* either start scanning or start advertisement */
  75:main.c        **** 		SwitchRole();
  65              		.loc 1 75 0 discriminator 1
  66 0020 FFF7FEFF 		bl	SwitchRole
  76:main.c        **** 		
  77:main.c        **** 		/* If a valid node is found, then this function will initiate a connection 
  78:main.c        **** 		* to that node. */
  79:main.c        **** 		ConnectToPeripheralDevice();
  67              		.loc 1 79 0 discriminator 1
  68 0024 FFF7FEFF 		bl	ConnectToPeripheralDevice
  80:main.c        **** 		
  81:main.c        **** 		/* This function will restart scanning when earlier connection has been
  82:main.c        **** 		* disconnected. This function also checks internal counter and sets flag to
  83:main.c        **** 		* switch role from Central to Peripheral when the count is above set value. */
  84:main.c        **** 		RestartCentralScanning();
  69              		.loc 1 84 0 discriminator 1
  70 0028 FFF7FEFF 		bl	RestartCentralScanning
  85:main.c        ****     }
  71              		.loc 1 85 0 discriminator 1
  72 002c F6E7     		b	.L2
  73              	.L4:
  74 002e C046     		.align	2
  75              	.L3:
  76 0030 00000000 		.word	flag_Timer
  77 0034 00000000 		.word	TemperatureStorage
  78              		.cfi_endproc
  79              	.LFE36:
  80              		.size	main, .-main
  81              		.text
  82              	.Letext0:
  83              		.file 2 "Generated_Source\\PSoC4/cytypes.h"
  84              		.file 3 "Generated_Source\\PSoC4/OneWire.h"
  85              		.file 4 "Generated_Source\\PSoC4/BLE_StackGatt.h"
  86              		.file 5 "Generated_Source\\PSoC4/BLE_StackGattServer.h"
ARM GAS  C:\Users\User\AppData\Local\Temp\cclWatFh.s 			page 4


  87              		.file 6 "Generated_Source\\PSoC4/BLE_Stack.h"
  88              		.file 7 "Generated_Source\\PSoC4/BLE_hts.h"
  89              		.file 8 "Generated_Source\\PSoC4/BLE_eventHandler.h"
  90              		.file 9 "Temperature.h"