ARM GAS  C:\Users\User\AppData\Local\Temp\cc3pWpp2.s 			page 1


   1              		.syntax unified
   2              		.cpu cortex-m0
   3              		.fpu softvfp
   4              		.eabi_attribute 20, 1
   5              		.eabi_attribute 21, 1
   6              		.eabi_attribute 23, 3
   7              		.eabi_attribute 24, 1
   8              		.eabi_attribute 25, 1
   9              		.eabi_attribute 26, 1
  10              		.eabi_attribute 30, 6
  11              		.eabi_attribute 34, 0
  12              		.eabi_attribute 18, 4
  13              		.thumb
  14              		.syntax unified
  15              		.file	"WDT.c"
  16              		.text
  17              	.Ltext0:
  18              		.cfi_sections	.debug_frame
  19              		.comm	OneWire_Sensor,32,4
  20              		.comm	OneWire_DataReady,1,1
  21              		.bss
  22              	flag_Timer:
  23 0000 00       		.space	1
  24              		.comm	current_watchdog_counter,2,2
  25              		.section	.text.InitializeWatchdog,"ax",%progbits
  26              		.align	2
  27              		.global	InitializeWatchdog
  28              		.code	16
  29              		.thumb_func
  30              		.type	InitializeWatchdog, %function
  31              	InitializeWatchdog:
  32              	.LFB35:
  33              		.file 1 "..\\..\\..\\PSoC-4-BLE-master\\100_Projects_in_100_Days\\Day049_BLE_Mesh_Flood\\Mesh_Floo
   1:..\..\..\PSoC-4-BLE-master\100_Projects_in_100_Days\Day049_BLE_Mesh_Flood\Mesh_Flood\Mesh_Flood_PSoC4BLE.cydsn/WDT.c **** /*******************************************************************************
   2:..\..\..\PSoC-4-BLE-master\100_Projects_in_100_Days\Day049_BLE_Mesh_Flood\Mesh_Flood\Mesh_Flood_PSoC4BLE.cydsn/WDT.c **** * File Name: WDT.c
   3:..\..\..\PSoC-4-BLE-master\100_Projects_in_100_Days\Day049_BLE_Mesh_Flood\Mesh_Flood\Mesh_Flood_PSoC4BLE.cydsn/WDT.c **** *
   4:..\..\..\PSoC-4-BLE-master\100_Projects_in_100_Days\Day049_BLE_Mesh_Flood\Mesh_Flood\Mesh_Flood_PSoC4BLE.cydsn/WDT.c **** * Version: 1.0
   5:..\..\..\PSoC-4-BLE-master\100_Projects_in_100_Days\Day049_BLE_Mesh_Flood\Mesh_Flood\Mesh_Flood_PSoC4BLE.cydsn/WDT.c **** *
   6:..\..\..\PSoC-4-BLE-master\100_Projects_in_100_Days\Day049_BLE_Mesh_Flood\Mesh_Flood\Mesh_Flood_PSoC4BLE.cydsn/WDT.c **** * Description:
   7:..\..\..\PSoC-4-BLE-master\100_Projects_in_100_Days\Day049_BLE_Mesh_Flood\Mesh_Flood\Mesh_Flood_PSoC4BLE.cydsn/WDT.c **** * This file contains the functions to initialize Watchdog (WDT) counter and 
   8:..\..\..\PSoC-4-BLE-master\100_Projects_in_100_Days\Day049_BLE_Mesh_Flood\Mesh_Flood\Mesh_Flood_PSoC4BLE.cydsn/WDT.c **** * record times for various timing operation in application.
   9:..\..\..\PSoC-4-BLE-master\100_Projects_in_100_Days\Day049_BLE_Mesh_Flood\Mesh_Flood\Mesh_Flood_PSoC4BLE.cydsn/WDT.c **** *
  10:..\..\..\PSoC-4-BLE-master\100_Projects_in_100_Days\Day049_BLE_Mesh_Flood\Mesh_Flood\Mesh_Flood_PSoC4BLE.cydsn/WDT.c **** ********************************************************************************
  11:..\..\..\PSoC-4-BLE-master\100_Projects_in_100_Days\Day049_BLE_Mesh_Flood\Mesh_Flood\Mesh_Flood_PSoC4BLE.cydsn/WDT.c **** * Copyright 2015, Cypress Semiconductor Corporation.  All rights reserved.
  12:..\..\..\PSoC-4-BLE-master\100_Projects_in_100_Days\Day049_BLE_Mesh_Flood\Mesh_Flood\Mesh_Flood_PSoC4BLE.cydsn/WDT.c **** * You may use this file only in accordance with the license, terms, conditions,
  13:..\..\..\PSoC-4-BLE-master\100_Projects_in_100_Days\Day049_BLE_Mesh_Flood\Mesh_Flood\Mesh_Flood_PSoC4BLE.cydsn/WDT.c **** * disclaimers, and limitations in the end user license agreement accompanying
  14:..\..\..\PSoC-4-BLE-master\100_Projects_in_100_Days\Day049_BLE_Mesh_Flood\Mesh_Flood\Mesh_Flood_PSoC4BLE.cydsn/WDT.c **** * the software package with which this file was provided.
  15:..\..\..\PSoC-4-BLE-master\100_Projects_in_100_Days\Day049_BLE_Mesh_Flood\Mesh_Flood\Mesh_Flood_PSoC4BLE.cydsn/WDT.c **** *******************************************************************************/
  16:..\..\..\PSoC-4-BLE-master\100_Projects_in_100_Days\Day049_BLE_Mesh_Flood\Mesh_Flood\Mesh_Flood_PSoC4BLE.cydsn/WDT.c **** #include "main.h"
  17:..\..\..\PSoC-4-BLE-master\100_Projects_in_100_Days\Day049_BLE_Mesh_Flood\Mesh_Flood\Mesh_Flood_PSoC4BLE.cydsn/WDT.c **** 
  18:..\..\..\PSoC-4-BLE-master\100_Projects_in_100_Days\Day049_BLE_Mesh_Flood\Mesh_Flood\Mesh_Flood_PSoC4BLE.cydsn/WDT.c **** extern uint8 ble_gap_state;
  19:..\..\..\PSoC-4-BLE-master\100_Projects_in_100_Days\Day049_BLE_Mesh_Flood\Mesh_Flood\Mesh_Flood_PSoC4BLE.cydsn/WDT.c **** extern volatile uint16 RGBdataReceivedCounter;
  20:..\..\..\PSoC-4-BLE-master\100_Projects_in_100_Days\Day049_BLE_Mesh_Flood\Mesh_Flood\Mesh_Flood_PSoC4BLE.cydsn/WDT.c **** extern uint8 switch_Role;
  21:..\..\..\PSoC-4-BLE-master\100_Projects_in_100_Days\Day049_BLE_Mesh_Flood\Mesh_Flood\Mesh_Flood_PSoC4BLE.cydsn/WDT.c **** /*******************************************************************************
  22:..\..\..\PSoC-4-BLE-master\100_Projects_in_100_Days\Day049_BLE_Mesh_Flood\Mesh_Flood\Mesh_Flood_PSoC4BLE.cydsn/WDT.c **** * Function Name: InitializeWatchdog
  23:..\..\..\PSoC-4-BLE-master\100_Projects_in_100_Days\Day049_BLE_Mesh_Flood\Mesh_Flood\Mesh_Flood_PSoC4BLE.cydsn/WDT.c **** ********************************************************************************
  24:..\..\..\PSoC-4-BLE-master\100_Projects_in_100_Days\Day049_BLE_Mesh_Flood\Mesh_Flood\Mesh_Flood_PSoC4BLE.cydsn/WDT.c **** * Summary:
ARM GAS  C:\Users\User\AppData\Local\Temp\cc3pWpp2.s 			page 2


  25:..\..\..\PSoC-4-BLE-master\100_Projects_in_100_Days\Day049_BLE_Mesh_Flood\Mesh_Flood\Mesh_Flood_PSoC4BLE.cydsn/WDT.c **** *        Start watchdog timer with given period
  26:..\..\..\PSoC-4-BLE-master\100_Projects_in_100_Days\Day049_BLE_Mesh_Flood\Mesh_Flood\Mesh_Flood_PSoC4BLE.cydsn/WDT.c **** *
  27:..\..\..\PSoC-4-BLE-master\100_Projects_in_100_Days\Day049_BLE_Mesh_Flood\Mesh_Flood\Mesh_Flood_PSoC4BLE.cydsn/WDT.c **** * Parameters:
  28:..\..\..\PSoC-4-BLE-master\100_Projects_in_100_Days\Day049_BLE_Mesh_Flood\Mesh_Flood\Mesh_Flood_PSoC4BLE.cydsn/WDT.c **** *  void
  29:..\..\..\PSoC-4-BLE-master\100_Projects_in_100_Days\Day049_BLE_Mesh_Flood\Mesh_Flood\Mesh_Flood_PSoC4BLE.cydsn/WDT.c **** *
  30:..\..\..\PSoC-4-BLE-master\100_Projects_in_100_Days\Day049_BLE_Mesh_Flood\Mesh_Flood\Mesh_Flood_PSoC4BLE.cydsn/WDT.c **** * Return:
  31:..\..\..\PSoC-4-BLE-master\100_Projects_in_100_Days\Day049_BLE_Mesh_Flood\Mesh_Flood\Mesh_Flood_PSoC4BLE.cydsn/WDT.c **** *  void
  32:..\..\..\PSoC-4-BLE-master\100_Projects_in_100_Days\Day049_BLE_Mesh_Flood\Mesh_Flood\Mesh_Flood_PSoC4BLE.cydsn/WDT.c **** *
  33:..\..\..\PSoC-4-BLE-master\100_Projects_in_100_Days\Day049_BLE_Mesh_Flood\Mesh_Flood\Mesh_Flood_PSoC4BLE.cydsn/WDT.c **** *******************************************************************************/
  34:..\..\..\PSoC-4-BLE-master\100_Projects_in_100_Days\Day049_BLE_Mesh_Flood\Mesh_Flood\Mesh_Flood_PSoC4BLE.cydsn/WDT.c **** void InitializeWatchdog(uint32 match_val)
  35:..\..\..\PSoC-4-BLE-master\100_Projects_in_100_Days\Day049_BLE_Mesh_Flood\Mesh_Flood\Mesh_Flood_PSoC4BLE.cydsn/WDT.c **** {
  34              		.loc 1 35 0
  35              		.cfi_startproc
  36              		@ args = 0, pretend = 0, frame = 8
  37              		@ frame_needed = 1, uses_anonymous_args = 0
  38 0000 80B5     		push	{r7, lr}
  39              		.cfi_def_cfa_offset 8
  40              		.cfi_offset 7, -8
  41              		.cfi_offset 14, -4
  42 0002 82B0     		sub	sp, sp, #8
  43              		.cfi_def_cfa_offset 16
  44 0004 00AF     		add	r7, sp, #0
  45              		.cfi_def_cfa_register 7
  46 0006 7860     		str	r0, [r7, #4]
  36:..\..\..\PSoC-4-BLE-master\100_Projects_in_100_Days\Day049_BLE_Mesh_Flood\Mesh_Flood\Mesh_Flood_PSoC4BLE.cydsn/WDT.c **** 	/* Unlock the WDT registers for modification */
  37:..\..\..\PSoC-4-BLE-master\100_Projects_in_100_Days\Day049_BLE_Mesh_Flood\Mesh_Flood\Mesh_Flood_PSoC4BLE.cydsn/WDT.c **** 	CySysWdtUnlock(); 
  47              		.loc 1 37 0
  48 0008 FFF7FEFF 		bl	CySysWdtUnlock
  38:..\..\..\PSoC-4-BLE-master\100_Projects_in_100_Days\Day049_BLE_Mesh_Flood\Mesh_Flood\Mesh_Flood_PSoC4BLE.cydsn/WDT.c **** 	
  39:..\..\..\PSoC-4-BLE-master\100_Projects_in_100_Days\Day049_BLE_Mesh_Flood\Mesh_Flood\Mesh_Flood_PSoC4BLE.cydsn/WDT.c **** 	/* Write Mode for Counter 0 as Interrupt on Match */
  40:..\..\..\PSoC-4-BLE-master\100_Projects_in_100_Days\Day049_BLE_Mesh_Flood\Mesh_Flood\Mesh_Flood_PSoC4BLE.cydsn/WDT.c ****     CySysWdtWriteMode(CY_SYS_WDT_COUNTER0, CY_SYS_WDT_MODE_INT);
  49              		.loc 1 40 0
  50 000c 0121     		movs	r1, #1
  51 000e 0020     		movs	r0, #0
  52 0010 FFF7FEFF 		bl	CySysWdtSetMode
  41:..\..\..\PSoC-4-BLE-master\100_Projects_in_100_Days\Day049_BLE_Mesh_Flood\Mesh_Flood\Mesh_Flood_PSoC4BLE.cydsn/WDT.c **** 	
  42:..\..\..\PSoC-4-BLE-master\100_Projects_in_100_Days\Day049_BLE_Mesh_Flood\Mesh_Flood\Mesh_Flood_PSoC4BLE.cydsn/WDT.c **** 	/* Set Clear on Match for Counter 0*/
  43:..\..\..\PSoC-4-BLE-master\100_Projects_in_100_Days\Day049_BLE_Mesh_Flood\Mesh_Flood\Mesh_Flood_PSoC4BLE.cydsn/WDT.c **** 	CySysWdtWriteClearOnMatch(CY_SYS_WDT_COUNTER0, TRUE);
  53              		.loc 1 43 0
  54 0014 0121     		movs	r1, #1
  55 0016 0020     		movs	r0, #0
  56 0018 FFF7FEFF 		bl	CySysWdtSetClearOnMatch
  44:..\..\..\PSoC-4-BLE-master\100_Projects_in_100_Days\Day049_BLE_Mesh_Flood\Mesh_Flood\Mesh_Flood_PSoC4BLE.cydsn/WDT.c ****     
  45:..\..\..\PSoC-4-BLE-master\100_Projects_in_100_Days\Day049_BLE_Mesh_Flood\Mesh_Flood\Mesh_Flood_PSoC4BLE.cydsn/WDT.c **** 	/* Write the match value equal to 1 second in Counter 0 */
  46:..\..\..\PSoC-4-BLE-master\100_Projects_in_100_Days\Day049_BLE_Mesh_Flood\Mesh_Flood\Mesh_Flood_PSoC4BLE.cydsn/WDT.c **** 	CySysWdtWriteMatch(CY_SYS_WDT_COUNTER0, match_val);
  57              		.loc 1 46 0
  58 001c 7B68     		ldr	r3, [r7, #4]
  59 001e 1900     		movs	r1, r3
  60 0020 0020     		movs	r0, #0
  61 0022 FFF7FEFF 		bl	CySysWdtSetMatch
  47:..\..\..\PSoC-4-BLE-master\100_Projects_in_100_Days\Day049_BLE_Mesh_Flood\Mesh_Flood\Mesh_Flood_PSoC4BLE.cydsn/WDT.c ****     CyDelayUs(WATCHDOG_REG_UPDATE_WAIT_TIME);
  62              		.loc 1 47 0
  63 0026 5A20     		movs	r0, #90
  64 0028 FFF7FEFF 		bl	CyDelayUs
  48:..\..\..\PSoC-4-BLE-master\100_Projects_in_100_Days\Day049_BLE_Mesh_Flood\Mesh_Flood\Mesh_Flood_PSoC4BLE.cydsn/WDT.c **** 	
  49:..\..\..\PSoC-4-BLE-master\100_Projects_in_100_Days\Day049_BLE_Mesh_Flood\Mesh_Flood\Mesh_Flood_PSoC4BLE.cydsn/WDT.c **** 	/* Enable Counter 0 */
  50:..\..\..\PSoC-4-BLE-master\100_Projects_in_100_Days\Day049_BLE_Mesh_Flood\Mesh_Flood\Mesh_Flood_PSoC4BLE.cydsn/WDT.c ****     CySysWdtEnable(CY_SYS_WDT_COUNTER0_MASK);
ARM GAS  C:\Users\User\AppData\Local\Temp\cc3pWpp2.s 			page 3


  65              		.loc 1 50 0
  66 002c 0120     		movs	r0, #1
  67 002e FFF7FEFF 		bl	CySysWdtEnable
  51:..\..\..\PSoC-4-BLE-master\100_Projects_in_100_Days\Day049_BLE_Mesh_Flood\Mesh_Flood\Mesh_Flood_PSoC4BLE.cydsn/WDT.c **** 	
  52:..\..\..\PSoC-4-BLE-master\100_Projects_in_100_Days\Day049_BLE_Mesh_Flood\Mesh_Flood\Mesh_Flood_PSoC4BLE.cydsn/WDT.c **** 	/* Lock Watchdog to prevent further changes */
  53:..\..\..\PSoC-4-BLE-master\100_Projects_in_100_Days\Day049_BLE_Mesh_Flood\Mesh_Flood\Mesh_Flood_PSoC4BLE.cydsn/WDT.c ****     CySysWdtLock();
  68              		.loc 1 53 0
  69 0032 FFF7FEFF 		bl	CySysWdtLock
  54:..\..\..\PSoC-4-BLE-master\100_Projects_in_100_Days\Day049_BLE_Mesh_Flood\Mesh_Flood\Mesh_Flood_PSoC4BLE.cydsn/WDT.c **** 	
  55:..\..\..\PSoC-4-BLE-master\100_Projects_in_100_Days\Day049_BLE_Mesh_Flood\Mesh_Flood\Mesh_Flood_PSoC4BLE.cydsn/WDT.c **** 	isr_WDT_StartEx(WDT_INT_Handler);
  70              		.loc 1 55 0
  71 0036 044B     		ldr	r3, .L2
  72 0038 1800     		movs	r0, r3
  73 003a FFF7FEFF 		bl	isr_WDT_StartEx
  56:..\..\..\PSoC-4-BLE-master\100_Projects_in_100_Days\Day049_BLE_Mesh_Flood\Mesh_Flood\Mesh_Flood_PSoC4BLE.cydsn/WDT.c **** }
  74              		.loc 1 56 0
  75 003e C046     		nop
  76 0040 BD46     		mov	sp, r7
  77 0042 02B0     		add	sp, sp, #8
  78              		@ sp needed
  79 0044 80BD     		pop	{r7, pc}
  80              	.L3:
  81 0046 C046     		.align	2
  82              	.L2:
  83 0048 00000000 		.word	WDT_INT_Handler
  84              		.cfi_endproc
  85              	.LFE35:
  86              		.size	InitializeWatchdog, .-InitializeWatchdog
  87              		.section	.text.WDT_INT_Handler,"ax",%progbits
  88              		.align	2
  89              		.global	WDT_INT_Handler
  90              		.code	16
  91              		.thumb_func
  92              		.type	WDT_INT_Handler, %function
  93              	WDT_INT_Handler:
  94              	.LFB36:
  57:..\..\..\PSoC-4-BLE-master\100_Projects_in_100_Days\Day049_BLE_Mesh_Flood\Mesh_Flood\Mesh_Flood_PSoC4BLE.cydsn/WDT.c **** 
  58:..\..\..\PSoC-4-BLE-master\100_Projects_in_100_Days\Day049_BLE_Mesh_Flood\Mesh_Flood\Mesh_Flood_PSoC4BLE.cydsn/WDT.c **** /*******************************************************************************
  59:..\..\..\PSoC-4-BLE-master\100_Projects_in_100_Days\Day049_BLE_Mesh_Flood\Mesh_Flood\Mesh_Flood_PSoC4BLE.cydsn/WDT.c **** * Function Name: WDT_INT_Handler
  60:..\..\..\PSoC-4-BLE-master\100_Projects_in_100_Days\Day049_BLE_Mesh_Flood\Mesh_Flood\Mesh_Flood_PSoC4BLE.cydsn/WDT.c **** ********************************************************************************
  61:..\..\..\PSoC-4-BLE-master\100_Projects_in_100_Days\Day049_BLE_Mesh_Flood\Mesh_Flood\Mesh_Flood_PSoC4BLE.cydsn/WDT.c **** * Summary:
  62:..\..\..\PSoC-4-BLE-master\100_Projects_in_100_Days\Day049_BLE_Mesh_Flood\Mesh_Flood\Mesh_Flood_PSoC4BLE.cydsn/WDT.c **** *        Watchdog interrupt routine for counting operation
  63:..\..\..\PSoC-4-BLE-master\100_Projects_in_100_Days\Day049_BLE_Mesh_Flood\Mesh_Flood\Mesh_Flood_PSoC4BLE.cydsn/WDT.c **** *
  64:..\..\..\PSoC-4-BLE-master\100_Projects_in_100_Days\Day049_BLE_Mesh_Flood\Mesh_Flood\Mesh_Flood_PSoC4BLE.cydsn/WDT.c **** * Parameters:
  65:..\..\..\PSoC-4-BLE-master\100_Projects_in_100_Days\Day049_BLE_Mesh_Flood\Mesh_Flood\Mesh_Flood_PSoC4BLE.cydsn/WDT.c **** *  void
  66:..\..\..\PSoC-4-BLE-master\100_Projects_in_100_Days\Day049_BLE_Mesh_Flood\Mesh_Flood\Mesh_Flood_PSoC4BLE.cydsn/WDT.c **** *
  67:..\..\..\PSoC-4-BLE-master\100_Projects_in_100_Days\Day049_BLE_Mesh_Flood\Mesh_Flood\Mesh_Flood_PSoC4BLE.cydsn/WDT.c **** * Return:
  68:..\..\..\PSoC-4-BLE-master\100_Projects_in_100_Days\Day049_BLE_Mesh_Flood\Mesh_Flood\Mesh_Flood_PSoC4BLE.cydsn/WDT.c **** *  void
  69:..\..\..\PSoC-4-BLE-master\100_Projects_in_100_Days\Day049_BLE_Mesh_Flood\Mesh_Flood\Mesh_Flood_PSoC4BLE.cydsn/WDT.c **** *
  70:..\..\..\PSoC-4-BLE-master\100_Projects_in_100_Days\Day049_BLE_Mesh_Flood\Mesh_Flood\Mesh_Flood_PSoC4BLE.cydsn/WDT.c **** *******************************************************************************/
  71:..\..\..\PSoC-4-BLE-master\100_Projects_in_100_Days\Day049_BLE_Mesh_Flood\Mesh_Flood\Mesh_Flood_PSoC4BLE.cydsn/WDT.c **** void WDT_INT_Handler(void)
  72:..\..\..\PSoC-4-BLE-master\100_Projects_in_100_Days\Day049_BLE_Mesh_Flood\Mesh_Flood\Mesh_Flood_PSoC4BLE.cydsn/WDT.c **** {
  95              		.loc 1 72 0
  96              		.cfi_startproc
  97              		@ args = 0, pretend = 0, frame = 0
  98              		@ frame_needed = 1, uses_anonymous_args = 0
  99 0000 80B5     		push	{r7, lr}
ARM GAS  C:\Users\User\AppData\Local\Temp\cc3pWpp2.s 			page 4


 100              		.cfi_def_cfa_offset 8
 101              		.cfi_offset 7, -8
 102              		.cfi_offset 14, -4
 103 0002 00AF     		add	r7, sp, #0
 104              		.cfi_def_cfa_register 7
  73:..\..\..\PSoC-4-BLE-master\100_Projects_in_100_Days\Day049_BLE_Mesh_Flood\Mesh_Flood\Mesh_Flood_PSoC4BLE.cydsn/WDT.c **** 	/* Clear Pending Interrupt */
  74:..\..\..\PSoC-4-BLE-master\100_Projects_in_100_Days\Day049_BLE_Mesh_Flood\Mesh_Flood\Mesh_Flood_PSoC4BLE.cydsn/WDT.c **** 	isr_WDT_ClearPending();
 105              		.loc 1 74 0
 106 0004 FFF7FEFF 		bl	isr_WDT_ClearPending
  75:..\..\..\PSoC-4-BLE-master\100_Projects_in_100_Days\Day049_BLE_Mesh_Flood\Mesh_Flood\Mesh_Flood_PSoC4BLE.cydsn/WDT.c **** 	
  76:..\..\..\PSoC-4-BLE-master\100_Projects_in_100_Days\Day049_BLE_Mesh_Flood\Mesh_Flood\Mesh_Flood_PSoC4BLE.cydsn/WDT.c **** 	/* If the Interrupt source is Counter 0 match, then process */
  77:..\..\..\PSoC-4-BLE-master\100_Projects_in_100_Days\Day049_BLE_Mesh_Flood\Mesh_Flood\Mesh_Flood_PSoC4BLE.cydsn/WDT.c **** 	if(CySysWdtGetInterruptSource() & CY_SYS_WDT_COUNTER0_INT)
 107              		.loc 1 77 0
 108 0008 FFF7FEFF 		bl	CySysWdtGetInterruptSource
 109 000c 0200     		movs	r2, r0
 110 000e 0423     		movs	r3, #4
 111 0010 1340     		ands	r3, r2
 112 0012 09D0     		beq	.L6
  78:..\..\..\PSoC-4-BLE-master\100_Projects_in_100_Days\Day049_BLE_Mesh_Flood\Mesh_Flood\Mesh_Flood_PSoC4BLE.cydsn/WDT.c **** 	{
  79:..\..\..\PSoC-4-BLE-master\100_Projects_in_100_Days\Day049_BLE_Mesh_Flood\Mesh_Flood\Mesh_Flood_PSoC4BLE.cydsn/WDT.c **** 		/* Clear Watchdog Interrupt from Counter 0 */
  80:..\..\..\PSoC-4-BLE-master\100_Projects_in_100_Days\Day049_BLE_Mesh_Flood\Mesh_Flood\Mesh_Flood_PSoC4BLE.cydsn/WDT.c **** 		CySysWdtClearInterrupt(CY_SYS_WDT_COUNTER0_INT);
 113              		.loc 1 80 0
 114 0014 0420     		movs	r0, #4
 115 0016 FFF7FEFF 		bl	CySysWdtClearInterrupt
  81:..\..\..\PSoC-4-BLE-master\100_Projects_in_100_Days\Day049_BLE_Mesh_Flood\Mesh_Flood\Mesh_Flood_PSoC4BLE.cydsn/WDT.c **** 		
  82:..\..\..\PSoC-4-BLE-master\100_Projects_in_100_Days\Day049_BLE_Mesh_Flood\Mesh_Flood\Mesh_Flood_PSoC4BLE.cydsn/WDT.c **** 		/* Increment global counter variable */
  83:..\..\..\PSoC-4-BLE-master\100_Projects_in_100_Days\Day049_BLE_Mesh_Flood\Mesh_Flood\Mesh_Flood_PSoC4BLE.cydsn/WDT.c **** 		current_watchdog_counter++;
 116              		.loc 1 83 0
 117 001a 054B     		ldr	r3, .L7
 118 001c 1B88     		ldrh	r3, [r3]
 119 001e 9BB2     		uxth	r3, r3
 120 0020 0133     		adds	r3, r3, #1
 121 0022 9AB2     		uxth	r2, r3
 122 0024 024B     		ldr	r3, .L7
 123 0026 1A80     		strh	r2, [r3]
 124              	.L6:
  84:..\..\..\PSoC-4-BLE-master\100_Projects_in_100_Days\Day049_BLE_Mesh_Flood\Mesh_Flood\Mesh_Flood_PSoC4BLE.cydsn/WDT.c **** 	}
  85:..\..\..\PSoC-4-BLE-master\100_Projects_in_100_Days\Day049_BLE_Mesh_Flood\Mesh_Flood\Mesh_Flood_PSoC4BLE.cydsn/WDT.c **** }
 125              		.loc 1 85 0
 126 0028 C046     		nop
 127 002a BD46     		mov	sp, r7
 128              		@ sp needed
 129 002c 80BD     		pop	{r7, pc}
 130              	.L8:
 131 002e C046     		.align	2
 132              	.L7:
 133 0030 00000000 		.word	current_watchdog_counter
 134              		.cfi_endproc
 135              	.LFE36:
 136              		.size	WDT_INT_Handler, .-WDT_INT_Handler
 137              		.text
 138              	.Letext0:
 139              		.file 2 "Generated_Source\\PSoC4/cytypes.h"
 140              		.file 3 "Generated_Source\\PSoC4/OneWire.h"
 141              		.file 4 "Generated_Source\\PSoC4/BLE_Stack.h"
 142              		.file 5 "Generated_Source\\PSoC4/BLE_hts.h"
 143              		.file 6 "Generated_Source\\PSoC4/BLE_eventHandler.h"
ARM GAS  C:\Users\User\AppData\Local\Temp\cc3pWpp2.s 			page 5


 144              		.file 7 "..\\..\\..\\PSoC-4-BLE-master\\100_Projects_in_100_Days\\Day049_BLE_Mesh_Flood\\Mesh_Floo
 145              		.file 8 "./Temperature.h"