ARM GAS  C:\Users\User\AppData\Local\Temp\ccR9uRpe.s 			page 1


   1              		.syntax unified
   2              		.cpu cortex-m0
   3              		.fpu softvfp
   4              		.eabi_attribute 20, 1
   5              		.eabi_attribute 21, 1
   6              		.eabi_attribute 23, 3
   7              		.eabi_attribute 24, 1
   8              		.eabi_attribute 25, 1
   9              		.eabi_attribute 26, 1
  10              		.eabi_attribute 30, 6
  11              		.eabi_attribute 34, 0
  12              		.eabi_attribute 18, 4
  13              		.thumb
  14              		.syntax unified
  15              		.file	"BLE_hts.c"
  16              		.text
  17              	.Ltext0:
  18              		.cfi_sections	.debug_frame
  19              		.bss
  20              		.align	2
  21              	CyBle_HtsApplCallback:
  22 0000 00000000 		.space	4
  23              		.global	cyBle_htss
  24              		.section	.rodata
  25              		.align	2
  26              		.type	cyBle_htss, %object
  27              		.size	cyBle_htss, 26
  28              	cyBle_htss:
  29 0000 0C00     		.short	12
  30 0002 0E00     		.short	14
  31 0004 0F00     		.short	15
  32 0006 0000     		.short	0
  33 0008 1100     		.short	17
  34 000a 0000     		.short	0
  35 000c 0000     		.short	0
  36 000e 1300     		.short	19
  37 0010 1400     		.short	20
  38 0012 0000     		.short	0
  39 0014 1600     		.short	22
  40 0016 1700     		.short	23
  41 0018 1800     		.short	24
  42              		.bss
  43              		.align	1
  44              	cyBle_htssReqHandle:
  45 0004 0000     		.space	2
  46              		.section	.text.CyBle_HtsInit,"ax",%progbits
  47              		.align	2
  48              		.global	CyBle_HtsInit
  49              		.code	16
  50              		.thumb_func
  51              		.type	CyBle_HtsInit, %function
  52              	CyBle_HtsInit:
  53              	.LFB2:
  54              		.file 1 "Generated_Source\\PSoC4\\BLE_hts.c"
   1:Generated_Source\PSoC4/BLE_hts.c **** /***************************************************************************//**
   2:Generated_Source\PSoC4/BLE_hts.c **** * \file CYBLE_hts.c
   3:Generated_Source\PSoC4/BLE_hts.c **** * \version 3.30
ARM GAS  C:\Users\User\AppData\Local\Temp\ccR9uRpe.s 			page 2


   4:Generated_Source\PSoC4/BLE_hts.c **** * 
   5:Generated_Source\PSoC4/BLE_hts.c **** * \brief
   6:Generated_Source\PSoC4/BLE_hts.c **** *  Contains the source code for Health Thermometer Service.
   7:Generated_Source\PSoC4/BLE_hts.c **** * 
   8:Generated_Source\PSoC4/BLE_hts.c **** ********************************************************************************
   9:Generated_Source\PSoC4/BLE_hts.c **** * \copyright
  10:Generated_Source\PSoC4/BLE_hts.c **** * Copyright 2014-2016, Cypress Semiconductor Corporation.  All rights reserved.
  11:Generated_Source\PSoC4/BLE_hts.c **** * You may use this file only in accordance with the license, terms, conditions,
  12:Generated_Source\PSoC4/BLE_hts.c **** * disclaimers, and limitations in the end user license agreement accompanying
  13:Generated_Source\PSoC4/BLE_hts.c **** * the software package with which this file was provided.
  14:Generated_Source\PSoC4/BLE_hts.c **** *******************************************************************************/
  15:Generated_Source\PSoC4/BLE_hts.c **** 
  16:Generated_Source\PSoC4/BLE_hts.c **** 
  17:Generated_Source\PSoC4/BLE_hts.c **** #include "BLE_eventHandler.h"
  18:Generated_Source\PSoC4/BLE_hts.c **** 
  19:Generated_Source\PSoC4/BLE_hts.c **** static CYBLE_CALLBACK_T CyBle_HtsApplCallback = NULL;
  20:Generated_Source\PSoC4/BLE_hts.c **** 
  21:Generated_Source\PSoC4/BLE_hts.c **** #ifdef CYBLE_HTS_SERVER
  22:Generated_Source\PSoC4/BLE_hts.c **** 
  23:Generated_Source\PSoC4/BLE_hts.c **** const CYBLE_HTSS_T cyBle_htss =
  24:Generated_Source\PSoC4/BLE_hts.c **** {
  25:Generated_Source\PSoC4/BLE_hts.c ****     0x000Cu,    /* Handle of the HTS service */
  26:Generated_Source\PSoC4/BLE_hts.c ****     {
  27:Generated_Source\PSoC4/BLE_hts.c ****         
  28:Generated_Source\PSoC4/BLE_hts.c ****         /* Temperature Measurement characteristic */
  29:Generated_Source\PSoC4/BLE_hts.c ****         {
  30:Generated_Source\PSoC4/BLE_hts.c ****             0x000Eu, /* Handle of the Temperature Measurement characteristic */ 
  31:Generated_Source\PSoC4/BLE_hts.c ****             
  32:Generated_Source\PSoC4/BLE_hts.c ****             /* Array of Descriptors handles */
  33:Generated_Source\PSoC4/BLE_hts.c ****             {
  34:Generated_Source\PSoC4/BLE_hts.c ****                 0x000Fu, /* Handle of the Client Characteristic Configuration descriptor */ 
  35:Generated_Source\PSoC4/BLE_hts.c ****                 CYBLE_GATT_INVALID_ATTR_HANDLE_VALUE, 
  36:Generated_Source\PSoC4/BLE_hts.c ****             }, 
  37:Generated_Source\PSoC4/BLE_hts.c ****         }, 
  38:Generated_Source\PSoC4/BLE_hts.c ****         
  39:Generated_Source\PSoC4/BLE_hts.c ****         /* Temperature Type characteristic */
  40:Generated_Source\PSoC4/BLE_hts.c ****         {
  41:Generated_Source\PSoC4/BLE_hts.c ****             0x0011u, /* Handle of the Temperature Type characteristic */ 
  42:Generated_Source\PSoC4/BLE_hts.c ****             
  43:Generated_Source\PSoC4/BLE_hts.c ****             /* Array of Descriptors handles */
  44:Generated_Source\PSoC4/BLE_hts.c ****             {
  45:Generated_Source\PSoC4/BLE_hts.c ****                 CYBLE_GATT_INVALID_ATTR_HANDLE_VALUE, 
  46:Generated_Source\PSoC4/BLE_hts.c ****                 CYBLE_GATT_INVALID_ATTR_HANDLE_VALUE, 
  47:Generated_Source\PSoC4/BLE_hts.c ****             }, 
  48:Generated_Source\PSoC4/BLE_hts.c ****         }, 
  49:Generated_Source\PSoC4/BLE_hts.c ****         
  50:Generated_Source\PSoC4/BLE_hts.c ****         /* Intermediate Temperature characteristic */
  51:Generated_Source\PSoC4/BLE_hts.c ****         {
  52:Generated_Source\PSoC4/BLE_hts.c ****             0x0013u, /* Handle of the Intermediate Temperature characteristic */ 
  53:Generated_Source\PSoC4/BLE_hts.c ****             
  54:Generated_Source\PSoC4/BLE_hts.c ****             /* Array of Descriptors handles */
  55:Generated_Source\PSoC4/BLE_hts.c ****             {
  56:Generated_Source\PSoC4/BLE_hts.c ****                 0x0014u, /* Handle of the Client Characteristic Configuration descriptor */ 
  57:Generated_Source\PSoC4/BLE_hts.c ****                 CYBLE_GATT_INVALID_ATTR_HANDLE_VALUE, 
  58:Generated_Source\PSoC4/BLE_hts.c ****             }, 
  59:Generated_Source\PSoC4/BLE_hts.c ****         }, 
  60:Generated_Source\PSoC4/BLE_hts.c ****         
ARM GAS  C:\Users\User\AppData\Local\Temp\ccR9uRpe.s 			page 3


  61:Generated_Source\PSoC4/BLE_hts.c ****         /* Measurement Interval characteristic */
  62:Generated_Source\PSoC4/BLE_hts.c ****         {
  63:Generated_Source\PSoC4/BLE_hts.c ****             0x0016u, /* Handle of the Measurement Interval characteristic */ 
  64:Generated_Source\PSoC4/BLE_hts.c ****             
  65:Generated_Source\PSoC4/BLE_hts.c ****             /* Array of Descriptors handles */
  66:Generated_Source\PSoC4/BLE_hts.c ****             {
  67:Generated_Source\PSoC4/BLE_hts.c ****                 0x0017u, /* Handle of the Client Characteristic Configuration descriptor */ 
  68:Generated_Source\PSoC4/BLE_hts.c ****                 0x0018u, /* Handle of the Valid Range descriptor */ 
  69:Generated_Source\PSoC4/BLE_hts.c ****             }, 
  70:Generated_Source\PSoC4/BLE_hts.c ****         }, 
  71:Generated_Source\PSoC4/BLE_hts.c ****     },
  72:Generated_Source\PSoC4/BLE_hts.c **** };
  73:Generated_Source\PSoC4/BLE_hts.c **** static CYBLE_GATT_DB_ATTR_HANDLE_T cyBle_htssReqHandle;
  74:Generated_Source\PSoC4/BLE_hts.c ****     
  75:Generated_Source\PSoC4/BLE_hts.c **** #endif /* CYBLE_HTS_SERVER */
  76:Generated_Source\PSoC4/BLE_hts.c **** 
  77:Generated_Source\PSoC4/BLE_hts.c **** #ifdef CYBLE_HTS_CLIENT
  78:Generated_Source\PSoC4/BLE_hts.c **** 
  79:Generated_Source\PSoC4/BLE_hts.c **** CYBLE_HTSC_T cyBle_htsc;
  80:Generated_Source\PSoC4/BLE_hts.c **** static CYBLE_GATT_DB_ATTR_HANDLE_T cyBle_htscReqHandle;
  81:Generated_Source\PSoC4/BLE_hts.c **** 
  82:Generated_Source\PSoC4/BLE_hts.c **** #endif /* (CYBLE_HTS_CLIENT) */
  83:Generated_Source\PSoC4/BLE_hts.c **** 
  84:Generated_Source\PSoC4/BLE_hts.c **** 
  85:Generated_Source\PSoC4/BLE_hts.c **** /****************************************************************************** 
  86:Generated_Source\PSoC4/BLE_hts.c **** * Function Name: CyBle_HtsInit
  87:Generated_Source\PSoC4/BLE_hts.c **** ***************************************************************************//**
  88:Generated_Source\PSoC4/BLE_hts.c **** * 
  89:Generated_Source\PSoC4/BLE_hts.c **** *  This function initializes HTS Service.
  90:Generated_Source\PSoC4/BLE_hts.c **** * 
  91:Generated_Source\PSoC4/BLE_hts.c **** ******************************************************************************/
  92:Generated_Source\PSoC4/BLE_hts.c **** void CyBle_HtsInit(void)
  93:Generated_Source\PSoC4/BLE_hts.c **** {
  55              		.loc 1 93 0
  56              		.cfi_startproc
  57              		@ args = 0, pretend = 0, frame = 0
  58              		@ frame_needed = 1, uses_anonymous_args = 0
  59 0000 80B5     		push	{r7, lr}
  60              		.cfi_def_cfa_offset 8
  61              		.cfi_offset 7, -8
  62              		.cfi_offset 14, -4
  63 0002 00AF     		add	r7, sp, #0
  64              		.cfi_def_cfa_register 7
  94:Generated_Source\PSoC4/BLE_hts.c **** 
  95:Generated_Source\PSoC4/BLE_hts.c **** #ifdef CYBLE_HTS_SERVER
  96:Generated_Source\PSoC4/BLE_hts.c **** 
  97:Generated_Source\PSoC4/BLE_hts.c ****     cyBle_htssReqHandle = CYBLE_GATT_INVALID_ATTR_HANDLE_VALUE;
  65              		.loc 1 97 0
  66 0004 024B     		ldr	r3, .L2
  67 0006 0022     		movs	r2, #0
  68 0008 1A80     		strh	r2, [r3]
  98:Generated_Source\PSoC4/BLE_hts.c ****     
  99:Generated_Source\PSoC4/BLE_hts.c **** #endif /* CYBLE_HTS_SERVER */
 100:Generated_Source\PSoC4/BLE_hts.c **** 
 101:Generated_Source\PSoC4/BLE_hts.c **** #ifdef CYBLE_HTS_CLIENT
 102:Generated_Source\PSoC4/BLE_hts.c **** 
 103:Generated_Source\PSoC4/BLE_hts.c ****     if(cyBle_serverInfo[CYBLE_SRVI_HTS].range.startHandle == CYBLE_GATT_INVALID_ATTR_HANDLE_VALUE)
ARM GAS  C:\Users\User\AppData\Local\Temp\ccR9uRpe.s 			page 4


 104:Generated_Source\PSoC4/BLE_hts.c ****     {
 105:Generated_Source\PSoC4/BLE_hts.c ****         (void)memset(&cyBle_htsc, 0, sizeof(cyBle_htsc));
 106:Generated_Source\PSoC4/BLE_hts.c ****     }
 107:Generated_Source\PSoC4/BLE_hts.c ****     cyBle_htscReqHandle = CYBLE_GATT_INVALID_ATTR_HANDLE_VALUE;
 108:Generated_Source\PSoC4/BLE_hts.c **** 
 109:Generated_Source\PSoC4/BLE_hts.c **** #endif /* CYBLE_HTS_CLIENT */
 110:Generated_Source\PSoC4/BLE_hts.c **** }
  69              		.loc 1 110 0
  70 000a C046     		nop
  71 000c BD46     		mov	sp, r7
  72              		@ sp needed
  73 000e 80BD     		pop	{r7, pc}
  74              	.L3:
  75              		.align	2
  76              	.L2:
  77 0010 04000000 		.word	cyBle_htssReqHandle
  78              		.cfi_endproc
  79              	.LFE2:
  80              		.size	CyBle_HtsInit, .-CyBle_HtsInit
  81              		.section	.text.CyBle_HtsRegisterAttrCallback,"ax",%progbits
  82              		.align	2
  83              		.global	CyBle_HtsRegisterAttrCallback
  84              		.code	16
  85              		.thumb_func
  86              		.type	CyBle_HtsRegisterAttrCallback, %function
  87              	CyBle_HtsRegisterAttrCallback:
  88              	.LFB3:
 111:Generated_Source\PSoC4/BLE_hts.c **** 
 112:Generated_Source\PSoC4/BLE_hts.c **** 
 113:Generated_Source\PSoC4/BLE_hts.c **** /******************************************************************************
 114:Generated_Source\PSoC4/BLE_hts.c **** * Function Name: CyBle_HtsRegisterAttrCallback
 115:Generated_Source\PSoC4/BLE_hts.c **** ***************************************************************************//**
 116:Generated_Source\PSoC4/BLE_hts.c **** * 
 117:Generated_Source\PSoC4/BLE_hts.c **** *  Registers a callback function for service specific attribute operations.
 118:Generated_Source\PSoC4/BLE_hts.c **** *  Service specific write requests from peer device will not be handled with
 119:Generated_Source\PSoC4/BLE_hts.c **** *  unregistered callback function.
 120:Generated_Source\PSoC4/BLE_hts.c **** * 
 121:Generated_Source\PSoC4/BLE_hts.c **** *  \param callbackFunc: An application layer event callback function to receive 
 122:Generated_Source\PSoC4/BLE_hts.c **** *                     events from the BLE Component. The definition of 
 123:Generated_Source\PSoC4/BLE_hts.c **** *                     CYBLE_CALLBACK_T for HTS Service is:\n
 124:Generated_Source\PSoC4/BLE_hts.c **** *                     typedef void (* CYBLE_CALLBACK_T) (uint32 eventCode, 
 125:Generated_Source\PSoC4/BLE_hts.c **** *                                                        void *eventParam)
 126:Generated_Source\PSoC4/BLE_hts.c **** *                     * eventCode indicates the event that triggered this 
 127:Generated_Source\PSoC4/BLE_hts.c **** *                       callback (e.g. CYBLE_EVT_HTSS_NOTIFICATION_ENABLED).
 128:Generated_Source\PSoC4/BLE_hts.c **** *                     * eventParam contains the parameters corresponding to the 
 129:Generated_Source\PSoC4/BLE_hts.c **** *                       current event. (e.g. pointer to CYBLE_HTS_CHAR_VALUE_T
 130:Generated_Source\PSoC4/BLE_hts.c **** *                       structure that contains details of the characteristic 
 131:Generated_Source\PSoC4/BLE_hts.c **** *                       for which notification enabled event was triggered).
 132:Generated_Source\PSoC4/BLE_hts.c **** * 
 133:Generated_Source\PSoC4/BLE_hts.c **** ******************************************************************************/
 134:Generated_Source\PSoC4/BLE_hts.c **** void CyBle_HtsRegisterAttrCallback(CYBLE_CALLBACK_T callbackFunc)
 135:Generated_Source\PSoC4/BLE_hts.c **** {
  89              		.loc 1 135 0
  90              		.cfi_startproc
  91              		@ args = 0, pretend = 0, frame = 8
  92              		@ frame_needed = 1, uses_anonymous_args = 0
  93 0000 80B5     		push	{r7, lr}
ARM GAS  C:\Users\User\AppData\Local\Temp\ccR9uRpe.s 			page 5


  94              		.cfi_def_cfa_offset 8
  95              		.cfi_offset 7, -8
  96              		.cfi_offset 14, -4
  97 0002 82B0     		sub	sp, sp, #8
  98              		.cfi_def_cfa_offset 16
  99 0004 00AF     		add	r7, sp, #0
 100              		.cfi_def_cfa_register 7
 101 0006 7860     		str	r0, [r7, #4]
 136:Generated_Source\PSoC4/BLE_hts.c ****     CyBle_HtsApplCallback = callbackFunc;
 102              		.loc 1 136 0
 103 0008 034B     		ldr	r3, .L5
 104 000a 7A68     		ldr	r2, [r7, #4]
 105 000c 1A60     		str	r2, [r3]
 137:Generated_Source\PSoC4/BLE_hts.c **** }
 106              		.loc 1 137 0
 107 000e C046     		nop
 108 0010 BD46     		mov	sp, r7
 109 0012 02B0     		add	sp, sp, #8
 110              		@ sp needed
 111 0014 80BD     		pop	{r7, pc}
 112              	.L6:
 113 0016 C046     		.align	2
 114              	.L5:
 115 0018 00000000 		.word	CyBle_HtsApplCallback
 116              		.cfi_endproc
 117              	.LFE3:
 118              		.size	CyBle_HtsRegisterAttrCallback, .-CyBle_HtsRegisterAttrCallback
 119              		.section	.text.CyBle_HtssSetCharacteristicValue,"ax",%progbits
 120              		.align	2
 121              		.global	CyBle_HtssSetCharacteristicValue
 122              		.code	16
 123              		.thumb_func
 124              		.type	CyBle_HtssSetCharacteristicValue, %function
 125              	CyBle_HtssSetCharacteristicValue:
 126              	.LFB4:
 138:Generated_Source\PSoC4/BLE_hts.c **** 
 139:Generated_Source\PSoC4/BLE_hts.c **** #ifdef CYBLE_HTS_SERVER
 140:Generated_Source\PSoC4/BLE_hts.c **** 
 141:Generated_Source\PSoC4/BLE_hts.c **** 
 142:Generated_Source\PSoC4/BLE_hts.c **** /******************************************************************************
 143:Generated_Source\PSoC4/BLE_hts.c **** * Function Name: CyBle_HtssSetCharacteristicValue
 144:Generated_Source\PSoC4/BLE_hts.c **** ***************************************************************************//**
 145:Generated_Source\PSoC4/BLE_hts.c **** * 
 146:Generated_Source\PSoC4/BLE_hts.c **** *  Sets the characteristic value of the service in the local database.
 147:Generated_Source\PSoC4/BLE_hts.c **** * 
 148:Generated_Source\PSoC4/BLE_hts.c **** *  \param charIndex: The index of the service characteristic.
 149:Generated_Source\PSoC4/BLE_hts.c **** *  \param attrSize: The size (in Bytes) of the characteristic value attribute.
 150:Generated_Source\PSoC4/BLE_hts.c **** *  \param attrValue: The pointer to the characteristic value data that should be
 151:Generated_Source\PSoC4/BLE_hts.c **** *               stored in the GATT database.
 152:Generated_Source\PSoC4/BLE_hts.c **** * 
 153:Generated_Source\PSoC4/BLE_hts.c **** * \return
 154:Generated_Source\PSoC4/BLE_hts.c **** *  Return value is of type CYBLE_API_RESULT_T.
 155:Generated_Source\PSoC4/BLE_hts.c **** *  * CYBLE_ERROR_OK - The request handled successfully
 156:Generated_Source\PSoC4/BLE_hts.c **** *  * CYBLE_ERROR_INVALID_PARAMETER - Validation of the input parameter failed
 157:Generated_Source\PSoC4/BLE_hts.c **** *
 158:Generated_Source\PSoC4/BLE_hts.c **** ******************************************************************************/
 159:Generated_Source\PSoC4/BLE_hts.c **** CYBLE_API_RESULT_T CyBle_HtssSetCharacteristicValue(CYBLE_HTS_CHAR_INDEX_T charIndex,
ARM GAS  C:\Users\User\AppData\Local\Temp\ccR9uRpe.s 			page 6


 160:Generated_Source\PSoC4/BLE_hts.c ****     uint8 attrSize, uint8 *attrValue)
 161:Generated_Source\PSoC4/BLE_hts.c **** {
 127              		.loc 1 161 0
 128              		.cfi_startproc
 129              		@ args = 0, pretend = 0, frame = 24
 130              		@ frame_needed = 1, uses_anonymous_args = 0
 131 0000 80B5     		push	{r7, lr}
 132              		.cfi_def_cfa_offset 8
 133              		.cfi_offset 7, -8
 134              		.cfi_offset 14, -4
 135 0002 86B0     		sub	sp, sp, #24
 136              		.cfi_def_cfa_offset 32
 137 0004 00AF     		add	r7, sp, #0
 138              		.cfi_def_cfa_register 7
 139 0006 3A60     		str	r2, [r7]
 140 0008 FB1D     		adds	r3, r7, #7
 141 000a 021C     		adds	r2, r0, #0
 142 000c 1A70     		strb	r2, [r3]
 143 000e BB1D     		adds	r3, r7, #6
 144 0010 0A1C     		adds	r2, r1, #0
 145 0012 1A70     		strb	r2, [r3]
 162:Generated_Source\PSoC4/BLE_hts.c ****     CYBLE_API_RESULT_T apiResult = CYBLE_ERROR_OK;
 146              		.loc 1 162 0
 147 0014 1623     		movs	r3, #22
 148 0016 FB18     		adds	r3, r7, r3
 149 0018 0022     		movs	r2, #0
 150 001a 1A80     		strh	r2, [r3]
 163:Generated_Source\PSoC4/BLE_hts.c ****     CYBLE_GATT_HANDLE_VALUE_PAIR_T locHandleValuePair;
 164:Generated_Source\PSoC4/BLE_hts.c **** 
 165:Generated_Source\PSoC4/BLE_hts.c ****     if(charIndex >= CYBLE_HTS_CHAR_COUNT)
 151              		.loc 1 165 0
 152 001c FB1D     		adds	r3, r7, #7
 153 001e 1B78     		ldrb	r3, [r3]
 154 0020 032B     		cmp	r3, #3
 155 0022 04D9     		bls	.L8
 166:Generated_Source\PSoC4/BLE_hts.c ****     {
 167:Generated_Source\PSoC4/BLE_hts.c ****         apiResult = CYBLE_ERROR_INVALID_PARAMETER;
 156              		.loc 1 167 0
 157 0024 1623     		movs	r3, #22
 158 0026 FB18     		adds	r3, r7, r3
 159 0028 0122     		movs	r2, #1
 160 002a 1A80     		strh	r2, [r3]
 161 002c 23E0     		b	.L9
 162              	.L8:
 168:Generated_Source\PSoC4/BLE_hts.c ****     }
 169:Generated_Source\PSoC4/BLE_hts.c ****     else
 170:Generated_Source\PSoC4/BLE_hts.c ****     {
 171:Generated_Source\PSoC4/BLE_hts.c ****         /* Store data in database */
 172:Generated_Source\PSoC4/BLE_hts.c ****         locHandleValuePair.attrHandle = cyBle_htss.charInfo[charIndex].charHandle;
 163              		.loc 1 172 0
 164 002e FB1D     		adds	r3, r7, #7
 165 0030 1A78     		ldrb	r2, [r3]
 166 0032 1449     		ldr	r1, .L11
 167 0034 1300     		movs	r3, r2
 168 0036 5B00     		lsls	r3, r3, #1
 169 0038 9B18     		adds	r3, r3, r2
 170 003a 5B00     		lsls	r3, r3, #1
ARM GAS  C:\Users\User\AppData\Local\Temp\ccR9uRpe.s 			page 7


 171 003c CB18     		adds	r3, r1, r3
 172 003e 0233     		adds	r3, r3, #2
 173 0040 1A88     		ldrh	r2, [r3]
 174 0042 0823     		movs	r3, #8
 175 0044 FB18     		adds	r3, r7, r3
 176 0046 1A81     		strh	r2, [r3, #8]
 173:Generated_Source\PSoC4/BLE_hts.c ****         locHandleValuePair.value.len = attrSize;
 177              		.loc 1 173 0
 178 0048 BB1D     		adds	r3, r7, #6
 179 004a 1B78     		ldrb	r3, [r3]
 180 004c 9AB2     		uxth	r2, r3
 181 004e 0823     		movs	r3, #8
 182 0050 FB18     		adds	r3, r7, r3
 183 0052 9A80     		strh	r2, [r3, #4]
 174:Generated_Source\PSoC4/BLE_hts.c ****         locHandleValuePair.value.val = attrValue;
 184              		.loc 1 174 0
 185 0054 0823     		movs	r3, #8
 186 0056 FB18     		adds	r3, r7, r3
 187 0058 3A68     		ldr	r2, [r7]
 188 005a 1A60     		str	r2, [r3]
 175:Generated_Source\PSoC4/BLE_hts.c ****         if(CYBLE_GATT_ERR_NONE !=
 176:Generated_Source\PSoC4/BLE_hts.c ****             CyBle_GattsWriteAttributeValue(&locHandleValuePair, 0u, NULL, CYBLE_GATT_DB_LOCALLY_INI
 189              		.loc 1 176 0
 190 005c 0823     		movs	r3, #8
 191 005e F818     		adds	r0, r7, r3
 192 0060 0023     		movs	r3, #0
 193 0062 0022     		movs	r2, #0
 194 0064 0021     		movs	r1, #0
 195 0066 FFF7FEFF 		bl	CyBle_GattsWriteAttributeValue
 196 006a 031E     		subs	r3, r0, #0
 175:Generated_Source\PSoC4/BLE_hts.c ****         if(CYBLE_GATT_ERR_NONE !=
 197              		.loc 1 175 0
 198 006c 03D0     		beq	.L9
 177:Generated_Source\PSoC4/BLE_hts.c ****         {
 178:Generated_Source\PSoC4/BLE_hts.c ****             apiResult = CYBLE_ERROR_INVALID_PARAMETER;
 199              		.loc 1 178 0
 200 006e 1623     		movs	r3, #22
 201 0070 FB18     		adds	r3, r7, r3
 202 0072 0122     		movs	r2, #1
 203 0074 1A80     		strh	r2, [r3]
 204              	.L9:
 179:Generated_Source\PSoC4/BLE_hts.c ****         }
 180:Generated_Source\PSoC4/BLE_hts.c ****     }
 181:Generated_Source\PSoC4/BLE_hts.c ****     return (apiResult);
 205              		.loc 1 181 0
 206 0076 1623     		movs	r3, #22
 207 0078 FB18     		adds	r3, r7, r3
 208 007a 1B88     		ldrh	r3, [r3]
 182:Generated_Source\PSoC4/BLE_hts.c **** }
 209              		.loc 1 182 0
 210 007c 1800     		movs	r0, r3
 211 007e BD46     		mov	sp, r7
 212 0080 06B0     		add	sp, sp, #24
 213              		@ sp needed
 214 0082 80BD     		pop	{r7, pc}
 215              	.L12:
 216              		.align	2
ARM GAS  C:\Users\User\AppData\Local\Temp\ccR9uRpe.s 			page 8


 217              	.L11:
 218 0084 00000000 		.word	cyBle_htss
 219              		.cfi_endproc
 220              	.LFE4:
 221              		.size	CyBle_HtssSetCharacteristicValue, .-CyBle_HtssSetCharacteristicValue
 222              		.section	.text.CyBle_HtssGetCharacteristicValue,"ax",%progbits
 223              		.align	2
 224              		.global	CyBle_HtssGetCharacteristicValue
 225              		.code	16
 226              		.thumb_func
 227              		.type	CyBle_HtssGetCharacteristicValue, %function
 228              	CyBle_HtssGetCharacteristicValue:
 229              	.LFB5:
 183:Generated_Source\PSoC4/BLE_hts.c **** 
 184:Generated_Source\PSoC4/BLE_hts.c **** 
 185:Generated_Source\PSoC4/BLE_hts.c **** /******************************************************************************
 186:Generated_Source\PSoC4/BLE_hts.c **** * Function Name: CyBle_HtssGetCharacteristicValue
 187:Generated_Source\PSoC4/BLE_hts.c **** ***************************************************************************//**
 188:Generated_Source\PSoC4/BLE_hts.c **** * 
 189:Generated_Source\PSoC4/BLE_hts.c **** *  Gets the characteristic value of the service, which is a value identified by
 190:Generated_Source\PSoC4/BLE_hts.c **** *  charIndex.
 191:Generated_Source\PSoC4/BLE_hts.c **** * 
 192:Generated_Source\PSoC4/BLE_hts.c **** *  \param charIndex: The index of the service characteristic.
 193:Generated_Source\PSoC4/BLE_hts.c **** *  \param attrSize: The size of the characteristic value attribute.
 194:Generated_Source\PSoC4/BLE_hts.c **** *  \param attrValue: The pointer to the location where characteristic value data
 195:Generated_Source\PSoC4/BLE_hts.c **** *               should be stored.
 196:Generated_Source\PSoC4/BLE_hts.c **** * 
 197:Generated_Source\PSoC4/BLE_hts.c **** * \return
 198:Generated_Source\PSoC4/BLE_hts.c **** *  Return value is of type CYBLE_API_RESULT_T.
 199:Generated_Source\PSoC4/BLE_hts.c **** *  * CYBLE_ERROR_OK - The request handled successfully
 200:Generated_Source\PSoC4/BLE_hts.c **** *  * CYBLE_ERROR_INVALID_PARAMETER - Validation of the input parameter failed
 201:Generated_Source\PSoC4/BLE_hts.c **** *
 202:Generated_Source\PSoC4/BLE_hts.c **** ******************************************************************************/
 203:Generated_Source\PSoC4/BLE_hts.c **** CYBLE_API_RESULT_T CyBle_HtssGetCharacteristicValue(CYBLE_HTS_CHAR_INDEX_T charIndex,
 204:Generated_Source\PSoC4/BLE_hts.c ****     uint8 attrSize, uint8 *attrValue)
 205:Generated_Source\PSoC4/BLE_hts.c **** {
 230              		.loc 1 205 0
 231              		.cfi_startproc
 232              		@ args = 0, pretend = 0, frame = 24
 233              		@ frame_needed = 1, uses_anonymous_args = 0
 234 0000 80B5     		push	{r7, lr}
 235              		.cfi_def_cfa_offset 8
 236              		.cfi_offset 7, -8
 237              		.cfi_offset 14, -4
 238 0002 86B0     		sub	sp, sp, #24
 239              		.cfi_def_cfa_offset 32
 240 0004 00AF     		add	r7, sp, #0
 241              		.cfi_def_cfa_register 7
 242 0006 3A60     		str	r2, [r7]
 243 0008 FB1D     		adds	r3, r7, #7
 244 000a 021C     		adds	r2, r0, #0
 245 000c 1A70     		strb	r2, [r3]
 246 000e BB1D     		adds	r3, r7, #6
 247 0010 0A1C     		adds	r2, r1, #0
 248 0012 1A70     		strb	r2, [r3]
 206:Generated_Source\PSoC4/BLE_hts.c ****     CYBLE_API_RESULT_T apiResult = CYBLE_ERROR_OK;
 249              		.loc 1 206 0
ARM GAS  C:\Users\User\AppData\Local\Temp\ccR9uRpe.s 			page 9


 250 0014 1623     		movs	r3, #22
 251 0016 FB18     		adds	r3, r7, r3
 252 0018 0022     		movs	r2, #0
 253 001a 1A80     		strh	r2, [r3]
 207:Generated_Source\PSoC4/BLE_hts.c ****     CYBLE_GATT_HANDLE_VALUE_PAIR_T locHandleValuePair;
 208:Generated_Source\PSoC4/BLE_hts.c **** 
 209:Generated_Source\PSoC4/BLE_hts.c ****     if(charIndex >= CYBLE_HTS_CHAR_COUNT)
 254              		.loc 1 209 0
 255 001c FB1D     		adds	r3, r7, #7
 256 001e 1B78     		ldrb	r3, [r3]
 257 0020 032B     		cmp	r3, #3
 258 0022 04D9     		bls	.L14
 210:Generated_Source\PSoC4/BLE_hts.c ****     {
 211:Generated_Source\PSoC4/BLE_hts.c ****         apiResult = CYBLE_ERROR_INVALID_PARAMETER;
 259              		.loc 1 211 0
 260 0024 1623     		movs	r3, #22
 261 0026 FB18     		adds	r3, r7, r3
 262 0028 0122     		movs	r2, #1
 263 002a 1A80     		strh	r2, [r3]
 264 002c 23E0     		b	.L15
 265              	.L14:
 212:Generated_Source\PSoC4/BLE_hts.c ****     }
 213:Generated_Source\PSoC4/BLE_hts.c ****     else
 214:Generated_Source\PSoC4/BLE_hts.c ****     {
 215:Generated_Source\PSoC4/BLE_hts.c ****         /* Read characteristic value from database */
 216:Generated_Source\PSoC4/BLE_hts.c ****         locHandleValuePair.attrHandle = cyBle_htss.charInfo[charIndex].charHandle;
 266              		.loc 1 216 0
 267 002e FB1D     		adds	r3, r7, #7
 268 0030 1A78     		ldrb	r2, [r3]
 269 0032 1449     		ldr	r1, .L17
 270 0034 1300     		movs	r3, r2
 271 0036 5B00     		lsls	r3, r3, #1
 272 0038 9B18     		adds	r3, r3, r2
 273 003a 5B00     		lsls	r3, r3, #1
 274 003c CB18     		adds	r3, r1, r3
 275 003e 0233     		adds	r3, r3, #2
 276 0040 1A88     		ldrh	r2, [r3]
 277 0042 0823     		movs	r3, #8
 278 0044 FB18     		adds	r3, r7, r3
 279 0046 1A81     		strh	r2, [r3, #8]
 217:Generated_Source\PSoC4/BLE_hts.c ****         locHandleValuePair.value.len = attrSize;
 280              		.loc 1 217 0
 281 0048 BB1D     		adds	r3, r7, #6
 282 004a 1B78     		ldrb	r3, [r3]
 283 004c 9AB2     		uxth	r2, r3
 284 004e 0823     		movs	r3, #8
 285 0050 FB18     		adds	r3, r7, r3
 286 0052 9A80     		strh	r2, [r3, #4]
 218:Generated_Source\PSoC4/BLE_hts.c ****         locHandleValuePair.value.val = attrValue;
 287              		.loc 1 218 0
 288 0054 0823     		movs	r3, #8
 289 0056 FB18     		adds	r3, r7, r3
 290 0058 3A68     		ldr	r2, [r7]
 291 005a 1A60     		str	r2, [r3]
 219:Generated_Source\PSoC4/BLE_hts.c ****         if(CYBLE_GATT_ERR_NONE !=
 220:Generated_Source\PSoC4/BLE_hts.c ****             CyBle_GattsReadAttributeValue(&locHandleValuePair, NULL, CYBLE_GATT_DB_LOCALLY_INITIATE
 292              		.loc 1 220 0
ARM GAS  C:\Users\User\AppData\Local\Temp\ccR9uRpe.s 			page 10


 293 005c 0823     		movs	r3, #8
 294 005e FB18     		adds	r3, r7, r3
 295 0060 0022     		movs	r2, #0
 296 0062 0021     		movs	r1, #0
 297 0064 1800     		movs	r0, r3
 298 0066 FFF7FEFF 		bl	CyBle_GattsReadAttributeValue
 299 006a 031E     		subs	r3, r0, #0
 219:Generated_Source\PSoC4/BLE_hts.c ****         if(CYBLE_GATT_ERR_NONE !=
 300              		.loc 1 219 0
 301 006c 03D0     		beq	.L15
 221:Generated_Source\PSoC4/BLE_hts.c ****         {
 222:Generated_Source\PSoC4/BLE_hts.c ****             apiResult = CYBLE_ERROR_INVALID_PARAMETER;
 302              		.loc 1 222 0
 303 006e 1623     		movs	r3, #22
 304 0070 FB18     		adds	r3, r7, r3
 305 0072 0122     		movs	r2, #1
 306 0074 1A80     		strh	r2, [r3]
 307              	.L15:
 223:Generated_Source\PSoC4/BLE_hts.c ****         }
 224:Generated_Source\PSoC4/BLE_hts.c ****     }
 225:Generated_Source\PSoC4/BLE_hts.c ****     return (apiResult);
 308              		.loc 1 225 0
 309 0076 1623     		movs	r3, #22
 310 0078 FB18     		adds	r3, r7, r3
 311 007a 1B88     		ldrh	r3, [r3]
 226:Generated_Source\PSoC4/BLE_hts.c **** }
 312              		.loc 1 226 0
 313 007c 1800     		movs	r0, r3
 314 007e BD46     		mov	sp, r7
 315 0080 06B0     		add	sp, sp, #24
 316              		@ sp needed
 317 0082 80BD     		pop	{r7, pc}
 318              	.L18:
 319              		.align	2
 320              	.L17:
 321 0084 00000000 		.word	cyBle_htss
 322              		.cfi_endproc
 323              	.LFE5:
 324              		.size	CyBle_HtssGetCharacteristicValue, .-CyBle_HtssGetCharacteristicValue
 325              		.section	.text.CyBle_HtssSetCharacteristicDescriptor,"ax",%progbits
 326              		.align	2
 327              		.global	CyBle_HtssSetCharacteristicDescriptor
 328              		.code	16
 329              		.thumb_func
 330              		.type	CyBle_HtssSetCharacteristicDescriptor, %function
 331              	CyBle_HtssSetCharacteristicDescriptor:
 332              	.LFB6:
 227:Generated_Source\PSoC4/BLE_hts.c **** 
 228:Generated_Source\PSoC4/BLE_hts.c **** 
 229:Generated_Source\PSoC4/BLE_hts.c **** /******************************************************************************
 230:Generated_Source\PSoC4/BLE_hts.c **** * Function Name: CyBle_HtssSetCharacteristicDescriptor
 231:Generated_Source\PSoC4/BLE_hts.c **** ***************************************************************************//**
 232:Generated_Source\PSoC4/BLE_hts.c **** * 
 233:Generated_Source\PSoC4/BLE_hts.c **** *  Sets the characteristic descriptor of the specified characteristic.
 234:Generated_Source\PSoC4/BLE_hts.c **** * 
 235:Generated_Source\PSoC4/BLE_hts.c **** *  \param charIndex:  The index of the service characteristic.
 236:Generated_Source\PSoC4/BLE_hts.c **** *  \param descrIndex: The index of the service characteristic descriptor.
ARM GAS  C:\Users\User\AppData\Local\Temp\ccR9uRpe.s 			page 11


 237:Generated_Source\PSoC4/BLE_hts.c **** *  \param attrSize:   The size of the characteristic descriptor attribute.
 238:Generated_Source\PSoC4/BLE_hts.c **** *  \param attrValue: The pointer to the descriptor value data that should 
 239:Generated_Source\PSoC4/BLE_hts.c **** *              be stored in the GATT database. 
 240:Generated_Source\PSoC4/BLE_hts.c **** * 
 241:Generated_Source\PSoC4/BLE_hts.c **** * \return
 242:Generated_Source\PSoC4/BLE_hts.c **** *  Return value is of type CYBLE_API_RESULT_T.
 243:Generated_Source\PSoC4/BLE_hts.c **** *  * CYBLE_ERROR_OK - The request handled successfully
 244:Generated_Source\PSoC4/BLE_hts.c **** *  * CYBLE_ERROR_INVALID_PARAMETER - Validation of the input parameter failed
 245:Generated_Source\PSoC4/BLE_hts.c **** *
 246:Generated_Source\PSoC4/BLE_hts.c **** ******************************************************************************/
 247:Generated_Source\PSoC4/BLE_hts.c **** CYBLE_API_RESULT_T CyBle_HtssSetCharacteristicDescriptor(CYBLE_HTS_CHAR_INDEX_T charIndex,
 248:Generated_Source\PSoC4/BLE_hts.c ****     CYBLE_HTS_DESCR_INDEX_T descrIndex, uint8 attrSize, uint8 *attrValue)
 249:Generated_Source\PSoC4/BLE_hts.c **** {
 333              		.loc 1 249 0
 334              		.cfi_startproc
 335              		@ args = 0, pretend = 0, frame = 24
 336              		@ frame_needed = 1, uses_anonymous_args = 0
 337 0000 90B5     		push	{r4, r7, lr}
 338              		.cfi_def_cfa_offset 12
 339              		.cfi_offset 4, -12
 340              		.cfi_offset 7, -8
 341              		.cfi_offset 14, -4
 342 0002 87B0     		sub	sp, sp, #28
 343              		.cfi_def_cfa_offset 40
 344 0004 00AF     		add	r7, sp, #0
 345              		.cfi_def_cfa_register 7
 346 0006 0400     		movs	r4, r0
 347 0008 0800     		movs	r0, r1
 348 000a 1100     		movs	r1, r2
 349 000c 3B60     		str	r3, [r7]
 350 000e FB1D     		adds	r3, r7, #7
 351 0010 221C     		adds	r2, r4, #0
 352 0012 1A70     		strb	r2, [r3]
 353 0014 BB1D     		adds	r3, r7, #6
 354 0016 021C     		adds	r2, r0, #0
 355 0018 1A70     		strb	r2, [r3]
 356 001a 7B1D     		adds	r3, r7, #5
 357 001c 0A1C     		adds	r2, r1, #0
 358 001e 1A70     		strb	r2, [r3]
 250:Generated_Source\PSoC4/BLE_hts.c ****     CYBLE_API_RESULT_T apiResult = CYBLE_ERROR_OK;
 359              		.loc 1 250 0
 360 0020 1623     		movs	r3, #22
 361 0022 FB18     		adds	r3, r7, r3
 362 0024 0022     		movs	r2, #0
 363 0026 1A80     		strh	r2, [r3]
 251:Generated_Source\PSoC4/BLE_hts.c ****     CYBLE_GATT_HANDLE_VALUE_PAIR_T locHandleValuePair;
 252:Generated_Source\PSoC4/BLE_hts.c **** 
 253:Generated_Source\PSoC4/BLE_hts.c ****     if((charIndex >= CYBLE_HTS_CHAR_COUNT) || (descrIndex >= CYBLE_HTS_DESCR_COUNT))
 364              		.loc 1 253 0
 365 0028 FB1D     		adds	r3, r7, #7
 366 002a 1B78     		ldrb	r3, [r3]
 367 002c 032B     		cmp	r3, #3
 368 002e 03D8     		bhi	.L20
 369              		.loc 1 253 0 is_stmt 0 discriminator 1
 370 0030 BB1D     		adds	r3, r7, #6
 371 0032 1B78     		ldrb	r3, [r3]
 372 0034 012B     		cmp	r3, #1
ARM GAS  C:\Users\User\AppData\Local\Temp\ccR9uRpe.s 			page 12


 373 0036 04D9     		bls	.L21
 374              	.L20:
 254:Generated_Source\PSoC4/BLE_hts.c ****     {
 255:Generated_Source\PSoC4/BLE_hts.c ****         apiResult = CYBLE_ERROR_INVALID_PARAMETER;
 375              		.loc 1 255 0 is_stmt 1
 376 0038 1623     		movs	r3, #22
 377 003a FB18     		adds	r3, r7, r3
 378 003c 0122     		movs	r2, #1
 379 003e 1A80     		strh	r2, [r3]
 380 0040 30E0     		b	.L22
 381              	.L21:
 256:Generated_Source\PSoC4/BLE_hts.c ****     }
 257:Generated_Source\PSoC4/BLE_hts.c ****     else
 258:Generated_Source\PSoC4/BLE_hts.c ****     {
 259:Generated_Source\PSoC4/BLE_hts.c ****         locHandleValuePair.attrHandle = cyBle_htss.charInfo[charIndex].descrHandle[descrIndex];
 382              		.loc 1 259 0
 383 0042 FB1D     		adds	r3, r7, #7
 384 0044 1A78     		ldrb	r2, [r3]
 385 0046 BB1D     		adds	r3, r7, #6
 386 0048 1878     		ldrb	r0, [r3]
 387 004a 1A49     		ldr	r1, .L26
 388 004c 1300     		movs	r3, r2
 389 004e 5B00     		lsls	r3, r3, #1
 390 0050 9B18     		adds	r3, r3, r2
 391 0052 1B18     		adds	r3, r3, r0
 392 0054 5B00     		lsls	r3, r3, #1
 393 0056 CB18     		adds	r3, r1, r3
 394 0058 0433     		adds	r3, r3, #4
 395 005a 1A88     		ldrh	r2, [r3]
 396 005c 0823     		movs	r3, #8
 397 005e FB18     		adds	r3, r7, r3
 398 0060 1A81     		strh	r2, [r3, #8]
 260:Generated_Source\PSoC4/BLE_hts.c ****         if(locHandleValuePair.attrHandle != CYBLE_GATT_INVALID_ATTR_HANDLE_VALUE)
 399              		.loc 1 260 0
 400 0062 0823     		movs	r3, #8
 401 0064 FB18     		adds	r3, r7, r3
 402 0066 1B89     		ldrh	r3, [r3, #8]
 403 0068 002B     		cmp	r3, #0
 404 006a 17D0     		beq	.L23
 261:Generated_Source\PSoC4/BLE_hts.c ****         {
 262:Generated_Source\PSoC4/BLE_hts.c ****             locHandleValuePair.value.len = attrSize;
 405              		.loc 1 262 0
 406 006c 7B1D     		adds	r3, r7, #5
 407 006e 1B78     		ldrb	r3, [r3]
 408 0070 9AB2     		uxth	r2, r3
 409 0072 0823     		movs	r3, #8
 410 0074 FB18     		adds	r3, r7, r3
 411 0076 9A80     		strh	r2, [r3, #4]
 263:Generated_Source\PSoC4/BLE_hts.c ****             locHandleValuePair.value.val = attrValue;
 412              		.loc 1 263 0
 413 0078 0823     		movs	r3, #8
 414 007a FB18     		adds	r3, r7, r3
 415 007c 3A68     		ldr	r2, [r7]
 416 007e 1A60     		str	r2, [r3]
 264:Generated_Source\PSoC4/BLE_hts.c ****             if(CYBLE_GATT_ERR_NONE !=
 265:Generated_Source\PSoC4/BLE_hts.c ****                 CyBle_GattsWriteAttributeValue(&locHandleValuePair, 0u, NULL, CYBLE_GATT_DB_LOCALLY
 417              		.loc 1 265 0
ARM GAS  C:\Users\User\AppData\Local\Temp\ccR9uRpe.s 			page 13


 418 0080 0823     		movs	r3, #8
 419 0082 F818     		adds	r0, r7, r3
 420 0084 0023     		movs	r3, #0
 421 0086 0022     		movs	r2, #0
 422 0088 0021     		movs	r1, #0
 423 008a FFF7FEFF 		bl	CyBle_GattsWriteAttributeValue
 424 008e 031E     		subs	r3, r0, #0
 264:Generated_Source\PSoC4/BLE_hts.c ****             if(CYBLE_GATT_ERR_NONE !=
 425              		.loc 1 264 0
 426 0090 08D0     		beq	.L22
 266:Generated_Source\PSoC4/BLE_hts.c ****             {
 267:Generated_Source\PSoC4/BLE_hts.c ****                 apiResult = CYBLE_ERROR_INVALID_PARAMETER;
 427              		.loc 1 267 0
 428 0092 1623     		movs	r3, #22
 429 0094 FB18     		adds	r3, r7, r3
 430 0096 0122     		movs	r2, #1
 431 0098 1A80     		strh	r2, [r3]
 432 009a 03E0     		b	.L22
 433              	.L23:
 268:Generated_Source\PSoC4/BLE_hts.c ****             }
 269:Generated_Source\PSoC4/BLE_hts.c ****         }
 270:Generated_Source\PSoC4/BLE_hts.c ****         else
 271:Generated_Source\PSoC4/BLE_hts.c ****         {
 272:Generated_Source\PSoC4/BLE_hts.c ****             apiResult = CYBLE_ERROR_INVALID_PARAMETER;
 434              		.loc 1 272 0
 435 009c 1623     		movs	r3, #22
 436 009e FB18     		adds	r3, r7, r3
 437 00a0 0122     		movs	r2, #1
 438 00a2 1A80     		strh	r2, [r3]
 439              	.L22:
 273:Generated_Source\PSoC4/BLE_hts.c ****         }
 274:Generated_Source\PSoC4/BLE_hts.c ****     }
 275:Generated_Source\PSoC4/BLE_hts.c ****     return (apiResult);
 440              		.loc 1 275 0
 441 00a4 1623     		movs	r3, #22
 442 00a6 FB18     		adds	r3, r7, r3
 443 00a8 1B88     		ldrh	r3, [r3]
 276:Generated_Source\PSoC4/BLE_hts.c **** }
 444              		.loc 1 276 0
 445 00aa 1800     		movs	r0, r3
 446 00ac BD46     		mov	sp, r7
 447 00ae 07B0     		add	sp, sp, #28
 448              		@ sp needed
 449 00b0 90BD     		pop	{r4, r7, pc}
 450              	.L27:
 451 00b2 C046     		.align	2
 452              	.L26:
 453 00b4 00000000 		.word	cyBle_htss
 454              		.cfi_endproc
 455              	.LFE6:
 456              		.size	CyBle_HtssSetCharacteristicDescriptor, .-CyBle_HtssSetCharacteristicDescriptor
 457              		.section	.text.CyBle_HtssGetCharacteristicDescriptor,"ax",%progbits
 458              		.align	2
 459              		.global	CyBle_HtssGetCharacteristicDescriptor
 460              		.code	16
 461              		.thumb_func
 462              		.type	CyBle_HtssGetCharacteristicDescriptor, %function
ARM GAS  C:\Users\User\AppData\Local\Temp\ccR9uRpe.s 			page 14


 463              	CyBle_HtssGetCharacteristicDescriptor:
 464              	.LFB7:
 277:Generated_Source\PSoC4/BLE_hts.c **** 
 278:Generated_Source\PSoC4/BLE_hts.c **** 
 279:Generated_Source\PSoC4/BLE_hts.c **** /******************************************************************************
 280:Generated_Source\PSoC4/BLE_hts.c **** * Function Name: CyBle_HtssGetCharacteristicDescriptor
 281:Generated_Source\PSoC4/BLE_hts.c **** ***************************************************************************//**
 282:Generated_Source\PSoC4/BLE_hts.c **** * 
 283:Generated_Source\PSoC4/BLE_hts.c **** *  Gets the characteristic descriptor of the specified characteristic.
 284:Generated_Source\PSoC4/BLE_hts.c **** * 
 285:Generated_Source\PSoC4/BLE_hts.c **** *  \param charIndex: The index of the service characteristic.
 286:Generated_Source\PSoC4/BLE_hts.c **** *  \param descrIndex: The index of the service characteristic descriptor.
 287:Generated_Source\PSoC4/BLE_hts.c **** *  \param attrSize: The size of the characteristic descriptor attribute.
 288:Generated_Source\PSoC4/BLE_hts.c **** *  \param attrValue: The pointer to the location where characteristic descriptor
 289:Generated_Source\PSoC4/BLE_hts.c **** *               value data should be stored.
 290:Generated_Source\PSoC4/BLE_hts.c **** * 
 291:Generated_Source\PSoC4/BLE_hts.c **** * \return
 292:Generated_Source\PSoC4/BLE_hts.c **** *  Return value is of type CYBLE_API_RESULT_T.
 293:Generated_Source\PSoC4/BLE_hts.c **** *  * CYBLE_ERROR_OK - The request handled successfully
 294:Generated_Source\PSoC4/BLE_hts.c **** *  * CYBLE_ERROR_INVALID_PARAMETER - Validation of the input parameter failed
 295:Generated_Source\PSoC4/BLE_hts.c **** *
 296:Generated_Source\PSoC4/BLE_hts.c **** ******************************************************************************/
 297:Generated_Source\PSoC4/BLE_hts.c **** CYBLE_API_RESULT_T CyBle_HtssGetCharacteristicDescriptor(CYBLE_HTS_CHAR_INDEX_T charIndex,
 298:Generated_Source\PSoC4/BLE_hts.c ****     CYBLE_HTS_DESCR_INDEX_T descrIndex, uint8 attrSize, uint8 *attrValue)
 299:Generated_Source\PSoC4/BLE_hts.c **** {
 465              		.loc 1 299 0
 466              		.cfi_startproc
 467              		@ args = 0, pretend = 0, frame = 24
 468              		@ frame_needed = 1, uses_anonymous_args = 0
 469 0000 90B5     		push	{r4, r7, lr}
 470              		.cfi_def_cfa_offset 12
 471              		.cfi_offset 4, -12
 472              		.cfi_offset 7, -8
 473              		.cfi_offset 14, -4
 474 0002 87B0     		sub	sp, sp, #28
 475              		.cfi_def_cfa_offset 40
 476 0004 00AF     		add	r7, sp, #0
 477              		.cfi_def_cfa_register 7
 478 0006 0400     		movs	r4, r0
 479 0008 0800     		movs	r0, r1
 480 000a 1100     		movs	r1, r2
 481 000c 3B60     		str	r3, [r7]
 482 000e FB1D     		adds	r3, r7, #7
 483 0010 221C     		adds	r2, r4, #0
 484 0012 1A70     		strb	r2, [r3]
 485 0014 BB1D     		adds	r3, r7, #6
 486 0016 021C     		adds	r2, r0, #0
 487 0018 1A70     		strb	r2, [r3]
 488 001a 7B1D     		adds	r3, r7, #5
 489 001c 0A1C     		adds	r2, r1, #0
 490 001e 1A70     		strb	r2, [r3]
 300:Generated_Source\PSoC4/BLE_hts.c ****     CYBLE_API_RESULT_T apiResult = CYBLE_ERROR_OK;
 491              		.loc 1 300 0
 492 0020 1623     		movs	r3, #22
 493 0022 FB18     		adds	r3, r7, r3
 494 0024 0022     		movs	r2, #0
 495 0026 1A80     		strh	r2, [r3]
ARM GAS  C:\Users\User\AppData\Local\Temp\ccR9uRpe.s 			page 15


 301:Generated_Source\PSoC4/BLE_hts.c ****     CYBLE_GATT_HANDLE_VALUE_PAIR_T locHandleValuePair;
 302:Generated_Source\PSoC4/BLE_hts.c **** 
 303:Generated_Source\PSoC4/BLE_hts.c ****     if((charIndex >= CYBLE_HTS_CHAR_COUNT) || (descrIndex >= CYBLE_HTS_DESCR_COUNT))
 496              		.loc 1 303 0
 497 0028 FB1D     		adds	r3, r7, #7
 498 002a 1B78     		ldrb	r3, [r3]
 499 002c 032B     		cmp	r3, #3
 500 002e 03D8     		bhi	.L29
 501              		.loc 1 303 0 is_stmt 0 discriminator 1
 502 0030 BB1D     		adds	r3, r7, #6
 503 0032 1B78     		ldrb	r3, [r3]
 504 0034 012B     		cmp	r3, #1
 505 0036 04D9     		bls	.L30
 506              	.L29:
 304:Generated_Source\PSoC4/BLE_hts.c ****     {
 305:Generated_Source\PSoC4/BLE_hts.c ****         apiResult = CYBLE_ERROR_INVALID_PARAMETER;
 507              		.loc 1 305 0 is_stmt 1
 508 0038 1623     		movs	r3, #22
 509 003a FB18     		adds	r3, r7, r3
 510 003c 0122     		movs	r2, #1
 511 003e 1A80     		strh	r2, [r3]
 512 0040 30E0     		b	.L31
 513              	.L30:
 306:Generated_Source\PSoC4/BLE_hts.c ****     }
 307:Generated_Source\PSoC4/BLE_hts.c ****     else
 308:Generated_Source\PSoC4/BLE_hts.c ****     {
 309:Generated_Source\PSoC4/BLE_hts.c ****         locHandleValuePair.attrHandle = cyBle_htss.charInfo[charIndex].descrHandle[descrIndex];
 514              		.loc 1 309 0
 515 0042 FB1D     		adds	r3, r7, #7
 516 0044 1A78     		ldrb	r2, [r3]
 517 0046 BB1D     		adds	r3, r7, #6
 518 0048 1878     		ldrb	r0, [r3]
 519 004a 1A49     		ldr	r1, .L35
 520 004c 1300     		movs	r3, r2
 521 004e 5B00     		lsls	r3, r3, #1
 522 0050 9B18     		adds	r3, r3, r2
 523 0052 1B18     		adds	r3, r3, r0
 524 0054 5B00     		lsls	r3, r3, #1
 525 0056 CB18     		adds	r3, r1, r3
 526 0058 0433     		adds	r3, r3, #4
 527 005a 1A88     		ldrh	r2, [r3]
 528 005c 0823     		movs	r3, #8
 529 005e FB18     		adds	r3, r7, r3
 530 0060 1A81     		strh	r2, [r3, #8]
 310:Generated_Source\PSoC4/BLE_hts.c ****         if(locHandleValuePair.attrHandle != CYBLE_GATT_INVALID_ATTR_HANDLE_VALUE)
 531              		.loc 1 310 0
 532 0062 0823     		movs	r3, #8
 533 0064 FB18     		adds	r3, r7, r3
 534 0066 1B89     		ldrh	r3, [r3, #8]
 535 0068 002B     		cmp	r3, #0
 536 006a 17D0     		beq	.L32
 311:Generated_Source\PSoC4/BLE_hts.c ****         {
 312:Generated_Source\PSoC4/BLE_hts.c ****             locHandleValuePair.value.len = attrSize;
 537              		.loc 1 312 0
 538 006c 7B1D     		adds	r3, r7, #5
 539 006e 1B78     		ldrb	r3, [r3]
 540 0070 9AB2     		uxth	r2, r3
ARM GAS  C:\Users\User\AppData\Local\Temp\ccR9uRpe.s 			page 16


 541 0072 0823     		movs	r3, #8
 542 0074 FB18     		adds	r3, r7, r3
 543 0076 9A80     		strh	r2, [r3, #4]
 313:Generated_Source\PSoC4/BLE_hts.c ****             locHandleValuePair.value.val = attrValue;
 544              		.loc 1 313 0
 545 0078 0823     		movs	r3, #8
 546 007a FB18     		adds	r3, r7, r3
 547 007c 3A68     		ldr	r2, [r7]
 548 007e 1A60     		str	r2, [r3]
 314:Generated_Source\PSoC4/BLE_hts.c ****             if(CYBLE_GATT_ERR_NONE !=
 315:Generated_Source\PSoC4/BLE_hts.c ****                 CyBle_GattsReadAttributeValue(&locHandleValuePair, NULL, CYBLE_GATT_DB_LOCALLY_INIT
 549              		.loc 1 315 0
 550 0080 0823     		movs	r3, #8
 551 0082 FB18     		adds	r3, r7, r3
 552 0084 0022     		movs	r2, #0
 553 0086 0021     		movs	r1, #0
 554 0088 1800     		movs	r0, r3
 555 008a FFF7FEFF 		bl	CyBle_GattsReadAttributeValue
 556 008e 031E     		subs	r3, r0, #0
 314:Generated_Source\PSoC4/BLE_hts.c ****             if(CYBLE_GATT_ERR_NONE !=
 557              		.loc 1 314 0
 558 0090 08D0     		beq	.L31
 316:Generated_Source\PSoC4/BLE_hts.c ****             {
 317:Generated_Source\PSoC4/BLE_hts.c ****                 apiResult = CYBLE_ERROR_INVALID_PARAMETER;
 559              		.loc 1 317 0
 560 0092 1623     		movs	r3, #22
 561 0094 FB18     		adds	r3, r7, r3
 562 0096 0122     		movs	r2, #1
 563 0098 1A80     		strh	r2, [r3]
 564 009a 03E0     		b	.L31
 565              	.L32:
 318:Generated_Source\PSoC4/BLE_hts.c ****             }
 319:Generated_Source\PSoC4/BLE_hts.c ****         }
 320:Generated_Source\PSoC4/BLE_hts.c ****         else
 321:Generated_Source\PSoC4/BLE_hts.c ****         {
 322:Generated_Source\PSoC4/BLE_hts.c ****             apiResult = CYBLE_ERROR_INVALID_PARAMETER;
 566              		.loc 1 322 0
 567 009c 1623     		movs	r3, #22
 568 009e FB18     		adds	r3, r7, r3
 569 00a0 0122     		movs	r2, #1
 570 00a2 1A80     		strh	r2, [r3]
 571              	.L31:
 323:Generated_Source\PSoC4/BLE_hts.c ****         }
 324:Generated_Source\PSoC4/BLE_hts.c ****     }
 325:Generated_Source\PSoC4/BLE_hts.c ****     return (apiResult);
 572              		.loc 1 325 0
 573 00a4 1623     		movs	r3, #22
 574 00a6 FB18     		adds	r3, r7, r3
 575 00a8 1B88     		ldrh	r3, [r3]
 326:Generated_Source\PSoC4/BLE_hts.c **** }
 576              		.loc 1 326 0
 577 00aa 1800     		movs	r0, r3
 578 00ac BD46     		mov	sp, r7
 579 00ae 07B0     		add	sp, sp, #28
 580              		@ sp needed
 581 00b0 90BD     		pop	{r4, r7, pc}
 582              	.L36:
ARM GAS  C:\Users\User\AppData\Local\Temp\ccR9uRpe.s 			page 17


 583 00b2 C046     		.align	2
 584              	.L35:
 585 00b4 00000000 		.word	cyBle_htss
 586              		.cfi_endproc
 587              	.LFE7:
 588              		.size	CyBle_HtssGetCharacteristicDescriptor, .-CyBle_HtssGetCharacteristicDescriptor
 589              		.section	.text.CyBle_HtssWriteEventHandler,"ax",%progbits
 590              		.align	2
 591              		.global	CyBle_HtssWriteEventHandler
 592              		.code	16
 593              		.thumb_func
 594              		.type	CyBle_HtssWriteEventHandler, %function
 595              	CyBle_HtssWriteEventHandler:
 596              	.LFB8:
 327:Generated_Source\PSoC4/BLE_hts.c **** 
 328:Generated_Source\PSoC4/BLE_hts.c **** 
 329:Generated_Source\PSoC4/BLE_hts.c **** /******************************************************************************
 330:Generated_Source\PSoC4/BLE_hts.c **** * Function Name: CyBle_HtssWriteEventHandler
 331:Generated_Source\PSoC4/BLE_hts.c **** ***************************************************************************//**
 332:Generated_Source\PSoC4/BLE_hts.c **** * 
 333:Generated_Source\PSoC4/BLE_hts.c **** *  Handles Write Request Event for HTS service.
 334:Generated_Source\PSoC4/BLE_hts.c **** * 
 335:Generated_Source\PSoC4/BLE_hts.c **** *  \param void *eventParam: The pointer to the data structure specified by the event.
 336:Generated_Source\PSoC4/BLE_hts.c **** * 
 337:Generated_Source\PSoC4/BLE_hts.c **** ******************************************************************************/
 338:Generated_Source\PSoC4/BLE_hts.c **** CYBLE_GATT_ERR_CODE_T CyBle_HtssWriteEventHandler(CYBLE_GATTS_WRITE_REQ_PARAM_T *eventParam)
 339:Generated_Source\PSoC4/BLE_hts.c **** {
 597              		.loc 1 339 0
 598              		.cfi_startproc
 599              		@ args = 0, pretend = 0, frame = 32
 600              		@ frame_needed = 1, uses_anonymous_args = 0
 601 0000 90B5     		push	{r4, r7, lr}
 602              		.cfi_def_cfa_offset 12
 603              		.cfi_offset 4, -12
 604              		.cfi_offset 7, -8
 605              		.cfi_offset 14, -4
 606 0002 89B0     		sub	sp, sp, #36
 607              		.cfi_def_cfa_offset 48
 608 0004 00AF     		add	r7, sp, #0
 609              		.cfi_def_cfa_register 7
 610 0006 7860     		str	r0, [r7, #4]
 340:Generated_Source\PSoC4/BLE_hts.c ****     CYBLE_HTS_CHAR_INDEX_T locCharIndex;
 341:Generated_Source\PSoC4/BLE_hts.c ****     CYBLE_HTS_CHAR_VALUE_T locCharValue;
 342:Generated_Source\PSoC4/BLE_hts.c ****     CYBLE_GATT_ERR_CODE_T gattErr = CYBLE_GATT_ERR_NONE;
 611              		.loc 1 342 0
 612 0008 1E23     		movs	r3, #30
 613 000a FB18     		adds	r3, r7, r3
 614 000c 0022     		movs	r2, #0
 615 000e 1A70     		strb	r2, [r3]
 343:Generated_Source\PSoC4/BLE_hts.c ****     uint8 locReqHandle = 0u;
 616              		.loc 1 343 0
 617 0010 1D23     		movs	r3, #29
 618 0012 FB18     		adds	r3, r7, r3
 619 0014 0022     		movs	r2, #0
 620 0016 1A70     		strb	r2, [r3]
 344:Generated_Source\PSoC4/BLE_hts.c **** 
 345:Generated_Source\PSoC4/BLE_hts.c ****     if(NULL != CyBle_HtsApplCallback)
ARM GAS  C:\Users\User\AppData\Local\Temp\ccR9uRpe.s 			page 18


 621              		.loc 1 345 0
 622 0018 B34B     		ldr	r3, .L54
 623 001a 1B68     		ldr	r3, [r3]
 624 001c 002B     		cmp	r3, #0
 625 001e 00D1     		bne	.LCB516
 626 0020 5BE1     		b	.L38	@long jump
 627              	.LCB516:
 346:Generated_Source\PSoC4/BLE_hts.c ****     {
 347:Generated_Source\PSoC4/BLE_hts.c ****         for(locCharIndex = CYBLE_HTS_TEMP_MEASURE; (locCharIndex < CYBLE_HTS_CHAR_COUNT) && (locReq
 628              		.loc 1 347 0
 629 0022 1F23     		movs	r3, #31
 630 0024 FB18     		adds	r3, r7, r3
 631 0026 0022     		movs	r2, #0
 632 0028 1A70     		strb	r2, [r3]
 633 002a 4BE1     		b	.L39
 634              	.L52:
 348:Generated_Source\PSoC4/BLE_hts.c ****             locCharIndex++)
 349:Generated_Source\PSoC4/BLE_hts.c ****         {
 350:Generated_Source\PSoC4/BLE_hts.c ****             
 351:Generated_Source\PSoC4/BLE_hts.c ****             if((eventParam->handleValPair.attrHandle == cyBle_htss.charInfo[locCharIndex].descrHand
 635              		.loc 1 351 0
 636 002c 7B68     		ldr	r3, [r7, #4]
 637 002e 9989     		ldrh	r1, [r3, #12]
 638 0030 1F23     		movs	r3, #31
 639 0032 FB18     		adds	r3, r7, r3
 640 0034 1A78     		ldrb	r2, [r3]
 641 0036 AD48     		ldr	r0, .L54+4
 642 0038 1300     		movs	r3, r2
 643 003a 5B00     		lsls	r3, r3, #1
 644 003c 9B18     		adds	r3, r3, r2
 645 003e 5B00     		lsls	r3, r3, #1
 646 0040 C318     		adds	r3, r0, r3
 647 0042 0433     		adds	r3, r3, #4
 648 0044 1B88     		ldrh	r3, [r3]
 649 0046 9942     		cmp	r1, r3
 650 0048 0FD0     		beq	.L40
 352:Generated_Source\PSoC4/BLE_hts.c ****                (eventParam->handleValPair.attrHandle == cyBle_htss.charInfo[locCharIndex].charHandl
 651              		.loc 1 352 0 discriminator 1
 652 004a 7B68     		ldr	r3, [r7, #4]
 653 004c 9989     		ldrh	r1, [r3, #12]
 654 004e 1F23     		movs	r3, #31
 655 0050 FB18     		adds	r3, r7, r3
 656 0052 1A78     		ldrb	r2, [r3]
 657 0054 A548     		ldr	r0, .L54+4
 658 0056 1300     		movs	r3, r2
 659 0058 5B00     		lsls	r3, r3, #1
 660 005a 9B18     		adds	r3, r3, r2
 661 005c 5B00     		lsls	r3, r3, #1
 662 005e C318     		adds	r3, r0, r3
 663 0060 0233     		adds	r3, r3, #2
 664 0062 1B88     		ldrh	r3, [r3]
 351:Generated_Source\PSoC4/BLE_hts.c ****                (eventParam->handleValPair.attrHandle == cyBle_htss.charInfo[locCharIndex].charHandl
 665              		.loc 1 351 0 discriminator 1
 666 0064 9942     		cmp	r1, r3
 667 0066 00D0     		beq	.LCB554
 668 0068 25E1     		b	.L41	@long jump
 669              	.LCB554:
ARM GAS  C:\Users\User\AppData\Local\Temp\ccR9uRpe.s 			page 19


 670              	.L40:
 353:Generated_Source\PSoC4/BLE_hts.c ****             {
 354:Generated_Source\PSoC4/BLE_hts.c ****                 locCharValue.connHandle = eventParam->connHandle;
 671              		.loc 1 354 0
 672 006a 0C23     		movs	r3, #12
 673 006c FB18     		adds	r3, r7, r3
 674 006e 7A68     		ldr	r2, [r7, #4]
 675 0070 1288     		ldrh	r2, [r2]
 676 0072 1A80     		strh	r2, [r3]
 355:Generated_Source\PSoC4/BLE_hts.c ****                 locCharValue.charIndex = locCharIndex;
 677              		.loc 1 355 0
 678 0074 0C23     		movs	r3, #12
 679 0076 FB18     		adds	r3, r7, r3
 680 0078 1F22     		movs	r2, #31
 681 007a BA18     		adds	r2, r7, r2
 682 007c 1278     		ldrb	r2, [r2]
 683 007e 9A70     		strb	r2, [r3, #2]
 356:Generated_Source\PSoC4/BLE_hts.c ****                 locCharValue.value = &eventParam->handleValPair.value;
 684              		.loc 1 356 0
 685 0080 7B68     		ldr	r3, [r7, #4]
 686 0082 1A1D     		adds	r2, r3, #4
 687 0084 0C23     		movs	r3, #12
 688 0086 FB18     		adds	r3, r7, r3
 689 0088 5A60     		str	r2, [r3, #4]
 357:Generated_Source\PSoC4/BLE_hts.c ****                 /* Characteristic value write request */
 358:Generated_Source\PSoC4/BLE_hts.c ****                 if(eventParam->handleValPair.attrHandle == cyBle_htss.charInfo[locCharIndex].charHa
 690              		.loc 1 358 0
 691 008a 7B68     		ldr	r3, [r7, #4]
 692 008c 9989     		ldrh	r1, [r3, #12]
 693 008e 1F23     		movs	r3, #31
 694 0090 FB18     		adds	r3, r7, r3
 695 0092 1A78     		ldrb	r2, [r3]
 696 0094 9548     		ldr	r0, .L54+4
 697 0096 1300     		movs	r3, r2
 698 0098 5B00     		lsls	r3, r3, #1
 699 009a 9B18     		adds	r3, r3, r2
 700 009c 5B00     		lsls	r3, r3, #1
 701 009e C318     		adds	r3, r0, r3
 702 00a0 0233     		adds	r3, r3, #2
 703 00a2 1B88     		ldrh	r3, [r3]
 704 00a4 9942     		cmp	r1, r3
 705 00a6 00D0     		beq	.LCB586
 706 00a8 73E0     		b	.L42	@long jump
 707              	.LCB586:
 359:Generated_Source\PSoC4/BLE_hts.c ****                 {
 360:Generated_Source\PSoC4/BLE_hts.c ****                     /* Validate Measure Interval value */
 361:Generated_Source\PSoC4/BLE_hts.c ****                     if(locCharIndex == CYBLE_HTS_MEASURE_INTERVAL)
 708              		.loc 1 361 0
 709 00aa 1F23     		movs	r3, #31
 710 00ac FB18     		adds	r3, r7, r3
 711 00ae 1B78     		ldrb	r3, [r3]
 712 00b0 032B     		cmp	r3, #3
 713 00b2 4ED1     		bne	.L43
 714              	.LBB2:
 362:Generated_Source\PSoC4/BLE_hts.c ****                     {
 363:Generated_Source\PSoC4/BLE_hts.c ****                         uint8 locAttrValue[CYBLE_HTS_VRD_LEN];
 364:Generated_Source\PSoC4/BLE_hts.c ****                         uint16 requestValue;
ARM GAS  C:\Users\User\AppData\Local\Temp\ccR9uRpe.s 			page 20


 365:Generated_Source\PSoC4/BLE_hts.c ****                         
 366:Generated_Source\PSoC4/BLE_hts.c ****                         requestValue = CyBle_Get16ByPtr(eventParam->handleValPair.value.val);
 715              		.loc 1 366 0
 716 00b4 7B68     		ldr	r3, [r7, #4]
 717 00b6 5B68     		ldr	r3, [r3, #4]
 718 00b8 1A22     		movs	r2, #26
 719 00ba BC18     		adds	r4, r7, r2
 720 00bc 1800     		movs	r0, r3
 721 00be FFF7FEFF 		bl	CyBle_Get16ByPtr
 722 00c2 0300     		movs	r3, r0
 723 00c4 2380     		strh	r3, [r4]
 367:Generated_Source\PSoC4/BLE_hts.c ****                         
 368:Generated_Source\PSoC4/BLE_hts.c ****                         if(requestValue != 0u) /* 0 is valid interval value for no periodic measure
 724              		.loc 1 368 0
 725 00c6 1A23     		movs	r3, #26
 726 00c8 FB18     		adds	r3, r7, r3
 727 00ca 1B88     		ldrh	r3, [r3]
 728 00cc 002B     		cmp	r3, #0
 729 00ce 40D0     		beq	.L43
 369:Generated_Source\PSoC4/BLE_hts.c ****                         {
 370:Generated_Source\PSoC4/BLE_hts.c ****                             /* Check Valid range for Measure Interval characteristic value */
 371:Generated_Source\PSoC4/BLE_hts.c ****                             if(CyBle_HtssGetCharacteristicDescriptor(locCharIndex, CYBLE_HTS_VRD, 
 730              		.loc 1 371 0
 731 00d0 0823     		movs	r3, #8
 732 00d2 FA18     		adds	r2, r7, r3
 733 00d4 1F23     		movs	r3, #31
 734 00d6 FB18     		adds	r3, r7, r3
 735 00d8 1878     		ldrb	r0, [r3]
 736 00da 1300     		movs	r3, r2
 737 00dc 0422     		movs	r2, #4
 738 00de 0121     		movs	r1, #1
 739 00e0 FFF7FEFF 		bl	CyBle_HtssGetCharacteristicDescriptor
 740 00e4 031E     		subs	r3, r0, #0
 741 00e6 34D1     		bne	.L43
 742              	.LBB3:
 372:Generated_Source\PSoC4/BLE_hts.c ****                                                     CYBLE_HTS_VRD_LEN, locAttrValue) == CYBLE_ERROR
 373:Generated_Source\PSoC4/BLE_hts.c ****                             {
 374:Generated_Source\PSoC4/BLE_hts.c ****                                 uint16 lowerValue;
 375:Generated_Source\PSoC4/BLE_hts.c ****                                 uint16 upperValue;
 376:Generated_Source\PSoC4/BLE_hts.c ****                                 
 377:Generated_Source\PSoC4/BLE_hts.c ****                                 lowerValue = CyBle_Get16ByPtr(locAttrValue);
 743              		.loc 1 377 0
 744 00e8 1823     		movs	r3, #24
 745 00ea FC18     		adds	r4, r7, r3
 746 00ec 0823     		movs	r3, #8
 747 00ee FB18     		adds	r3, r7, r3
 748 00f0 1800     		movs	r0, r3
 749 00f2 FFF7FEFF 		bl	CyBle_Get16ByPtr
 750 00f6 0300     		movs	r3, r0
 751 00f8 2380     		strh	r3, [r4]
 378:Generated_Source\PSoC4/BLE_hts.c ****                                 upperValue = CyBle_Get16ByPtr(locAttrValue + sizeof(lowerValue));
 752              		.loc 1 378 0
 753 00fa 0823     		movs	r3, #8
 754 00fc FB18     		adds	r3, r7, r3
 755 00fe 0233     		adds	r3, r3, #2
 756 0100 1622     		movs	r2, #22
 757 0102 BC18     		adds	r4, r7, r2
ARM GAS  C:\Users\User\AppData\Local\Temp\ccR9uRpe.s 			page 21


 758 0104 1800     		movs	r0, r3
 759 0106 FFF7FEFF 		bl	CyBle_Get16ByPtr
 760 010a 0300     		movs	r3, r0
 761 010c 2380     		strh	r3, [r4]
 379:Generated_Source\PSoC4/BLE_hts.c ****                                 requestValue = CyBle_Get16ByPtr(eventParam->handleValPair.value.val
 762              		.loc 1 379 0
 763 010e 7B68     		ldr	r3, [r7, #4]
 764 0110 5B68     		ldr	r3, [r3, #4]
 765 0112 1A22     		movs	r2, #26
 766 0114 BC18     		adds	r4, r7, r2
 767 0116 1800     		movs	r0, r3
 768 0118 FFF7FEFF 		bl	CyBle_Get16ByPtr
 769 011c 0300     		movs	r3, r0
 770 011e 2380     		strh	r3, [r4]
 380:Generated_Source\PSoC4/BLE_hts.c ****                                 if((requestValue != 0u) && ((requestValue < lowerValue) || (request
 771              		.loc 1 380 0
 772 0120 1A23     		movs	r3, #26
 773 0122 FB18     		adds	r3, r7, r3
 774 0124 1B88     		ldrh	r3, [r3]
 775 0126 002B     		cmp	r3, #0
 776 0128 13D0     		beq	.L43
 777              		.loc 1 380 0 is_stmt 0 discriminator 1
 778 012a 1A23     		movs	r3, #26
 779 012c FA18     		adds	r2, r7, r3
 780 012e 1823     		movs	r3, #24
 781 0130 FB18     		adds	r3, r7, r3
 782 0132 1288     		ldrh	r2, [r2]
 783 0134 1B88     		ldrh	r3, [r3]
 784 0136 9A42     		cmp	r2, r3
 785 0138 07D3     		bcc	.L45
 786              		.loc 1 380 0 discriminator 2
 787 013a 1A23     		movs	r3, #26
 788 013c FA18     		adds	r2, r7, r3
 789 013e 1623     		movs	r3, #22
 790 0140 FB18     		adds	r3, r7, r3
 791 0142 1288     		ldrh	r2, [r2]
 792 0144 1B88     		ldrh	r3, [r3]
 793 0146 9A42     		cmp	r2, r3
 794 0148 03D9     		bls	.L43
 795              	.L45:
 381:Generated_Source\PSoC4/BLE_hts.c ****                                 {
 382:Generated_Source\PSoC4/BLE_hts.c ****                                     gattErr = CYBLE_GATT_ERR_HTS_OUT_OF_RANGE;
 796              		.loc 1 382 0 is_stmt 1
 797 014a 1E23     		movs	r3, #30
 798 014c FB18     		adds	r3, r7, r3
 799 014e 8022     		movs	r2, #128
 800 0150 1A70     		strb	r2, [r3]
 801              	.L43:
 802              	.LBE3:
 803              	.LBE2:
 383:Generated_Source\PSoC4/BLE_hts.c ****                                 }
 384:Generated_Source\PSoC4/BLE_hts.c ****                             }
 385:Generated_Source\PSoC4/BLE_hts.c ****                         }
 386:Generated_Source\PSoC4/BLE_hts.c ****                     }
 387:Generated_Source\PSoC4/BLE_hts.c ****                     if(gattErr == CYBLE_GATT_ERR_NONE)
 804              		.loc 1 387 0
 805 0152 1E23     		movs	r3, #30
ARM GAS  C:\Users\User\AppData\Local\Temp\ccR9uRpe.s 			page 22


 806 0154 FB18     		adds	r3, r7, r3
 807 0156 1B78     		ldrb	r3, [r3]
 808 0158 002B     		cmp	r3, #0
 809 015a 00D0     		beq	.LCB678
 810 015c 9FE0     		b	.L47	@long jump
 811              	.LCB678:
 388:Generated_Source\PSoC4/BLE_hts.c ****                     {   /* Store value to database */
 389:Generated_Source\PSoC4/BLE_hts.c ****                         gattErr = CyBle_GattsWriteAttributeValue(&eventParam->handleValPair, 0u, 
 812              		.loc 1 389 0
 813 015e 7B68     		ldr	r3, [r7, #4]
 814 0160 181D     		adds	r0, r3, #4
 815 0162 7A68     		ldr	r2, [r7, #4]
 816 0164 1E23     		movs	r3, #30
 817 0166 FC18     		adds	r4, r7, r3
 818 0168 4023     		movs	r3, #64
 819 016a 0021     		movs	r1, #0
 820 016c FFF7FEFF 		bl	CyBle_GattsWriteAttributeValue
 821 0170 0300     		movs	r3, r0
 822 0172 2370     		strb	r3, [r4]
 390:Generated_Source\PSoC4/BLE_hts.c ****                                     &eventParam->connHandle, CYBLE_GATT_DB_PEER_INITIATED);
 391:Generated_Source\PSoC4/BLE_hts.c ****                         if(gattErr == CYBLE_GATT_ERR_NONE)
 823              		.loc 1 391 0
 824 0174 1E23     		movs	r3, #30
 825 0176 FB18     		adds	r3, r7, r3
 826 0178 1B78     		ldrb	r3, [r3]
 827 017a 002B     		cmp	r3, #0
 828 017c 00D0     		beq	.LCB693
 829 017e 8EE0     		b	.L47	@long jump
 830              	.LCB693:
 392:Generated_Source\PSoC4/BLE_hts.c ****                         {
 393:Generated_Source\PSoC4/BLE_hts.c ****                             CyBle_HtsApplCallback((uint32)CYBLE_EVT_HTSS_CHAR_WRITE, &locCharValue)
 831              		.loc 1 393 0
 832 0180 594B     		ldr	r3, .L54
 833 0182 1B68     		ldr	r3, [r3]
 834 0184 0C22     		movs	r2, #12
 835 0186 B918     		adds	r1, r7, r2
 836 0188 B622     		movs	r2, #182
 837 018a FF32     		adds	r2, r2, #255
 838 018c 1000     		movs	r0, r2
 839 018e 9847     		blx	r3
 840 0190 85E0     		b	.L47
 841              	.L42:
 394:Generated_Source\PSoC4/BLE_hts.c ****                         }
 395:Generated_Source\PSoC4/BLE_hts.c ****                     }    
 396:Generated_Source\PSoC4/BLE_hts.c ****                 }
 397:Generated_Source\PSoC4/BLE_hts.c ****                 else /* Client Characteristic Configuration descriptor write request */
 398:Generated_Source\PSoC4/BLE_hts.c ****                 {
 399:Generated_Source\PSoC4/BLE_hts.c ****                     /* Store value to database */
 400:Generated_Source\PSoC4/BLE_hts.c ****                     gattErr = CyBle_GattsWriteAttributeValue(&eventParam->handleValPair, 0u, 
 842              		.loc 1 400 0
 843 0192 7B68     		ldr	r3, [r7, #4]
 844 0194 181D     		adds	r0, r3, #4
 845 0196 7A68     		ldr	r2, [r7, #4]
 846 0198 1E23     		movs	r3, #30
 847 019a FC18     		adds	r4, r7, r3
 848 019c 4023     		movs	r3, #64
 849 019e 0021     		movs	r1, #0
ARM GAS  C:\Users\User\AppData\Local\Temp\ccR9uRpe.s 			page 23


 850 01a0 FFF7FEFF 		bl	CyBle_GattsWriteAttributeValue
 851 01a4 0300     		movs	r3, r0
 852 01a6 2370     		strb	r3, [r4]
 401:Generated_Source\PSoC4/BLE_hts.c ****                                     &eventParam->connHandle, CYBLE_GATT_DB_PEER_INITIATED);
 402:Generated_Source\PSoC4/BLE_hts.c ****                     if(gattErr == CYBLE_GATT_ERR_NONE)
 853              		.loc 1 402 0
 854 01a8 1E23     		movs	r3, #30
 855 01aa FB18     		adds	r3, r7, r3
 856 01ac 1B78     		ldrb	r3, [r3]
 857 01ae 002B     		cmp	r3, #0
 858 01b0 00D0     		beq	.LCB720
 859 01b2 74E0     		b	.L47	@long jump
 860              	.LCB720:
 403:Generated_Source\PSoC4/BLE_hts.c ****                     {
 404:Generated_Source\PSoC4/BLE_hts.c ****                         /* Check characteristic properties for Notification */
 405:Generated_Source\PSoC4/BLE_hts.c ****                         if(CYBLE_IS_NOTIFICATION_SUPPORTED(cyBle_htss.charInfo[locCharIndex].charHa
 861              		.loc 1 405 0
 862 01b4 1F23     		movs	r3, #31
 863 01b6 FB18     		adds	r3, r7, r3
 864 01b8 1A78     		ldrb	r2, [r3]
 865 01ba 4C49     		ldr	r1, .L54+4
 866 01bc 1300     		movs	r3, r2
 867 01be 5B00     		lsls	r3, r3, #1
 868 01c0 9B18     		adds	r3, r3, r2
 869 01c2 5B00     		lsls	r3, r3, #1
 870 01c4 CB18     		adds	r3, r1, r3
 871 01c6 0233     		adds	r3, r3, #2
 872 01c8 1B88     		ldrh	r3, [r3]
 873 01ca 5A1E     		subs	r2, r3, #1
 874 01cc 4849     		ldr	r1, .L54+8
 875 01ce 1300     		movs	r3, r2
 876 01d0 9B00     		lsls	r3, r3, #2
 877 01d2 9B18     		adds	r3, r3, r2
 878 01d4 9B00     		lsls	r3, r3, #2
 879 01d6 CB18     		adds	r3, r1, r3
 880 01d8 0433     		adds	r3, r3, #4
 881 01da 1A68     		ldr	r2, [r3]
 882 01dc 8023     		movs	r3, #128
 883 01de 5B03     		lsls	r3, r3, #13
 884 01e0 1340     		ands	r3, r2
 885 01e2 1CD0     		beq	.L48
 406:Generated_Source\PSoC4/BLE_hts.c ****                         {
 407:Generated_Source\PSoC4/BLE_hts.c ****                             if(CYBLE_IS_NOTIFICATION_ENABLED_IN_PTR(eventParam->handleValPair.value
 886              		.loc 1 407 0
 887 01e4 7B68     		ldr	r3, [r7, #4]
 888 01e6 5B68     		ldr	r3, [r3, #4]
 889 01e8 1800     		movs	r0, r3
 890 01ea FFF7FEFF 		bl	CyBle_Get16ByPtr
 891 01ee 0300     		movs	r3, r0
 892 01f0 1A00     		movs	r2, r3
 893 01f2 0123     		movs	r3, #1
 894 01f4 1340     		ands	r3, r2
 895 01f6 9BB2     		uxth	r3, r3
 896 01f8 002B     		cmp	r3, #0
 897 01fa 08D0     		beq	.L49
 408:Generated_Source\PSoC4/BLE_hts.c ****                             {
 409:Generated_Source\PSoC4/BLE_hts.c ****                                 CyBle_HtsApplCallback((uint32)CYBLE_EVT_HTSS_NOTIFICATION_ENABLED, 
ARM GAS  C:\Users\User\AppData\Local\Temp\ccR9uRpe.s 			page 24


 898              		.loc 1 409 0
 899 01fc 3A4B     		ldr	r3, .L54
 900 01fe 1B68     		ldr	r3, [r3]
 901 0200 0C22     		movs	r2, #12
 902 0202 B918     		adds	r1, r7, r2
 903 0204 D822     		movs	r2, #216
 904 0206 5200     		lsls	r2, r2, #1
 905 0208 1000     		movs	r0, r2
 906 020a 9847     		blx	r3
 907 020c 07E0     		b	.L48
 908              	.L49:
 410:Generated_Source\PSoC4/BLE_hts.c ****                             }
 411:Generated_Source\PSoC4/BLE_hts.c ****                             else
 412:Generated_Source\PSoC4/BLE_hts.c ****                             {
 413:Generated_Source\PSoC4/BLE_hts.c ****                                 CyBle_HtsApplCallback((uint32)CYBLE_EVT_HTSS_NOTIFICATION_DISABLED,
 909              		.loc 1 413 0
 910 020e 364B     		ldr	r3, .L54
 911 0210 1B68     		ldr	r3, [r3]
 912 0212 0C22     		movs	r2, #12
 913 0214 B918     		adds	r1, r7, r2
 914 0216 B222     		movs	r2, #178
 915 0218 FF32     		adds	r2, r2, #255
 916 021a 1000     		movs	r0, r2
 917 021c 9847     		blx	r3
 918              	.L48:
 414:Generated_Source\PSoC4/BLE_hts.c ****                             }
 415:Generated_Source\PSoC4/BLE_hts.c ****                         }
 416:Generated_Source\PSoC4/BLE_hts.c ****                         /* Check characteristic properties for Indication */
 417:Generated_Source\PSoC4/BLE_hts.c ****                         if(CYBLE_IS_INDICATION_SUPPORTED(cyBle_htss.charInfo[locCharIndex].charHand
 919              		.loc 1 417 0
 920 021e 1F23     		movs	r3, #31
 921 0220 FB18     		adds	r3, r7, r3
 922 0222 1A78     		ldrb	r2, [r3]
 923 0224 3149     		ldr	r1, .L54+4
 924 0226 1300     		movs	r3, r2
 925 0228 5B00     		lsls	r3, r3, #1
 926 022a 9B18     		adds	r3, r3, r2
 927 022c 5B00     		lsls	r3, r3, #1
 928 022e CB18     		adds	r3, r1, r3
 929 0230 0233     		adds	r3, r3, #2
 930 0232 1B88     		ldrh	r3, [r3]
 931 0234 5A1E     		subs	r2, r3, #1
 932 0236 2E49     		ldr	r1, .L54+8
 933 0238 1300     		movs	r3, r2
 934 023a 9B00     		lsls	r3, r3, #2
 935 023c 9B18     		adds	r3, r3, r2
 936 023e 9B00     		lsls	r3, r3, #2
 937 0240 CB18     		adds	r3, r1, r3
 938 0242 0433     		adds	r3, r3, #4
 939 0244 1A68     		ldr	r2, [r3]
 940 0246 8023     		movs	r3, #128
 941 0248 9B03     		lsls	r3, r3, #14
 942 024a 1340     		ands	r3, r2
 943 024c 1CD0     		beq	.L50
 418:Generated_Source\PSoC4/BLE_hts.c ****                         {
 419:Generated_Source\PSoC4/BLE_hts.c ****                             if(CYBLE_IS_INDICATION_ENABLED_IN_PTR(eventParam->handleValPair.value.v
 944              		.loc 1 419 0
ARM GAS  C:\Users\User\AppData\Local\Temp\ccR9uRpe.s 			page 25


 945 024e 7B68     		ldr	r3, [r7, #4]
 946 0250 5B68     		ldr	r3, [r3, #4]
 947 0252 1800     		movs	r0, r3
 948 0254 FFF7FEFF 		bl	CyBle_Get16ByPtr
 949 0258 0300     		movs	r3, r0
 950 025a 1A00     		movs	r2, r3
 951 025c 0223     		movs	r3, #2
 952 025e 1340     		ands	r3, r2
 953 0260 9BB2     		uxth	r3, r3
 954 0262 002B     		cmp	r3, #0
 955 0264 08D0     		beq	.L51
 420:Generated_Source\PSoC4/BLE_hts.c ****                             {
 421:Generated_Source\PSoC4/BLE_hts.c ****                                 CyBle_HtsApplCallback((uint32)CYBLE_EVT_HTSS_INDICATION_ENABLED, &l
 956              		.loc 1 421 0
 957 0266 204B     		ldr	r3, .L54
 958 0268 1B68     		ldr	r3, [r3]
 959 026a 0C22     		movs	r2, #12
 960 026c B918     		adds	r1, r7, r2
 961 026e D922     		movs	r2, #217
 962 0270 5200     		lsls	r2, r2, #1
 963 0272 1000     		movs	r0, r2
 964 0274 9847     		blx	r3
 965 0276 07E0     		b	.L50
 966              	.L51:
 422:Generated_Source\PSoC4/BLE_hts.c ****                             }
 423:Generated_Source\PSoC4/BLE_hts.c ****                             else
 424:Generated_Source\PSoC4/BLE_hts.c ****                             {
 425:Generated_Source\PSoC4/BLE_hts.c ****                                 CyBle_HtsApplCallback((uint32)CYBLE_EVT_HTSS_INDICATION_DISABLED, &
 967              		.loc 1 425 0
 968 0278 1B4B     		ldr	r3, .L54
 969 027a 1B68     		ldr	r3, [r3]
 970 027c 0C22     		movs	r2, #12
 971 027e B918     		adds	r1, r7, r2
 972 0280 B422     		movs	r2, #180
 973 0282 FF32     		adds	r2, r2, #255
 974 0284 1000     		movs	r0, r2
 975 0286 9847     		blx	r3
 976              	.L50:
 426:Generated_Source\PSoC4/BLE_hts.c ****                             }
 427:Generated_Source\PSoC4/BLE_hts.c ****                         }
 428:Generated_Source\PSoC4/BLE_hts.c ****                     #if((CYBLE_GAP_ROLE_PERIPHERAL || CYBLE_GAP_ROLE_CENTRAL) && \
 429:Generated_Source\PSoC4/BLE_hts.c ****                         (CYBLE_BONDING_REQUIREMENT == CYBLE_BONDING_YES))
 430:Generated_Source\PSoC4/BLE_hts.c ****                         /* Set flag to store bonding data to flash */
 431:Generated_Source\PSoC4/BLE_hts.c ****                         if(cyBle_peerBonding == CYBLE_GAP_BONDING)
 977              		.loc 1 431 0
 978 0288 1A4B     		ldr	r3, .L54+12
 979 028a 1B78     		ldrb	r3, [r3]
 980 028c 012B     		cmp	r3, #1
 981 028e 06D1     		bne	.L47
 432:Generated_Source\PSoC4/BLE_hts.c ****                         {
 433:Generated_Source\PSoC4/BLE_hts.c ****                             cyBle_pendingFlashWrite |= CYBLE_PENDING_CCCD_FLASH_WRITE_BIT;
 982              		.loc 1 433 0
 983 0290 194B     		ldr	r3, .L54+16
 984 0292 1B78     		ldrb	r3, [r3]
 985 0294 0222     		movs	r2, #2
 986 0296 1343     		orrs	r3, r2
 987 0298 DAB2     		uxtb	r2, r3
ARM GAS  C:\Users\User\AppData\Local\Temp\ccR9uRpe.s 			page 26


 988 029a 174B     		ldr	r3, .L54+16
 989 029c 1A70     		strb	r2, [r3]
 990              	.L47:
 434:Generated_Source\PSoC4/BLE_hts.c ****                         }
 435:Generated_Source\PSoC4/BLE_hts.c ****                     #endif /* (CYBLE_BONDING_REQUIREMENT == CYBLE_BONDING_YES) */
 436:Generated_Source\PSoC4/BLE_hts.c ****                         
 437:Generated_Source\PSoC4/BLE_hts.c ****                     }
 438:Generated_Source\PSoC4/BLE_hts.c ****                 }
 439:Generated_Source\PSoC4/BLE_hts.c ****                 cyBle_eventHandlerFlag &= (uint8)~CYBLE_CALLBACK;
 991              		.loc 1 439 0
 992 029e 174B     		ldr	r3, .L54+20
 993 02a0 1B78     		ldrb	r3, [r3]
 994 02a2 DBB2     		uxtb	r3, r3
 995 02a4 0122     		movs	r2, #1
 996 02a6 9343     		bics	r3, r2
 997 02a8 DAB2     		uxtb	r2, r3
 998 02aa 144B     		ldr	r3, .L54+20
 999 02ac 1A70     		strb	r2, [r3]
 440:Generated_Source\PSoC4/BLE_hts.c ****                 locReqHandle = 1u;
 1000              		.loc 1 440 0
 1001 02ae 1D23     		movs	r3, #29
 1002 02b0 FB18     		adds	r3, r7, r3
 1003 02b2 0122     		movs	r2, #1
 1004 02b4 1A70     		strb	r2, [r3]
 1005              	.L41:
 348:Generated_Source\PSoC4/BLE_hts.c ****         {
 1006              		.loc 1 348 0
 1007 02b6 1F23     		movs	r3, #31
 1008 02b8 FB18     		adds	r3, r7, r3
 1009 02ba 1A78     		ldrb	r2, [r3]
 1010 02bc 1F23     		movs	r3, #31
 1011 02be FB18     		adds	r3, r7, r3
 1012 02c0 0132     		adds	r2, r2, #1
 1013 02c2 1A70     		strb	r2, [r3]
 1014              	.L39:
 347:Generated_Source\PSoC4/BLE_hts.c ****             locCharIndex++)
 1015              		.loc 1 347 0 discriminator 1
 1016 02c4 1F23     		movs	r3, #31
 1017 02c6 FB18     		adds	r3, r7, r3
 1018 02c8 1B78     		ldrb	r3, [r3]
 1019 02ca 032B     		cmp	r3, #3
 1020 02cc 05D8     		bhi	.L38
 347:Generated_Source\PSoC4/BLE_hts.c ****             locCharIndex++)
 1021              		.loc 1 347 0 is_stmt 0 discriminator 2
 1022 02ce 1D23     		movs	r3, #29
 1023 02d0 FB18     		adds	r3, r7, r3
 1024 02d2 1B78     		ldrb	r3, [r3]
 1025 02d4 002B     		cmp	r3, #0
 1026 02d6 00D1     		bne	.LCB882
 1027 02d8 A8E6     		b	.L52	@long jump
 1028              	.LCB882:
 1029              	.L38:
 441:Generated_Source\PSoC4/BLE_hts.c ****             }
 442:Generated_Source\PSoC4/BLE_hts.c ****         }
 443:Generated_Source\PSoC4/BLE_hts.c ****     }
 444:Generated_Source\PSoC4/BLE_hts.c ****     return (gattErr);
 1030              		.loc 1 444 0 is_stmt 1
ARM GAS  C:\Users\User\AppData\Local\Temp\ccR9uRpe.s 			page 27


 1031 02da 1E23     		movs	r3, #30
 1032 02dc FB18     		adds	r3, r7, r3
 1033 02de 1B78     		ldrb	r3, [r3]
 445:Generated_Source\PSoC4/BLE_hts.c **** }
 1034              		.loc 1 445 0
 1035 02e0 1800     		movs	r0, r3
 1036 02e2 BD46     		mov	sp, r7
 1037 02e4 09B0     		add	sp, sp, #36
 1038              		@ sp needed
 1039 02e6 90BD     		pop	{r4, r7, pc}
 1040              	.L55:
 1041              		.align	2
 1042              	.L54:
 1043 02e8 00000000 		.word	CyBle_HtsApplCallback
 1044 02ec 00000000 		.word	cyBle_htss
 1045 02f0 00000000 		.word	cyBle_gattDB
 1046 02f4 00000000 		.word	cyBle_peerBonding
 1047 02f8 00000000 		.word	cyBle_pendingFlashWrite
 1048 02fc 00000000 		.word	cyBle_eventHandlerFlag
 1049              		.cfi_endproc
 1050              	.LFE8:
 1051              		.size	CyBle_HtssWriteEventHandler, .-CyBle_HtssWriteEventHandler
 1052              		.section	.text.CyBle_HtssSendNotification,"ax",%progbits
 1053              		.align	2
 1054              		.global	CyBle_HtssSendNotification
 1055              		.code	16
 1056              		.thumb_func
 1057              		.type	CyBle_HtssSendNotification, %function
 1058              	CyBle_HtssSendNotification:
 1059              	.LFB9:
 446:Generated_Source\PSoC4/BLE_hts.c **** 
 447:Generated_Source\PSoC4/BLE_hts.c **** 
 448:Generated_Source\PSoC4/BLE_hts.c **** /******************************************************************************
 449:Generated_Source\PSoC4/BLE_hts.c **** * Function Name: CyBle_HtssSendNotification
 450:Generated_Source\PSoC4/BLE_hts.c **** ***************************************************************************//**
 451:Generated_Source\PSoC4/BLE_hts.c **** * 
 452:Generated_Source\PSoC4/BLE_hts.c **** *  Sends notification with a characteristic value of the Health Thermometer 
 453:Generated_Source\PSoC4/BLE_hts.c **** *  Service, which is a value specified by charIndex, to the Client device.
 454:Generated_Source\PSoC4/BLE_hts.c **** * 
 455:Generated_Source\PSoC4/BLE_hts.c **** *  On enabling notification successfully for a service characteristic, if the GATT
 456:Generated_Source\PSoC4/BLE_hts.c **** *  server has an updated value to be notified to the GATT Client, it sends out a
 457:Generated_Source\PSoC4/BLE_hts.c **** *  'Handle Value Notification' which results in CYBLE_EVT_HTSC_NOTIFICATION event
 458:Generated_Source\PSoC4/BLE_hts.c **** *  at the GATT Client's end.
 459:Generated_Source\PSoC4/BLE_hts.c **** *
 460:Generated_Source\PSoC4/BLE_hts.c **** *  \param connHandle: The connection handle.
 461:Generated_Source\PSoC4/BLE_hts.c **** *  \param charIndex: The index of the service characteristic.
 462:Generated_Source\PSoC4/BLE_hts.c **** *  \param attrSize: The size of the characteristic value attribute.
 463:Generated_Source\PSoC4/BLE_hts.c **** *  \param attrValue: The pointer to the characteristic value data that should be 
 464:Generated_Source\PSoC4/BLE_hts.c **** *               sent to the client's device.
 465:Generated_Source\PSoC4/BLE_hts.c **** * 
 466:Generated_Source\PSoC4/BLE_hts.c **** * \return
 467:Generated_Source\PSoC4/BLE_hts.c **** *  Return value is of type CYBLE_API_RESULT_T.
 468:Generated_Source\PSoC4/BLE_hts.c **** *   * CYBLE_ERROR_OK - The request handled successfully
 469:Generated_Source\PSoC4/BLE_hts.c **** *   * CYBLE_ERROR_INVALID_PARAMETER - Validation of the input parameter failed
 470:Generated_Source\PSoC4/BLE_hts.c **** *   * CYBLE_ERROR_INVALID_OPERATION - This operation is not permitted
 471:Generated_Source\PSoC4/BLE_hts.c **** *   * CYBLE_ERROR_INVALID_STATE - Connection with the client is not established
 472:Generated_Source\PSoC4/BLE_hts.c **** *   * CYBLE_ERROR_MEMORY_ALLOCATION_FAILED - Memory allocation failed. 
ARM GAS  C:\Users\User\AppData\Local\Temp\ccR9uRpe.s 			page 28


 473:Generated_Source\PSoC4/BLE_hts.c **** *   * CYBLE_ERROR_NTF_DISABLED - Notification is not enabled by the client.
 474:Generated_Source\PSoC4/BLE_hts.c **** *
 475:Generated_Source\PSoC4/BLE_hts.c **** ******************************************************************************/
 476:Generated_Source\PSoC4/BLE_hts.c **** CYBLE_API_RESULT_T CyBle_HtssSendNotification(CYBLE_CONN_HANDLE_T connHandle,
 477:Generated_Source\PSoC4/BLE_hts.c ****     CYBLE_HTS_CHAR_INDEX_T charIndex, uint8 attrSize, uint8 *attrValue)
 478:Generated_Source\PSoC4/BLE_hts.c **** {
 1060              		.loc 1 478 0
 1061              		.cfi_startproc
 1062              		@ args = 0, pretend = 0, frame = 32
 1063              		@ frame_needed = 1, uses_anonymous_args = 0
 1064 0000 90B5     		push	{r4, r7, lr}
 1065              		.cfi_def_cfa_offset 12
 1066              		.cfi_offset 4, -12
 1067              		.cfi_offset 7, -8
 1068              		.cfi_offset 14, -4
 1069 0002 89B0     		sub	sp, sp, #36
 1070              		.cfi_def_cfa_offset 48
 1071 0004 00AF     		add	r7, sp, #0
 1072              		.cfi_def_cfa_register 7
 1073 0006 0C24     		movs	r4, #12
 1074 0008 3C19     		adds	r4, r7, r4
 1075 000a 2080     		strh	r0, [r4]
 1076 000c 0800     		movs	r0, r1
 1077 000e 1100     		movs	r1, r2
 1078 0010 7B60     		str	r3, [r7, #4]
 1079 0012 0B23     		movs	r3, #11
 1080 0014 FB18     		adds	r3, r7, r3
 1081 0016 021C     		adds	r2, r0, #0
 1082 0018 1A70     		strb	r2, [r3]
 1083 001a 0A23     		movs	r3, #10
 1084 001c FB18     		adds	r3, r7, r3
 1085 001e 0A1C     		adds	r2, r1, #0
 1086 0020 1A70     		strb	r2, [r3]
 479:Generated_Source\PSoC4/BLE_hts.c **** 
 480:Generated_Source\PSoC4/BLE_hts.c ****     CYBLE_API_RESULT_T apiResult;
 481:Generated_Source\PSoC4/BLE_hts.c ****     
 482:Generated_Source\PSoC4/BLE_hts.c ****     /* Send Notification if it is enabled and connected */
 483:Generated_Source\PSoC4/BLE_hts.c ****     if(CYBLE_STATE_CONNECTED != CyBle_GetState())
 1087              		.loc 1 483 0
 1088 0022 2D4B     		ldr	r3, .L61
 1089 0024 1B78     		ldrb	r3, [r3]
 1090 0026 022B     		cmp	r3, #2
 1091 0028 05D0     		beq	.L57
 484:Generated_Source\PSoC4/BLE_hts.c ****     {
 485:Generated_Source\PSoC4/BLE_hts.c ****         apiResult = CYBLE_ERROR_INVALID_STATE;
 1092              		.loc 1 485 0
 1093 002a 1E23     		movs	r3, #30
 1094 002c FB18     		adds	r3, r7, r3
 1095 002e 0422     		movs	r2, #4
 1096 0030 FF32     		adds	r2, r2, #255
 1097 0032 1A80     		strh	r2, [r3]
 1098 0034 49E0     		b	.L58
 1099              	.L57:
 486:Generated_Source\PSoC4/BLE_hts.c ****     }
 487:Generated_Source\PSoC4/BLE_hts.c ****     else if(!CYBLE_IS_NOTIFICATION_ENABLED(cyBle_htss.charInfo[charIndex].descrHandle[CYBLE_HTS_CCC
 1100              		.loc 1 487 0
 1101 0036 0B23     		movs	r3, #11
ARM GAS  C:\Users\User\AppData\Local\Temp\ccR9uRpe.s 			page 29


 1102 0038 FB18     		adds	r3, r7, r3
 1103 003a 1A78     		ldrb	r2, [r3]
 1104 003c 2749     		ldr	r1, .L61+4
 1105 003e 1300     		movs	r3, r2
 1106 0040 5B00     		lsls	r3, r3, #1
 1107 0042 9B18     		adds	r3, r3, r2
 1108 0044 5B00     		lsls	r3, r3, #1
 1109 0046 CB18     		adds	r3, r1, r3
 1110 0048 0433     		adds	r3, r3, #4
 1111 004a 1B88     		ldrh	r3, [r3]
 1112 004c 5A1E     		subs	r2, r3, #1
 1113 004e 2449     		ldr	r1, .L61+8
 1114 0050 1300     		movs	r3, r2
 1115 0052 9B00     		lsls	r3, r3, #2
 1116 0054 9B18     		adds	r3, r3, r2
 1117 0056 9B00     		lsls	r3, r3, #2
 1118 0058 CB18     		adds	r3, r1, r3
 1119 005a 1033     		adds	r3, r3, #16
 1120 005c 1B68     		ldr	r3, [r3]
 1121 005e 5B68     		ldr	r3, [r3, #4]
 1122 0060 1800     		movs	r0, r3
 1123 0062 FFF7FEFF 		bl	CyBle_Get16ByPtr
 1124 0066 0300     		movs	r3, r0
 1125 0068 1A00     		movs	r2, r3
 1126 006a 0123     		movs	r3, #1
 1127 006c 1340     		ands	r3, r2
 1128 006e 9BB2     		uxth	r3, r3
 1129 0070 002B     		cmp	r3, #0
 1130 0072 05D1     		bne	.L59
 488:Generated_Source\PSoC4/BLE_hts.c ****     {
 489:Generated_Source\PSoC4/BLE_hts.c ****         apiResult = CYBLE_ERROR_NTF_DISABLED;
 1131              		.loc 1 489 0
 1132 0074 1E23     		movs	r3, #30
 1133 0076 FB18     		adds	r3, r7, r3
 1134 0078 8022     		movs	r2, #128
 1135 007a 5200     		lsls	r2, r2, #1
 1136 007c 1A80     		strh	r2, [r3]
 1137 007e 24E0     		b	.L58
 1138              	.L59:
 1139              	.LBB4:
 490:Generated_Source\PSoC4/BLE_hts.c ****     }
 491:Generated_Source\PSoC4/BLE_hts.c ****     else
 492:Generated_Source\PSoC4/BLE_hts.c ****     {
 493:Generated_Source\PSoC4/BLE_hts.c ****         CYBLE_GATTS_HANDLE_VALUE_NTF_T ntfReqParam;
 494:Generated_Source\PSoC4/BLE_hts.c ****         
 495:Generated_Source\PSoC4/BLE_hts.c ****         /* Fill all fields of write request structure ... */
 496:Generated_Source\PSoC4/BLE_hts.c ****         ntfReqParam.attrHandle = cyBle_htss.charInfo[charIndex].charHandle;
 1140              		.loc 1 496 0
 1141 0080 0B23     		movs	r3, #11
 1142 0082 FB18     		adds	r3, r7, r3
 1143 0084 1A78     		ldrb	r2, [r3]
 1144 0086 1549     		ldr	r1, .L61+4
 1145 0088 1300     		movs	r3, r2
 1146 008a 5B00     		lsls	r3, r3, #1
 1147 008c 9B18     		adds	r3, r3, r2
 1148 008e 5B00     		lsls	r3, r3, #1
 1149 0090 CB18     		adds	r3, r1, r3
ARM GAS  C:\Users\User\AppData\Local\Temp\ccR9uRpe.s 			page 30


 1150 0092 0233     		adds	r3, r3, #2
 1151 0094 1A88     		ldrh	r2, [r3]
 1152 0096 1023     		movs	r3, #16
 1153 0098 FB18     		adds	r3, r7, r3
 1154 009a 1A81     		strh	r2, [r3, #8]
 497:Generated_Source\PSoC4/BLE_hts.c ****         ntfReqParam.value.val = attrValue;
 1155              		.loc 1 497 0
 1156 009c 1023     		movs	r3, #16
 1157 009e FB18     		adds	r3, r7, r3
 1158 00a0 7A68     		ldr	r2, [r7, #4]
 1159 00a2 1A60     		str	r2, [r3]
 498:Generated_Source\PSoC4/BLE_hts.c ****         ntfReqParam.value.len = attrSize;
 1160              		.loc 1 498 0
 1161 00a4 0A23     		movs	r3, #10
 1162 00a6 FB18     		adds	r3, r7, r3
 1163 00a8 1B78     		ldrb	r3, [r3]
 1164 00aa 9AB2     		uxth	r2, r3
 1165 00ac 1023     		movs	r3, #16
 1166 00ae FB18     		adds	r3, r7, r3
 1167 00b0 9A80     		strh	r2, [r3, #4]
 499:Generated_Source\PSoC4/BLE_hts.c ****         
 500:Generated_Source\PSoC4/BLE_hts.c ****         /* Send notification to client using previously filled structure */
 501:Generated_Source\PSoC4/BLE_hts.c ****         apiResult = CyBle_GattsNotification(connHandle, &ntfReqParam);
 1168              		.loc 1 501 0
 1169 00b2 1E23     		movs	r3, #30
 1170 00b4 FC18     		adds	r4, r7, r3
 1171 00b6 1023     		movs	r3, #16
 1172 00b8 FA18     		adds	r2, r7, r3
 1173 00ba 0C23     		movs	r3, #12
 1174 00bc FB18     		adds	r3, r7, r3
 1175 00be 1100     		movs	r1, r2
 1176 00c0 1868     		ldr	r0, [r3]
 1177 00c2 FFF7FEFF 		bl	CyBle_GattsNotification
 1178 00c6 0300     		movs	r3, r0
 1179 00c8 2380     		strh	r3, [r4]
 1180              	.L58:
 1181              	.LBE4:
 502:Generated_Source\PSoC4/BLE_hts.c ****     }
 503:Generated_Source\PSoC4/BLE_hts.c **** 
 504:Generated_Source\PSoC4/BLE_hts.c ****     return (apiResult);
 1182              		.loc 1 504 0
 1183 00ca 1E23     		movs	r3, #30
 1184 00cc FB18     		adds	r3, r7, r3
 1185 00ce 1B88     		ldrh	r3, [r3]
 505:Generated_Source\PSoC4/BLE_hts.c **** }
 1186              		.loc 1 505 0
 1187 00d0 1800     		movs	r0, r3
 1188 00d2 BD46     		mov	sp, r7
 1189 00d4 09B0     		add	sp, sp, #36
 1190              		@ sp needed
 1191 00d6 90BD     		pop	{r4, r7, pc}
 1192              	.L62:
 1193              		.align	2
 1194              	.L61:
 1195 00d8 00000000 		.word	cyBle_state
 1196 00dc 00000000 		.word	cyBle_htss
 1197 00e0 00000000 		.word	cyBle_gattDB
ARM GAS  C:\Users\User\AppData\Local\Temp\ccR9uRpe.s 			page 31


 1198              		.cfi_endproc
 1199              	.LFE9:
 1200              		.size	CyBle_HtssSendNotification, .-CyBle_HtssSendNotification
 1201              		.section	.text.CyBle_HtssSendIndication,"ax",%progbits
 1202              		.align	2
 1203              		.global	CyBle_HtssSendIndication
 1204              		.code	16
 1205              		.thumb_func
 1206              		.type	CyBle_HtssSendIndication, %function
 1207              	CyBle_HtssSendIndication:
 1208              	.LFB10:
 506:Generated_Source\PSoC4/BLE_hts.c **** 
 507:Generated_Source\PSoC4/BLE_hts.c **** 
 508:Generated_Source\PSoC4/BLE_hts.c **** /******************************************************************************
 509:Generated_Source\PSoC4/BLE_hts.c **** * Function Name: CyBle_HtssSendIndication
 510:Generated_Source\PSoC4/BLE_hts.c **** ***************************************************************************//**
 511:Generated_Source\PSoC4/BLE_hts.c **** * 
 512:Generated_Source\PSoC4/BLE_hts.c **** *  Sends indication with a characteristic value of the Health Thermometer 
 513:Generated_Source\PSoC4/BLE_hts.c **** *  Service, which is a value specified by charIndex, to the Client device.
 514:Generated_Source\PSoC4/BLE_hts.c **** *
 515:Generated_Source\PSoC4/BLE_hts.c **** *  On enabling indication successfully, if the GATT server has an updated value to be 
 516:Generated_Source\PSoC4/BLE_hts.c **** *  indicated to the GATT Client, it sends out a 'Handle Value Indication' which
 517:Generated_Source\PSoC4/BLE_hts.c **** *  results in CYBLE_EVT_HTSC_INDICATION or CYBLE_EVT_GATTC_HANDLE_VALUE_IND (if 
 518:Generated_Source\PSoC4/BLE_hts.c **** *  service specific callback function is not registered) event at the GATT Client's end.
 519:Generated_Source\PSoC4/BLE_hts.c **** *
 520:Generated_Source\PSoC4/BLE_hts.c **** *  \param connHandle: The connection handle.
 521:Generated_Source\PSoC4/BLE_hts.c **** *  \param charIndex:  The index of the service characteristic.
 522:Generated_Source\PSoC4/BLE_hts.c **** *  \param attrSize: The size of the characteristic value attribute.
 523:Generated_Source\PSoC4/BLE_hts.c **** *  \param attrValue: The pointer to the characteristic value data that should be
 524:Generated_Source\PSoC4/BLE_hts.c **** *               sent to the Client device.
 525:Generated_Source\PSoC4/BLE_hts.c **** * 
 526:Generated_Source\PSoC4/BLE_hts.c **** * \return
 527:Generated_Source\PSoC4/BLE_hts.c **** *  Return value is of type CYBLE_API_RESULT_T.
 528:Generated_Source\PSoC4/BLE_hts.c **** *   * CYBLE_ERROR_OK - The request handled successfully
 529:Generated_Source\PSoC4/BLE_hts.c **** *   * CYBLE_ERROR_INVALID_PARAMETER - Validation of the input parameter failed
 530:Generated_Source\PSoC4/BLE_hts.c **** *   * CYBLE_ERROR_INVALID_OPERATION - This operation is not permitted
 531:Generated_Source\PSoC4/BLE_hts.c **** *   * CYBLE_ERROR_INVALID_STATE - Connection with the client is not established
 532:Generated_Source\PSoC4/BLE_hts.c **** *   * CYBLE_ERROR_MEMORY_ALLOCATION_FAILED - Memory allocation failed
 533:Generated_Source\PSoC4/BLE_hts.c **** *   * CYBLE_ERROR_IND_DISABLED - Indication is not enabled by the client
 534:Generated_Source\PSoC4/BLE_hts.c **** *
 535:Generated_Source\PSoC4/BLE_hts.c **** * \events
 536:Generated_Source\PSoC4/BLE_hts.c **** *  In case of successful execution (return value = CYBLE_ERROR_OK)
 537:Generated_Source\PSoC4/BLE_hts.c **** *  the next events can appear: \n
 538:Generated_Source\PSoC4/BLE_hts.c **** *   If the HTS service-specific callback is registered 
 539:Generated_Source\PSoC4/BLE_hts.c **** *      (with CyBle_HtsRegisterAttrCallback):
 540:Generated_Source\PSoC4/BLE_hts.c **** *  * CYBLE_EVT_HTSS_INDICATION_CONFIRMED - in case if the indication is
 541:Generated_Source\PSoC4/BLE_hts.c **** *                                successfully delivered to the peer device.
 542:Generated_Source\PSoC4/BLE_hts.c **** *  .
 543:Generated_Source\PSoC4/BLE_hts.c **** *   Otherwise (if the HTS service-specific callback is not registered):
 544:Generated_Source\PSoC4/BLE_hts.c **** *  * CYBLE_EVT_GATTS_HANDLE_VALUE_CNF - in case if the indication is
 545:Generated_Source\PSoC4/BLE_hts.c **** *                                successfully delivered to the peer device.
 546:Generated_Source\PSoC4/BLE_hts.c **** *
 547:Generated_Source\PSoC4/BLE_hts.c **** ******************************************************************************/
 548:Generated_Source\PSoC4/BLE_hts.c **** CYBLE_API_RESULT_T CyBle_HtssSendIndication(CYBLE_CONN_HANDLE_T connHandle,
 549:Generated_Source\PSoC4/BLE_hts.c ****     CYBLE_HTS_CHAR_INDEX_T charIndex, uint8 attrSize, uint8 *attrValue)
 550:Generated_Source\PSoC4/BLE_hts.c **** {
 1209              		.loc 1 550 0
ARM GAS  C:\Users\User\AppData\Local\Temp\ccR9uRpe.s 			page 32


 1210              		.cfi_startproc
 1211              		@ args = 0, pretend = 0, frame = 32
 1212              		@ frame_needed = 1, uses_anonymous_args = 0
 1213 0000 90B5     		push	{r4, r7, lr}
 1214              		.cfi_def_cfa_offset 12
 1215              		.cfi_offset 4, -12
 1216              		.cfi_offset 7, -8
 1217              		.cfi_offset 14, -4
 1218 0002 89B0     		sub	sp, sp, #36
 1219              		.cfi_def_cfa_offset 48
 1220 0004 00AF     		add	r7, sp, #0
 1221              		.cfi_def_cfa_register 7
 1222 0006 0C24     		movs	r4, #12
 1223 0008 3C19     		adds	r4, r7, r4
 1224 000a 2080     		strh	r0, [r4]
 1225 000c 0800     		movs	r0, r1
 1226 000e 1100     		movs	r1, r2
 1227 0010 7B60     		str	r3, [r7, #4]
 1228 0012 0B23     		movs	r3, #11
 1229 0014 FB18     		adds	r3, r7, r3
 1230 0016 021C     		adds	r2, r0, #0
 1231 0018 1A70     		strb	r2, [r3]
 1232 001a 0A23     		movs	r3, #10
 1233 001c FB18     		adds	r3, r7, r3
 1234 001e 0A1C     		adds	r2, r1, #0
 1235 0020 1A70     		strb	r2, [r3]
 551:Generated_Source\PSoC4/BLE_hts.c ****     CYBLE_API_RESULT_T apiResult;
 552:Generated_Source\PSoC4/BLE_hts.c ****     
 553:Generated_Source\PSoC4/BLE_hts.c ****     /* Send Notification if it is enabled and connected */
 554:Generated_Source\PSoC4/BLE_hts.c ****     if(CYBLE_STATE_CONNECTED != CyBle_GetState())
 1236              		.loc 1 554 0
 1237 0022 324B     		ldr	r3, .L69
 1238 0024 1B78     		ldrb	r3, [r3]
 1239 0026 022B     		cmp	r3, #2
 1240 0028 05D0     		beq	.L64
 555:Generated_Source\PSoC4/BLE_hts.c ****     {
 556:Generated_Source\PSoC4/BLE_hts.c ****         apiResult = CYBLE_ERROR_INVALID_STATE;
 1241              		.loc 1 556 0
 1242 002a 1E23     		movs	r3, #30
 1243 002c FB18     		adds	r3, r7, r3
 1244 002e 0422     		movs	r2, #4
 1245 0030 FF32     		adds	r2, r2, #255
 1246 0032 1A80     		strh	r2, [r3]
 1247 0034 53E0     		b	.L65
 1248              	.L64:
 557:Generated_Source\PSoC4/BLE_hts.c ****     }
 558:Generated_Source\PSoC4/BLE_hts.c ****     else if(!CYBLE_IS_INDICATION_ENABLED(cyBle_htss.charInfo[charIndex].descrHandle[CYBLE_HTS_CCCD]
 1249              		.loc 1 558 0
 1250 0036 0B23     		movs	r3, #11
 1251 0038 FB18     		adds	r3, r7, r3
 1252 003a 1A78     		ldrb	r2, [r3]
 1253 003c 2C49     		ldr	r1, .L69+4
 1254 003e 1300     		movs	r3, r2
 1255 0040 5B00     		lsls	r3, r3, #1
 1256 0042 9B18     		adds	r3, r3, r2
 1257 0044 5B00     		lsls	r3, r3, #1
 1258 0046 CB18     		adds	r3, r1, r3
ARM GAS  C:\Users\User\AppData\Local\Temp\ccR9uRpe.s 			page 33


 1259 0048 0433     		adds	r3, r3, #4
 1260 004a 1B88     		ldrh	r3, [r3]
 1261 004c 5A1E     		subs	r2, r3, #1
 1262 004e 2949     		ldr	r1, .L69+8
 1263 0050 1300     		movs	r3, r2
 1264 0052 9B00     		lsls	r3, r3, #2
 1265 0054 9B18     		adds	r3, r3, r2
 1266 0056 9B00     		lsls	r3, r3, #2
 1267 0058 CB18     		adds	r3, r1, r3
 1268 005a 1033     		adds	r3, r3, #16
 1269 005c 1B68     		ldr	r3, [r3]
 1270 005e 5B68     		ldr	r3, [r3, #4]
 1271 0060 1800     		movs	r0, r3
 1272 0062 FFF7FEFF 		bl	CyBle_Get16ByPtr
 1273 0066 0300     		movs	r3, r0
 1274 0068 1A00     		movs	r2, r3
 1275 006a 0223     		movs	r3, #2
 1276 006c 1340     		ands	r3, r2
 1277 006e 9BB2     		uxth	r3, r3
 1278 0070 002B     		cmp	r3, #0
 1279 0072 05D1     		bne	.L66
 559:Generated_Source\PSoC4/BLE_hts.c ****     {
 560:Generated_Source\PSoC4/BLE_hts.c ****         apiResult = CYBLE_ERROR_IND_DISABLED;
 1280              		.loc 1 560 0
 1281 0074 1E23     		movs	r3, #30
 1282 0076 FB18     		adds	r3, r7, r3
 1283 0078 0222     		movs	r2, #2
 1284 007a FF32     		adds	r2, r2, #255
 1285 007c 1A80     		strh	r2, [r3]
 1286 007e 2EE0     		b	.L65
 1287              	.L66:
 1288              	.LBB5:
 561:Generated_Source\PSoC4/BLE_hts.c ****     }
 562:Generated_Source\PSoC4/BLE_hts.c ****     else
 563:Generated_Source\PSoC4/BLE_hts.c ****     {
 564:Generated_Source\PSoC4/BLE_hts.c ****         CYBLE_GATTS_HANDLE_VALUE_NTF_T ntfReqParam;
 565:Generated_Source\PSoC4/BLE_hts.c ****         
 566:Generated_Source\PSoC4/BLE_hts.c ****         /* Fill all fields of write request structure ... */
 567:Generated_Source\PSoC4/BLE_hts.c ****         ntfReqParam.attrHandle = cyBle_htss.charInfo[charIndex].charHandle;
 1289              		.loc 1 567 0
 1290 0080 0B23     		movs	r3, #11
 1291 0082 FB18     		adds	r3, r7, r3
 1292 0084 1A78     		ldrb	r2, [r3]
 1293 0086 1A49     		ldr	r1, .L69+4
 1294 0088 1300     		movs	r3, r2
 1295 008a 5B00     		lsls	r3, r3, #1
 1296 008c 9B18     		adds	r3, r3, r2
 1297 008e 5B00     		lsls	r3, r3, #1
 1298 0090 CB18     		adds	r3, r1, r3
 1299 0092 0233     		adds	r3, r3, #2
 1300 0094 1A88     		ldrh	r2, [r3]
 1301 0096 1023     		movs	r3, #16
 1302 0098 FB18     		adds	r3, r7, r3
 1303 009a 1A81     		strh	r2, [r3, #8]
 568:Generated_Source\PSoC4/BLE_hts.c ****         ntfReqParam.value.val = attrValue;
 1304              		.loc 1 568 0
 1305 009c 1023     		movs	r3, #16
ARM GAS  C:\Users\User\AppData\Local\Temp\ccR9uRpe.s 			page 34


 1306 009e FB18     		adds	r3, r7, r3
 1307 00a0 7A68     		ldr	r2, [r7, #4]
 1308 00a2 1A60     		str	r2, [r3]
 569:Generated_Source\PSoC4/BLE_hts.c ****         ntfReqParam.value.len = attrSize;
 1309              		.loc 1 569 0
 1310 00a4 0A23     		movs	r3, #10
 1311 00a6 FB18     		adds	r3, r7, r3
 1312 00a8 1B78     		ldrb	r3, [r3]
 1313 00aa 9AB2     		uxth	r2, r3
 1314 00ac 1023     		movs	r3, #16
 1315 00ae FB18     		adds	r3, r7, r3
 1316 00b0 9A80     		strh	r2, [r3, #4]
 570:Generated_Source\PSoC4/BLE_hts.c ****         
 571:Generated_Source\PSoC4/BLE_hts.c ****         /* Send indication to client using previously filled structure */
 572:Generated_Source\PSoC4/BLE_hts.c ****         apiResult = CyBle_GattsIndication(connHandle, &ntfReqParam);
 1317              		.loc 1 572 0
 1318 00b2 1E23     		movs	r3, #30
 1319 00b4 FC18     		adds	r4, r7, r3
 1320 00b6 1023     		movs	r3, #16
 1321 00b8 FA18     		adds	r2, r7, r3
 1322 00ba 0C23     		movs	r3, #12
 1323 00bc FB18     		adds	r3, r7, r3
 1324 00be 1100     		movs	r1, r2
 1325 00c0 1868     		ldr	r0, [r3]
 1326 00c2 FFF7FEFF 		bl	CyBle_GattsIndication
 1327 00c6 0300     		movs	r3, r0
 1328 00c8 2380     		strh	r3, [r4]
 573:Generated_Source\PSoC4/BLE_hts.c ****         /* Save handle to support service specific value confirmation response from client */
 574:Generated_Source\PSoC4/BLE_hts.c ****         if(apiResult == CYBLE_ERROR_OK)
 1329              		.loc 1 574 0
 1330 00ca 1E23     		movs	r3, #30
 1331 00cc FB18     		adds	r3, r7, r3
 1332 00ce 1B88     		ldrh	r3, [r3]
 1333 00d0 002B     		cmp	r3, #0
 1334 00d2 04D1     		bne	.L65
 575:Generated_Source\PSoC4/BLE_hts.c ****         {
 576:Generated_Source\PSoC4/BLE_hts.c ****             cyBle_htssReqHandle = ntfReqParam.attrHandle;
 1335              		.loc 1 576 0
 1336 00d4 1023     		movs	r3, #16
 1337 00d6 FB18     		adds	r3, r7, r3
 1338 00d8 1A89     		ldrh	r2, [r3, #8]
 1339 00da 074B     		ldr	r3, .L69+12
 1340 00dc 1A80     		strh	r2, [r3]
 1341              	.L65:
 1342              	.LBE5:
 577:Generated_Source\PSoC4/BLE_hts.c ****         }
 578:Generated_Source\PSoC4/BLE_hts.c ****     }
 579:Generated_Source\PSoC4/BLE_hts.c ****     return (apiResult);
 1343              		.loc 1 579 0
 1344 00de 1E23     		movs	r3, #30
 1345 00e0 FB18     		adds	r3, r7, r3
 1346 00e2 1B88     		ldrh	r3, [r3]
 580:Generated_Source\PSoC4/BLE_hts.c **** }
 1347              		.loc 1 580 0
 1348 00e4 1800     		movs	r0, r3
 1349 00e6 BD46     		mov	sp, r7
 1350 00e8 09B0     		add	sp, sp, #36
ARM GAS  C:\Users\User\AppData\Local\Temp\ccR9uRpe.s 			page 35


 1351              		@ sp needed
 1352 00ea 90BD     		pop	{r4, r7, pc}
 1353              	.L70:
 1354              		.align	2
 1355              	.L69:
 1356 00ec 00000000 		.word	cyBle_state
 1357 00f0 00000000 		.word	cyBle_htss
 1358 00f4 00000000 		.word	cyBle_gattDB
 1359 00f8 04000000 		.word	cyBle_htssReqHandle
 1360              		.cfi_endproc
 1361              	.LFE10:
 1362              		.size	CyBle_HtssSendIndication, .-CyBle_HtssSendIndication
 1363              		.section	.text.CyBle_HtssConfirmationEventHandler,"ax",%progbits
 1364              		.align	2
 1365              		.global	CyBle_HtssConfirmationEventHandler
 1366              		.code	16
 1367              		.thumb_func
 1368              		.type	CyBle_HtssConfirmationEventHandler, %function
 1369              	CyBle_HtssConfirmationEventHandler:
 1370              	.LFB11:
 581:Generated_Source\PSoC4/BLE_hts.c **** 
 582:Generated_Source\PSoC4/BLE_hts.c **** 
 583:Generated_Source\PSoC4/BLE_hts.c **** /******************************************************************************
 584:Generated_Source\PSoC4/BLE_hts.c **** * Function Name: CyBle_HtssConfirmationEventHandler
 585:Generated_Source\PSoC4/BLE_hts.c **** ***************************************************************************//**
 586:Generated_Source\PSoC4/BLE_hts.c **** * 
 587:Generated_Source\PSoC4/BLE_hts.c **** *  Handles a Value Confirmation request event from the BLE stack.
 588:Generated_Source\PSoC4/BLE_hts.c **** * 
 589:Generated_Source\PSoC4/BLE_hts.c **** *  *eventParam - The pointer to a structure of type CYBLE_CONN_HANDLE_T.
 590:Generated_Source\PSoC4/BLE_hts.c **** * 
 591:Generated_Source\PSoC4/BLE_hts.c **** ******************************************************************************/
 592:Generated_Source\PSoC4/BLE_hts.c **** void CyBle_HtssConfirmationEventHandler(const CYBLE_CONN_HANDLE_T *eventParam)
 593:Generated_Source\PSoC4/BLE_hts.c **** {
 1371              		.loc 1 593 0
 1372              		.cfi_startproc
 1373              		@ args = 0, pretend = 0, frame = 24
 1374              		@ frame_needed = 1, uses_anonymous_args = 0
 1375 0000 80B5     		push	{r7, lr}
 1376              		.cfi_def_cfa_offset 8
 1377              		.cfi_offset 7, -8
 1378              		.cfi_offset 14, -4
 1379 0002 86B0     		sub	sp, sp, #24
 1380              		.cfi_def_cfa_offset 32
 1381 0004 00AF     		add	r7, sp, #0
 1382              		.cfi_def_cfa_register 7
 1383 0006 7860     		str	r0, [r7, #4]
 594:Generated_Source\PSoC4/BLE_hts.c ****     CYBLE_HTS_CHAR_INDEX_T locCharIndex;
 595:Generated_Source\PSoC4/BLE_hts.c ****     CYBLE_HTS_CHAR_VALUE_T locCharValue;
 596:Generated_Source\PSoC4/BLE_hts.c ****     uint8 locReqHandle = 0u;
 1384              		.loc 1 596 0
 1385 0008 1623     		movs	r3, #22
 1386 000a FB18     		adds	r3, r7, r3
 1387 000c 0022     		movs	r2, #0
 1388 000e 1A70     		strb	r2, [r3]
 597:Generated_Source\PSoC4/BLE_hts.c **** 
 598:Generated_Source\PSoC4/BLE_hts.c ****     if((NULL != CyBle_HtsApplCallback) && (CYBLE_GATT_INVALID_ATTR_HANDLE_VALUE != cyBle_htssReqHan
 1389              		.loc 1 598 0
ARM GAS  C:\Users\User\AppData\Local\Temp\ccR9uRpe.s 			page 36


 1390 0010 2D4B     		ldr	r3, .L77
 1391 0012 1B68     		ldr	r3, [r3]
 1392 0014 002B     		cmp	r3, #0
 1393 0016 52D0     		beq	.L76
 1394              		.loc 1 598 0 is_stmt 0 discriminator 1
 1395 0018 2C4B     		ldr	r3, .L77+4
 1396 001a 1B88     		ldrh	r3, [r3]
 1397 001c 002B     		cmp	r3, #0
 1398 001e 4ED0     		beq	.L76
 599:Generated_Source\PSoC4/BLE_hts.c ****     {
 600:Generated_Source\PSoC4/BLE_hts.c ****         for(locCharIndex = CYBLE_HTS_TEMP_MEASURE; (locCharIndex < CYBLE_HTS_CHAR_COUNT) && (locReq
 1399              		.loc 1 600 0 is_stmt 1
 1400 0020 1723     		movs	r3, #23
 1401 0022 FB18     		adds	r3, r7, r3
 1402 0024 0022     		movs	r2, #0
 1403 0026 1A70     		strb	r2, [r3]
 1404 0028 3FE0     		b	.L73
 1405              	.L75:
 601:Generated_Source\PSoC4/BLE_hts.c ****             locCharIndex++)
 602:Generated_Source\PSoC4/BLE_hts.c ****         {
 603:Generated_Source\PSoC4/BLE_hts.c ****             if(cyBle_htssReqHandle == cyBle_htss.charInfo[locCharIndex].charHandle)
 1406              		.loc 1 603 0
 1407 002a 1723     		movs	r3, #23
 1408 002c FB18     		adds	r3, r7, r3
 1409 002e 1A78     		ldrb	r2, [r3]
 1410 0030 2749     		ldr	r1, .L77+8
 1411 0032 1300     		movs	r3, r2
 1412 0034 5B00     		lsls	r3, r3, #1
 1413 0036 9B18     		adds	r3, r3, r2
 1414 0038 5B00     		lsls	r3, r3, #1
 1415 003a CB18     		adds	r3, r1, r3
 1416 003c 0233     		adds	r3, r3, #2
 1417 003e 1A88     		ldrh	r2, [r3]
 1418 0040 224B     		ldr	r3, .L77+4
 1419 0042 1B88     		ldrh	r3, [r3]
 1420 0044 9A42     		cmp	r2, r3
 1421 0046 29D1     		bne	.L74
 604:Generated_Source\PSoC4/BLE_hts.c ****             {
 605:Generated_Source\PSoC4/BLE_hts.c ****                 locCharValue.connHandle = *eventParam;
 1422              		.loc 1 605 0
 1423 0048 0C23     		movs	r3, #12
 1424 004a FA18     		adds	r2, r7, r3
 1425 004c 7B68     		ldr	r3, [r7, #4]
 1426 004e 1000     		movs	r0, r2
 1427 0050 1900     		movs	r1, r3
 1428 0052 0223     		movs	r3, #2
 1429 0054 1A00     		movs	r2, r3
 1430 0056 FFF7FEFF 		bl	memcpy
 606:Generated_Source\PSoC4/BLE_hts.c ****                 locCharValue.charIndex = locCharIndex;
 1431              		.loc 1 606 0
 1432 005a 0C23     		movs	r3, #12
 1433 005c FB18     		adds	r3, r7, r3
 1434 005e 1722     		movs	r2, #23
 1435 0060 BA18     		adds	r2, r7, r2
 1436 0062 1278     		ldrb	r2, [r2]
 1437 0064 9A70     		strb	r2, [r3, #2]
 607:Generated_Source\PSoC4/BLE_hts.c ****                 locCharValue.value = NULL;
ARM GAS  C:\Users\User\AppData\Local\Temp\ccR9uRpe.s 			page 37


 1438              		.loc 1 607 0
 1439 0066 0C23     		movs	r3, #12
 1440 0068 FB18     		adds	r3, r7, r3
 1441 006a 0022     		movs	r2, #0
 1442 006c 5A60     		str	r2, [r3, #4]
 608:Generated_Source\PSoC4/BLE_hts.c ****                 cyBle_eventHandlerFlag &= (uint8)~CYBLE_CALLBACK;
 1443              		.loc 1 608 0
 1444 006e 194B     		ldr	r3, .L77+12
 1445 0070 1B78     		ldrb	r3, [r3]
 1446 0072 DBB2     		uxtb	r3, r3
 1447 0074 0122     		movs	r2, #1
 1448 0076 9343     		bics	r3, r2
 1449 0078 DAB2     		uxtb	r2, r3
 1450 007a 164B     		ldr	r3, .L77+12
 1451 007c 1A70     		strb	r2, [r3]
 609:Generated_Source\PSoC4/BLE_hts.c ****                 cyBle_htssReqHandle = CYBLE_GATT_INVALID_ATTR_HANDLE_VALUE;
 1452              		.loc 1 609 0
 1453 007e 134B     		ldr	r3, .L77+4
 1454 0080 0022     		movs	r2, #0
 1455 0082 1A80     		strh	r2, [r3]
 610:Generated_Source\PSoC4/BLE_hts.c ****                 CyBle_HtsApplCallback((uint32)CYBLE_EVT_HTSS_INDICATION_CONFIRMED, &locCharValue);
 1456              		.loc 1 610 0
 1457 0084 104B     		ldr	r3, .L77
 1458 0086 1B68     		ldr	r3, [r3]
 1459 0088 0C22     		movs	r2, #12
 1460 008a B918     		adds	r1, r7, r2
 1461 008c DA22     		movs	r2, #218
 1462 008e 5200     		lsls	r2, r2, #1
 1463 0090 1000     		movs	r0, r2
 1464 0092 9847     		blx	r3
 611:Generated_Source\PSoC4/BLE_hts.c ****                 locReqHandle = 1u;
 1465              		.loc 1 611 0
 1466 0094 1623     		movs	r3, #22
 1467 0096 FB18     		adds	r3, r7, r3
 1468 0098 0122     		movs	r2, #1
 1469 009a 1A70     		strb	r2, [r3]
 1470              	.L74:
 601:Generated_Source\PSoC4/BLE_hts.c ****         {
 1471              		.loc 1 601 0
 1472 009c 1723     		movs	r3, #23
 1473 009e FB18     		adds	r3, r7, r3
 1474 00a0 1A78     		ldrb	r2, [r3]
 1475 00a2 1723     		movs	r3, #23
 1476 00a4 FB18     		adds	r3, r7, r3
 1477 00a6 0132     		adds	r2, r2, #1
 1478 00a8 1A70     		strb	r2, [r3]
 1479              	.L73:
 600:Generated_Source\PSoC4/BLE_hts.c ****             locCharIndex++)
 1480              		.loc 1 600 0 discriminator 1
 1481 00aa 1723     		movs	r3, #23
 1482 00ac FB18     		adds	r3, r7, r3
 1483 00ae 1B78     		ldrb	r3, [r3]
 1484 00b0 032B     		cmp	r3, #3
 1485 00b2 04D8     		bhi	.L76
 600:Generated_Source\PSoC4/BLE_hts.c ****             locCharIndex++)
 1486              		.loc 1 600 0 is_stmt 0 discriminator 2
 1487 00b4 1623     		movs	r3, #22
ARM GAS  C:\Users\User\AppData\Local\Temp\ccR9uRpe.s 			page 38


 1488 00b6 FB18     		adds	r3, r7, r3
 1489 00b8 1B78     		ldrb	r3, [r3]
 1490 00ba 002B     		cmp	r3, #0
 1491 00bc B5D0     		beq	.L75
 1492              	.L76:
 612:Generated_Source\PSoC4/BLE_hts.c ****             }
 613:Generated_Source\PSoC4/BLE_hts.c ****         }
 614:Generated_Source\PSoC4/BLE_hts.c ****     }
 615:Generated_Source\PSoC4/BLE_hts.c **** }
 1493              		.loc 1 615 0 is_stmt 1
 1494 00be C046     		nop
 1495 00c0 BD46     		mov	sp, r7
 1496 00c2 06B0     		add	sp, sp, #24
 1497              		@ sp needed
 1498 00c4 80BD     		pop	{r7, pc}
 1499              	.L78:
 1500 00c6 C046     		.align	2
 1501              	.L77:
 1502 00c8 00000000 		.word	CyBle_HtsApplCallback
 1503 00cc 04000000 		.word	cyBle_htssReqHandle
 1504 00d0 00000000 		.word	cyBle_htss
 1505 00d4 00000000 		.word	cyBle_eventHandlerFlag
 1506              		.cfi_endproc
 1507              	.LFE11:
 1508              		.size	CyBle_HtssConfirmationEventHandler, .-CyBle_HtssConfirmationEventHandler
 1509              		.text
 1510              	.Letext0:
 1511              		.file 2 "Generated_Source\\PSoC4\\cytypes.h"
 1512              		.file 3 "Generated_Source\\PSoC4\\BLE_Stack.h"
 1513              		.file 4 "Generated_Source\\PSoC4\\BLE_StackGatt.h"
 1514              		.file 5 "Generated_Source\\PSoC4\\BLE_StackGattServer.h"
 1515              		.file 6 "Generated_Source\\PSoC4\\BLE_StackGattDb.h"
 1516              		.file 7 "Generated_Source\\PSoC4\\BLE.h"
 1517              		.file 8 "Generated_Source\\PSoC4\\BLE_dis.h"
 1518              		.file 9 "Generated_Source\\PSoC4\\BLE_hts.h"
 1519              		.file 10 "Generated_Source\\PSoC4\\BLE_eventHandler.h"
 1520              		.file 11 "Generated_Source\\PSoC4\\BLE_gatt.h"