ARM GAS  C:\Users\User\AppData\Local\Temp\ccR9uRpe.s 			page 1


   1              		.syntax unified
   2              		.cpu cortex-m0
   3              		.fpu softvfp
   4              		.eabi_attribute 20, 1
   5              		.eabi_attribute 21, 1
   6              		.eabi_attribute 23, 3
   7              		.eabi_attribute 24, 1
   8              		.eabi_attribute 25, 1
   9              		.eabi_attribute 26, 1
  10              		.eabi_attribute 30, 6
  11              		.eabi_attribute 34, 0
  12              		.eabi_attribute 18, 4
  13              		.thumb
  14              		.syntax unified
  15              		.file	"BLE_hts.c"
  16              		.text
  17              	.Ltext0:
  18              		.cfi_sections	.debug_frame
  19              		.bss
  20              		.align	2
  21              	CyBle_HtsApplCallback:
  22 0000 00000000 		.space	4
  23              		.global	cyBle_htss
  24              		.section	.rodata
  25              		.align	2
  26              		.type	cyBle_htss, %object
  27              		.size	cyBle_htss, 26
  28              	cyBle_htss:
  29 0000 0C00     		.short	12
  30 0002 0E00     		.short	14
  31 0004 0F00     		.short	15
  32 0006 0000     		.short	0
  33 0008 1100     		.short	17
  34 000a 0000     		.short	0
  35 000c 0000     		.short	0
  36 000e 1300     		.short	19
  37 0010 1400     		.short	20
  38 0012 0000     		.short	0
  39 0014 1600     		.short	22
  40 0016 1700     		.short	23
  41 0018 1800     		.short	24
  42              		.bss
  43              		.align	1
  44              	cyBle_htssReqHandle:
  45 0004 0000     		.space	2
  46              		.section	.text.CyBle_HtsInit,"ax",%progbits
  47              		.align	2
  48              		.global	CyBle_HtsInit
  49              		.code	16
  50              		.thumb_func
  51              		.type	CyBle_HtsInit, %function
  52              	CyBle_HtsInit:
  53              	.LFB2:
  54              		.file 1 "Generated_Source\\PSoC4\\BLE_hts.c"
   1:Generated_Source\PSoC4/BLE_hts.c **** /***************************************************************************//**
   2:Generated_Source\PSoC4/BLE_hts.c **** * \file CYBLE_hts.c
   3:Generated_Source\PSoC4/BLE_hts.c **** * \version 3.30
ARM GAS  C:\Users\User\AppData\Local\Temp\ccR9uRpe.s 			page 2


   4:Generated_Source\PSoC4/BLE_hts.c **** * 
   5:Generated_Source\PSoC4/BLE_hts.c **** * \brief
   6:Generated_Source\PSoC4/BLE_hts.c **** *  Contains the source code for Health Thermometer Service.
   7:Generated_Source\PSoC4/BLE_hts.c **** * 
   8:Generated_Source\PSoC4/BLE_hts.c **** ********************************************************************************
   9:Generated_Source\PSoC4/BLE_hts.c **** * \copyright
  10:Generated_Source\PSoC4/BLE_hts.c **** * Copyright 2014-2016, Cypress Semiconductor Corporation.  All rights reserved.
  11:Generated_Source\PSoC4/BLE_hts.c **** * You may use this file only in accordance with the license, terms, conditions,
  12:Generated_Source\PSoC4/BLE_hts.c **** * disclaimers, and limitations in the end user license agreement accompanying
  13:Generated_Source\PSoC4/BLE_hts.c **** * the software package with which this file was provided.
  14:Generated_Source\PSoC4/BLE_hts.c **** *******************************************************************************/
  15:Generated_Source\PSoC4/BLE_hts.c **** 
  16:Generated_Source\PSoC4/BLE_hts.c **** 
  17:Generated_Source\PSoC4/BLE_hts.c **** #include "BLE_eventHandler.h"
  18:Generated_Source\PSoC4/BLE_hts.c **** 
  19:Generated_Source\PSoC4/BLE_hts.c **** static CYBLE_CALLBACK_T CyBle_HtsApplCallback = NULL;
  20:Generated_Source\PSoC4/BLE_hts.c **** 
  21:Generated_Source\PSoC4/BLE_hts.c **** #ifdef CYBLE_HTS_SERVER
  22:Generated_Source\PSoC4/BLE_hts.c **** 
  23:Generated_Source\PSoC4/BLE_hts.c **** const CYBLE_HTSS_T cyBle_htss =
  24:Generated_Source\PSoC4/BLE_hts.c **** {
  25:Generated_Source\PSoC4/BLE_hts.c ****     0x000Cu,    /* Handle of the HTS service */
  26:Generated_Source\PSoC4/BLE_hts.c ****     {
  27:Generated_Source\PSoC4/BLE_hts.c ****         
  28:Generated_Source\PSoC4/BLE_hts.c ****         /* Temperature Measurement characteristic */
  29:Generated_Source\PSoC4/BLE_hts.c ****         {
  30:Generated_Source\PSoC4/BLE_hts.c ****             0x000Eu, /* Handle of the Temperature Measurement characteristic */ 
  31:Generated_Source\PSoC4/BLE_hts.c ****             
  32:Generated_Source\PSoC4/BLE_hts.c ****             /* Array of Descriptors handles */
  33:Generated_Source\PSoC4/BLE_hts.c ****             {
  34:Generated_Source\PSoC4/BLE_hts.c ****                 0x000Fu, /* Handle of the Client Characteristic Configuration descriptor */ 
  35:Generated_Source\PSoC4/BLE_hts.c ****                 CYBLE_GATT_INVALID_ATTR_HANDLE_VALUE, 
  36:Generated_Source\PSoC4/BLE_hts.c ****             }, 
  37:Generated_Source\PSoC4/BLE_hts.c ****         }, 
  38:Generated_Source\PSoC4/BLE_hts.c ****         
  39:Generated_Source\PSoC4/BLE_hts.c ****         /* Temperature Type characteristic */
  40:Generated_Source\PSoC4/BLE_hts.c ****         {
  41:Generated_Source\PSoC4/BLE_hts.c ****             0x0011u, /* Handle of the Temperature Type characteristic */ 
  42:Generated_Source\PSoC4/BLE_hts.c ****             
  43:Generated_Source\PSoC4/BLE_hts.c ****             /* Array of Descriptors handles */
  44:Generated_Source\PSoC4/BLE_hts.c ****             {
  45:Generated_Source\PSoC4/BLE_hts.c ****                 CYBLE_GATT_INVALID_ATTR_HANDLE_VALUE, 
  46:Generated_Source\PSoC4/BLE_hts.c ****                 CYBLE_GATT_INVALID_ATTR_HANDLE_VALUE, 
  47:Generated_Source\PSoC4/BLE_hts.c ****             }, 
  48:Generated_Source\PSoC4/BLE_hts.c ****         }, 
  49:Generated_Source\PSoC4/BLE_hts.c ****         
  50:Generated_Source\PSoC4/BLE_hts.c ****         /* Intermediate Temperature characteristic */
  51:Generated_Source\PSoC4/BLE_hts.c ****         {
  52:Generated_Source\PSoC4/BLE_hts.c ****             0x0013u, /* Handle of the Intermediate Temperature characteristic */ 
  53:Generated_Source\PSoC4/BLE_hts.c ****             
  54:Generated_Source\PSoC4/BLE_hts.c ****             /* Array of Descriptors handles */
  55:Generated_Source\PSoC4/BLE_hts.c ****             {
  56:Generated_Source\PSoC4/BLE_hts.c ****                 0x0014u, /* Handle of the Client Characteristic Configuration descriptor */ 
  57:Generated_Source\PSoC4/BLE_hts.c ****                 CYBLE_GATT_INVALID_ATTR_HANDLE_VALUE, 
  58:Generated_Source\PSoC4/BLE_hts.c ****             }, 
  59:Generated_Source\PSoC4/BLE_hts.c ****         }, 
  60:Generated_Source\PSoC4/BLE_hts.c ****         
ARM GAS  C:\Users\User\AppData\Local\Temp\ccR9uRpe.s 			page 3


  61:Generated_Source\PSoC4/BLE_hts.c ****         /* Measurement Interval characteristic */
  62:Generated_Source\PSoC4/BLE_hts.c ****         {
  63:Generated_Source\PSoC4/BLE_hts.c ****             0x0016u, /* Handle of the Measurement Interval characteristic */ 
  64:Generated_Source\PSoC4/BLE_hts.c ****             
  65:Generated_Source\PSoC4/BLE_hts.c ****             /* Array of Descriptors handles */
  66:Generated_Source\PSoC4/BLE_hts.c ****             {
  67:Generated_Source\PSoC4/BLE_hts.c ****                 0x0017u, /* Handle of the Client Characteristic Configuration descriptor */ 
  68:Generated_Source\PSoC4/BLE_hts.c ****                 0x0018u, /* Handle of the Valid Range descriptor */ 
  69:Generated_Source\PSoC4/BLE_hts.c ****             }, 
  70:Generated_Source\PSoC4/BLE_hts.c ****         }, 
  71:Generated_Source\PSoC4/BLE_hts.c ****     },
  72:Generated_Source\PSoC4/BLE_hts.c **** };
  73:Generated_Source\PSoC4/BLE_hts.c **** static CYBLE_GATT_DB_ATTR_HANDLE_T cyBle_htssReqHandle;
  74:Generated_Source\PSoC4/BLE_hts.c ****     
  75:Generated_Source\PSoC4/BLE_hts.c **** #endif /* CYBLE_HTS_SERVER */
  76:Generated_Source\PSoC4/BLE_hts.c **** 
  77:Generated_Source\PSoC4/BLE_hts.c **** #ifdef CYBLE_HTS_CLIENT
  78:Generated_Source\PSoC4/BLE_hts.c **** 
  79:Generated_Source\PSoC4/BLE_hts.c **** CYBLE_HTSC_T cyBle_htsc;
  80:Generated_Source\PSoC4/BLE_hts.c **** static CYBLE_GATT_DB_ATTR_HANDLE_T cyBle_htscReqHandle;
  81:Generated_Source\PSoC4/BLE_hts.c **** 
  82:Generated_Source\PSoC4/BLE_hts.c **** #endif /* (CYBLE_HTS_CLIENT) */
  83:Generated_Source\PSoC4/BLE_hts.c **** 
  84:Generated_Source\PSoC4/BLE_hts.c **** 
  85:Generated_Source\PSoC4/BLE_hts.c **** /****************************************************************************** 
  86:Generated_Source\PSoC4/BLE_hts.c **** * Function Name: CyBle_HtsInit
  87:Generated_Source\PSoC4/BLE_hts.c **** ***************************************************************************//**
  88:Generated_Source\PSoC4/BLE_hts.c **** * 
  89:Generated_Source\PSoC4/BLE_hts.c **** *  This function initializes HTS Service.
  90:Generated_Source\PSoC4/BLE_hts.c **** * 
  91:Generated_Source\PSoC4/BLE_hts.c **** ******************************************************************************/
  92:Generated_Source\PSoC4/BLE_hts.c **** void CyBle_HtsInit(void)
  93:Generated_Source\PSoC4/BLE_hts.c **** {
  55              		.loc 1 93 0
  56              		.cfi_startproc
  57              		@ args = 0, pretend = 0, frame = 0
  58              		@ frame_needed = 1, uses_anonymous_args = 0
  59 0000 80B5     		push	{r7, lr}
  60              		.cfi_def_cfa_offset 8
  61              		.cfi_offset 7, -8
  62              		.cfi_offset 14, -4
  63 0002 00AF     		add	r7, sp, #0
  64              		.cfi_def_cfa_register 7
  94:Generated_Source\PSoC4/BLE_hts.c **** 
  95:Generated_Source\PSoC4/BLE_hts.c **** #ifdef CYBLE_HTS_SERVER
  96:Generated_Source\PSoC4/BLE_hts.c **** 
  97:Generated_Source\PSoC4/BLE_hts.c ****     cyBle_htssReqHandle = CYBLE_GATT_INVALID_ATTR_HANDLE_VALUE;
  65              		.loc 1 97 0
  66 0004 024B     		ldr	r3, .L2
  67 0006 0022     		movs	r2, #0
  68 0008 1A80     		strh	r2, [r3]
  98:Generated_Source\PSoC4/BLE_hts.c ****     
  99:Generated_Source\PSoC4/BLE_hts.c **** #endif /* CYBLE_HTS_SERVER */
 100:Generated_Source\PSoC4/BLE_hts.c **** 
 101:Generated_Source\PSoC4/BLE_hts.c **** #ifdef CYBLE_HTS_CLIENT
 102:Generated_Source\PSoC4/BLE_hts.c **** 
 103:Generated_Source\PSoC4/BLE_hts.c ****     if(cyBle_serverInfo[CYBLE_SRVI_HTS].range.startHandle == CYBLE_GATT_INVALID_ATTR_HANDLE_VALUE)
ARM GAS  C:\Users\User\AppData\Local\Temp\ccR9uRpe.s 			page 4


 104:Generated_Source\PSoC4/BLE_hts.c ****     {
 105:Generated_Source\PSoC4/BLE_hts.c ****         (void)memset(&cyBle_htsc, 0, sizeof(cyBle_htsc));
 106:Generated_Source\PSoC4/BLE_hts.c ****     }
 107:Generated_Source\PSoC4/BLE_hts.c ****     cyBle_htscReqHandle = CYBLE_GATT_INVALID_ATTR_HANDLE_VALUE;
 108:Generated_Source\PSoC4/BLE_hts.c **** 
 109:Generated_Source\PSoC4/BLE_hts.c **** #endif /* CYBLE_HTS_CLIENT */
 110:Generated_Source\PSoC4/BLE_hts.c **** }
  69              		.loc 1 110 0
  70 000a C046     		nop
  71 000c BD46     		mov	sp, r7
  72              		@ sp needed
  73 000e 80BD     		pop	{r7, pc}
  74              	.L3:
  75              		.align	2
  76              	.L2:
  77 0010 04000000 		.word	cyBle_htssReqHandle
  78              		.cfi_endproc
  79              	.LFE2:
  80              		.size	CyBle_HtsInit, .-CyBle_HtsInit
  81              		.section	.text.CyBle_HtsRegisterAttrCallback,"ax",%progbits
  82              		.align	2
  83              		.global	CyBle_HtsRegisterAttrCallback
  84              		.code	16
  85              		.thumb_func
  86              		.type	CyBle_HtsRegisterAttrCallback, %function
  87              	CyBle_HtsRegisterAttrCallback:
  88              	.LFB3:
 111:Generated_Source\PSoC4/BLE_hts.c **** 
 112:Generated_Source\PSoC4/BLE_hts.c **** 
 113:Generated_Source\PSoC4/BLE_hts.c **** /******************************************************************************
 114:Generated_Source\PSoC4/BLE_hts.c **** * Function Name: CyBle_HtsRegisterAttrCallback
 115:Generated_Source\PSoC4/BLE_hts.c **** ***************************************************************************//**
 116:Generated_Source\PSoC4/BLE_hts.c **** * 
 117:Generated_Source\PSoC4/BLE_hts.c **** *  Registers a callback function for service specific attribute operations.
 118:Generated_Source\PSoC4/BLE_hts.c **** *  Service specific write requests from peer device will not be handled with
 119:Generated_Source\PSoC4/BLE_hts.c **** *  unregistered callback function.
 120:Generated_Source\PSoC4/BLE_hts.c **** * 
 121:Generated_Source\PSoC4/BLE_hts.c **** *  \param callbackFunc: An application layer event callback function to receive 
 122:Generated_Source\PSoC4/BLE_hts.c **** *                     events from the BLE Component. The definition of 
 123:Generated_Source\PSoC4/BLE_hts.c **** *                     CYBLE_CALLBACK_T for HTS Service is:\n
 124:Generated_Source\PSoC4/BLE_hts.c **** *                     typedef void (* CYBLE_CALLBACK_T) (uint32 eventCode, 
 125:Generated_Source\PSoC4/BLE_hts.c **** *                                                        void *eventParam)
 126:Generated_Source\PSoC4/BLE_hts.c **** *                     * eventCode indicates the event that triggered this 
 127:Generated_Source\PSoC4/BLE_hts.c **** *                       callback (e.g. CYBLE_EVT_HTSS_NOTIFICATION_ENABLED).
 128:Generated_Source\PSoC4/BLE_hts.c **** *                     * eventParam contains the parameters corresponding to the 
 129:Generated_Source\PSoC4/BLE_hts.c **** *                       current event. (e.g. pointer to CYBLE_HTS_CHAR_VALUE_T
 130:Generated_Source\PSoC4/BLE_hts.c **** *                       structure that contains details of the characteristic 
 131:Generated_Source\PSoC4/BLE_hts.c **** *                       for which notification enabled event was triggered).
 132:Generated_Source\PSoC4/BLE_hts.c **** * 
 133:Generated_Source\PSoC4/BLE_hts.c **** ******************************************************************************/
 134:Generated_Source\PSoC4/BLE_hts.c **** void CyBle_HtsRegisterAttrCallback(CYBLE_CALLBACK_T callbackFunc)
 135:Generated_Source\PSoC4/BLE_hts.c **** {
  89              		.loc 1 135 0
  90              		.cfi_startproc
  91              		@ args = 0, pretend = 0, frame = 8
  92              		@ frame_needed = 1, uses_anonymous_args = 0
  93 0000 80B5     		push	{r7, lr}
ARM GAS  C:\Users\User\AppData\Local\Temp\ccR9uRpe.s 			page 5


  94              		.cfi_def_cfa_offset 8
  95              		.cfi_offset 7, -8
  96              		.cfi_offset 14, -4
  97 0002 82B0     		sub	sp, sp, #8
  98              		.cfi_def_cfa_offset 16
  99 0004 00AF     		add	r7, sp, #0
 100              		.cfi_def_cfa_register 7
 101 0006 7860     		str	r0, [r7, #4]
 136:Generated_Source\PSoC4/BLE_hts.c ****     CyBle_HtsApplCallback = callbackFunc;
 102              		.loc 1 136 0
 103 0008 034B     		ldr	r3, .L5
 104 000a 7A68     		ldr	r2, [r7, #4]
 105 000c 1A60     		str	r2, [r3]
 137:Generated_Source\PSoC4/BLE_hts.c **** }
 106              		.loc 1 137 0
 107 000e C046     		nop
 108 0010 BD46     		mov	sp, r7
 109 0012 02B0     		add	sp, sp, #8
 110              		@ sp needed
 111 0014 80BD     		pop	{r7, pc}
 112              	.L6:
 113 0016 C046     		.align	2
 114              	.L5:
 115 0018 00000000 		.word	CyBle_HtsApplCallback
 116              		.cfi_endproc
 117              	.LFE3:
 118              		.size	CyBle_HtsRegisterAttrCallback, .-CyBle_HtsRegisterAttrCallback
 119              		.section	.text.CyBle_HtssSetCharacteristicValue,"ax",%progbits
 120              		.align	2
 121              		.global	CyBle_HtssSetCharacteristicValue
 122              		.code	16
 123              		.thumb_func
 124              		.type	CyBle_HtssSetCharacteristicValue, %function
 125              	CyBle_HtssSetCharacteristicValue:
 126              	.LFB4:
 138:Generated_Source\PSoC4/BLE_hts.c **** 
 139:Generated_Source\PSoC4/BLE_hts.c **** #ifdef CYBLE_HTS_SERVER
 140:Generated_Source\PSoC4/BLE_hts.c **** 
 141:Generated_Source\PSoC4/BLE_hts.c **** 
 142:Generated_Source\PSoC4/BLE_hts.c **** /******************************************************************************
 143:Generated_Source\PSoC4/BLE_hts.c **** * Function Name: CyBle_HtssSetCharacteristicValue
 144:Generated_Source\PSoC4/BLE_hts.c **** ***************************************************************************//**
 145:Generated_Source\PSoC4/BLE_hts.c **** * 
 146:Generated_Source\PSoC4/BLE_hts.c **** *  Sets the characteristic value of the service in the local database.
 147:Generated_Source\PSoC4/BLE_hts.c **** * 
 148:Generated_Source\PSoC4/BLE_hts.c **** *  \param charIndex: The index of the service characteristic.
 149:Generated_Source\PSoC4/BLE_hts.c **** *  \param attrSize: The size (in Bytes) of the characteristic value attribute.
 150:Generated_Source\PSoC4/BLE_hts.c **** *  \param attrValue: The pointer to the characteristic value data that should be
 151:Generated_Source\PSoC4/BLE_hts.c **** *               stored in the GATT database.
 152:Generated_Source\PSoC4/BLE_hts.c **** * 
 153:Generated_Source\PSoC4/BLE_hts.c **** * \return
 154:Generated_Source\PSoC4/BLE_hts.c **** *  Return value is of type CYBLE_API_RESULT_T.
 155:Generated_Source\PSoC4/BLE_hts.c **** *  * CYBLE_ERROR_OK - The request handled successfully
 156:Generated_Source\PSoC4/BLE_hts.c **** *  * CYBLE_ERROR_INVALID_PARAMETER - Validation of the input parameter failed
 157:Generated_Source\PSoC4/BLE_hts.c **** *
 158:Generated_Source\PSoC4/BLE_hts.c **** ******************************************************************************/
 159:Generated_Source\PSoC4/BLE_hts.c **** CYBLE_API_RESULT_T CyBle_HtssSetCharacteristicValue(CYBLE_HTS_CHAR_INDEX_T charIndex,
ARM GAS  C:\Users\User\AppData\Local\Temp\ccR9uRpe.s 			page 6


 160:Generated_Source\PSoC4/BLE_hts.c ****     uint8 attrSize, uint8 *attrValue)
 161:Generated_Source\PSoC4/BLE_hts.c **** {
 127              		.loc 1 161 0
 128              		.cfi_startproc
 129              		@ args = 0, pretend = 0, frame = 24
 130              		@ frame_needed = 1, uses_anonymous_args = 0
 131 0000 80B5     		push	{r7, lr}
 132              		.cfi_def_cfa_offset 8
 133              		.cfi_offset 7, -8
 134              		.cfi_offset 14, -4
 135 0002 86B0     		sub	sp, sp, #24
 136              		.cfi_def_cfa_offset 32
 137 0004 00AF     		add	r7, sp, #0
 138              		.cfi_def_cfa_register 7
 139 0006 3A60     		str	r2, [r7]
 140 0008 FB1D     		adds	r3, r7, #7
 141 000a 021C     		adds	r2, r0, #0
 142 000c 1A70     		strb	r2, [r3]
 143 000e BB1D     		adds	r3, r7, #6
 144 0010 0A1C     		adds	r2, r1, #0
 145 0012 1A70     		strb	r2, [r3]
 162:Generated_Source\PSoC4/BLE_hts.c ****     CYBLE_API_RESULT_T apiResult = CYBLE_ERROR_OK;
 146              		.loc 1 162 0
 147 0014 1623     		movs	r3, #22
 148 0016 FB18     		adds	r3, r7, r3
 149 0018 0022     		movs	r2, #0
 150 001a 1A80     		strh	r2, [r3]
 163:Generated_Source\PSoC4/BLE_hts.c ****     CYBLE_GATT_HANDLE_VALUE_PAIR_T locHandleValuePair;
 164:Generated_Source\PSoC4/BLE_hts.c **** 
 165:Generated_Source\PSoC4/BLE_hts.c ****     if(charIndex >= CYBLE_HTS_CHAR_COUNT)
 151              		.loc 1 165 0
 152 001c FB1D     		adds	r3, r7, #7
 153 001e 1B78     		ldrb	r3, [r3]
 154 0020 032B     		cmp	r3, #3
 155 0022 04D9     		bls	.L8
 166:Generated_Source\PSoC4/BLE_hts.c ****     {
 167:Generated_Source\PSoC4/BLE_hts.c ****         apiResult = CYBLE_ERROR_INVALID_PARAMETER;
 156              		.loc 1 167 0
 157 0024 1623     		movs	r3, #22
 158 0026 FB18     		adds	r3, r7, r3
 159 0028 0122     		movs	r2, #1
 160 002a 1A80     		strh	r2, [r3]
 161 002c 23E0     		b	.L9
 162              	.L8:
 168:Generated_Source\PSoC4/BLE_hts.c ****     }
 169:Generated_Source\PSoC4/BLE_hts.c ****     else
 170:Generated_Source\PSoC4/BLE_hts.c ****     {
 171:Generated_Source\PSoC4/BLE_hts.c ****         /* Store data in database */
 172:Generated_Source\PSoC4/BLE_hts.c ****         locHandleValuePair.attrHandle = cyBle_htss.charInfo[charIndex].charHandle;
 163              		.loc 1 172 0
 164 002e FB1D     		adds	r3, r7, #7
 165 0030 1A78     		ldrb	r2, [r3]
 166 0032 1449     		ldr	r1, .L11
 167 0034 1300     		movs	r3, r2
 168 0036 5B00     		lsls	r3, r3, #1
 169 0038 9B18     		adds	r3, r3, r2
 170 003a 5B00     		lsls	r3, r3, #1
ARM GAS  C:\Users\User\AppData\Local\Temp\ccR9uRpe.s 			page 7


 171 003c CB18     		adds	r3, r1, r3
 172 003e 0233     		adds	r3, r3, #2
 173 0040 1A88     		ldrh	r2, [r3]
 174 0042 0823     		movs	r3, #8
 175 0044 FB18     		adds	r3, r7, r3
 176 0046 1A81     		strh	r2, [r3, #8]
 173:Generated_Source\PSoC4/BLE_hts.c ****         locHandleValuePair.value.len = attrSize;
 177              		.loc 1 173 0
 178 0048 BB1D     		adds	r3, r7, #6
 179 004a 1B78     		ldrb	r3, [r3]
 180 004c 9AB2     		uxth	r2, r3
 181 004e 0823     		movs	r3, #8
 182 0050 FB18     		adds	r3, r7, r3
 183 0052 9A80     		strh	r2, [r3, #4]
 174:Generated_Source\PSoC4/BLE_hts.c ****         locHandleValuePair.value.val = attrValue;
 184              		.loc 1 174 0
 185 0054 0823     		movs	r3, #8
 186 0056 FB18     		adds	r3, r7, r3
 187 0058 3A68     		ldr	r2, [r7]
 188 005a 1A60     		str	r2, [r3]
 175:Generated_Source\PSoC4/BLE_hts.c ****         if(CYBLE_GATT_ERR_NONE !=
 176:Generated_Source\PSoC4/BLE_hts.c ****             CyBle_GattsWriteAttributeValue(&locHandleValuePair, 0u, NULL, CYBLE_GATT_DB_LOCALLY_INI
 189              		.loc 1 176 0
 190 005c 0823     		movs	r3, #8
 191 005e F818     		adds	r0, r7, r3
 192 0060 0023     		movs	r3, #0
 193 0062 0022     		movs	r2, #0
 194 0064 0021     		movs	r1, #0
 195 0066 FFF7FEFF 		bl	CyBle_GattsWriteAttributeValue
 196 006a 031E     		subs	r3, r0, #0
 175:Generated_Source\PSoC4/BLE_hts.c ****         if(CYBLE_GATT_ERR_NONE !=
 197              		.loc 1 175 0
 198 006c 03D0     		beq	.L9
 177:Generated_Source\PSoC4/BLE_hts.c ****         {
 178:Generated_Source\PSoC4/BLE_hts.c ****             apiResult = CYBLE_ERROR_INVALID_PARAMETER;
 199              		.loc 1 178 0
 200 006e 1623     		movs	r3, #22
 201 0070 FB18     		adds	r3, r7, r3
 202 0072 0122     		movs	r2, #1
 203 0074 1A80     		strh	r2, [r3]
 204              	.L9:
 179:Generated_Source\PSoC4/BLE_hts.c ****         }
 180:Generated_Source\PSoC4/BLE_hts.c ****     }
 181:Generated_Source\PSoC4/BLE_hts.c ****     return (apiResult);
 205              		.loc 1 181 0
 206 0076 1623     		movs	r3, #22
 207 0078 FB18     		adds	r3, r7, r3
 208 007a 1B88     		ldrh	r3, [r3]
 182:Generated_Source\PSoC4/BLE_hts.c **** }
 209              		.loc 1 182 0
 210 007c 1800     		movs	r0, r3
 211 007e BD46     		mov	sp, r7
 212 0080 06B0     		add	sp, sp, #24
 213              		@ sp needed
 214 0082 80BD     		pop	{r7, pc}
 215              	.L12:
 216              		.align	2
ARM GAS  C:\Users\User\AppData\Local\Temp\ccR9uRpe.s 			page 8


 217              	.L11:
 218 0084 00000000 		.word	cyBle_htss
 219              		.cfi_endproc
 220              	.LFE4:
 221              		.size	CyBle_HtssSetCharacteristicValue, .-CyBle_HtssSetCharacteristicValue
 222              		.section	.text.CyBle_HtssGetCharacteristicValue,"ax",%progbits
 223              		.align	2
 224              		.global	CyBle_HtssGetCharacteristicValue
 225              		.code	16
 226              		.thumb_func
 227              		.type	CyBle_HtssGetCharacteristicValue, %function
 228              	CyBle_HtssGetCharacteristicValue:
 229              	.LFB5:
 183:Generated_Source\PSoC4/BLE_hts.c **** 
 184:Generated_Source\PSoC4/BLE_hts.c **** 
 185:Generated_Source\PSoC4/BLE_hts.c **** /******************************************************************************
 186:Generated_Source\PSoC4/BLE_hts.c **** * Function Name: CyBle_HtssGetCharacteristicValue
 187:Generated_Source\PSoC4/BLE_hts.c **** ***************************************************************************//**
 188:Generated_Source\PSoC4/BLE_hts.c **** * 
 189:Generated_Source\PSoC4/BLE_hts.c **** *  Gets the characteristic value of the service, which is a value identified by
 190:Generated_Source\PSoC4/BLE_hts.c **** *  charIndex.
 191:Generated_Source\PSoC4/BLE_hts.c **** * 
 192:Generated_Source\PSoC4/BLE_hts.c **** *  \param charIndex: The index of the service characteristic.
 193:Generated_Source\PSoC4/BLE_hts.c **** *  \param attrSize: The size of the characteristic value attribute.
 194:Generated_Source\PSoC4/BLE_hts.c **** *  \param attrValue: The pointer to the location where characteristic value data
 195:Generated_Source\PSoC4/BLE_hts.c **** *               should be stored.
 196:Generated_Source\PSoC4/BLE_hts.c **** * 
 197:Generated_Source\PSoC4/BLE_hts.c **** * \return
 198:Generated_Source\PSoC4/BLE_hts.c **** *  Return value is of type CYBLE_API_RESULT_T.
 199:Generated_Source\PSoC4/BLE_hts.c **** *  * CYBLE_ERROR_OK - The request handled successfully
 200:Generated_Source\PSoC4/BLE_hts.c **** *  * CYBLE_ERROR_INVALID_PARAMETER - Validation of the input parameter failed
 201:Generated_Source\PSoC4/BLE_hts.c **** *
 202:Generated_Source\PSoC4/BLE_hts.c **** ******************************************************************************/
 203:Generated_Source\PSoC4/BLE_hts.c **** CYBLE_API_RESULT_T CyBle_HtssGetCharacteristicValue(CYBLE_HTS_CHAR_INDEX_T charIndex,
 204:Generated_Source\PSoC4/BLE_hts.c ****     uint8 attrSize, uint8 *attrValue)
 205:Generated_Source\PSoC4/BLE_hts.c **** {
 230              		.loc 1 205 0
 231              		.cfi_startproc
 232              		@ args = 0, pretend = 0, frame = 24
 233              		@ frame_needed = 1, uses_anonymous_args = 0
 234 0000 80B5     		push	{r7, lr}
 235              		.cfi_def_cfa_offset 8
 236              		.cfi_offset 7, -8
 237              		.cfi_offset 14, -4
 238 0002 86B0     		sub	sp, sp, #24
 239              		.cfi_def_cfa_offset 32
 240 0004 00AF     		add	r7, sp, #0
 241              		.cfi_def_cfa_register 7
 242 0006 3A60     		str	r2, [r7]
 243 0008 FB1D     		adds	r3, r7, #7
 244 000a 021C     		adds	r2, r0, #0
 245 000c 1A70     		strb	r2, [r3]
 246 000e BB1D     		adds	r3, r7, #6
 247 0010 0A1C     		adds	r2, r1, #0
 248 0012 1A70     		strb	r2, [r3]
 206:Generated_Source\PSoC4/BLE_hts.c ****     CYBLE_API_RESULT_T apiResult = CYBLE_ERROR_OK;
 249              		.loc 1 206 0
ARM GAS  C:\Users\User\AppData\Local\Temp\ccR9uRpe.s 			page 9


 250 0014 1623     		movs	r3, #22
 251 0016 FB18     		adds	r3, r7, r3
 252 0018 0022     		movs	r2, #0
 253 001a 1A80     		strh	r2, [r3]
 207:Generated_Source\PSoC4/BLE_hts.c ****     CYBLE_GATT_HANDLE_VALUE_PAIR_T locHandleValuePair;
 208:Generated_Source\PSoC4/BLE_hts.c **** 
 209:Generated_Source\PSoC4/BLE_hts.c ****     if(charIndex >= CYBLE_HTS_CHAR_COUNT)
 254              		.loc 1 209 0
 255 001c FB1D     		adds	r3, r7, #7
 256 001e 1B78     		ldrb	r3, [r3]
 257 0020 032B     		cmp	r3, #3
 258 0022 04D9     		bls	.L14
 210:Generated_Source\PSoC4/BLE_hts.c ****     {
 211:Generated_Source\PSoC4/BLE_hts.c ****         apiResult = CYBLE_ERROR_INVALID_PARAMETER;
 259              		.loc 1 211 0
 260 0024 1623     		movs	r3, #22
 261 0026 FB18     		adds	r3, r7, r3
 262 0028 0122     		movs	r2, #1
 263 002a 1A80     		strh	r2, [r3]
 264 002c 23E0     		b	.L15
 265              	.L14:
 212:Generated_Source\PSoC4/BLE_hts.c ****     }
 213:Generated_Source\PSoC4/BLE_hts.c ****     else
 214:Generated_Source\PSoC4/BLE_hts.c ****     {
 215:Generated_Source\PSoC4/BLE_hts.c ****         /* Read characteristic value from database */
 216:Generated_Source\PSoC4/BLE_hts.c ****         locHandleValuePair.attrHandle = cyBle_htss.charInfo[charIndex].charHandle;
 266              		.loc 1 216 0
 267 002e FB1D     		adds	r3, r7, #7
 268 0030 1A78     		ldrb	r2, [r3]
 269 0032 1449     		ldr	r1, .L17
 270 0034 1300     		movs	r3, r2
 271 0036 5B00     		lsls	r3, r3, #1
 272 0038 9B18     		adds	r3, r3, r2
 273 003a 5B00     		lsls	r3, r3, #1
 274 003c CB18     		adds	r3, r1, r3
 275 003e 0233     		adds	r3, r3, #2
 276 0040 1A88     		ldrh	r2, [r3]
 277 0042 0823     		movs	r3, #8
 278 0044 FB18     		adds	r3, r7, r3
 279 0046 1A81     		strh	r2, [r3, #8]
 217:Generated_Source\PSoC4/BLE_hts.c ****         locHandleValuePair.value.len = attrSize;
 280              		.loc 1 217 0
 281 0048 BB1D     		adds	r3, r7, #6
 282 004a 1B78     		ldrb	r3, [r3]
 283 004c 9AB2     		uxth	r2, r3
 284 004e 0823     		movs	r3, #8
 285 0050 FB18     		adds	r3, r7, r3
 286 0052 9A80     		strh	r2, [r3, #4]
 218:Generated_Source\PSoC4/BLE_hts.c ****         locHandleValuePair.value.val = attrValue;
 287              		.loc 1 218 0
 288 0054 0823     		movs	r3, #8
 289 0056 FB18     		adds	r3, r7, r3
 290 0058 3A68     		ldr	r2, [r7]
 291 005a 1A60     		str	r2, [r3]
 219:Generated_Source\PSoC4/BLE_hts.c ****         if(CYBLE_GATT_ERR_NONE !=
 220:Generated_Source\PSoC4/BLE_hts.c ****             CyBle_GattsReadAttributeValue(&locHandleValuePair, NULL, CYBLE_GATT_DB_LOCALLY_INITIATE
 292              		.loc 1 220 0
ARM GAS  C:\Users\User\AppData\Local\Temp\ccR9uRpe.s 			page 10


 293 005c 0823     		movs	r3, #8
 294 005e FB18     		adds	r3, r7, r3
 295 0060 0022     		movs	r2, #0
 296 0062 0021     		movs	r1, #0
 297 0064 1800     		movs	r0, r3
 298 0066 FFF7FEFF 		bl	CyBle_GattsReadAttributeValue
 299 006a 031E     		subs	r3, r0, #0
 219:Generated_Source\PSoC4/BLE_hts.c ****         if(CYBLE_GATT_ERR_NONE !=
 300              		.loc 1 219 0
 301 006c 03D0     		beq	.L15
 221:Generated_Source\PSoC4/BLE_hts.c ****         {
 222:Generated_Source\PSoC4/BLE_hts.c ****             apiResult = CYBLE_ERROR_INVALID_PARAMETER;
 302              		.loc 1 222 0
 303 006e 1623     		movs	r3, #22
 304 0070 FB18     		adds	r3, r7, r3
 305 0072 0122     		movs	r2, #1
 306 0074 1A80     		strh	r2, [r3]
 307              	.L15:
 223:Generated_Source\PSoC4/BLE_hts.c ****         }
 224:Generated_Source\PSoC4/BLE_hts.c ****     }
 225:Generated_Source\PSoC4/BLE_hts.c ****     return (apiResult);
 308              		.loc 1 225 0
 309 0076 1623     		movs	r3, #22
 310 0078 FB18     		adds	r3, r7, r3
 311 007a 1B88     		ldrh	r3, [r3]
 226:Generated_Source\PSoC4/BLE_hts.c **** }
 312              		.loc 1 226 0
 313 007c 1800     		movs	r0, r3
 314 007e BD46     		mov	sp, r7
 315 0080 06B0     		add	sp, sp, #24
 316              		@ sp needed
 317 0082 80BD     		pop	{r7, pc}
 318              	.L18:
 319              		.align	2
 320              	.L17:
 321 0084 00000000 		.word	cyBle_htss
 322              		.cfi_endproc
 323              	.LFE5:
 324              		.size	CyBle_HtssGetCharacteristicValue, .-CyBle_HtssGetCharacteristicValue
 325              		.section	.text.CyBle_HtssSetCharacteristicDescriptor,"ax",%progbits
 326              		.align	2
 327              		.global	CyBle_HtssSetCharacteristicDescriptor
 328              		.code	16
 329              		.thumb_func
 330              		.type	CyBle_HtssSetCharacteristicDescriptor, %function
 331              	CyBle_HtssSetCharacteristicDescriptor:
 332              	.LFB6:
 227:Generated_Source\PSoC4/BLE_hts.c **** 
 228:Generated_Source\PSoC4/BLE_hts.c **** 
 229:Generated_Source\PSoC4/BLE_hts.c **** /******************************************************************************
 230:Generated_Source\PSoC4/BLE_hts.c **** * Function Name: CyBle_HtssSetCharacteristicDescriptor
 231:Generated_Source\PSoC4/BLE_hts.c **** ***************************************************************************//**
 232:Generated_Source\PSoC4/BLE_hts.c **** * 
 233:Generated_Source\PSoC4/BLE_hts.c **** *  Sets the characteristic descriptor of the specified characteristic.
 234:Generated_Source\PSoC4/BLE_hts.c **** * 
 235:Generated_Source\PSoC4/BLE_hts.c **** *  \param charIndex:  The index of the service characteristic.
 236:Generated_Source\PSoC4/BLE_hts.c **** *  \param descrIndex: The index of the service characteristic descriptor.
ARM GAS  C:\Users\User\AppData\Local\Temp\ccR9uRpe.s 			page 11


 237:Generated_Source\PSoC4/BLE_hts.c **** *  \param attrSize:   The size of the characteristic descriptor attribute.
 238:Generated_Source\PSoC4/BLE_hts.c **** *  \param attrValue: The pointer to the descriptor value data that should 
 239:Generated_Source\PSoC4/BLE_hts.c **** *              be stored in the GATT database. 
 240:Generated_Source\PSoC4/BLE_hts.c **** * 
 241:Generated_Source\PSoC4/BLE_hts.c **** * \return
 242:Generated_Source\PSoC4/BLE_hts.c **** *  Return value is of type CYBLE_API_RESULT_T.
 243:Generated_Source\PSoC4/BLE_hts.c **** *  * CYBLE_ERROR_OK - The request handled successfully
 244:Generated_Source\PSoC4/BLE_hts.c **** *  * CYBLE_ERROR_INVALID_PARAMETER - Validation of the input parameter failed
 245:Generated_Source\PSoC4/BLE_hts.c **** *
 246:Generated_Source\PSoC4/BLE_hts.c **** ******************************************************************************/
 247:Generated_Source\PSoC4/BLE_hts.c **** CYBLE_API_RESULT_T CyBle_HtssSetCharacteristicDescriptor(CYBLE_HTS_CHAR_INDEX_T charIndex,
 248:Generated_Source\PSoC4/BLE_hts.c ****     CYBLE_HTS_DESCR_INDEX_T descrIndex, uint8 attrSize, uint8 *attrValue)
 249:Generated_Source\PSoC4/BLE_hts.c **** {
 333              		.loc 1 249 0
 334              		.cfi_startproc
 335              		@ args = 0, pretend = 0, frame = 24
 336              		@ frame_needed = 1, uses_anonymous_args = 0
 337 0000 90B5     		push	{r4, r7, lr}
 338              		.cfi_def_cfa_offset 12
 339              		.cfi_offset 4, -12
 340              		.cfi_offset 7, -8
 341              		.cfi_offset 14, -4
 342 0002 87B0     		sub	sp, sp, #28
 343              		.cfi_def_cfa_offset 40
 344 0004 00AF     		add	r7, sp, #0
 345              		.cfi_def_cfa_register 7
 346 0006 0400     		movs	r4, r0
 347 0008 0800     		movs	r0, r1
 348 000a 1100     		movs	r1, r2
 349 000c 3B60     		str	r3, [r7]
 350 000e FB1D     		adds	r3, r7, #7
 351 0010 221C     		adds	r2, r4, #0
 352 0012 1A70     		strb	r2, [r3]
 353 0014 BB1D     		adds	r3, r7, #6
 354 0016 021C     		adds	r2, r0, #0
 355 0018 1A70     		strb	r2, [r3]
 356 001a 7B1D     		adds	r3, r7, #5
 357 001c 0A1C     		adds	r2, r1, #0
 358 001e 1A70     		strb	r2, [r3]
 250:Generated_Source\PSoC4/BLE_hts.c ****     CYBLE_API_RESULT_T apiResult = CYBLE_ERROR_OK;
 359              		.loc 1 250 0
 360 0020 1623     		movs	r3, #22
 361 0022 FB18     		adds	r3, r7, r3
 362 0024 0022     		movs	r2, #0
 363 0026 1A80     		strh	r2, [r3]
 251:Generated_Source\PSoC4/BLE_hts.c ****     CYBLE_GATT_HANDLE_VALUE_PAIR_T locHandleValuePair;
 252:Generated_Source\PSoC4/BLE_hts.c **** 
 253:Generated_Source\PSoC4/BLE_hts.c ****     if((charIndex >= CYBLE_HTS_CHAR_COUNT) || (descrIndex >= CYBLE_HTS_DESCR_COUNT))
 364              		.loc 1 253 0
 365 0028 FB1D     		adds	r3, r7, #7
 366 002a 1B78     		ldrb	r3, [r3]
 367 002c 032B     		cmp	r3, #3
 368 002e 03D8     		bhi	.L20
 369              		.loc 1 253 0 is_stmt 0 discriminator 1
 370 0030 BB1D     		adds	r3, r7, #6
 371 0032 1B78     		ldrb	r3, [r3]
 372 0034 012B     		cmp	r3, #1
ARM GAS  C:\Users\User\AppData\Local\Temp\ccR9uRpe.s 			page 12


 373 0036 04D9     		bls	.L21
 374              	.L20:
 254:Generated_Source\PSoC4/BLE_hts.c ****     {
 255:Generated_Source\PSoC4/BLE_hts.c ****         apiResult = CYBLE_ERROR_INVALID_PARAMETER;
 375              		.loc 1 255 0 is_stmt 1
 376 0038 1623     		movs	r3, #22
 377 003a FB18     		adds	r3, r7, r3
 378 003c 0122     		movs	r2, #1
 379 003e 1A80     		strh	r2, [r3]
 380 0040 30E0     		b	.L22
 381              	.L21:
 256:Generated_Source\PSoC4/BLE_hts.c ****     }
 257:Generated_Source\PSoC4/BLE_hts.c ****     else
 258:Generated_Source\PSoC4/BLE_hts.c ****     {
 259:Generated_Source\PSoC4/BLE_hts.c ****         locHandleValuePair.attrHandle = cyBle_htss.charInfo[charIndex].descrHandle[descrIndex];
 382              		.loc 1 259 0
 383 0042 FB1D     		adds	r3, r7, #7
 384 0044 1A78     		ldrb	r2, [r3]
 385 0046 BB1D     		adds	r3, r7, #6
 386 0048 1878     		ldrb	r0, [r3]
 387 004a 1A49     		ldr	r1, .L26
 388 004c 1300     		movs	r3, r2
 389 004e 5B00     		lsls	r3, r3, #1
 390 0050 9B18     		adds	r3, r3, r2
 391 0052 1B18     		adds	r3, r3, r0
 392 0054 5B00     		lsls	r3, r3, #1
 393 0056 CB18     		adds	r3, r1, r3
 394 0058 0433     		adds	r3, r3, #4
 395 005a 1A88     		ldrh	r2, [r3]
 396 005c 0823     		movs	r3, #8
 397 005e FB18     		adds	r3, r7, r3
 398 0060 1A81     		strh	r2, [r3, #8]
 260:Generated_Source\PSoC4/BLE_hts.c ****         if(locHandleValuePair.attrHandle != CYBLE_GATT_INVALID_ATTR_HANDLE_VALUE)
 399              		.loc 1 260 0
 400 0062 0823     		movs	r3, #8
 401 0064 FB18     		adds	r3, r7, r3
 402 0066 1B89     		ldrh	r3, [r3, #8]
 403 0068 002B     		cmp	r3, #0
 404 006a 17D0     		beq	.L23
 261:Generated_Source\PSoC4/BLE_hts.c ****         {
 262:Generated_Source\PSoC4/BLE_hts.c ****             locHandleValuePair.value.len = attrSize;
 405              		.loc 1 262 0
 406 006c 7B1D     		adds	r3, r7, #5
 407 006e 1B78     		ldrb	r3, [r3]
 408 0070 9AB2     		uxth	r2, r3
 409 0072 0823     		movs	r3, #8
 410 0074 FB18     		adds	r3, r7, r3
 411 0076 9A80     		strh	r2, [r3, #4]
 263:Generated_Source\PSoC4/BLE_hts.c ****             locHandleValuePair.value.val = attrValue;
 412              		.loc 1 263 0
 413 0078 0823     		movs	r3, #8
 414 007a FB18     		adds	r3, r7, r3
 415 007c 3A68     		ldr	r2, [r7]
 416 007e 1A60     		str	r2, [r3]
 264:Generated_Source\PSoC4/BLE_hts.c ****             if(CYBLE_GATT_ERR_NONE !=
 265:Generated_Source\PSoC4/BLE_hts.c ****                 CyBle_GattsWriteAttributeValue(&locHandleValuePair, 0u, NULL, CYBLE_GATT_DB_LOCALLY
 417              		.loc 1 265 0
ARM GAS  C:\Users\User\AppData\Local\Temp\ccR9uRpe.s 			page 13


 418 0080 0823     		movs	r3, #8
 419 0082 F818     		adds	r0, r7, r3
 420 0084 0023     		movs	r3, #0
 421 0086 0022     		movs	r2, #0
 422 0088 0021     		movs	r1, #0
 423 008a FFF7FEFF 		bl	CyBle_GattsWriteAttributeValue
 424 008e 031E     		subs	r3, r0, #0
 264:Generated_Source\PSoC4/BLE_hts.c ****             if(CYBLE_GATT_ERR_NONE !=
 425              		.loc 1 264 0
 426 0090 08D0     		beq	.L22
 266:Generated_Source\PSoC4/BLE_hts.c ****             {
 267:Generated_Source\PSoC4/BLE_hts.c ****                 apiResult = CYBLE_ERROR_INVALID_PARAMETER;
 427              		.loc 1 267 0
 428 0092 1623     		movs	r3, #22
 429 0094 FB18     		adds	r3, r7, r3
 430 0096 0122     		movs	r2, #1
 431 0098 1A80     		strh	r2, [r3]
 432 009a 03E0     		b	.L22
 433              	.L23:
 268:Generated_Source\PSoC4/BLE_hts.c ****             }
 269:Generated_Source\PSoC4/BLE_hts.c ****         }
 270:Generated_Source\PSoC4/BLE_hts.c ****         else
 271:Generated_Source\PSoC4/BLE_hts.c ****         {
 272:Generated_Source\PSoC4/BLE_hts.c ****             apiResult = CYBLE_ERROR_INVALID_PARAMETER;
 434              		.loc 1 272 0
 435 009c 1623     		movs	r3, #22
 436 009e FB18     		adds	r3, r7, r3
 437 00a0 0122     		movs	r2, #1
 438 00a2 1A80     		strh	r2, [r3]
 439              	.L22:
 273:Generated_Source\PSoC4/BLE_hts.c ****         }
 274:Generated_Source\PSoC4/BLE_hts.c ****     }
 275:Generated_Source\PSoC4/BLE_hts.c ****     return (apiResult);
 440              		.loc 1 275 0
 441 00a4 1623     		movs	r3, #22
 442 00a6 FB18     		adds	r3, r7, r3
 443 00a8 1B88     		ldrh	r3, [r3]
 276:Generated_Source\PSoC4/BLE_hts.c **** }
 444              		.loc 1 276 0
 445 00aa 1800     		movs	r0, r3
 446 00ac BD46     		mov	sp, r7
 447 00ae 07B0     		add	sp, sp, #28
 448              		@ sp needed
 449 00b0 90BD     		pop	{r4, r7, pc}
 450              	.L27:
 451 00b2 C046     		.align	2
 452              	.L26:
 453 00b4 00000000 		.word	cyBle_htss
 454              		.cfi_endproc
 455              	.LFE6:
 456              		.size	CyBle_HtssSetCharacteristicDescriptor, .-CyBle_HtssSetCharacteristicDescriptor
 457              		.section	.text.CyBle_HtssGetCharacteristicDescriptor,"ax",%progbits
 458              		.align	2
 459              		.global	CyBle_HtssGetCharacteristicDescriptor
 460              		.code	16
 461              		.thumb_func
 462              		.type	CyBle_HtssGetCharacteristicDescriptor, %function
ARM GAS  C:\Users\User\AppData\Local\Temp\ccR9uRpe.s 			page 14


 463              	CyBle_HtssGetCharacteristicDescriptor:
 464              	.LFB7:
 277:Generated_Source\PSoC4/BLE_hts.c **** 
 278:Generated_Source\PSoC4/BLE_hts.c **** 
 279:Generated_Source\PSoC4/BLE_hts.c **** /******************************************************************************
 280:Generated_Source\PSoC4/BLE_hts.c **** * Function Name: CyBle_HtssGetCharacteristicDescriptor
 281:Generated_Source\PSoC4/BLE_hts.c **** ***************************************************************************//**
 282:Generated_Source\PSoC4/BLE_hts.c **** * 
 283:Generated_Source\PSoC4/BLE_hts.c **** *  Gets the characteristic descriptor of the specified characteristic.
 284:Generated_Source\PSoC4/BLE_hts.c **** * 
 285:Generated_Source\PSoC4/BLE_hts.c **** *  \param charIndex: The index of the service characteristic.
 286:Generated_Source\PSoC4/BLE_hts.c **** *  \param descrIndex: The index of the service characteristic descriptor.
 287:Generated_Source\PSoC4/BLE_hts.c **** *  \param attrSize: The size of the characteristic descriptor attribute.
 288:Generated_Source\PSoC4/BLE_hts.c **** *  \param attrValue: The pointer to the location where characteristic descriptor
 289:Generated_Source\PSoC4/BLE_hts.c **** *               value data should be stored.
 290:Generated_Source\PSoC4/BLE_hts.c **** * 
 291:Generated_Source\PSoC4/BLE_hts.c **** * \return
 292:Generated_Source\PSoC4/BLE_hts.c **** *  Return value is of type CYBLE_API_RESULT_T.
 293:Generated_Source\PSoC4/BLE_hts.c **** *  * CYBLE_ERROR_OK - The request handled successfully
 294:Generated_Source\PSoC4/BLE_hts.c **** *  * CYBLE_ERROR_INVALID_PARAMETER - Validation of the input parameter failed
 295:Generated_Source\PSoC4/BLE_hts.c **** *
 296:Generated_Source\PSoC4/BLE_hts.c **** ******************************************************************************/
 297:Generated_Source\PSoC4/BLE_hts.c **** CYBLE_API_RESULT_T CyBle_HtssGetCharacteristicDescriptor(CYBLE_HTS_CHAR_INDEX_T charIndex,
 298:Generated_Source\PSoC4/BLE_hts.c ****     CYBLE_HTS_DESCR_INDEX_T descrIndex, uint8 attrSize, uint8 *attrValue)
 299:Generated_Source\PSoC4/BLE_hts.c **** {
 465              		.loc 1 299 0
 466              		.cfi_startproc
 467              		@ args = 0, pretend = 0, frame = 24
 468              		@ frame_needed = 1, uses_anonymous_args = 0
 469 0000 90B5     		push	{r4, r7, lr}
 470              		.cfi_def_cfa_offset 12
 471              		.cfi_offset 4, -12
 472              		.cfi_offset 7, -8
 473              		.cfi_offset 14, -4
 474 0002 87B0     		sub	sp, sp, #28
 475              		.cfi_def_cfa_offset 40
 476 0004 00AF     		add	r7, sp, #0
 477              		.cfi_def_cfa_register 7
 478 0006 0400     		movs	r4, r0
 479 0008 0800     		movs	r0, r1
 480 000a 1100     		movs	r1, r2
 481 000c 3B60     		str	r3, [r7]
 482 000e FB1D     		adds	r3, r7, #7
 483 0010 221C     		adds	r2, r4, #0
 484 0012 1A70     		strb	r2, [r3]
 485 0014 BB1D     		adds	r3, r7, #6
 486 0016 021C     		adds	r2, r0, #0
 487 0018 1A70     		strb	r2, [r3]
 488 001a 7B1D     		adds	r3, r7, #5
 489 001c 0A1C     		adds	r2, r1, #0
 490 001e 1A70     		strb	r2, [r3]
 300:Generated_Source\PSoC4/BLE_hts.c ****     CYBLE_API_RESULT_T apiResult = CYBLE_ERROR_OK;
 491              		.loc 1 300 0
 492 0020 1623     		movs	r3, #22
 493 0022 FB18     		adds	r3, r7, r3
 494 0024 0022     		movs	r2, #0
 495 0026 1A80     		strh	r2, [r3]
ARM GAS  C:\Users\User\AppData\Local\Temp\ccR9uRpe.s 			page 15


 301:Generated_Source\PSoC4/BLE_hts.c ****     CYBLE_GATT_HANDLE_VALUE_PAIR_T locHandleValuePair;
 302:Generated_Source\PSoC4/BLE_hts.c **** 
 303:Generated_Source\PSoC4/BLE_hts.c ****     if((charIndex >= CYBLE_HTS_CHAR_COUNT) || (descrIndex >= CYBLE_HTS_DESCR_COUNT))
 496              		.loc 1 303 0
 497 0028 FB1D     		adds	r3, r7, #7
 498 002a 1B78     		ldrb	r3, [r3]
 499 002c 032B     		cmp	r3, #3
 500 002e 03D8     		bhi	.L29
 501              		.loc 1 303 0 is_stmt 0 discriminator 1
 502 0030 BB1D     		adds	r3, r7, #6
 503 0032 1B78     		ldrb	r3, [r3]
 504 0034 012B     		cmp	r3, #1
 505 0036 04D9     		bls	.L30
 506              	.L29:
 304:Generated_Source\PSoC4/BLE_hts.c ****     {
 305:Generated_Source\PSoC4/BLE_hts.c ****         apiResult = CYBLE_ERROR_INVALID_PARAMETER;
 507              		.loc 1 305 0 is_stmt 1
 508 0038 1623     		movs	r3, #22
 509 003a FB18     		adds	r3, r7, r3
 510 003c 0122     		movs	r2, #1
 511 003e 1A80     		strh	r2, [r3]
 512 0040 30E0     		b	.L31
 513              	.L30:
 306:Generated_Source\PSoC4/BLE_hts.c ****     }
 307:Generated_Source\PSoC4/BLE_hts.c ****     else
 308:Generated_Source\PSoC4/BLE_hts.c ****     {
 309:Generated_Source\PSoC4/BLE_hts.c ****         locHandleValuePair.attrHandle = cyBle_htss.charInfo[charIndex].descrHandle[descrIndex];
 514              		.loc 1 309 0
 515 0042 FB1D     		adds	r3, r7, #7
 516 0044 1A78     		ldrb	r2, [r3]
 517 0046 BB1D     		adds	r3, r7, #6
 518 0048 1878     		ldrb	r0, [r3]
 519 004a 1A49     		ldr	r1, .L35
 520 004c 1300     		movs	r3, r2
 521 004e 5B00     		lsls	r3, r3, #1
 522 0050 9B18     		adds	r3, r3, r2
 523 0052 1B18     		adds	r3, r3, r0
 524 0054 5B00     		lsls	r3, r3, #1
 525 0056 CB18     		adds	r3, r1, r3
 526 0058 0433     		adds	r3, r3, #4
 527 005a 1A88     		ldrh	r2, [r3]
 528 005c 0823     		movs	r3, #8
 529 005e FB18     		adds	r3, r7, r3
 530 0060 1A81     		strh	r2, [r3, #8]
 310:Generated_Source\PSoC4/BLE_hts.c ****         if(locHandleValuePair.attrHandle != CYBLE_GATT_INVALID_ATTR_HANDLE_VALUE)
 531              		.loc 1 310 0
 532 0062 0823     		movs	r3, #8
 533 0064 FB18     		adds	r3, r7, r3
 534 0066 1B89     		ldrh	r3, [r3, #8]
 535 0068 002B     		cmp	r3, #0
 536 006a 17D0     		beq	.L32
 311:Generated_Source\PSoC4/BLE_hts.c ****         {
 312:Generated_Source\PSoC4/BLE_hts.c ****             locHandleValuePair.value.len = attrSize;
 537              		.loc 1 312 0
 538 006c 7B1D     		adds	r3, r7, #5
 539 006e 1B78     		ldrb	r3, [r3]
 540 0070 9AB2     		uxth	r2, r3
ARM GAS  C:\Users\User\AppData\Local\Temp\ccR9uRpe.s 			page 16


 541 0072 0823     		movs	r3, #8
 542 0074 FB18     		adds	r3, r7, r3
 543 0076 9A80     		strh	r2, [r3, #4]
 313:Generated_Source\PSoC4/BLE_hts.c ****             locHandleValuePair.value.val = attrValue;
 544              		.loc 1 313 0
 545 0078 0823     		movs	r3, #8
 546 007a FB18     		adds	r3, r7, r3
 547 007c 3A68     		ldr	r2, [r7]
 548 007e 1A60     		str	r2, [r3]
 314:Generated_Source\PSoC4/BLE_hts.c ****             if(CYBLE_GATT_ERR_NONE !=
 315:Generated_Source\PSoC4/BLE_hts.c ****                 CyBle_GattsReadAttributeValue(&locHandleValuePair, NULL, CYBLE_GATT_DB_LOCALLY_INIT
 549              		.loc 1 315 0
 550 0080 0823     		movs	r3, #8
 551 0082 FB18     		adds	r3, r7, r3
 552 0084 0022     		movs	r2, #0
 553 0086 0021     		movs	r1, #0
 554 0088 1800     		movs	r0, r3
 555 008a FFF7FEFF 		bl	CyBle_GattsReadAttributeValue
 556 008e 031E     		subs	r3, r0, #0
 314:Generated_Source\PSoC4/BLE_hts.c ****             if(CYBLE_GATT_ERR_NONE !=
 557              		.loc 1 314 0
 558 0090 08D0     		beq	.L31
 316:Generated_Source\PSoC4/BLE_hts.c ****             {
 317:Generated_Source\PSoC4/BLE_hts.c ****                 apiResult = CYBLE_ERROR_INVALID_PARAMETER;
 559              		.loc 1 317 0
 560 0092 1623     		movs	r3, #22
 561 0094 FB18     		adds	r3, r7, r3
 562 0096 0122     		movs	r2, #1
 563 0098 1A80     		strh	r2, [r3]
 564 009a 03E0     		b	.L31
 565              	.L32:
 318:Generated_Source\PSoC4/BLE_hts.c ****             }
 319:Generated_Source\PSoC4/BLE_hts.c ****         }
 320:Generated_Source\PSoC4/BLE_hts.c ****         else
 321:Generated_Source\PSoC4/BLE_hts.c ****         {
 322:Generated_Source\PSoC4/BLE_hts.c ****             apiResult = CYBLE_ERROR_INVALID_PARAMETER;
 566              		.loc 1 322 0
 567 009c 1623     		movs	r3, #22
 568 009e FB18     		adds	r3, r7, r3
 569 00a0 0122     		movs	r2, #1
 570 00a2 1A80     		strh	r2, [r3]
 571              	.L31:
 323:Generated_Source\PSoC4/BLE_hts.c ****         }
 324:Generated_Source\PSoC4/BLE_hts.c ****     }
 325:Generated_Source\PSoC4/BLE_hts.c ****     return (apiResult);
 572              		.loc 1 325 0
 573 00a4 1623     		movs	r3, #22
 574 00a6 FB18     		adds	r3, r7, r3
 575 00a8 1B88     		ldrh	r3, [r3]
 326:Generated_Source\PSoC4/BLE_hts.c **** }
 576              		.loc 1 326 0
 577 00aa 1800     		movs	r0, r3
 578 00ac BD46     		mov	sp, r7
 579 00ae 07B0     		add	sp, sp, #28
 580              		@ sp needed
 581 00b0 90BD     		pop	{r4, r7, pc}
 582              	.L36:
ARM GAS  C:\Users\User\AppData\Local\Temp\ccR9uRpe.s 			page 17


 583 00b2 C046     		.align	2
 584              	.L35:
 585 00b4 00000000 		.word	cyBle_htss
 586              		.cfi_endproc
 587              	.LFE7:
 588              		.size	CyBle_HtssGetCharacteristicDescriptor, .-CyBle_HtssGetCharacteristicDescriptor
 589              		.section	.text.CyBle_HtssWriteEventHandler,"ax",%progbits
 590              		.align	2
 591              		.global	CyBle_HtssWriteEventHandler
 592              		.code	16
 593              		.thumb_func
 594              		.type	CyBle_HtssWriteEventHandler, %function
 595              	CyBle_HtssWriteEventHandler:
 596              	.LFB8:
 327:Generated_Source\PSoC4/BLE_hts.c **** 
 328:Generated_Source\PSoC4/BLE_hts.c **** 
 329:Generated_Source\PSoC4/BLE_hts.c **** /******************************************************************************
 330:Generated_Source\PSoC4/BLE_hts.c **** * Function Name: CyBle_HtssWriteEventHandler
 331:Generated_Source\PSoC4/BLE_hts.c **** ***************************************************************************//**
 332:Generated_Source\PSoC4/BLE_hts.c **** * 
 333:Generated_Source\PSoC4/BLE_hts.c **** *  Handles Write Request Event for HTS service.
 334:Generated_Source\PSoC4/BLE_hts.c **** * 
 335:Generated_Source\PSoC4/BLE_hts.c **** *  \param void *eventParam: The pointer to the data structure specified by the event.
 336:Generated_Source\PSoC4/BLE_hts.c **** * 
 337:Generated_Source\PSoC4/BLE_hts.c **** ******************************************************************************/
 338:Generated_Source\PSoC4/BLE_hts.c **** CYBLE_GATT_ERR_CODE_T CyBle_HtssWriteEventHandler(CYBLE_GATTS_WRITE_REQ_PARAM_T *eventParam)
 339:Generated_Source\PSoC4/BLE_hts.c **** {
 597              		.loc 1 339 0
 598              		.cfi_startproc
 599              		@ args = 0, pretend = 0, frame = 32
 600              		@ frame_needed = 1, uses_anonymous_args = 0
 601 0000 90B5     		push	{r4, r7, lr}
 602              		.cfi_def_cfa_offset 12
 603              		.cfi_offset 4, -12
 604              		.cfi_offset 7, -8
 605              		.cfi_offset 14, -4
 606 0002 89B0     		sub	sp, sp, #36
 607              		.cfi_def_cfa_offset 48
 608 0004 00AF     		add	r7, sp, #0
 609              		.cfi_def_cfa_register 7
 610 0006 7860     		str	r0, [r7, #4]
 340:Generated_Source\PSoC4/BLE_hts.c ****     CYBLE_HTS_CHAR_INDEX_T locCharIndex;
 341:Generated_Source\PSoC4/BLE_hts.c ****     CYBLE_HTS_CHAR_VALUE_T locCharValue;
 342:Generated_Source\PSoC4/BLE_hts.c ****     CYBLE_GATT_ERR_CODE_T gattErr = CYBLE_GATT_ERR_NONE;
 611              		.loc 1 342 0
 612 0008 1E23     		movs	r3, #30
 613 000a FB18     		adds	r3, r7, r3
 614 000c 0022     		movs	r2, #0
 615 000e 1A70     		strb	r2, [r3]
 343:Generated_Source\PSoC4/BLE_hts.c ****     uint8 locReqHandle = 0u;
 616              		.loc 1 343 0
 617 0010 1D23     		movs	r3, #29
 618 0012 FB18     		adds	r3, r7, r3
 619 0014 0022     		movs	r2, #0
 620 0016 1A70     		strb	r2, [r3]
 344:Generated_Source\PSoC4/BLE_hts.c **** 
 345:Generated_Source\PSoC4/BLE_hts.c ****     if(NULL != CyBle_HtsApplCallback)
ARM GAS  C:\Users\User\AppData\Local\Temp\ccR9uRpe.s 			page 18


 621              		.loc 1 345 0
 622 0018 B34B     		ldr	r3, .L54
 623 001a 1B68     		ldr	r3, [r3]
 624 001c 002B     		cmp	r3, #0
 625 001e 00D1     		bne	.LCB516
 626 0020 5BE1     		b	.L38	@long jump
 627              	.LCB516:
 346:Generated_Source\PSoC4/BLE_hts.c ****     {
 347:Generated_Source\PSoC4/BLE_hts.c ****         for(locCharIndex = CYBLE_HTS_TEMP_MEASURE; (locCharIndex < CYBLE_HTS_CHAR_COUNT) && (locReq
 628              		.loc 1 347 0
 629 0022 1F23     		movs	r3, #31
 630 0024 FB18     		adds	r3, r7, r3
 631 0026 0022     		movs	r2, #0
 632 0028 1A70     		strb	r2, [r3]
 633 002a 4BE1     		b	.L39
 634              	.L52:
 348:Generated_Source\PSoC4/BLE_hts.c ****             locCharIndex++)
 349:Generated_Source\PSoC4/BLE_hts.c ****         {
 350:Generated_Source\PSoC4/BLE_hts.c ****             
 351:Generated_Source\PSoC4/BLE_hts.c ****             if((eventParam->handleValPair.attrHandle == cyBle_htss.charInfo[locCharIndex].descrHand
 635              		.loc 1 351 0
 636 002c 7B68     		ldr	r3, [r7, #4]
 637 002e 9989     		ldrh	r1, [r3, #12]
 638 0030 1F23     		movs	r3, #31
 639 0032 FB18     		adds	r3, r7, r3
 640 0034 1A78     		ldrb	r2, [r3]
 641 0036 AD48     		ldr	r0, .L54+4
 642 0038 1300     		movs	r3, r2
 643 003a 5B00     		lsls	r3, r3, #1
 644 003c 9B18     		adds	r3, r3, r2
 645 003e 5B00     		lsls	r3, r3, #1
 646 0040 C318     		adds	r3, r0, r3
 647 0042 0433     		adds	r3, r3, #4
 648 0044 1B88     		ldrh	r3, [r3]
 649 0046 9942     		cmp	r1, r3
 650 0048 0FD0     		beq	.L40
 352:Generated_Source\PSoC4/BLE_hts.c ****                (eventParam->handleValPair.attrHandle == cyBle_htss.charInfo[locCharIndex].charHandl
 651              		.loc 1 352 0 discriminator 1
 652 004a 7B68     		ldr	r3, [r7, #4]
 653 004c 9989     		ldrh	r1, [r3, #12]
 654 004e 1F23     		movs	r3, #31
 655 0050 FB18     		adds	r3, r7, r3
 656 0052 1A78     		ldrb	r2, [r3]
 657 0054 A548     		ldr	r0, .L54+4
 658 0056 1300     		movs	r3, r2
 659 0058 5B00     		lsls	r3, r3, #1
 660 005a 9B18     		adds	r3, r3, r2
 661 005c 5B00     		lsls	r3, r3, #1
 662 005e C318     		adds	r3, r0, r3
 663 0060 0233     		adds	r3, r3, #2
 664 0062 1B88     		ldrh	r3, [r3]
 351:Generated_Source\PSoC4/BLE_hts.c ****                (eventParam->handleValPair.attrHandle == cyBle_htss.charInfo[locCharIndex].charHandl
 665              		.loc 1 351 0 discriminator 1
 666 0064 9942     		cmp	r1, r3
 667 0066 00D0     		beq	.LCB554
 668 0068 25E1     		b	.L41	@long jump
 669              	.LCB554:
ARM GAS  C:\Users\User\AppData\Local\Temp\ccR9uRpe.s 			page 19


 670              	.L40:
 353:Generated_Source\PSoC4/BLE_hts.c ****             {
 354:Generated_Source\PSoC4/BLE_hts.c ****                 locCharValue.connHandle = eventParam->connHandle;
 671              		.loc 1 354 0
 672 006a 0C23     		movs	r3, #12
 673 006c FB18     		adds	r3, r7, r3
 674 006e 7A68     		ldr	r2, [r7, #4]
 675 0070 1288     		ldrh	r2, [r2]
 676 0072 1A80     		strh	r2, [r3]
 355:Generated_Source\PSoC4/BLE_hts.c ****                 locCharValue.charIndex = locCharIndex;
 677              		.loc 1 355 0
 678 0074 0C23     		movs	r3, #12
 679 0076 FB18     		adds	r3, r7, r3
 680 0078 1F22     		movs	r2, #31
 681 007a BA18     		adds	r2, r7, r2
 682 007c 1278     		ldrb	r2, [r2]
 683 007e 9A70     		strb	r2, [r3, #2]
 356:Generated_Source\PSoC4/BLE_hts.c ****                 locCharValue.value = &eventParam->handleValPair.value;
 684              		.loc 1 356 0
 685 0080 7B68     		ldr	r3, [r7, #4]
 686 0082 1A1D     		adds	r2, r3, #4
 687 0084 0C23     		movs	r3, #12
 688 0086 FB18     		adds	r3, r7, r3
 689 0088 5A60     		str	r2, [r3, #4]
 357:Generated_Source\PSoC4/BLE_hts.c ****                 /* Characteristic value write request */
 358:Generated_Source\PSoC4/BLE_hts.c ****                 if(eventParam->handleValPair.attrHandle == cyBle_htss.charInfo[locCharIndex].charHa
 690              		.loc 1 358 0
 691 008a 7B68     		ldr	r3, [r7, #4]
 692 008c 9989     		ldrh	r1, [r3, #12]
 693 008e 1F23     		movs	r3, #31
 694 0090 FB18     		adds	r3, r7, r3
 695 0092 1A78     		ldrb	r2, [r3]
 696 0094 9548     		ldr	r0, .L54+4
 697 0096 1300     		movs	r3, r2
 698 0098 5B00     		lsls	r3, r3, #1
 699 009a 9B18     		adds	r3, r3, r2
 700 009c 5B00     		lsls	r3, r3, #1
 701 009e C318     		adds	r3, r0, r3
 702 00a0 0233     		adds	r3, r3, #2
 703 00a2 1B88     		ldrh	r3, [r3]
 704 00a4 9942     		cmp	r1, r3
 705 00a6 00D0     		beq	.LCB586
 706 00a8 73E0     		b	.L42	@long jump
 707              	.LCB586:
 359:Generated_Source\PSoC4/BLE_hts.c ****                 {
 360:Generated_Source\PSoC4/BLE_hts.c ****                     /* Validate Measure Interval value */
 361:Generated_Source\PSoC4/BLE_hts.c ****                     if(locCharIndex == CYBLE_HTS_MEASURE_INTERVAL)
 708              		.loc 1 361 0
 709 00aa 1F23     		movs	r3, #31
 710 00ac FB18     		adds	r3, r7, r3
 711 00ae 1B78     		ldrb	r3, [r3]
 712 00b0 032B     		cmp	r3, #3
 713 00b2 4ED1     		bne	.L43
 714              	.LBB2:
 362:Generated_Source\PSoC4/BLE_hts.c ****                     {
 363:Generated_Source\PSoC4/BLE_hts.c ****                         uint8 locAttrValue[CYBLE_HTS_VRD_LEN];
 364:Generated_Source\PSoC4/BLE_hts.c ****                         uint16 requestValue;
ARM GAS  C:\Users\User\AppData\Local\Temp\ccR9uRpe.s 			page 20


 365:Generated_Source\PSoC4/BLE_hts.c ****                         
 366:Generated_Source\PSoC4/BLE_hts.c ****                         requestValue = CyBle_Get16ByPtr(eventParam->handleValPair.value.val);
 715              		.loc 1 366 0
 716 00b4 7B68     		ldr	r3, [r7, #4]
 717 00b6 5B68     		ldr	r3, [r3, #4]
 718 00b8 1A22     		movs	r2, #26
 719 00ba BC18     		adds	r4, r7, r2
 720 00bc 1800     		movs	r0, r3
 721 00be FFF7FEFF 		bl	CyBle_Get16ByPtr
 722 00c2 0300     		movs	r3, r0
 723 00c4 2380     		strh	r3, [r4]
 367:Generated_Source\PSoC4/BLE_hts.c ****                         
 368:Generated_Source\PSoC4/BLE_hts.c ****                         if(requestValue != 0u) /* 0 is valid interval value for no periodic measure
 724              		.loc 1 368 0
 725 00c6 1A23     		movs	r3, #26
 726 00c8 FB18     		adds	r3, r7, r3
 727 00ca 1B88     		ldrh	r3, [r3]
 728 00cc 002B     		cmp	r3, #0
 729 00ce 40D0     		beq	.L43
 369:Generated_Source\PSoC4/BLE_hts.c ****                         {
 370:Generated_Source\PSoC4/BLE_hts.c ****                             /* Check Valid range for Measure Interval characteristic value */
 371:Generated_Source\PSoC4/BLE_hts.c ****                             if(CyBle_HtssGetCharacteristicDescriptor(locCharIndex, CYBLE_HTS_VRD, 
 730              		.loc 1 371 0
 731 00d0 0823     		movs	r3, #8
 732 00d2 FA18     		adds	r2, r7, r3
 733 00d4 1F23     		movs	r3, #31
 734 00d6 FB18     		adds	r3, r7, r3
 735 00d8 1878     		ldrb	r0, [r3]
 736 00da 1300     		movs	r3, r2
 737 00dc 0422     		movs	r2, #4
 738 00de 0121     		movs	r1, #1
 739 00e0 FFF7FEFF 		bl	CyBle_HtssGetCharacteristicDescriptor
 740 00e4 031E     		subs	r3, r0, #0
 741 00e6 34D1     		bne	.L43
 742              	.LBB3:
 372:Generated_Source\PSoC4/BLE_hts.c ****                                                     CYBLE_HTS_VRD_LEN, locAttrValue) == CYBLE_ERROR
 373:Generated_Source\PSoC4/BLE_hts.c ****                             {
 374:Generated_Source\PSoC4/BLE_hts.c ****                                 uint16 lowerValue;
 375:Generated_Source\PSoC4/BLE_hts.c ****                                 uint16 upperValue;
 376:Generated_Source\PSoC4/BLE_hts.c ****                                 
 377:Generated_Source\PSoC4/BLE_hts.c ****                                 lowerValue = CyBle_Get16ByPtr(locAttrValue);
 743              		.loc 1 377 0
 744 00e8 1823     		movs	r3, #24
 745 00ea FC18     		adds	r4, r7, r3
 746 00ec 0823     		movs	r3, #8
 747 00ee FB18     		adds	r3, r7, r3
 748 00f0 1800     		movs	r0, r3
 749 00f2 FFF7FEFF 		bl	CyBle_Get16ByPtr
 750 00f6 0300     		movs	r3, r0
 751 00f8 2380     		strh	r3, [r4]
 378:Generated_Source\PSoC4/BLE_hts.c ****                                 upperValue = CyBle_Get16ByPtr(locAttrValue + sizeof(lowerValue));
 752              		.loc 1 378 0
 753 00fa 0823     		movs	r3, #8
 754 00fc FB18     		adds	r3, r7, r3
 755 00fe 0233     		adds	r3, r3, #2
 756 0100 1622     		movs	r2, #22
 757 0102 BC18     		adds	r4, r7, r2
ARM GAS  C:\Users\User\AppData\Local\Temp\ccR9uRpe.s 			page 21


 758 0104 1800     		movs	r0, r3
 759 0106 FFF7FEFF 		bl	CyBle_Get16ByPtr
 760 010a 0300     		movs	r3, r0
 761 010c 2380     		strh	r3, [r4]
 379:Generated_Source\PSoC4/BLE_hts.c ****                                 requestValue = CyBle_Get16ByPtr(eventParam->handleValPair.value.val
 762              		.loc 1 379 0
 763 010e 7B68     		ldr	r3, [r7, #4]
 764 0110 5B68     		ldr	r3, [r3, #4]
 765 0112 1A22     		movs	r2, #26
 766 0114 BC18     		adds	r4, r7, r2
 767 0116 1800     		movs	r0, r3
 768 0118 FFF7FEFF 		bl	CyBle_Get16ByPtr
 769 011c 0300     		movs	r3, r0
 770 011e 2380     		strh	r3, [r4]
 380:Generated_Source\PSoC4/BLE_hts.c ****                                 if((requestValue != 0u) && ((requestValue < lowerValue) || (request
 771              		.loc 1 380 0
 772 0120 1A23     		movs	r3, #26
 773 0122 FB18     		adds	r3, r7, r3
 774 0124 1B88     		ldrh	r3, [r3]
 775 0126 002B     		cmp	r3, #0
 776 0128 13D0     		beq	.L43
 777              		.loc 1 380 0 is_stmt 0 discriminator 1
 778 012a 1A23     		movs	r3, #26
 779 012c FA18     		adds	r2, r7, r3
 780 012e 1823     		movs	r3, #24
 781 0130 FB18     		adds	r3, r7, r3
 782 0132 1288     		ldrh	r2, [r2]
 783 0134 1B88     		ldrh	r3, [r3]
 784 0136 9A42     		cmp	r2, r3
 785 0138 07D3     		bcc	.L45
 786              		.loc 1 380 0 discriminator 2
 787 013a 1A23     		movs	r3, #26
 788 013c FA18     		adds	r2, r7, r3
 789 013e 1623     		movs	r3, #22
 790 0140 FB18     		adds	r3, r7, r3
 791 0142 1288     		ldrh	r2, [r2]
 792 0144 1B88     		ldrh	r3, [r3]
 793 0146 9A42     		cmp	r2, r3
 794 0148 03D9     		bls	.L43
 795              	.L45:
 381:Generated_Source\PSoC4/BLE_hts.c ****                                 {
 382:Generated_Source\PSoC4/BLE_hts.c ****                                     gattErr = CYBLE_GATT_ERR_HTS_OUT_OF_RANGE;
 796              		.loc 1 382 0 is_stmt 1
 797 014a 1E23     		movs	r3, #30
 798 014c FB18     		adds	r3, r7, r3
 799 014e 8022     		movs	r2, #128
 800 0150 1A70     		strb	r2, [r3]
 801              	.L43:
 802              	.LBE3:
 803              	.LBE2:
 383:Generated_Source\PSoC4/BLE_hts.c ****                                 }
 384:Generated_Source\PSoC4/BLE_hts.c ****                             }
 385:Generated_Source\PSoC4/BLE_hts.c ****                         }
 386:Generated_Source\PSoC4/BLE_hts.c ****                     }
 387:Generated_Source\PSoC4/BLE_hts.c ****                     if(gattErr == CYBLE_GATT_ERR_NONE)
 804              		.loc 1 387 0
 805 0152 1E23     		movs	r3, #30
ARM GAS  C:\Users\User\AppData\Local\Temp\ccR9uRpe.s 			page 22


 806 0154 FB18     		adds	r3, r7, r3
 807 0156 1B78     		ldrb	r3, [r3]
 808 0158 002B     		cmp	r3, #0
 809 015a 00D0     		beq	.LCB678
 810 015c 9FE0     		b	.L47	@long jump
 811              	.LCB678:
 388:Generated_Source\PSoC4/BLE_hts.c ****                     {   /* Store value to database */
 389:Generated_Source\PSoC4/BLE_hts.c ****                         gattErr = CyBle_GattsWriteAttributeValue(&eventParam->handleValPair, 0u, 
 812              		.loc 1 389 0
 813 015e 7B68     		ldr	r3, [r7, #4]
 814 0160 181D     		adds	r0, r3, #4
 815 0162 7A68     		ldr	r2, [r7, #4]
 816 0164 1E23     		movs	r3, #30
 817 0166 FC18     		adds	r4, r7, r3
 818 0168 4023     		movs	r3, #64
 819 016a 0021     		movs	r1, #0
 820 016c FFF7FEFF 		bl	CyBle_GattsWriteAttributeValue
 821 0170 0300     		movs	r3, r0
 822 0172 2370     		strb	r3, [r4]
 390:Generated_Source\PSoC4/BLE_hts.c ****                                     &eventParam->connHandle, CYBLE_GATT_DB_PEER_INITIATED);
 391:Generated_Source\PSoC4/BLE_hts.c ****                         if(gattErr == CYBLE_GATT_ERR_NONE)
 823              		.loc 1 391 0
 824 0174 1E23     		movs	r3, #30
 825 0176 FB18     		adds	r3, r7, r3
 826 0178 1B78     		ldrb	r3, [r3]
 827 017a 002B     		cmp	r3, #0
 828 017c 00D0     		beq	.LCB693
 829 017e 8EE0     		b	.L47	@long jump
 830              	.LCB693:
 392:Generated_Source\PSoC4/BLE_hts.c ****                         {
 393:Generated_Source\PSoC4/BLE_hts.c ****                             CyBle_HtsApplCallback((uint32)CYBLE_EVT_HTSS_CHAR_WRITE, &locCharValue)
 831              		.loc 1 393 0
 832 0180 594B     		ldr	r3, .L54
 833 0182 1B68     		ldr	r3, [r3]
 834 0184 0C22     		movs	r2, #12
 835 0186 B918     		adds	r1, r7, r2
 836 0188 B622     		movs	r2, #182
 837 018a FF32     		adds	r2, r2, #255
 838 018c 1000     		movs	r0, r2
 839 018e 9847     		blx	r3
 840 0190 85E0     		b	.L47
 841              	.L42:
 394:Generated_Source\PSoC4/BLE_hts.c ****                         }
 395:Generated_Source\PSoC4/BLE_hts.c ****                     }    
 396:Generated_Source\PSoC4/BLE_hts.c ****                 }
 397:Generated_Source\PSoC4/BLE_hts.c ****                 else /* Client Characteristic Configuration descriptor write request */
 398:Generated_Source\PSoC4/BLE_hts.c ****                 {
 399:Generated_Source\PSoC4/BLE_hts.c ****                     /* Store value to database */
 400:Generated_Source\PSoC4/BLE_hts.c ****                     gattErr = CyBle_GattsWriteAttributeValue(&eventParam->handleValPair, 0u, 
 842              		.loc 1 400 0
 843 0192 7B68     		ldr	r3, [r7, #4]
 844 0194 181D     		adds	r0, r3, #4
 845 0196 7A68     		ldr	r2, [r7, #4]
 846 0198 1E23     		movs	r3, #30
 847 019a FC18     		adds	r4, r7, r3
 848 019c 4023     		movs	r3, #64
 849 019e 0021     		movs	r1, #0
ARM GAS  C:\Users\User\AppData\Local\Temp\ccR9uRpe.s 			page 23


 850 01a0 FFF7FEFF 		bl	CyBle_GattsWriteAttributeValue
 851 01a4 0300     		movs	r3, r0
 852 01a6 2370     		strb	r3, [r4]
 401:Generated_Source\PSoC4/BLE_hts.c ****                                     &eventParam->connHandle, CYBLE_GATT_DB_PEER_INITIATED);
 402:Generated_Source\PSoC4/BLE_hts.c ****                     if(gattErr == CYBLE_GATT_ERR_NONE)
 853              		.loc 1 402 0
 854 01a8 1E23     		movs	r3, #30
 855 01aa FB18     		adds	r3, r7, r3
 856 01ac 1B78     		ldrb	r3, [r3]
 857 01ae 002B     		cmp	r3, #0
 858 01b0 00D0     		beq	.LCB720
 859 01b2 74E0     		b	.L47	@long jump
 860              	.LCB720:
 403:Generated_Source\PSoC4/BLE_hts.c ****                     {
 404:Generated_Source\PSoC4/BLE_hts.c ****                         /* Check characteristic properties for Notification */
 405:Generated_Source\PSoC4/BLE_hts.c ****                         if(CYBLE_IS_NOTIFICATION_SUPPORTED(cyBle_htss.charInfo[locCharIndex].charHa
 861              		.loc 1 405 0
 862 01b4 1F23     		movs	r3, #31
 863 01b6 FB18     		adds	r3, r7, r3
 864 01b8 1A78     		ldrb	r2, [r3]
 865 01ba 4C49     		ldr	r1, .L54+4
 866 01bc 1300     		movs	r3, r2
 867 01be 5B00     		lsls	r3, r3, #1
 868 01c0 9B18     		adds	r3, r3, r2
 869 01c2 5B00     		lsls	r3, r3, #1
 870 01c4 CB18     		adds	r3, r1, r3
 871 01c6 0233     		adds	r3, r3, #2
 872 01c8 1B88     		ldrh	r3, [r3]
 873 01ca 5A1E     		subs	r2, r3, #1
 874 01cc 4849     		ldr	r1, .L54+8
 875 01ce 1300     		movs	r3, r2
 876 01d0 9B00     		lsls	r3, r3, #2
 877 01d2 9B18     		adds	r3, r3, r2
 878 01d4 9B00     		lsls	r3, r3, #2
 879 01d6 CB18     		adds	r3, r1, r3
 880 01d8 0433     		adds	r3, r3, #4
 881 01da 1A68     		ldr	r2, [r3]
 882 01dc 8023     		movs	r3, #128
 883 01de 5B03     		lsls	r3, r3, #13
 884 01e0 1340     		ands	r3, r2
 885 01e2 1CD0     		beq	.L48
 406:Generated_Source\PSoC4/BLE_hts.c ****                         {
 407:Generated_Source\PSoC4/BLE_hts.c ****                             if(CYBLE_IS_NOTIFICATION_ENABLED_IN_PTR(eventParam->handleValPair.value
 886              		.loc 1 407 0
 887 01e4 7B68     		ldr	r3, [r7, #4]
 888 01e6 5B68     		ldr	r3, [r3, #4]
 889 01e8 1800     		movs	r0, r3
 890 01ea FFF7FEFF 		bl	CyBle_Get16ByPtr
 891 01ee 0300     		movs	r3, r0
 892 01f0 1A00     		movs	r2, r3
 893 01f2 0123     		movs	r3, #1
 894 01f4 1340     		ands	r3, r2
 895 01f6 9BB2     		uxth	r3, r3
 896 01f8 002B     		cmp	r3, #0
 897 01fa 08D0     		beq	.L49
 408:Generated_Source\PSoC4/BLE_hts.c ****                             {
 409:Generated_Source\PSoC4/BLE_hts.c ****                                 CyBle_HtsApplCallback((uint32)CYBLE_EVT_HTSS_NOTIFICATION_ENABLED, 
ARM GAS  C:\Users\User\AppData\Local\Temp\ccR9uRpe.s 			page 24


 898              		.loc 1 409 0
 899 01fc 3A4B     		ldr	r3, .L54
 900 01fe 1B68     		ldr	r3, [r3]
 901 0200 0C22     		movs	r2, #12
 902 0202 B918     		adds	r1, r7, r2
 903 0204 D822     		movs	r2, #216
 904 0206 5200     		lsls	r2, r2, #1
 905 0208 1000     		movs	r0, r2
 906 020a 9847     		blx	r3
 907 020c 07E0     		b	.L48
 908              	.L49:
 410:Generated_Source\PSoC4/BLE_hts.c ****                             }
 411:Generated_Source\PSoC4/BLE_hts.c ****                             else
 412:Generated_Source\PSoC4/BLE_hts.c ****                             {
 413:Generated_Source\PSoC4/BLE_hts.c ****                                 CyBle_HtsApplCallback((uint32)CYBLE_EVT_HTSS_NOTIFICATION_DISABLED,
 909              		.loc 1 413 0
 910 020e 364B     		ldr	r3, .L54
 911 0210 1B68     		ldr	r3, [r3]
 912 0212 0C22     		movs	r2, #12
 913 0214 B918     		adds	r1, r7, r2
 914 0216 B222     		movs	r2, #178
 915 0218 FF32     		adds	r2, r2, #255
 916 021a 1000     		movs	r0, r2
 917 021c 9847     		blx	r3
 918              	.L48:
 414:Generated_Source\PSoC4/BLE_hts.c ****                             }
 415:Generated_Source\PSoC4/BLE_hts.c ****                         }
 416:Generated_Source\PSoC4/BLE_hts.c ****                         /* Check characteristic properties for Indication */
 417:Generated_Source\PSoC4/BLE_hts.c ****                         if(CYBLE_IS_INDICATION_SUPPORTED(cyBle_htss.charInfo[locCharIndex].charHand
 919              		.loc 1 417 0
 920 021e 1F23     		movs	r3, #31
 921 0220 FB18     		adds	r3, r7, r3
 922 0222 1A78     		ldrb	r2, [r3]
 923 0224 3149     		ldr	r1, .L54+4
 924 0226 1300     		movs	r3, r2
 925 0228 5B00     		lsls	r3, r3, #1
 926 022a 9B18     		adds	r3, r3, r2
 927 022c 5B00     		lsls	r3, r3, #1
 928 022e CB18     		adds	r3, r1, r3
 929 0230 0233     		adds	r3, r3, #2
 930 0232 1B88     		ldrh	r3, [r3]
 931 0234 5A1E     		subs	r2, r3, #1
 932 0236 2E49     		ldr	r1, .L54+8
 933 0238 1300     		movs	r3, r2
 934 023a 9B00     		lsls	r3, r3, #2
 935 023c 9B18     		adds	r3, r3, r2
 936 023e 9B00     		lsls	r3, r3, #2
 937 0240 CB18     		adds	r3, r1, r3
 938 0242 0433     		adds	r3, r3, #4
 939 0244 1A68     		ldr	r2, [r3]
 940 0246 8023     		movs	r3, #128
 941 0248 9B03     		lsls	r3, r3, #14
 942 024a 1340     		ands	r3, r2
 943 024c 1CD0     		beq	.L50
 418:Generated_Source\PSoC4/BLE_hts.c ****                         {
 419:Generated_Source\PSoC4/BLE_hts.c ****                             if(CYBLE_IS_INDICATION_ENABLED_IN_PTR(eventParam->handleValPair.value.v
 944              		.loc 1 419 0
ARM GAS  C:\Users\User\AppData\Local\Temp\ccR9uRpe.s 			page 25


 945 024e 7B68     		ldr	r3, [r7, #4]
 946 0250 5B68     		ldr	r3, [r3, #4]
 947 0252 1800     		movs	r0, r3
 948 0254 FFF7FEFF 		bl	CyBle_Get16ByPtr
 949 0258 0300     		movs	r3, r0
 950 025a 1A00     		movs	r2, r3
 951 025c 0223     		movs	r3, #2
 952 025e 1340     		ands	r3, r2
 953 0260 9BB2     		uxth	r3, r3
 954 0262 002B     		cmp	r3, #0
 955 0264 08D0     		beq	.L51
 420:Generated_Source\PSoC4/BLE_hts.c ****                             {
 421:Generated_Source\PSoC4/BLE_hts.c ****                                 CyBle_HtsApplCallback((uint32)CYBLE_EVT_HTSS_INDICATION_ENABLED, &l
 956              		.loc 1 421 0
 957 0266 204B     		ldr	r3, .L54
 958 0268 1B68     		ldr	r3, [r3]
 959 026a 0C22     		movs	r2, #12
 960 026c B918     		adds	r1, r7, r2
 961 026e D922     		movs	r2, #217
 962 0270 5200     		lsls	r2, r2, #1
 963 0272 1000     		movs	r0, r2
 964 0274 9847     		blx	r3
 965 0276 07E0     		b	.L50
 966              	.L51:
 422:Generated_Source\PSoC4/BLE_hts.c ****                             }
 423:Generated_Source\PSoC4/BLE_hts.c ****                             else
 424:Generated_Source\PSoC4/BLE_hts.c ****                             {
 425:Generated_Source\PSoC4/BLE_hts.c ****                                 CyBle_HtsApplCallback((uint32)CYBLE_EVT_HTSS_INDICATION_DISABLED, &
 967              		.loc 1 425 0
 968 0278 1B4B     		ldr	r3, .L54
 969 027a 1B68     		ldr	r3, [r3]
 970 027c 0C22     		movs	r2, #12
 971 027e B918     		adds	r1, r7, r2
 972 0280 B422     		movs	r2, #180
 973 0282 FF32     		adds	r2, r2, #255
 974 0284 1000     		movs	r0, r2
 975 0286 9847     		blx	r3
 976              	.L50:
 426:Generated_Source\PSoC4/BLE_hts.c ****                             }
 427:Generated_Source\PSoC4/BLE_hts.c ****                         }
 428:Generated_Source\PSoC4/BLE_hts.c ****                     #if((CYBLE_GAP_ROLE_PERIPHERAL || CYBLE_GAP_ROLE_CENTRAL) && \
 429:Generated_Source\PSoC4/BLE_hts.c ****                         (CYBLE_BONDING_REQUIREMENT == CYBLE_BONDING_YES))
 430:Generated_Source\PSoC4/BLE_hts.c ****                         /* Set flag to store bonding data to flash */
 431:Generated_Source\PSoC4/BLE_hts.c ****                         if(cyBle_peerBonding == CYBLE_GAP_BONDING)
 977              		.loc 1 431 0
 978 0288 1A4B     		ldr	r3, .L54+12
 979 028a 1B78     		ldrb	r3, [r3]
 980 028c 012B     		cmp	r3, #1
 981 028e 06D1     		bne	.L47
 432:Generated_Source\PSoC4/BLE_hts.c ****                         {
 433:Generated_Source\PSoC4/BLE_hts.c ****                             cyBle_pendingFlashWrite |= CYBLE_PENDING_CCCD_FLASH_WRITE_BIT;
 982              		.loc 1 433 0
 983 0290 194B     		ldr	r3, .L54+16
 984 0292 1B78     		ldrb	r3, [r3]
 985 0294 0222     		movs	r2, #2
 986 0296 1343     		orrs	r3, r2
 987 0298 DAB2     		uxtb	r2, r3
ARM GAS  C:\Users\User\AppData\Local\Temp\ccR9uRpe.s 			page 26


 988 029a 174B     		ldr	r3, .L54+16
 989 029c 1A70     		strb	r2, [r3]
 990              	.L47:
 434:Generated_Source\PSoC4/BLE_hts.c ****                         }
 435:Generated_Source\PSoC4/BLE_hts.c ****                     #endif /* (CYBLE_BONDING_REQUIREMENT == CYBLE_BONDING_YES) */
 436:Generated_Source\PSoC4/BLE_hts.c ****                         
 437:Generated_Source\PSoC4/BLE_hts.c ****                     }
 438:Generated_Source\PSoC4/BLE_hts.c ****                 }
 439:Generated_Source\PSoC4/BLE_hts.c ****                 cyBle_eventHandlerFlag &= (uint8)~CYBLE_CALLBACK;
 991              		.loc 1 439 0
 992 029e 174B     		ldr	r3, .L54+20
 993 02a0 1B78     		ldrb	r3, [r3]
 994 02a2 DBB2     		uxtb	r3, r3
 995 02a4 0122     		movs	r2, #1
 996 02a6 9343     		bics	r3, r2
 997 02a8 DAB2     		uxtb	r2, r3
 998 02aa 144B     		ldr	r3, .L54+20
 999 02ac 1A70     		strb	r2, [r3]
 440:Generated_Source\PSoC4/BLE_hts.c ****                 locReqHandle = 1u;
 1000              		.loc 1 440 0
 1001 02ae 1D23     		movs	r3, #29
 1002 02b0 FB18     		adds	r3, r7, r3
 1003 02b2 0122     		movs	r2, #1
 1004 02b4 1A70     		strb	r2, [r3]
 1005              	.L41:
 348:Generated_Source\PSoC4/BLE_hts.c ****         {
 1006              		.loc 1 348 0
 1007 02b6 1F23     		movs	r3, #31
 1008 02b8 FB18     		adds	r3, r7, r3
 1009 02ba 1A78     		ldrb	r2, [r3]
 1010 02bc 1F23     		movs	r3, #31
 1011 02be FB18     		adds	r3, r7, r3
 1012 02c0 0132     		adds	r2, r2, #1
 1013 02c2 1A70     		strb	r2, [r3]
 1014              	.L39:
 347:Generated_Source\PSoC4/BLE_hts.c ****             locCharIndex++)
 1015              		.loc 1 347 0 discriminator 1
 1016 02c4 1F23     		movs	r3, #31
 1017 02c6 FB18     		adds	r3, r7, r3
 1018 02c8 1B78     		ldrb	r3, [r3]
 1019 02ca 032B     		cmp	r3, #3
 1020 02cc 05D8     		bhi	.L38
 347:Generated_Source\PSoC4/BLE_hts.c ****             locCharIndex++)
 1021              		.loc 1 347 0 is_stmt 0 discriminator 2
 1022 02ce 1D23     		movs	r3, #29
 1023 02d0 FB18     		adds	r3, r7, r3
 1024 02d2 1B78     		ldrb	r3, [r3]
 1025 02d4 002B     		cmp	r3, #0
 1026 02d6 00D1     		bne	.LCB882
 1027 02d8 A8E6     		b	.L52	@long jump
 1028              	.LCB882:
 1029              	.L38:
 441:Generated_Source\PSoC4/BLE_hts.c ****             }
 442:Generated_Source\PSoC4/BLE_hts.c ****         }
 443:Generated_Source\PSoC4/BLE_hts.c ****     }
 444:Generated_Source\PSoC4/BLE_hts.c ****     return (gattErr);
 1030              		.loc 1 444 0 is_stmt 1
ARM GAS  C:\Users\User\AppData\Local\Temp\ccR9uRpe.s 			page 27


 1031 02da 1E23     		movs	r3, #30
 1032 02dc FB18     		adds	r3, r7, r3
 1033 02de 1B78     		ldrb	r3, [r3]
 445:Generated_Source\PSoC4/BLE_hts.c **** }
 1034              		.loc 1 445 0
 1035 02e0 1800     		movs	r0, r3
 1036 02e2 BD46     		mov	sp, r7
 1037 02e4 09B0     		add	sp, sp, #36
 1038              		@ sp needed
 1039 02e6 90BD     		pop	{r4, r7, pc}
 1040              	.L55:
 1041              		.align	2
 1042              	.L54:
 1043 02e8 00000000 		.word	CyBle_HtsApplCallback
 1044 02ec 00000000 		.word	cyBle_htss
 1045 02f0 00000000 		.word	cyBle_gattDB
 1046 02f4 00000000 		.word	cyBle_peerBonding
 1047 02f8 00000000 		.word	cyBle_pendingFlashWrite
 1048 02fc 00000000 		.word	cyBle_eventHandlerFlag
 1049              		.cfi_endproc
 1050              	.LFE8:
 1051              		.size	CyBle_HtssWriteEventHandler, .-CyBle_HtssWriteEventHandler
 1052              		.section	.text.CyBle_HtssSendNotification,"ax",%progbits
 1053              		.align	2
 1054              		.global	CyBle_HtssSendNotification
 1055              		.code	16
 1056              		.thumb_func
 1057              		.type	CyBle_HtssSendNotification, %function
 1058              	CyBle_HtssSendNotification:
 1059              	.LFB9:
 446:Generated_Source\PSoC4/BLE_hts.c **** 
 447:Generated_Source\PSoC4/BLE_hts.c **** 
 448:Generated_Source\PSoC4/BLE_hts.c **** /******************************************************************************
 449:Generated_Source\PSoC4/BLE_hts.c **** * Function Name: CyBle_HtssSendNotification
 450:Generated_Source\PSoC4/BLE_hts.c **** ***************************************************************************//**
 451:Generated_Source\PSoC4/BLE_hts.c **** * 
 452:Generated_Source\PSoC4/BLE_hts.c **** *  Sends notification with a characteristic value of the Health Thermometer 
 453:Generated_Source\PSoC4/BLE_hts.c **** *  Service, which is a value specified by charIndex, to the Client device.
 454:Generated_Source\PSoC4/BLE_hts.c **** * 
 455:Generated_Source\PSoC4/BLE_hts.c **** *  On enabling notification successfully for a service characteristic, if the GATT
 456:Generated_Source\PSoC4/BLE_hts.c **** *  server has an updated value to be notified to the GATT Client, it sends out a
 457:Generated_Source\PSoC4/BLE_hts.c **** *  'Handle Value Notification' which results in CYBLE_EVT_HTSC_NOTIFICATION event
 458:Generated_Source\PSoC4/BLE_hts.c **** *  at the GATT Client's end.
 459:Generated_Source\PSoC4/BLE_hts.c **** *
 460:Generated_Source\PSoC4/BLE_hts.c **** *  \param connHandle: The connection handle.
 461:Generated_Source\PSoC4/BLE_hts.c **** *  \param charIndex: The index of the service characteristic.
 462:Generated_Source\PSoC4/BLE_hts.c **** *  \param attrSize: The size of the characteristic value attribute.
 463:Generated_Source\PSoC4/BLE_hts.c **** *  \param attrValue: The pointer to the characteristic value data that should be 
 464:Generated_Source\PSoC4/BLE_hts.c **** *               sent to the client's device.
 465:Generated_Source\PSoC4/BLE_hts.c **** * 
 466:Generated_Source\PSoC4/BLE_hts.c **** * \return
 467:Generated_Source\PSoC4/BLE_hts.c **** *  Return value is of type CYBLE_API_RESULT_T.
 468:Generated_Source\PSoC4/BLE_hts.c **** *   * CYBLE_ERROR_OK - The request handled successfully
 469:Generated_Source\PSoC4/BLE_hts.c **** *   * CYBLE_ERROR_INVALID_PARAMETER - Validation of the input parameter failed
 470:Generated_Source\PSoC4/BLE_hts.c **** *   * CYBLE_ERROR_INVALID_OPERATION - This operation is not permitted
 471:Generated_Source\PSoC4/BLE_hts.c **** *   * CYBLE_ERROR_INVALID_STATE - Connection with the client is not established
 472:Generated_Source\PSoC4/BLE_hts.c **** *   * CYBLE_ERROR_MEMORY_ALLOCATION_FAILED - Memory allocation failed. 
ARM GAS  C:\Users\User\AppData\Local\Temp\ccR9uRpe.s 			page 28


 473:Generated_Source\PSoC4/BLE_hts.c **** *   * CYBLE_ERROR_NTF_DISABLED - Notification is not enabled by the client.
 474:Generated_Source\PSoC4/BLE_hts.c **** *
 475:Generated_Source\PSoC4/BLE_hts.c **** ******************************************************************************/
 476:Generated_Source\PSoC4/BLE_hts.c **** CYBLE_API_RESULT_T CyBle_HtssSendNotification(CYBLE_CONN_HANDLE_T connHandle,
 477:Generated_Source\PSoC4/BLE_hts.c ****     CYBLE_HTS_CHAR_INDEX_T charIndex, uint8 attrSize, uint8 *attrValue)
 478:Generated_Source\PSoC4/BLE_hts.c **** {
 1060              		.loc 1 478 0
 1061              		.cfi_startproc
 1062              		@ args = 0, pretend = 0, frame = 32
 1063              		@ frame_needed = 1, uses_anonymous_args = 0
 1064 0000 90B5     		push	{r4, r7, lr}
 1065              		.cfi_def_cfa_offset 12
 1066              		.cfi_offset 4, -12
 1067              		.cfi_offset 7, -8
 1068              		.cfi_offset 14, -4
 1069 0002 89B0     		sub	sp, sp, #36
 1070              		.cfi_def_cfa_offset 48
 1071 0004 00AF     		add	r7, sp, #0
 1072              		.cfi_def_cfa_register 7
 1073 0006 0C24     		movs	r4, #12
 1074 0008 3C19     		adds	r4, r7, r4
 1075 000a 2080     		strh	r0, [r4]
 1076 000c 0800     		movs	r0, r1
 1077 000e 1100     		movs	r1, r2
 1078 0010 7B60     		str	r3, [r7, #4]
 1079 0012 0B23     		movs	r3, #11
 1080 0014 FB18     		adds	r3, r7, r3
 1081 0016 021C     		adds	r2, r0, #0
 1082 0018 1A70     		strb	r2, [r3]
 1083 001a 0A23     		movs	r3, #10
 1084 001c FB18     		adds	r3, r7, r3
 1085 001e 0A1C     		adds	r2, r1, #0
 1086 0020 1A70     		strb	r2, [r3]
 479:Generated_Source\PSoC4/BLE_hts.c **** 
 480:Generated_Source\PSoC4/BLE_hts.c ****     CYBLE_API_RESULT_T apiResult;
 481:Generated_Source\PSoC4/BLE_hts.c ****     
 482:Generated_Source\PSoC4/BLE_hts.c ****     /* Send Notification if it is enabled and connected */
 483:Generated_Source\PSoC4/BLE_hts.c ****     if(CYBLE_STATE_CONNECTED != CyBle_GetState())
 1087              		.loc 1 483 0
 1088 0022 2D4B     		ldr	r3, .L61
 1089 0024 1B78     		ldrb	r3, [r3]
 1090 0026 022B     		cmp	r3, #2
 1091 0028 05D0     		beq	.L57
 484:Generated_Source\PSoC4/BLE_hts.c ****     {
 485:Generated_Source\PSoC4/BLE_hts.c ****         apiResult = CYBLE_ERROR_INVALID_STATE;
 1092              		.loc 1 485 0
 1093 002a 1E23     		movs	r3, #30
 1094 002c FB18     		adds	r3, r7, r3
 1095 002e 0422     		movs	r2, #4
 1096 0030 FF32     		adds	r2, r2, #255
 1097 0032 1A80     		strh	r2, [r3]
 1098 0034 49E0     		b	.L58
 1099              	.L57:
 486:Generated_Source\PSoC4/BLE_hts.c ****     }
 487:Generated_Source\PSoC4/BLE_hts.c ****     else if(!CYBLE_IS_NOTIFICATION_ENABLED(cyBle_htss.charInfo[charIndex].descrHandle[CYBLE_HTS_CCC
 1100              		.loc 1 487 0
 1101 0036 0B23     		movs	r3, #11
ARM GAS  C:\Users\User\AppData\Local\Temp\ccR9uRpe.s 			page 29


 1102 0038 FB18     		adds	r3, r7, r3
 1103 003a 1A78     		ldrb	r2, [r3]
 1104 003c 2749     		ldr	r1, .L61+4
 1105 003e 1300     		movs	r3, r2
 1106 0040 5B00     		lsls	r3, r3, #1
 1107 0042 9B18     		adds	r3, r3, r2
 1108 0044 5B00     		lsls	r3, r3, #1
 1109 0046 CB18     		adds	r3, r1, r3
 1110 0048 0433     		adds	r3, r3, #4
 1111 004a 1B88     		ldrh	r3, [r3]
 1112 004c 5A1E     		subs	r2, r3, #1
 1113 004e 2449     		ldr	r1, .L61+8
 1114 0050 1300     		movs	r3, r2
 1115 0052 9B00     		lsls	r3, r3, #2
 1116 0054 9B18     		adds	r3, r3, r2
 1117 0056 9B00     		lsls	r3, r3, #2
 1118 0058 CB18     		adds	r3, r1, r3
 1119 005a 1033     		adds	r3, r3, #16
 1120 005c 1B68     		ldr	r3, [r3]
 1121 005e 5B68     		ldr	r3, [r3, #4]
 1122 0060 1800     		movs	r0, r3
 1123 0062 FFF7FEFF 		bl	CyBle_Get16ByPtr
 1124 0066 0300     		movs	r3, r0
 1125 0068 1A00     		movs	r2, r3
 1126 006a 0123     		movs	r3, #1
 1127 006c 1340     		ands	r3, r2
 1128 006e 9BB2     		uxth	r3, r3
 1129 0070 002B     		cmp	r3, #0
 1130 0072 05D1     		bne	.L59
 488:Generated_Source\PSoC4/BLE_hts.c ****     {
 489:Generated_Source\PSoC4/BLE_hts.c ****         apiResult = CYBLE_ERROR_NTF_DISABLED;
 1131              		.loc 1 489 0
 1132 0074 1E23     		movs	r3, #30
 1133 0076 FB18     		adds	r3, r7, r3
 1134 0078 8022     		movs	r2, #128
 1135 007a 5200     		lsls	r2, r2, #1
 1136 007c 1A80     		strh	r2, [r3]
 1137 007e 24E0     		b	.L58
 1138              	.L59:
 1139              	.LBB4:
 490:Generated_Source\PSoC4/BLE_hts.c ****     }
 491:Generated_Source\PSoC4/BLE_hts.c ****     else
 492:Generated_Source\PSoC4/BLE_hts.c ****     {
 493:Generated_Source\PSoC4/BLE_hts.c ****         CYBLE_GATTS_HANDLE_VALUE_NTF_T ntfReqParam;
 494:Generated_Source\PSoC4/BLE_hts.c ****         
 495:Generated_Source\PSoC4/BLE_hts.c ****         /* Fill all fields of write request structure ... */
 496:Generated_Source\PSoC4/BLE_hts.c ****         ntfReqParam.attrHandle = cyBle_htss.charInfo[charIndex].charHandle;
 1140              		.loc 1 496 0
 1141 0080 0B23     		movs	r3, #11
 1142 0082 FB18     		adds	r3, r7, r3
 1143 0084 1A78     		ldrb	r2, [r3]
 1144 0086 1549     		ldr	r1, .L61+4
 1145 0088 1300     		movs	r3, r2
 1146 008a 5B00     		lsls	r3, r3, #1
 1147 008c 9B18     		adds	r3, r3, r2
 1148 008e 5B00     		lsls	r3, r3, #1
 1149 0090 CB18     		adds	r3, r1, r3
ARM GAS  C:\Users\User\AppData\Local\Temp\ccR9uRpe.s 			page 30


 1150 0092 0233     		adds	r3, r3, #2
 1151 0094 1A88     		ldrh	r2, [r3]
 1152 0096 1023     		movs	r3, #16
 1153 0098 FB18     		adds	r3, r7, r3
 1154 009a 1A81     		strh	r2, [r3, #8]
 497:Generated_Source\PSoC4/BLE_hts.c ****         ntfReqParam.value.val = attrValue;
 1155              		.loc 1 497 0
 1156 009c 1023     		movs	r3, #16
 1157 009e FB18     		adds	r3, r7, r3
 1158 00a0 7A68     		ldr	r2, [r7, #4]
 1159 00a2 1A60     		str	r2, [r3]
 498:Generated_Source\PSoC4/BLE_hts.c ****         ntfReqParam.value.len = attrSize;
 1160              		.loc 1 498 0
 1161 00a4 0A23     		movs	r3, #10
 1162 00a6 FB18     		adds	r3, r7, r3
 1163 00a8 1B78     		ldrb	r3, [r3]
 1164 00aa 9AB2     		uxth	r2, r3
 1165 00ac 1023     		movs	r3, #16
 1166 00ae FB18     		adds	r3, r7, r3
 1167 00b0 9A80     		strh	r2, [r3, #4]
 499:Generated_Source\PSoC4/BLE_hts.c ****         
 500:Generated_Source\PSoC4/BLE_hts.c ****         /* Send notification to client using previously filled structure */
 501:Generated_Source\PSoC4/BLE_hts.c ****         apiResult = CyBle_GattsNotification(connHandle, &ntfReqParam);
 1168              		.loc 1 501 0
 1169 00b2 1E23     		movs	r3, #30
 1170 00b4 FC18     		adds	r4, r7, r3
 1171 00b6 1023     		movs	r3, #16
 1172 00b8 FA18     		adds	r2, r7, r3
 1173 00ba 0C23     		movs	r3, #12
 1174 00bc FB18     		adds	r3, r7, r3
 1175 00be 1100     		movs	r1, r2
 1176 00c0 1868     		ldr	r0, [r3]
 1177 00c2 FFF7FEFF 		bl	CyBle_GattsNotification
 1178 00c6 0300     		movs	r3, r0
 1179 00c8 2380     		strh	r3, [r4]
 1180              	.L58:
 1181              	.LBE4:
 502:Generated_Source\PSoC4/BLE_hts.c ****     }
 503:Generated_Source\PSoC4/BLE_hts.c **** 
 504:Generated_Source\PSoC4/BLE_hts.c ****     return (apiResult);
 1182              		.loc 1 504 0
 1183 00ca 1E23     		movs	r3, #30
 1184 00cc FB18     		adds	r3, r7, r3
 1185 00ce 1B88     		ldrh	r3, [r3]
 505:Generated_Source\PSoC4/BLE_hts.c **** }
 1186              		.loc 1 505 0
 1187 00d0 1800     		movs	r0, r3
 1188 00d2 BD46     		mov	sp, r7
 1189 00d4 09B0     		add	sp, sp, #36
 1190              		@ sp needed
 1191 00d6 90BD     		pop	{r4, r7, pc}
 1192              	.L62:
 1193              		.align	2
 1194              	.L61:
 1195 00d8 00000000 		.word	cyBle_state
 1196 00dc 00000000 		.word	cyBle_htss
 1197 00e0 00000000 		.word	cyBle_gattDB
ARM GAS  C:\Users\User\AppData\Local\Temp\ccR9uRpe.s 			page 31


 1198              		.cfi_endproc
 1199              	.LFE9:
 1200              		.size	CyBle_HtssSendNotification, .-CyBle_HtssSendNotification
 1201              		.section	.text.CyBle_HtssSendIndication,"ax",%progbits
 1202              		.align	2
 1203              		.global	CyBle_HtssSendIndication
 1204              		.code	16
 1205              		.thumb_func
 1206              		.type	CyBle_HtssSendIndication, %function
 1207              	CyBle_HtssSendIndication:
 1208              	.LFB10:
 506:Generated_Source\PSoC4/BLE_hts.c **** 
 507:Generated_Source\PSoC4/BLE_hts.c **** 
 508:Generated_Source\PSoC4/BLE_hts.c **** /******************************************************************************
 509:Generated_Source\PSoC4/BLE_hts.c **** * Function Name: CyBle_HtssSendIndication
 510:Generated_Source\PSoC4/BLE_hts.c **** ***************************************************************************//**
 511:Generated_Source\PSoC4/BLE_hts.c **** * 
 512:Generated_Source\PSoC4/BLE_hts.c **** *  Sends indication with a characteristic value of the Health Thermometer 
 513:Generated_Source\PSoC4/BLE_hts.c **** *  Service, which is a value specified by charIndex, to the Client device.
 514:Generated_Source\PSoC4/BLE_hts.c **** *
 515:Generated_Source\PSoC4/BLE_hts.c **** *  On enabling indication successfully, if the GATT server has an updated value to be 
 516:Generated_Source\PSoC4/BLE_hts.c **** *  indicated to the GATT Client, it sends out a 'Handle Value Indication' which
 517:Generated_Source\PSoC4/BLE_hts.c **** *  results in CYBLE_EVT_HTSC_INDICATION or CYBLE_EVT_GATTC_HANDLE_VALUE_IND (if 
 518:Generated_Source\PSoC4/BLE_hts.c **** *  service specific callback function is not registered) event at the GATT Client's end.
 519:Generated_Source\PSoC4/BLE_hts.c **** *
 520:Generated_Source\PSoC4/BLE_hts.c **** *  \param connHandle: The connection handle.
 521:Generated_Source\PSoC4/BLE_hts.c **** *  \param charIndex:  The index of the service characteristic.
 522:Generated_Source\PSoC4/BLE_hts.c **** *  \param attrSize: The size of the characteristic value attribute.
 523:Generated_Source\PSoC4/BLE_hts.c **** *  \param attrValue: The pointer to the characteristic value data that should be
 524:Generated_Source\PSoC4/BLE_hts.c **** *               sent to the Client device.
 525:Generated_Source\PSoC4/BLE_hts.c **** * 
 526:Generated_Source\PSoC4/BLE_hts.c **** * \return
 527:Generated_Source\PSoC4/BLE_hts.c **** *  Return value is of type CYBLE_API_RESULT_T.
 528:Generated_Source\PSoC4/BLE_hts.c **** *   * CYBLE_ERROR_OK - The request handled successfully
 529:Generated_Source\PSoC4/BLE_hts.c **** *   * CYBLE_ERROR_INVALID_PARAMETER - Validation of the input parameter failed
 530:Generated_Source\PSoC4/BLE_hts.c **** *   * CYBLE_ERROR_INVALID_OPERATION - This operation is not permitted
 531:Generated_Source\PSoC4/BLE_hts.c **** *   * CYBLE_ERROR_INVALID_STATE - Connection with the client is not established
 532:Generated_Source\PSoC4/BLE_hts.c **** *   * CYBLE_ERROR_MEMORY_ALLOCATION_FAILED - Memory allocation failed
 533:Generated_Source\PSoC4/BLE_hts.c **** *   * CYBLE_ERROR_IND_DISABLED - Indication is not enabled by the client
 534:Generated_Source\PSoC4/BLE_hts.c **** *
 535:Generated_Source\PSoC4/BLE_hts.c **** * \events
 536:Generated_Source\PSoC4/BLE_hts.c **** *  In case of successful execution (return value = CYBLE_ERROR_OK)
 537:Generated_Source\PSoC4/BLE_hts.c **** *  the next events can appear: \n
 538:Generated_Source\PSoC4/BLE_hts.c **** *   If the HTS service-specific callback is registered 
 539:Generated_Source\PSoC4/BLE_hts.c **** *      (with CyBle_HtsRegisterAttrCallback):
 540:Generated_Source\PSoC4/BLE_hts.c **** *  * CYBLE_EVT_HTSS_INDICATION_CONFIRMED - in case if the indication is
 541:Generated_Source\PSoC4/BLE_hts.c **** *                                successfully delivered to the peer device.
 542:Generated_Source\PSoC4/BLE_hts.c **** *  .
 543:Generated_Source\PSoC4/BLE_hts.c **** *   Otherwise (if the HTS service-specific callback is not registered):
 544:Generated_Source\PSoC4/BLE_hts.c **** *  * CYBLE_EVT_GATTS_HANDLE_VALUE_CNF - in case if the indication is
 545:Generated_Source\PSoC4/BLE_hts.c **** *                                successfully delivered to the peer device.
 546:Generated_Source\PSoC4/BLE_hts.c **** *
 547:Generated_Source\PSoC4/BLE_hts.c **** ******************************************************************************/
 548:Generated_Source\PSoC4/BLE_hts.c **** CYBLE_API_RESULT_T CyBle_HtssSendIndication(CYBLE_CONN_HANDLE_T connHandle,
 549:Generated_Source\PSoC4/BLE_hts.c ****     CYBLE_HTS_CHAR_INDEX_T charIndex, uint8 attrSize, uint8 *attrValue)
 550:Generated_Source\PSoC4/BLE_hts.c **** {
 1209              		.loc 1 550 0
ARM GAS  C:\Users\User\AppData\Local\Temp\ccR9uRpe.s 			page 32


 1210              		.cfi_startproc
 1211              		@ args = 0, pretend = 0, frame = 32
 1212              		@ frame_needed = 1, uses_anonymous_args = 0
 1213 0000 90B5     		push	{r4, r7, lr}
 1214              		.cfi_def_cfa_offset 12
 1215              		.cfi_offset 4, -12
 1216              		.cfi_offset 7, -8
 1217              		.cfi_offset 14, -4
 1218 0002 89B0     		sub	sp, sp, #36
 1219              		.cfi_def_cfa_offset 48
 1220 0004 00AF     		add	r7, sp, #0
 1221              		.cfi_def_cfa_register 7
 1222 0006 0C24     		movs	r4, #12
 1223 0008 3C19     		adds	r4, r7, r4
 1224 000a 2080     		strh	r0, [r4]
 1225 000c 0800     		movs	r0, r1
 1226 000e 1100     		movs	r1, r2
 1227 0010 7B60     		str	r3, [r7, #4]
 1228 0012 0B23     		movs	r3, #11
 1229 0014 FB18     		adds	r3, r7, r3
 1230 0016 021C     		adds	r2, r0, #0
 1231 0018 1A70     		strb	r2, [r3]
 1232 001a 0A23     		movs	r3, #10
 1233 001c FB18     		adds	r3, r7, r3
 1234 001e 0A1C     		adds	r2, r1, #0
 1235 0020 1A70     		strb	r2, [r3]
 551:Generated_Source\PSoC4/BLE_hts.c ****     CYBLE_API_RESULT_T apiResult;
 552:Generated_Source\PSoC4/BLE_hts.c ****     
 553:Generated_Source\PSoC4/BLE_hts.c ****     /* Send Notification if it is enabled and connected */
 554:Generated_Source\PSoC4/BLE_hts.c ****     if(CYBLE_STATE_CONNECTED != CyBle_GetState())
 1236              		.loc 1 554 0
 1237 0022 324B     		ldr	r3, .L69
 1238 0024 1B78     		ldrb	r3, [r3]
 1239 0026 022B     		cmp	r3, #2
 1240 0028 05D0     		beq	.L64
 555:Generated_Source\PSoC4/BLE_hts.c ****     {
 556:Generated_Source\PSoC4/BLE_hts.c ****         apiResult = CYBLE_ERROR_INVALID_STATE;
 1241              		.loc 1 556 0
 1242 002a 1E23     		movs	r3, #30
 1243 002c FB18     		adds	r3, r7, r3
 1244 002e 0422     		movs	r2, #4
 1245 0030 FF32     		adds	r2, r2, #255
 1246 0032 1A80     		strh	r2, [r3]
 1247 0034 53E0     		b	.L65
 1248              	.L64:
 557:Generated_Source\PSoC4/BLE_hts.c ****     }
 558:Generated_Source\PSoC4/BLE_hts.c ****     else if(!CYBLE_IS_INDICATION_ENABLED(cyBle_htss.charInfo[charIndex].descrHandle[CYBLE_HTS_CCCD]
 1249              		.loc 1 558 0
 1250 0036 0B23     		movs	r3, #11
 1251 0038 FB18     		adds	r3, r7, r3
 1252 003a 1A78     		ldrb	r2, [r3]
 1253 003c 2C49     		ldr	r1, .L69+4
 1254 003e 1300     		movs	r3, r2
 1255 0040 5B00     		lsls	r3, r3, #1
 1256 0042 9B18     		adds	r3, r3, r2
 1257 0044 5B00     		lsls	r3, r3, #1
 1258 0046 CB18     		adds	r3, r1, r3
ARM GAS  C:\Users\User\AppData\Local\Temp\ccR9uRpe.s 			page 33


 1259 0048 0433     		adds	r3, r3, #4
 1260 004a 1B88     		ldrh	r3, [r3]
 1261 004c 5A1E     		subs	r2, r3, #1
 1262 004e 2949     		ldr	r1, .L69+8
 1263 0050 1300     		movs	r3, r2
 1264 0052 9B00     		lsls	r3, r3, #2
 1265 0054 9B18     		adds	r3, r3, r2
 1266 0056 9B00     		lsls	r3, r3, #2
 1267 0058 CB18     		adds	r3, r1, r3
 1268 005a 1033     		adds	r3, r3, #16
 1269 005c 1B68     		ldr	r3, [r3]
 1270 005e 5B68     		ldr	r3, [r3, #4]
 1271 0060 1800     		movs	r0, r3
 1272 0062 FFF7FEFF 		bl	CyBle_Get16ByPtr
 1273 0066 0300     		movs	r3, r0
 1274 0068 1A00     		movs	r2, r3
 1275 006a 0223     		movs	r3, #2
 1276 006c 1340     		ands	r3, r2
 1277 006e 9BB2     		uxth	r3, r3
 1278 0070 002B     		cmp	r3, #0
 1279 0072 05D1     		bne	.L66
 559:Generated_Source\PSoC4/BLE_hts.c ****     {
 560:Generated_Source\PSoC4/BLE_hts.c ****         apiResult = CYBLE_ERROR_IND_DISABLED;
 1280              		.loc 1 560 0
 1281 0074 1E23     		movs	r3, #30
 1282 0076 FB18     		adds	r3, r7, r3
 1283 0078 0222     		movs	r2, #2
 1284 007a FF32     		adds	r2, r2, #255
 1285 007c 1A80     		strh	r2, [r3]
 1286 007e 2EE0     		b	.L65
 1287              	.L66:
 1288              	.LBB5:
 561:Generated_Source\PSoC4/BLE_hts.c ****     }
 562:Generated_Source\PSoC4/BLE_hts.c ****     else
 563:Generated_Source\PSoC4/BLE_hts.c ****     {
 564:Generated_Source\PSoC4/BLE_hts.c ****         CYBLE_GATTS_HANDLE_VALUE_NTF_T ntfReqParam;
 565:Generated_Source\PSoC4/BLE_hts.c ****         
 566:Generated_Source\PSoC4/BLE_hts.c ****         /* Fill all fields of write request structure ... */
 567:Generated_Source\PSoC4/BLE_hts.c ****         ntfReqParam.attrHandle = cyBle_htss.charInfo[charIndex].charHandle;
 1289              		.loc 1 567 0
 1290 0080 0B23     		movs	r3, #11
 1291 0082 FB18     		adds	r3, r7, r3
 1292 0084 1A78     		ldrb	r2, [r3]
 1293 0086 1A49     		ldr	r1, .L69+4
 1294 0088 1300     		movs	r3, r2
 1295 008a 5B00     		lsls	r3, r3, #1
 1296 008c 9B18     		adds	r3, r3, r2
 1297 008e 5B00     		lsls	r3, r3, #1
 1298 0090 CB18     		adds	r3, r1, r3
 1299 0092 0233     		adds	r3, r3, #2
 1300 0094 1A88     		ldrh	r2, [r3]
 1301 0096 1023     		movs	r3, #16
 1302 0098 FB18     		adds	r3, r7, r3
 1303 009a 1A81     		strh	r2, [r3, #8]
 568:Generated_Source\PSoC4/BLE_hts.c ****         ntfReqParam.value.val = attrValue;
 1304              		.loc 1 568 0
 1305 009c 1023     		movs	r3, #16
ARM GAS  C:\Users\User\AppData\Local\Temp\ccR9uRpe.s 			page 34


 1306 009e FB18     		adds	r3, r7, r3
 1307 00a0 7A68     		ldr	r2, [r7, #4]
 1308 00a2 1A60     		str	r2, [r3]
 569:Generated_Source\PSoC4/BLE_hts.c ****         ntfReqParam.value.len = attrSize;
 1309              		.loc 1 569 0
 1310 00a4 0A23     		movs	r3, #10
 1311 00a6 FB18     		adds	r3, r7, r3
 1312 00a8 1B78     		ldrb	r3, [r3]
 1313 00aa 9AB2     		uxth	r2, r3
 1314 00ac 1023     		movs	r3, #16
 1315 00ae FB18     		adds	r3, r7, r3
 1316 00b0 9A80     		strh	r2, [r3, #4]
 570:Generated_Source\PSoC4/BLE_hts.c ****         
 571:Generated_Source\PSoC4/BLE_hts.c ****         /* Send indication to client using previously filled structure */
 572:Generated_Source\PSoC4/BLE_hts.c ****         apiResult = CyBle_GattsIndication(connHandle, &ntfReqParam);
 1317              		.loc 1 572 0
 1318 00b2 1E23     		movs	r3, #30
 1319 00b4 FC18     		adds	r4, r7, r3
 1320 00b6 1023     		movs	r3, #16
 1321 00b8 FA18     		adds	r2, r7, r3
 1322 00ba 0C23     		movs	r3, #12
 1323 00bc FB18     		adds	r3, r7, r3
 1324 00be 1100     		movs	r1, r2
 1325 00c0 1868     		ldr	r0, [r3]
 1326 00c2 FFF7FEFF 		bl	CyBle_GattsIndication
 1327 00c6 0300     		movs	r3, r0
 1328 00c8 2380     		strh	r3, [r4]
 573:Generated_Source\PSoC4/BLE_hts.c ****         /* Save handle to support service specific value confirmation response from client */
 574:Generated_Source\PSoC4/BLE_hts.c ****         if(apiResult == CYBLE_ERROR_OK)
 1329              		.loc 1 574 0
 1330 00ca 1E23     		movs	r3, #30
 1331 00cc FB18     		adds	r3, r7, r3
 1332 00ce 1B88     		ldrh	r3, [r3]
 1333 00d0 002B     		cmp	r3, #0
 1334 00d2 04D1     		bne	.L65
 575:Generated_Source\PSoC4/BLE_hts.c ****         {
 576:Generated_Source\PSoC4/BLE_hts.c ****             cyBle_htssReqHandle = ntfReqParam.attrHandle;
 1335              		.loc 1 576 0
 1336 00d4 1023     		movs	r3, #16
 1337 00d6 FB18     		adds	r3, r7, r3
 1338 00d8 1A89     		ldrh	r2, [r3, #8]
 1339 00da 074B     		ldr	r3, .L69+12
 1340 00dc 1A80     		strh	r2, [r3]
 1341              	.L65:
 1342              	.LBE5:
 577:Generated_Source\PSoC4/BLE_hts.c ****         }
 578:Generated_Source\PSoC4/BLE_hts.c ****     }
 579:Generated_Source\PSoC4/BLE_hts.c ****     return (apiResult);
 1343              		.loc 1 579 0
 1344 00de 1E23     		movs	r3, #30
 1345 00e0 FB18     		adds	r3, r7, r3
 1346 00e2 1B88     		ldrh	r3, [r3]
 580:Generated_Source\PSoC4/BLE_hts.c **** }
 1347              		.loc 1 580 0
 1348 00e4 1800     		movs	r0, r3
 1349 00e6 BD46     		mov	sp, r7
 1350 00e8 09B0     		add	sp, sp, #36
ARM GAS  C:\Users\User\AppData\Local\Temp\ccR9uRpe.s 			page 35


 1351              		@ sp needed
 1352 00ea 90BD     		pop	{r4, r7, pc}
 1353              	.L70:
 1354              		.align	2
 1355              	.L69:
 1356 00ec 00000000 		.word	cyBle_state
 1357 00f0 00000000 		.word	cyBle_htss
 1358 00f4 00000000 		.word	cyBle_gattDB
 1359 00f8 04000000 		.word	cyBle_htssReqHandle
 1360              		.cfi_endproc
 1361              	.LFE10:
 1362              		.size	CyBle_HtssSendIndication, .-CyBle_HtssSendIndication
 1363              		.section	.text.CyBle_HtssConfirmationEventHandler,"ax",%progbits
 1364              		.align	2
 1365              		.global	CyBle_HtssConfirmationEventHandler
 1366              		.code	16
 1367              		.thumb_func
 1368              		.type	CyBle_HtssConfirmationEventHandler, %function
 1369              	CyBle_HtssConfirmationEventHandler:
 1370              	.LFB11:
 581:Generated_Source\PSoC4/BLE_hts.c **** 
 582:Generated_Source\PSoC4/BLE_hts.c **** 
 583:Generated_Source\PSoC4/BLE_hts.c **** /******************************************************************************
 584:Generated_Source\PSoC4/BLE_hts.c **** * Function Name: CyBle_HtssConfirmationEventHandler
 585:Generated_Source\PSoC4/BLE_hts.c **** ***************************************************************************//**
 586:Generated_Source\PSoC4/BLE_hts.c **** * 
 587:Generated_Source\PSoC4/BLE_hts.c **** *  Handles a Value Confirmation request event from the BLE stack.
 588:Generated_Source\PSoC4/BLE_hts.c **** * 
 589:Generated_Source\PSoC4/BLE_hts.c **** *  *eventParam - The pointer to a structure of type CYBLE_CONN_HANDLE_T.
 590:Generated_Source\PSoC4/BLE_hts.c **** * 
 591:Generated_Source\PSoC4/BLE_hts.c **** ******************************************************************************/
 592:Generated_Source\PSoC4/BLE_hts.c **** void CyBle_HtssConfirmationEventHandler(const CYBLE_CONN_HANDLE_T *eventParam)
 593:Generated_Source\PSoC4/BLE_hts.c **** {
 1371              		.loc 1 593 0
 1372              		.cfi_startproc
 1373              		@ args = 0, pretend = 0, frame = 24
 1374              		@ frame_needed = 1, uses_anonymous_args = 0
 1375 0000 80B5     		push	{r7, lr}
 1376              		.cfi_def_cfa_offset 8
 1377              		.cfi_offset 7, -8
 1378              		.cfi_offset 14, -4
 1379 0002 86B0     		sub	sp, sp, #24
 1380              		.cfi_def_cfa_offset 32
 1381 0004 00AF     		add	r7, sp, #0
 1382              		.cfi_def_cfa_register 7
 1383 0006 7860     		str	r0, [r7, #4]
 594:Generated_Source\PSoC4/BLE_hts.c ****     CYBLE_HTS_CHAR_INDEX_T locCharIndex;
 595:Generated_Source\PSoC4/BLE_hts.c ****     CYBLE_HTS_CHAR_VALUE_T locCharValue;
 596:Generated_Source\PSoC4/BLE_hts.c ****     uint8 locReqHandle = 0u;
 1384              		.loc 1 596 0
 1385 0008 1623     		movs	r3, #22
 1386 000a FB18     		adds	r3, r7, r3
 1387 000c 0022     		movs	r2, #0
 1388 000e 1A70     		strb	r2, [r3]
 597:Generated_Source\PSoC4/BLE_hts.c **** 
 598:Generated_Source\PSoC4/BLE_hts.c ****     if((NULL != CyBle_HtsApplCallback) && (CYBLE_GATT_INVALID_ATTR_HANDLE_VALUE != cyBle_htssReqHan
 1389              		.loc 1 598 0
ARM GAS  C:\Users\User\AppData\Local\Temp\ccR9uRpe.s 			page 36


 1390 0010 2D4B     		ldr	r3, .L77
 1391 0012 1B68     		ldr	r3, [r3]
 1392 0014 002B     		cmp	r3, #0
 1393 0016 52D0     		beq	.L76
 1394              		.loc 1 598 0 is_stmt 0 discriminator 1
 1395 0018 2C4B     		ldr	r3, .L77+4
 1396 001a 1B88     		ldrh	r3, [r3]
 1397 001c 002B     		cmp	r3, #0
 1398 001e 4ED0     		beq	.L76
 599:Generated_Source\PSoC4/BLE_hts.c ****     {
 600:Generated_Source\PSoC4/BLE_hts.c ****         for(locCharIndex = CYBLE_HTS_TEMP_MEASURE; (locCharIndex < CYBLE_HTS_CHAR_COUNT) && (locReq
 1399              		.loc 1 600 0 is_stmt 1
 1400 0020 1723     		movs	r3, #23
 1401 0022 FB18     		adds	r3, r7, r3
 1402 0024 0022     		movs	r2, #0
 1403 0026 1A70     		strb	r2, [r3]
 1404 0028 3FE0     		b	.L73
 1405              	.L75:
 601:Generated_Source\PSoC4/BLE_hts.c ****             locCharIndex++)
 602:Generated_Source\PSoC4/BLE_hts.c ****         {
 603:Generated_Source\PSoC4/BLE_hts.c ****             if(cyBle_htssReqHandle == cyBle_htss.charInfo[locCharIndex].charHandle)
 1406              		.loc 1 603 0
 1407 002a 1723     		movs	r3, #23
 1408 002c FB18     		adds	r3, r7, r3
 1409 002e 1A78     		ldrb	r2, [r3]
 1410 0030 2749     		ldr	r1, .L77+8
 1411 0032 1300     		movs	r3, r2
 1412 0034 5B00     		lsls	r3, r3, #1
 1413 0036 9B18     		adds	r3, r3, r2
 1414 0038 5B00     		lsls	r3, r3, #1
 1415 003a CB18     		adds	r3, r1, r3
 1416 003c 0233     		adds	r3, r3, #2
 1417 003e 1A88     		ldrh	r2, [r3]
 1418 0040 224B     		ldr	r3, .L77+4
 1419 0042 1B88     		ldrh	r3, [r3]
 1420 0044 9A42     		cmp	r2, r3
 1421 0046 29D1     		bne	.L74
 604:Generated_Source\PSoC4/BLE_hts.c ****             {
 605:Generated_Source\PSoC4/BLE_hts.c ****                 locCharValue.connHandle = *eventParam;
 1422              		.loc 1 605 0
 1423 0048 0C23     		movs	r3, #12
 1424 004a FA18     		adds	r2, r7, r3
 1425 004c 7B68     		ldr	r3, [r7, #4]
 1426 004e 1000     		movs	r0, r2
 1427 0050 1900     		movs	r1, r3
 1428 0052 0223     		movs	r3, #2
 1429 0054 1A00     		movs	r2, r3
 1430 0056 FFF7FEFF 		bl	memcpy
 606:Generated_Source\PSoC4/BLE_hts.c ****                 locCharValue.charIndex = locCharIndex;
 1431              		.loc 1 606 0
 1432 005a 0C23     		movs	r3, #12
 1433 005c FB18     		adds	r3, r7, r3
 1434 005e 1722     		movs	r2, #23
 1435 0060 BA18     		adds	r2, r7, r2
 1436 0062 1278     		ldrb	r2, [r2]
 1437 0064 9A70     		strb	r2, [r3, #2]
 607:Generated_Source\PSoC4/BLE_hts.c ****                 locCharValue.value = NULL;
ARM GAS  C:\Users\User\AppData\Local\Temp\ccR9uRpe.s 			page 37


 1438              		.loc 1 607 0
 1439 0066 0C23     		movs	r3, #12
 1440 0068 FB18     		adds	r3, r7, r3
 1441 006a 0022     		movs	r2, #0
 1442 006c 5A60     		str	r2, [r3, #4]
 608:Generated_Source\PSoC4/BLE_hts.c ****                 cyBle_eventHandlerFlag &= (uint8)~CYBLE_CALLBACK;
 1443              		.loc 1 608 0
 1444 006e 194B     		ldr	r3, .L77+12
 1445 0070 1B78     		ldrb	r3, [r3]
 1446 0072 DBB2     		uxtb	r3, r3
 1447 0074 0122     		movs	r2, #1
 1448 0076 9343     		bics	r3, r2
 1449 0078 DAB2     		uxtb	r2, r3
 1450 007a 164B     		ldr	r3, .L77+12
 1451 007c 1A70     		strb	r2, [r3]
 609:Generated_Source\PSoC4/BLE_hts.c ****                 cyBle_htssReqHandle = CYBLE_GATT_INVALID_ATTR_HANDLE_VALUE;
 1452              		.loc 1 609 0
 1453 007e 134B     		ldr	r3, .L77+4
 1454 0080 0022     		movs	r2, #0
 1455 0082 1A80     		strh	r2, [r3]
 610:Generated_Source\PSoC4/BLE_hts.c ****                 CyBle_HtsApplCallback((uint32)CYBLE_EVT_HTSS_INDICATION_CONFIRMED, &locCharValue);
 1456              		.loc 1 610 0
 1457 0084 104B     		ldr	r3, .L77
 1458 0086 1B68     		ldr	r3, [r3]
 1459 0088 0C22     		movs	r2, #12
 1460 008a B918     		adds	r1, r7, r2
 1461 008c DA22     		movs	r2, #218
 1462 008e 5200     		lsls	r2, r2, #1
 1463 0090 1000     		movs	r0, r2
 1464 0092 9847     		blx	r3
 611:Generated_Source\PSoC4/BLE_hts.c ****                 locReqHandle = 1u;
 1465              		.loc 1 611 0
 1466 0094 1623     		movs	r3, #22
 1467 0096 FB18     		adds	r3, r7, r3
 1468 0098 0122     		movs	r2, #1
 1469 009a 1A70     		strb	r2, [r3]
 1470              	.L74:
 601:Generated_Source\PSoC4/BLE_hts.c ****         {
 1471              		.loc 1 601 0
 1472 009c 1723     		movs	r3, #23
 1473 009e FB18     		adds	r3, r7, r3
 1474 00a0 1A78     		ldrb	r2, [r3]
 1475 00a2 1723     		movs	r3, #23
 1476 00a4 FB18     		adds	r3, r7, r3
 1477 00a6 0132     		adds	r2, r2, #1
 1478 00a8 1A70     		strb	r2, [r3]
 1479              	.L73:
 600:Generated_Source\PSoC4/BLE_hts.c ****             locCharIndex++)
 1480              		.loc 1 600 0 discriminator 1
 1481 00aa 1723     		movs	r3, #23
 1482 00ac FB18     		adds	r3, r7, r3
 1483 00ae 1B78     		ldrb	r3, [r3]
 1484 00b0 032B     		cmp	r3, #3
 1485 00b2 04D8     		bhi	.L76
 600:Generated_Source\PSoC4/BLE_hts.c ****             locCharIndex++)
 1486              		.loc 1 600 0 is_stmt 0 discriminator 2
 1487 00b4 1623     		movs	r3, #22
ARM GAS  C:\Users\User\AppData\Local\Temp\ccR9uRpe.s 			page 38


 1488 00b6 FB18     		adds	r3, r7, r3
 1489 00b8 1B78     		ldrb	r3, [r3]
 1490 00ba 002B     		cmp	r3, #0
 1491 00bc B5D0     		beq	.L75
 1492              	.L76:
 612:Generated_Source\PSoC4/BLE_hts.c ****             }
 613:Generated_Source\PSoC4/BLE_hts.c ****         }
 614:Generated_Source\PSoC4/BLE_hts.c ****     }
 615:Generated_Source\PSoC4/BLE_hts.c **** }
 1493              		.loc 1 615 0 is_stmt 1
 1494 00be C046     		nop
 1495 00c0 BD46     		mov	sp, r7
 1496 00c2 06B0     		add	sp, sp, #24
 1497              		@ sp needed
 1498 00c4 80BD     		pop	{r7, pc}
 1499              	.L78:
 1500 00c6 C046     		.align	2
 1501              	.L77:
 1502 00c8 00000000 		.word	CyBle_HtsApplCallback
 1503 00cc 04000000 		.word	cyBle_htssReqHandle
 1504 00d0 00000000 		.word	cyBle_htss
 1505 00d4 00000000 		.word	cyBle_eventHandlerFlag
 1506              		.cfi_endproc
 1507              	.LFE11:
 1508              		.size	CyBle_HtssConfirmationEventHandler, .-CyBle_HtssConfirmationEventHandler
 1509              		.text
 1510              	.Letext0:
 1511              		.file 2 "Generated_Source\\PSoC4\\cytypes.h"
 1512              		.file 3 "Generated_Source\\PSoC4\\BLE_Stack.h"
 1513              		.file 4 "Generated_Source\\PSoC4\\BLE_StackGatt.h"
 1514              		.file 5 "Generated_Source\\PSoC4\\BLE_StackGattServer.h"
 1515              		.file 6 "Generated_Source\\PSoC4\\BLE_StackGattDb.h"
 1516              		.file 7 "Generated_Source\\PSoC4\\BLE.h"
 1517              		.file 8 "Generated_Source\\PSoC4\\BLE_dis.h"
 1518              		.file 9 "Generated_Source\\PSoC4\\BLE_hts.h"
 1519              		.file 10 "Generated_Source\\PSoC4\\BLE_eventHandler.h"
 1520              		.file 11 "Generated_Source\\PSoC4\\BLE_gatt.h"
 1521              		.section	.debug_info,"",%progbits
 1522              	.Ldebug_info0:
 1523 0000 6D140000 		.4byte	0x146d
 1524 0004 0400     		.2byte	0x4
 1525 0006 00000000 		.4byte	.Ldebug_abbrev0
 1526 000a 04       		.byte	0x4
 1527 000b 01       		.uleb128 0x1
 1528 000c 68190000 		.4byte	.LASF551
 1529 0010 0C       		.byte	0xc
 1530 0011 9F1C0000 		.4byte	.LASF552
 1531 0015 13210000 		.4byte	.LASF553
 1532 0019 00000000 		.4byte	.Ldebug_ranges0+0
 1533 001d 00000000 		.4byte	0
 1534 0021 00000000 		.4byte	.Ldebug_line0
 1535 0025 02       		.uleb128 0x2
 1536 0026 01       		.byte	0x1
 1537 0027 06       		.byte	0x6
 1538 0028 1D0E0000 		.4byte	.LASF0
 1539 002c 02       		.uleb128 0x2
 1540 002d 01       		.byte	0x1
ARM GAS  C:\Users\User\AppData\Local\Temp\ccR9uRpe.s 			page 39


 1541 002e 08       		.byte	0x8
 1542 002f 260F0000 		.4byte	.LASF1
 1543 0033 02       		.uleb128 0x2
 1544 0034 02       		.byte	0x2
 1545 0035 05       		.byte	0x5
 1546 0036 03360000 		.4byte	.LASF2
 1547 003a 02       		.uleb128 0x2
 1548 003b 02       		.byte	0x2
 1549 003c 07       		.byte	0x7
 1550 003d 593D0000 		.4byte	.LASF3
 1551 0041 02       		.uleb128 0x2
 1552 0042 04       		.byte	0x4
 1553 0043 05       		.byte	0x5
 1554 0044 DC0A0000 		.4byte	.LASF4
 1555 0048 02       		.uleb128 0x2
 1556 0049 04       		.byte	0x4
 1557 004a 07       		.byte	0x7
 1558 004b 391C0000 		.4byte	.LASF5
 1559 004f 02       		.uleb128 0x2
 1560 0050 08       		.byte	0x8
 1561 0051 05       		.byte	0x5
 1562 0052 05210000 		.4byte	.LASF6
 1563 0056 02       		.uleb128 0x2
 1564 0057 08       		.byte	0x8
 1565 0058 07       		.byte	0x7
 1566 0059 B42E0000 		.4byte	.LASF7
 1567 005d 03       		.uleb128 0x3
 1568 005e 04       		.byte	0x4
 1569 005f 05       		.byte	0x5
 1570 0060 696E7400 		.ascii	"int\000"
 1571 0064 02       		.uleb128 0x2
 1572 0065 04       		.byte	0x4
 1573 0066 07       		.byte	0x7
 1574 0067 53260000 		.4byte	.LASF8
 1575 006b 04       		.uleb128 0x4
 1576 006c 6D350000 		.4byte	.LASF9
 1577 0070 02       		.byte	0x2
 1578 0071 E601     		.2byte	0x1e6
 1579 0073 2C000000 		.4byte	0x2c
 1580 0077 04       		.uleb128 0x4
 1581 0078 6D400000 		.4byte	.LASF10
 1582 007c 02       		.byte	0x2
 1583 007d E701     		.2byte	0x1e7
 1584 007f 3A000000 		.4byte	0x3a
 1585 0083 04       		.uleb128 0x4
 1586 0084 72030000 		.4byte	.LASF11
 1587 0088 02       		.byte	0x2
 1588 0089 E801     		.2byte	0x1e8
 1589 008b 48000000 		.4byte	0x48
 1590 008f 02       		.uleb128 0x2
 1591 0090 04       		.byte	0x4
 1592 0091 04       		.byte	0x4
 1593 0092 7A240000 		.4byte	.LASF12
 1594 0096 02       		.uleb128 0x2
 1595 0097 08       		.byte	0x8
 1596 0098 04       		.byte	0x4
 1597 0099 77220000 		.4byte	.LASF13
ARM GAS  C:\Users\User\AppData\Local\Temp\ccR9uRpe.s 			page 40


 1598 009d 02       		.uleb128 0x2
 1599 009e 01       		.byte	0x1
 1600 009f 08       		.byte	0x8
 1601 00a0 95110000 		.4byte	.LASF14
 1602 00a4 05       		.uleb128 0x5
 1603 00a5 6B000000 		.4byte	0x6b
 1604 00a9 02       		.uleb128 0x2
 1605 00aa 08       		.byte	0x8
 1606 00ab 04       		.byte	0x4
 1607 00ac 4F2B0000 		.4byte	.LASF15
 1608 00b0 02       		.uleb128 0x2
 1609 00b1 04       		.byte	0x4
 1610 00b2 07       		.byte	0x7
 1611 00b3 A6000000 		.4byte	.LASF16
 1612 00b7 06       		.uleb128 0x6
 1613 00b8 04       		.byte	0x4
 1614 00b9 07       		.uleb128 0x7
 1615 00ba 04       		.byte	0x4
 1616 00bb BF000000 		.4byte	0xbf
 1617 00bf 08       		.uleb128 0x8
 1618 00c0 CF000000 		.4byte	0xcf
 1619 00c4 09       		.uleb128 0x9
 1620 00c5 83000000 		.4byte	0x83
 1621 00c9 09       		.uleb128 0x9
 1622 00ca B7000000 		.4byte	0xb7
 1623 00ce 00       		.byte	0
 1624 00cf 0A       		.uleb128 0xa
 1625 00d0 01       		.byte	0x1
 1626 00d1 2C000000 		.4byte	0x2c
 1627 00d5 03       		.byte	0x3
 1628 00d6 4D01     		.2byte	0x14d
 1629 00d8 8D020000 		.4byte	0x28d
 1630 00dc 0B       		.uleb128 0xb
 1631 00dd 77120000 		.4byte	.LASF17
 1632 00e1 00       		.byte	0
 1633 00e2 0B       		.uleb128 0xb
 1634 00e3 7C0B0000 		.4byte	.LASF18
 1635 00e7 01       		.byte	0x1
 1636 00e8 0B       		.uleb128 0xb
 1637 00e9 E92E0000 		.4byte	.LASF19
 1638 00ed 02       		.byte	0x2
 1639 00ee 0B       		.uleb128 0xb
 1640 00ef 930E0000 		.4byte	.LASF20
 1641 00f3 03       		.byte	0x3
 1642 00f4 0B       		.uleb128 0xb
 1643 00f5 973E0000 		.4byte	.LASF21
 1644 00f9 04       		.byte	0x4
 1645 00fa 0B       		.uleb128 0xb
 1646 00fb D83B0000 		.4byte	.LASF22
 1647 00ff 05       		.byte	0x5
 1648 0100 0B       		.uleb128 0xb
 1649 0101 9C2B0000 		.4byte	.LASF23
 1650 0105 06       		.byte	0x6
 1651 0106 0B       		.uleb128 0xb
 1652 0107 45380000 		.4byte	.LASF24
 1653 010b 20       		.byte	0x20
 1654 010c 0B       		.uleb128 0xb
ARM GAS  C:\Users\User\AppData\Local\Temp\ccR9uRpe.s 			page 41


 1655 010d D8070000 		.4byte	.LASF25
 1656 0111 21       		.byte	0x21
 1657 0112 0B       		.uleb128 0xb
 1658 0113 F61F0000 		.4byte	.LASF26
 1659 0117 22       		.byte	0x22
 1660 0118 0B       		.uleb128 0xb
 1661 0119 9F290000 		.4byte	.LASF27
 1662 011d 23       		.byte	0x23
 1663 011e 0B       		.uleb128 0xb
 1664 011f CC1A0000 		.4byte	.LASF28
 1665 0123 24       		.byte	0x24
 1666 0124 0B       		.uleb128 0xb
 1667 0125 2F1B0000 		.4byte	.LASF29
 1668 0129 25       		.byte	0x25
 1669 012a 0B       		.uleb128 0xb
 1670 012b A3340000 		.4byte	.LASF30
 1671 012f 26       		.byte	0x26
 1672 0130 0B       		.uleb128 0xb
 1673 0131 DD020000 		.4byte	.LASF31
 1674 0135 27       		.byte	0x27
 1675 0136 0B       		.uleb128 0xb
 1676 0137 BB3F0000 		.4byte	.LASF32
 1677 013b 28       		.byte	0x28
 1678 013c 0B       		.uleb128 0xb
 1679 013d 942C0000 		.4byte	.LASF33
 1680 0141 29       		.byte	0x29
 1681 0142 0B       		.uleb128 0xb
 1682 0143 D31E0000 		.4byte	.LASF34
 1683 0147 2A       		.byte	0x2a
 1684 0148 0B       		.uleb128 0xb
 1685 0149 04290000 		.4byte	.LASF35
 1686 014d 2B       		.byte	0x2b
 1687 014e 0B       		.uleb128 0xb
 1688 014f 363C0000 		.4byte	.LASF36
 1689 0153 2C       		.byte	0x2c
 1690 0154 0B       		.uleb128 0xb
 1691 0155 B9010000 		.4byte	.LASF37
 1692 0159 2D       		.byte	0x2d
 1693 015a 0B       		.uleb128 0xb
 1694 015b 95350000 		.4byte	.LASF38
 1695 015f 2E       		.byte	0x2e
 1696 0160 0B       		.uleb128 0xb
 1697 0161 1A090000 		.4byte	.LASF39
 1698 0165 2F       		.byte	0x2f
 1699 0166 0B       		.uleb128 0xb
 1700 0167 4F110000 		.4byte	.LASF40
 1701 016b 30       		.byte	0x30
 1702 016c 0B       		.uleb128 0xb
 1703 016d 80230000 		.4byte	.LASF41
 1704 0171 31       		.byte	0x31
 1705 0172 0B       		.uleb128 0xb
 1706 0173 AC120000 		.4byte	.LASF42
 1707 0177 32       		.byte	0x32
 1708 0178 0B       		.uleb128 0xb
 1709 0179 13100000 		.4byte	.LASF43
 1710 017d 33       		.byte	0x33
 1711 017e 0B       		.uleb128 0xb
ARM GAS  C:\Users\User\AppData\Local\Temp\ccR9uRpe.s 			page 42


 1712 017f 3A100000 		.4byte	.LASF44
 1713 0183 34       		.byte	0x34
 1714 0184 0B       		.uleb128 0xb
 1715 0185 97390000 		.4byte	.LASF45
 1716 0189 35       		.byte	0x35
 1717 018a 0B       		.uleb128 0xb
 1718 018b BF080000 		.4byte	.LASF46
 1719 018f 36       		.byte	0x36
 1720 0190 0B       		.uleb128 0xb
 1721 0191 C82D0000 		.4byte	.LASF47
 1722 0195 37       		.byte	0x37
 1723 0196 0B       		.uleb128 0xb
 1724 0197 26370000 		.4byte	.LASF48
 1725 019b 40       		.byte	0x40
 1726 019c 0B       		.uleb128 0xb
 1727 019d 40030000 		.4byte	.LASF49
 1728 01a1 41       		.byte	0x41
 1729 01a2 0B       		.uleb128 0xb
 1730 01a3 AC3E0000 		.4byte	.LASF50
 1731 01a7 42       		.byte	0x42
 1732 01a8 0B       		.uleb128 0xb
 1733 01a9 0B2D0000 		.4byte	.LASF51
 1734 01ad 43       		.byte	0x43
 1735 01ae 0B       		.uleb128 0xb
 1736 01af 340F0000 		.4byte	.LASF52
 1737 01b3 44       		.byte	0x44
 1738 01b4 0B       		.uleb128 0xb
 1739 01b5 C80E0000 		.4byte	.LASF53
 1740 01b9 45       		.byte	0x45
 1741 01ba 0B       		.uleb128 0xb
 1742 01bb 79320000 		.4byte	.LASF54
 1743 01bf 46       		.byte	0x46
 1744 01c0 0B       		.uleb128 0xb
 1745 01c1 5B320000 		.4byte	.LASF55
 1746 01c5 47       		.byte	0x47
 1747 01c6 0B       		.uleb128 0xb
 1748 01c7 03110000 		.4byte	.LASF56
 1749 01cb 48       		.byte	0x48
 1750 01cc 0B       		.uleb128 0xb
 1751 01cd 152A0000 		.4byte	.LASF57
 1752 01d1 49       		.byte	0x49
 1753 01d2 0B       		.uleb128 0xb
 1754 01d3 0D130000 		.4byte	.LASF58
 1755 01d7 4A       		.byte	0x4a
 1756 01d8 0B       		.uleb128 0xb
 1757 01d9 1E120000 		.4byte	.LASF59
 1758 01dd 4B       		.byte	0x4b
 1759 01de 0B       		.uleb128 0xb
 1760 01df 47290000 		.4byte	.LASF60
 1761 01e3 4C       		.byte	0x4c
 1762 01e4 0B       		.uleb128 0xb
 1763 01e5 F8330000 		.4byte	.LASF61
 1764 01e9 4D       		.byte	0x4d
 1765 01ea 0B       		.uleb128 0xb
 1766 01eb 770A0000 		.4byte	.LASF62
 1767 01ef 4E       		.byte	0x4e
 1768 01f0 0B       		.uleb128 0xb
ARM GAS  C:\Users\User\AppData\Local\Temp\ccR9uRpe.s 			page 43


 1769 01f1 60260000 		.4byte	.LASF63
 1770 01f5 4F       		.byte	0x4f
 1771 01f6 0B       		.uleb128 0xb
 1772 01f7 26380000 		.4byte	.LASF64
 1773 01fb 50       		.byte	0x50
 1774 01fc 0B       		.uleb128 0xb
 1775 01fd 71130000 		.4byte	.LASF65
 1776 0201 51       		.byte	0x51
 1777 0202 0B       		.uleb128 0xb
 1778 0203 B7070000 		.4byte	.LASF66
 1779 0207 52       		.byte	0x52
 1780 0208 0B       		.uleb128 0xb
 1781 0209 583B0000 		.4byte	.LASF67
 1782 020d 53       		.byte	0x53
 1783 020e 0B       		.uleb128 0xb
 1784 020f FD3F0000 		.4byte	.LASF68
 1785 0213 54       		.byte	0x54
 1786 0214 0B       		.uleb128 0xb
 1787 0215 3D060000 		.4byte	.LASF69
 1788 0219 55       		.byte	0x55
 1789 021a 0B       		.uleb128 0xb
 1790 021b 6A140000 		.4byte	.LASF70
 1791 021f 56       		.byte	0x56
 1792 0220 0B       		.uleb128 0xb
 1793 0221 26250000 		.4byte	.LASF71
 1794 0225 57       		.byte	0x57
 1795 0226 0B       		.uleb128 0xb
 1796 0227 7C3F0000 		.4byte	.LASF72
 1797 022b 58       		.byte	0x58
 1798 022c 0B       		.uleb128 0xb
 1799 022d 8B3C0000 		.4byte	.LASF73
 1800 0231 70       		.byte	0x70
 1801 0232 0B       		.uleb128 0xb
 1802 0233 E6180000 		.4byte	.LASF74
 1803 0237 71       		.byte	0x71
 1804 0238 0B       		.uleb128 0xb
 1805 0239 770D0000 		.4byte	.LASF75
 1806 023d 72       		.byte	0x72
 1807 023e 0B       		.uleb128 0xb
 1808 023f 08380000 		.4byte	.LASF76
 1809 0243 73       		.byte	0x73
 1810 0244 0B       		.uleb128 0xb
 1811 0245 882A0000 		.4byte	.LASF77
 1812 0249 74       		.byte	0x74
 1813 024a 0B       		.uleb128 0xb
 1814 024b 731F0000 		.4byte	.LASF78
 1815 024f 75       		.byte	0x75
 1816 0250 0B       		.uleb128 0xb
 1817 0251 E2100000 		.4byte	.LASF79
 1818 0255 76       		.byte	0x76
 1819 0256 0B       		.uleb128 0xb
 1820 0257 922F0000 		.4byte	.LASF80
 1821 025b 77       		.byte	0x77
 1822 025c 0B       		.uleb128 0xb
 1823 025d 61060000 		.4byte	.LASF81
 1824 0261 78       		.byte	0x78
 1825 0262 0B       		.uleb128 0xb
ARM GAS  C:\Users\User\AppData\Local\Temp\ccR9uRpe.s 			page 44


 1826 0263 B90A0000 		.4byte	.LASF82
 1827 0267 79       		.byte	0x79
 1828 0268 0B       		.uleb128 0xb
 1829 0269 F03E0000 		.4byte	.LASF83
 1830 026d 7A       		.byte	0x7a
 1831 026e 0B       		.uleb128 0xb
 1832 026f C3220000 		.4byte	.LASF84
 1833 0273 FA       		.byte	0xfa
 1834 0274 0B       		.uleb128 0xb
 1835 0275 A03A0000 		.4byte	.LASF85
 1836 0279 FB       		.byte	0xfb
 1837 027a 0B       		.uleb128 0xb
 1838 027b 0C190000 		.4byte	.LASF86
 1839 027f FC       		.byte	0xfc
 1840 0280 0B       		.uleb128 0xb
 1841 0281 372B0000 		.4byte	.LASF87
 1842 0285 FD       		.byte	0xfd
 1843 0286 0B       		.uleb128 0xb
 1844 0287 F6280000 		.4byte	.LASF88
 1845 028b FF       		.byte	0xff
 1846 028c 00       		.byte	0
 1847 028d 0A       		.uleb128 0xa
 1848 028e 02       		.byte	0x2
 1849 028f 3A000000 		.4byte	0x3a
 1850 0293 03       		.byte	0x3
 1851 0294 0204     		.2byte	0x402
 1852 0296 66030000 		.4byte	0x366
 1853 029a 0B       		.uleb128 0xb
 1854 029b AC0E0000 		.4byte	.LASF89
 1855 029f 00       		.byte	0
 1856 02a0 0B       		.uleb128 0xb
 1857 02a1 F2150000 		.4byte	.LASF90
 1858 02a5 01       		.byte	0x1
 1859 02a6 0B       		.uleb128 0xb
 1860 02a7 793E0000 		.4byte	.LASF91
 1861 02ab 02       		.byte	0x2
 1862 02ac 0B       		.uleb128 0xb
 1863 02ad 64170000 		.4byte	.LASF92
 1864 02b1 03       		.byte	0x3
 1865 02b2 0B       		.uleb128 0xb
 1866 02b3 A71B0000 		.4byte	.LASF93
 1867 02b7 04       		.byte	0x4
 1868 02b8 0B       		.uleb128 0xb
 1869 02b9 2B220000 		.4byte	.LASF94
 1870 02bd 05       		.byte	0x5
 1871 02be 0B       		.uleb128 0xb
 1872 02bf 633A0000 		.4byte	.LASF95
 1873 02c3 06       		.byte	0x6
 1874 02c4 0B       		.uleb128 0xb
 1875 02c5 F0120000 		.4byte	.LASF96
 1876 02c9 07       		.byte	0x7
 1877 02ca 0B       		.uleb128 0xb
 1878 02cb 1F240000 		.4byte	.LASF97
 1879 02cf 08       		.byte	0x8
 1880 02d0 0B       		.uleb128 0xb
 1881 02d1 21390000 		.4byte	.LASF98
 1882 02d5 09       		.byte	0x9
ARM GAS  C:\Users\User\AppData\Local\Temp\ccR9uRpe.s 			page 45


 1883 02d6 0B       		.uleb128 0xb
 1884 02d7 98400000 		.4byte	.LASF99
 1885 02db 0A       		.byte	0xa
 1886 02dc 0B       		.uleb128 0xb
 1887 02dd 4E080000 		.4byte	.LASF100
 1888 02e1 0B       		.byte	0xb
 1889 02e2 0B       		.uleb128 0xb
 1890 02e3 C13B0000 		.4byte	.LASF101
 1891 02e7 0C       		.byte	0xc
 1892 02e8 0B       		.uleb128 0xb
 1893 02e9 20280000 		.4byte	.LASF102
 1894 02ed 0D       		.byte	0xd
 1895 02ee 0B       		.uleb128 0xb
 1896 02ef 7B1D0000 		.4byte	.LASF103
 1897 02f3 0E       		.byte	0xe
 1898 02f4 0B       		.uleb128 0xb
 1899 02f5 06220000 		.4byte	.LASF104
 1900 02f9 0F       		.byte	0xf
 1901 02fa 0B       		.uleb128 0xb
 1902 02fb CD050000 		.4byte	.LASF105
 1903 02ff 10       		.byte	0x10
 1904 0300 0B       		.uleb128 0xb
 1905 0301 EE230000 		.4byte	.LASF106
 1906 0305 11       		.byte	0x11
 1907 0306 0B       		.uleb128 0xb
 1908 0307 8F0B0000 		.4byte	.LASF107
 1909 030b 12       		.byte	0x12
 1910 030c 0B       		.uleb128 0xb
 1911 030d F50D0000 		.4byte	.LASF108
 1912 0311 13       		.byte	0x13
 1913 0312 0B       		.uleb128 0xb
 1914 0313 7E220000 		.4byte	.LASF109
 1915 0317 27       		.byte	0x27
 1916 0318 0B       		.uleb128 0xb
 1917 0319 DB240000 		.4byte	.LASF110
 1918 031d 28       		.byte	0x28
 1919 031e 0B       		.uleb128 0xb
 1920 031f FB050000 		.4byte	.LASF111
 1921 0323 29       		.byte	0x29
 1922 0324 0B       		.uleb128 0xb
 1923 0325 79360000 		.4byte	.LASF112
 1924 0329 2A       		.byte	0x2a
 1925 032a 0B       		.uleb128 0xb
 1926 032b DD1C0000 		.4byte	.LASF113
 1927 032f 2B       		.byte	0x2b
 1928 0330 0B       		.uleb128 0xb
 1929 0331 60300000 		.4byte	.LASF114
 1930 0335 2C       		.byte	0x2c
 1931 0336 0B       		.uleb128 0xb
 1932 0337 D6150000 		.4byte	.LASF115
 1933 033b FE       		.byte	0xfe
 1934 033c 0B       		.uleb128 0xb
 1935 033d B3180000 		.4byte	.LASF116
 1936 0341 FF       		.byte	0xff
 1937 0342 0C       		.uleb128 0xc
 1938 0343 DE290000 		.4byte	.LASF117
 1939 0347 0001     		.2byte	0x100
ARM GAS  C:\Users\User\AppData\Local\Temp\ccR9uRpe.s 			page 46


 1940 0349 0C       		.uleb128 0xc
 1941 034a C5290000 		.4byte	.LASF118
 1942 034e 0101     		.2byte	0x101
 1943 0350 0C       		.uleb128 0xc
 1944 0351 B10C0000 		.4byte	.LASF119
 1945 0355 0201     		.2byte	0x102
 1946 0357 0C       		.uleb128 0xc
 1947 0358 392F0000 		.4byte	.LASF120
 1948 035c 0301     		.2byte	0x103
 1949 035e 0C       		.uleb128 0xc
 1950 035f 661B0000 		.4byte	.LASF121
 1951 0363 0401     		.2byte	0x104
 1952 0365 00       		.byte	0
 1953 0366 04       		.uleb128 0x4
 1954 0367 BF3A0000 		.4byte	.LASF122
 1955 036b 03       		.byte	0x3
 1956 036c 7104     		.2byte	0x471
 1957 036e 8D020000 		.4byte	0x28d
 1958 0372 07       		.uleb128 0x7
 1959 0373 04       		.byte	0x4
 1960 0374 6B000000 		.4byte	0x6b
 1961 0378 0D       		.uleb128 0xd
 1962 0379 01       		.byte	0x1
 1963 037a 2C000000 		.4byte	0x2c
 1964 037e 04       		.byte	0x4
 1965 037f A5       		.byte	0xa5
 1966 0380 6F040000 		.4byte	0x46f
 1967 0384 0B       		.uleb128 0xb
 1968 0385 B12F0000 		.4byte	.LASF123
 1969 0389 00       		.byte	0
 1970 038a 0B       		.uleb128 0xb
 1971 038b CB2E0000 		.4byte	.LASF124
 1972 038f 01       		.byte	0x1
 1973 0390 0B       		.uleb128 0xb
 1974 0391 51050000 		.4byte	.LASF125
 1975 0395 02       		.byte	0x2
 1976 0396 0B       		.uleb128 0xb
 1977 0397 123D0000 		.4byte	.LASF126
 1978 039b 03       		.byte	0x3
 1979 039c 0B       		.uleb128 0xb
 1980 039d 960C0000 		.4byte	.LASF127
 1981 03a1 04       		.byte	0x4
 1982 03a2 0B       		.uleb128 0xb
 1983 03a3 8C260000 		.4byte	.LASF128
 1984 03a7 05       		.byte	0x5
 1985 03a8 0B       		.uleb128 0xb
 1986 03a9 EA360000 		.4byte	.LASF129
 1987 03ad 06       		.byte	0x6
 1988 03ae 0B       		.uleb128 0xb
 1989 03af 482A0000 		.4byte	.LASF130
 1990 03b3 07       		.byte	0x7
 1991 03b4 0B       		.uleb128 0xb
 1992 03b5 B5250000 		.4byte	.LASF131
 1993 03b9 08       		.byte	0x8
 1994 03ba 0B       		.uleb128 0xb
 1995 03bb BC210000 		.4byte	.LASF132
 1996 03bf 09       		.byte	0x9
ARM GAS  C:\Users\User\AppData\Local\Temp\ccR9uRpe.s 			page 47


 1997 03c0 0B       		.uleb128 0xb
 1998 03c1 6A280000 		.4byte	.LASF133
 1999 03c5 0A       		.byte	0xa
 2000 03c6 0B       		.uleb128 0xb
 2001 03c7 EA130000 		.4byte	.LASF134
 2002 03cb 0B       		.byte	0xb
 2003 03cc 0B       		.uleb128 0xb
 2004 03cd E1220000 		.4byte	.LASF135
 2005 03d1 0C       		.byte	0xc
 2006 03d2 0B       		.uleb128 0xb
 2007 03d3 B80D0000 		.4byte	.LASF136
 2008 03d7 0D       		.byte	0xd
 2009 03d8 0B       		.uleb128 0xb
 2010 03d9 8E120000 		.4byte	.LASF137
 2011 03dd 0E       		.byte	0xe
 2012 03de 0B       		.uleb128 0xb
 2013 03df 6C3D0000 		.4byte	.LASF138
 2014 03e3 0F       		.byte	0xf
 2015 03e4 0B       		.uleb128 0xb
 2016 03e5 A7050000 		.4byte	.LASF139
 2017 03e9 10       		.byte	0x10
 2018 03ea 0B       		.uleb128 0xb
 2019 03eb 73050000 		.4byte	.LASF140
 2020 03ef 11       		.byte	0x11
 2021 03f0 0B       		.uleb128 0xb
 2022 03f1 DF060000 		.4byte	.LASF141
 2023 03f5 80       		.byte	0x80
 2024 03f6 0B       		.uleb128 0xb
 2025 03f7 90130000 		.4byte	.LASF142
 2026 03fb 80       		.byte	0x80
 2027 03fc 0B       		.uleb128 0xb
 2028 03fd 7B1A0000 		.4byte	.LASF143
 2029 0401 80       		.byte	0x80
 2030 0402 0B       		.uleb128 0xb
 2031 0403 96360000 		.4byte	.LASF144
 2032 0407 80       		.byte	0x80
 2033 0408 0B       		.uleb128 0xb
 2034 0409 9B300000 		.4byte	.LASF145
 2035 040d 80       		.byte	0x80
 2036 040e 0B       		.uleb128 0xb
 2037 040f AA270000 		.4byte	.LASF146
 2038 0413 80       		.byte	0x80
 2039 0414 0B       		.uleb128 0xb
 2040 0415 F01B0000 		.4byte	.LASF147
 2041 0419 80       		.byte	0x80
 2042 041a 0B       		.uleb128 0xb
 2043 041b 1E2F0000 		.4byte	.LASF148
 2044 041f 80       		.byte	0x80
 2045 0420 0B       		.uleb128 0xb
 2046 0421 65180000 		.4byte	.LASF149
 2047 0425 81       		.byte	0x81
 2048 0426 0B       		.uleb128 0xb
 2049 0427 07330000 		.4byte	.LASF150
 2050 042b 81       		.byte	0x81
 2051 042c 0B       		.uleb128 0xb
 2052 042d 76000000 		.4byte	.LASF151
 2053 0431 81       		.byte	0x81
ARM GAS  C:\Users\User\AppData\Local\Temp\ccR9uRpe.s 			page 48


 2054 0432 0B       		.uleb128 0xb
 2055 0433 1D0C0000 		.4byte	.LASF152
 2056 0437 81       		.byte	0x81
 2057 0438 0B       		.uleb128 0xb
 2058 0439 58090000 		.4byte	.LASF153
 2059 043d 82       		.byte	0x82
 2060 043e 0B       		.uleb128 0xb
 2061 043f F2390000 		.4byte	.LASF154
 2062 0443 A0       		.byte	0xa0
 2063 0444 0B       		.uleb128 0xb
 2064 0445 CB1D0000 		.4byte	.LASF155
 2065 0449 A0       		.byte	0xa0
 2066 044a 0B       		.uleb128 0xb
 2067 044b A3090000 		.4byte	.LASF156
 2068 044f A1       		.byte	0xa1
 2069 0450 0B       		.uleb128 0xb
 2070 0451 FB380000 		.4byte	.LASF157
 2071 0455 A2       		.byte	0xa2
 2072 0456 0B       		.uleb128 0xb
 2073 0457 CB140000 		.4byte	.LASF158
 2074 045b A3       		.byte	0xa3
 2075 045c 0B       		.uleb128 0xb
 2076 045d 7D1B0000 		.4byte	.LASF159
 2077 0461 FD       		.byte	0xfd
 2078 0462 0B       		.uleb128 0xb
 2079 0463 2F230000 		.4byte	.LASF160
 2080 0467 FE       		.byte	0xfe
 2081 0468 0B       		.uleb128 0xb
 2082 0469 012B0000 		.4byte	.LASF161
 2083 046d FF       		.byte	0xff
 2084 046e 00       		.byte	0
 2085 046f 04       		.uleb128 0x4
 2086 0470 E5380000 		.4byte	.LASF162
 2087 0474 04       		.byte	0x4
 2088 0475 5F01     		.2byte	0x15f
 2089 0477 78030000 		.4byte	0x378
 2090 047b 04       		.uleb128 0x4
 2091 047c 532F0000 		.4byte	.LASF163
 2092 0480 04       		.byte	0x4
 2093 0481 8901     		.2byte	0x189
 2094 0483 77000000 		.4byte	0x77
 2095 0487 0E       		.uleb128 0xe
 2096 0488 02       		.byte	0x2
 2097 0489 04       		.byte	0x4
 2098 048a 9301     		.2byte	0x193
 2099 048c AB040000 		.4byte	0x4ab
 2100 0490 0F       		.uleb128 0xf
 2101 0491 4F090000 		.4byte	.LASF164
 2102 0495 04       		.byte	0x4
 2103 0496 9A01     		.2byte	0x19a
 2104 0498 6B000000 		.4byte	0x6b
 2105 049c 00       		.byte	0
 2106 049d 0F       		.uleb128 0xf
 2107 049e 733E0000 		.4byte	.LASF165
 2108 04a2 04       		.byte	0x4
 2109 04a3 A001     		.2byte	0x1a0
 2110 04a5 6B000000 		.4byte	0x6b
ARM GAS  C:\Users\User\AppData\Local\Temp\ccR9uRpe.s 			page 49


 2111 04a9 01       		.byte	0x1
 2112 04aa 00       		.byte	0
 2113 04ab 04       		.uleb128 0x4
 2114 04ac 17080000 		.4byte	.LASF166
 2115 04b0 04       		.byte	0x4
 2116 04b1 A201     		.2byte	0x1a2
 2117 04b3 87040000 		.4byte	0x487
 2118 04b7 0E       		.uleb128 0xe
 2119 04b8 08       		.byte	0x8
 2120 04b9 04       		.byte	0x4
 2121 04ba BE01     		.2byte	0x1be
 2122 04bc E8040000 		.4byte	0x4e8
 2123 04c0 10       		.uleb128 0x10
 2124 04c1 76616C00 		.ascii	"val\000"
 2125 04c5 04       		.byte	0x4
 2126 04c6 C101     		.2byte	0x1c1
 2127 04c8 72030000 		.4byte	0x372
 2128 04cc 00       		.byte	0
 2129 04cd 10       		.uleb128 0x10
 2130 04ce 6C656E00 		.ascii	"len\000"
 2131 04d2 04       		.byte	0x4
 2132 04d3 C401     		.2byte	0x1c4
 2133 04d5 77000000 		.4byte	0x77
 2134 04d9 04       		.byte	0x4
 2135 04da 0F       		.uleb128 0xf
 2136 04db 123E0000 		.4byte	.LASF167
 2137 04df 04       		.byte	0x4
 2138 04e0 CB01     		.2byte	0x1cb
 2139 04e2 77000000 		.4byte	0x77
 2140 04e6 06       		.byte	0x6
 2141 04e7 00       		.byte	0
 2142 04e8 04       		.uleb128 0x4
 2143 04e9 84060000 		.4byte	.LASF168
 2144 04ed 04       		.byte	0x4
 2145 04ee CD01     		.2byte	0x1cd
 2146 04f0 B7040000 		.4byte	0x4b7
 2147 04f4 0E       		.uleb128 0xe
 2148 04f5 0C       		.byte	0xc
 2149 04f6 04       		.byte	0x4
 2150 04f7 D001     		.2byte	0x1d0
 2151 04f9 18050000 		.4byte	0x518
 2152 04fd 0F       		.uleb128 0xf
 2153 04fe C52F0000 		.4byte	.LASF169
 2154 0502 04       		.byte	0x4
 2155 0503 D301     		.2byte	0x1d3
 2156 0505 E8040000 		.4byte	0x4e8
 2157 0509 00       		.byte	0
 2158 050a 0F       		.uleb128 0xf
 2159 050b EA250000 		.4byte	.LASF170
 2160 050f 04       		.byte	0x4
 2161 0510 D601     		.2byte	0x1d6
 2162 0512 7B040000 		.4byte	0x47b
 2163 0516 08       		.byte	0x8
 2164 0517 00       		.byte	0
 2165 0518 04       		.uleb128 0x4
 2166 0519 110D0000 		.4byte	.LASF171
 2167 051d 04       		.byte	0x4
ARM GAS  C:\Users\User\AppData\Local\Temp\ccR9uRpe.s 			page 50


 2168 051e D801     		.2byte	0x1d8
 2169 0520 F4040000 		.4byte	0x4f4
 2170 0524 11       		.uleb128 0x11
 2171 0525 DC000000 		.4byte	.LASF172
 2172 0529 05       		.byte	0x5
 2173 052a 34       		.byte	0x34
 2174 052b 18050000 		.4byte	0x518
 2175 052f 12       		.uleb128 0x12
 2176 0530 10       		.byte	0x10
 2177 0531 05       		.byte	0x5
 2178 0532 8A       		.byte	0x8a
 2179 0533 50050000 		.4byte	0x550
 2180 0537 13       		.uleb128 0x13
 2181 0538 78310000 		.4byte	.LASF173
 2182 053c 05       		.byte	0x5
 2183 053d 8D       		.byte	0x8d
 2184 053e AB040000 		.4byte	0x4ab
 2185 0542 00       		.byte	0
 2186 0543 13       		.uleb128 0x13
 2187 0544 0D360000 		.4byte	.LASF174
 2188 0548 05       		.byte	0x5
 2189 0549 90       		.byte	0x90
 2190 054a 18050000 		.4byte	0x518
 2191 054e 04       		.byte	0x4
 2192 054f 00       		.byte	0
 2193 0550 11       		.uleb128 0x11
 2194 0551 35260000 		.4byte	.LASF175
 2195 0555 05       		.byte	0x5
 2196 0556 92       		.byte	0x92
 2197 0557 2F050000 		.4byte	0x52f
 2198 055b 12       		.uleb128 0x12
 2199 055c 08       		.byte	0x8
 2200 055d 06       		.byte	0x6
 2201 055e C8       		.byte	0xc8
 2202 055f 7C050000 		.4byte	0x57c
 2203 0563 13       		.uleb128 0x13
 2204 0564 91310000 		.4byte	.LASF176
 2205 0568 06       		.byte	0x6
 2206 0569 CB       		.byte	0xcb
 2207 056a 77000000 		.4byte	0x77
 2208 056e 00       		.byte	0
 2209 056f 13       		.uleb128 0x13
 2210 0570 30350000 		.4byte	.LASF177
 2211 0574 06       		.byte	0x6
 2212 0575 D0       		.byte	0xd0
 2213 0576 B7000000 		.4byte	0xb7
 2214 057a 04       		.byte	0x4
 2215 057b 00       		.byte	0
 2216 057c 11       		.uleb128 0x11
 2217 057d A62A0000 		.4byte	.LASF178
 2218 0581 06       		.byte	0x6
 2219 0582 D2       		.byte	0xd2
 2220 0583 5B050000 		.4byte	0x55b
 2221 0587 12       		.uleb128 0x12
 2222 0588 08       		.byte	0x8
 2223 0589 06       		.byte	0x6
 2224 058a D5       		.byte	0xd5
ARM GAS  C:\Users\User\AppData\Local\Temp\ccR9uRpe.s 			page 51


 2225 058b A8050000 		.4byte	0x5a8
 2226 058f 13       		.uleb128 0x13
 2227 0590 A7110000 		.4byte	.LASF179
 2228 0594 06       		.byte	0x6
 2229 0595 D8       		.byte	0xd8
 2230 0596 77000000 		.4byte	0x77
 2231 059a 00       		.byte	0
 2232 059b 13       		.uleb128 0x13
 2233 059c 35360000 		.4byte	.LASF180
 2234 05a0 06       		.byte	0x6
 2235 05a1 DD       		.byte	0xdd
 2236 05a2 A8050000 		.4byte	0x5a8
 2237 05a6 04       		.byte	0x4
 2238 05a7 00       		.byte	0
 2239 05a8 07       		.uleb128 0x7
 2240 05a9 04       		.byte	0x4
 2241 05aa 7C050000 		.4byte	0x57c
 2242 05ae 11       		.uleb128 0x11
 2243 05af 84340000 		.4byte	.LASF181
 2244 05b3 06       		.byte	0x6
 2245 05b4 DF       		.byte	0xdf
 2246 05b5 87050000 		.4byte	0x587
 2247 05b9 14       		.uleb128 0x14
 2248 05ba 08       		.byte	0x8
 2249 05bb 06       		.byte	0x6
 2250 05bc E2       		.byte	0xe2
 2251 05bd D8050000 		.4byte	0x5d8
 2252 05c1 15       		.uleb128 0x15
 2253 05c2 46360000 		.4byte	.LASF182
 2254 05c6 06       		.byte	0x6
 2255 05c7 E9       		.byte	0xe9
 2256 05c8 AE050000 		.4byte	0x5ae
 2257 05cc 15       		.uleb128 0x15
 2258 05cd BE1D0000 		.4byte	.LASF183
 2259 05d1 06       		.byte	0x6
 2260 05d2 EC       		.byte	0xec
 2261 05d3 77000000 		.4byte	0x77
 2262 05d7 00       		.byte	0
 2263 05d8 11       		.uleb128 0x11
 2264 05d9 4F340000 		.4byte	.LASF184
 2265 05dd 06       		.byte	0x6
 2266 05de EE       		.byte	0xee
 2267 05df B9050000 		.4byte	0x5b9
 2268 05e3 12       		.uleb128 0x12
 2269 05e4 14       		.byte	0x14
 2270 05e5 06       		.byte	0x6
 2271 05e6 F1       		.byte	0xf1
 2272 05e7 2B060000 		.4byte	0x62b
 2273 05eb 13       		.uleb128 0x13
 2274 05ec 52100000 		.4byte	.LASF185
 2275 05f0 06       		.byte	0x6
 2276 05f1 F4       		.byte	0xf4
 2277 05f2 77000000 		.4byte	0x77
 2278 05f6 00       		.byte	0
 2279 05f7 13       		.uleb128 0x13
 2280 05f8 300D0000 		.4byte	.LASF186
 2281 05fc 06       		.byte	0x6
ARM GAS  C:\Users\User\AppData\Local\Temp\ccR9uRpe.s 			page 52


 2282 05fd FA       		.byte	0xfa
 2283 05fe 77000000 		.4byte	0x77
 2284 0602 02       		.byte	0x2
 2285 0603 0F       		.uleb128 0xf
 2286 0604 BA060000 		.4byte	.LASF187
 2287 0608 06       		.byte	0x6
 2288 0609 0501     		.2byte	0x105
 2289 060b 83000000 		.4byte	0x83
 2290 060f 04       		.byte	0x4
 2291 0610 0F       		.uleb128 0xf
 2292 0611 7F260000 		.4byte	.LASF188
 2293 0615 06       		.byte	0x6
 2294 0616 0801     		.2byte	0x108
 2295 0618 77000000 		.4byte	0x77
 2296 061c 08       		.byte	0x8
 2297 061d 0F       		.uleb128 0xf
 2298 061e 1F300000 		.4byte	.LASF189
 2299 0622 06       		.byte	0x6
 2300 0623 1101     		.2byte	0x111
 2301 0625 D8050000 		.4byte	0x5d8
 2302 0629 0C       		.byte	0xc
 2303 062a 00       		.byte	0
 2304 062b 04       		.uleb128 0x4
 2305 062c 29150000 		.4byte	.LASF190
 2306 0630 06       		.byte	0x6
 2307 0631 1201     		.2byte	0x112
 2308 0633 E3050000 		.4byte	0x5e3
 2309 0637 04       		.uleb128 0x4
 2310 0638 74070000 		.4byte	.LASF191
 2311 063c 07       		.byte	0x7
 2312 063d 0402     		.2byte	0x204
 2313 063f B9000000 		.4byte	0xb9
 2314 0643 0D       		.uleb128 0xd
 2315 0644 01       		.byte	0x1
 2316 0645 2C000000 		.4byte	0x2c
 2317 0649 08       		.byte	0x8
 2318 064a 22       		.byte	0x22
 2319 064b 8C060000 		.4byte	0x68c
 2320 064f 0B       		.uleb128 0xb
 2321 0650 432E0000 		.4byte	.LASF192
 2322 0654 00       		.byte	0
 2323 0655 0B       		.uleb128 0xb
 2324 0656 ED140000 		.4byte	.LASF193
 2325 065a 01       		.byte	0x1
 2326 065b 0B       		.uleb128 0xb
 2327 065c A01E0000 		.4byte	.LASF194
 2328 0660 02       		.byte	0x2
 2329 0661 0B       		.uleb128 0xb
 2330 0662 B20B0000 		.4byte	.LASF195
 2331 0666 03       		.byte	0x3
 2332 0667 0B       		.uleb128 0xb
 2333 0668 A0070000 		.4byte	.LASF196
 2334 066c 04       		.byte	0x4
 2335 066d 0B       		.uleb128 0xb
 2336 066e 53140000 		.4byte	.LASF197
 2337 0672 05       		.byte	0x5
 2338 0673 0B       		.uleb128 0xb
ARM GAS  C:\Users\User\AppData\Local\Temp\ccR9uRpe.s 			page 53


 2339 0674 84150000 		.4byte	.LASF198
 2340 0678 06       		.byte	0x6
 2341 0679 0B       		.uleb128 0xb
 2342 067a 22270000 		.4byte	.LASF199
 2343 067e 07       		.byte	0x7
 2344 067f 0B       		.uleb128 0xb
 2345 0680 66210000 		.4byte	.LASF200
 2346 0684 08       		.byte	0x8
 2347 0685 0B       		.uleb128 0xb
 2348 0686 91000000 		.4byte	.LASF201
 2349 068a 09       		.byte	0x9
 2350 068b 00       		.byte	0
 2351 068c 07       		.uleb128 0x7
 2352 068d 04       		.byte	0x4
 2353 068e E8040000 		.4byte	0x4e8
 2354 0692 0D       		.uleb128 0xd
 2355 0693 01       		.byte	0x1
 2356 0694 2C000000 		.4byte	0x2c
 2357 0698 09       		.byte	0x9
 2358 0699 21       		.byte	0x21
 2359 069a BD060000 		.4byte	0x6bd
 2360 069e 0B       		.uleb128 0xb
 2361 069f 0F370000 		.4byte	.LASF202
 2362 06a3 00       		.byte	0
 2363 06a4 0B       		.uleb128 0xb
 2364 06a5 0B300000 		.4byte	.LASF203
 2365 06a9 01       		.byte	0x1
 2366 06aa 0B       		.uleb128 0xb
 2367 06ab 200B0000 		.4byte	.LASF204
 2368 06af 02       		.byte	0x2
 2369 06b0 0B       		.uleb128 0xb
 2370 06b1 B81E0000 		.4byte	.LASF205
 2371 06b5 03       		.byte	0x3
 2372 06b6 0B       		.uleb128 0xb
 2373 06b7 F62C0000 		.4byte	.LASF206
 2374 06bb 04       		.byte	0x4
 2375 06bc 00       		.byte	0
 2376 06bd 11       		.uleb128 0x11
 2377 06be 381F0000 		.4byte	.LASF207
 2378 06c2 09       		.byte	0x9
 2379 06c3 28       		.byte	0x28
 2380 06c4 92060000 		.4byte	0x692
 2381 06c8 0D       		.uleb128 0xd
 2382 06c9 01       		.byte	0x1
 2383 06ca 2C000000 		.4byte	0x2c
 2384 06ce 09       		.byte	0x9
 2385 06cf 2C       		.byte	0x2c
 2386 06d0 E7060000 		.4byte	0x6e7
 2387 06d4 0B       		.uleb128 0xb
 2388 06d5 98050000 		.4byte	.LASF208
 2389 06d9 00       		.byte	0
 2390 06da 0B       		.uleb128 0xb
 2391 06db 64030000 		.4byte	.LASF209
 2392 06df 01       		.byte	0x1
 2393 06e0 0B       		.uleb128 0xb
 2394 06e1 760F0000 		.4byte	.LASF210
 2395 06e5 02       		.byte	0x2
ARM GAS  C:\Users\User\AppData\Local\Temp\ccR9uRpe.s 			page 54


 2396 06e6 00       		.byte	0
 2397 06e7 11       		.uleb128 0x11
 2398 06e8 3E2C0000 		.4byte	.LASF211
 2399 06ec 09       		.byte	0x9
 2400 06ed 30       		.byte	0x30
 2401 06ee C8060000 		.4byte	0x6c8
 2402 06f2 12       		.uleb128 0x12
 2403 06f3 06       		.byte	0x6
 2404 06f4 09       		.byte	0x9
 2405 06f5 33       		.byte	0x33
 2406 06f6 13070000 		.4byte	0x713
 2407 06fa 13       		.uleb128 0x13
 2408 06fb 3E350000 		.4byte	.LASF212
 2409 06ff 09       		.byte	0x9
 2410 0700 35       		.byte	0x35
 2411 0701 7B040000 		.4byte	0x47b
 2412 0705 00       		.byte	0
 2413 0706 13       		.uleb128 0x13
 2414 0707 43090000 		.4byte	.LASF213
 2415 070b 09       		.byte	0x9
 2416 070c 36       		.byte	0x36
 2417 070d 13070000 		.4byte	0x713
 2418 0711 02       		.byte	0x2
 2419 0712 00       		.byte	0
 2420 0713 16       		.uleb128 0x16
 2421 0714 7B040000 		.4byte	0x47b
 2422 0718 23070000 		.4byte	0x723
 2423 071c 17       		.uleb128 0x17
 2424 071d B0000000 		.4byte	0xb0
 2425 0721 01       		.byte	0x1
 2426 0722 00       		.byte	0
 2427 0723 11       		.uleb128 0x11
 2428 0724 AC170000 		.4byte	.LASF214
 2429 0728 09       		.byte	0x9
 2430 0729 37       		.byte	0x37
 2431 072a F2060000 		.4byte	0x6f2
 2432 072e 12       		.uleb128 0x12
 2433 072f 1A       		.byte	0x1a
 2434 0730 09       		.byte	0x9
 2435 0731 3A       		.byte	0x3a
 2436 0732 4F070000 		.4byte	0x74f
 2437 0736 13       		.uleb128 0x13
 2438 0737 640C0000 		.4byte	.LASF215
 2439 073b 09       		.byte	0x9
 2440 073c 3D       		.byte	0x3d
 2441 073d 7B040000 		.4byte	0x47b
 2442 0741 00       		.byte	0
 2443 0742 13       		.uleb128 0x13
 2444 0743 5A3A0000 		.4byte	.LASF216
 2445 0747 09       		.byte	0x9
 2446 0748 40       		.byte	0x40
 2447 0749 4F070000 		.4byte	0x74f
 2448 074d 02       		.byte	0x2
 2449 074e 00       		.byte	0
 2450 074f 16       		.uleb128 0x16
 2451 0750 23070000 		.4byte	0x723
 2452 0754 5F070000 		.4byte	0x75f
ARM GAS  C:\Users\User\AppData\Local\Temp\ccR9uRpe.s 			page 55


 2453 0758 17       		.uleb128 0x17
 2454 0759 B0000000 		.4byte	0xb0
 2455 075d 03       		.byte	0x3
 2456 075e 00       		.byte	0
 2457 075f 11       		.uleb128 0x11
 2458 0760 D73C0000 		.4byte	.LASF217
 2459 0764 09       		.byte	0x9
 2460 0765 41       		.byte	0x41
 2461 0766 2E070000 		.4byte	0x72e
 2462 076a 12       		.uleb128 0x12
 2463 076b 08       		.byte	0x8
 2464 076c 09       		.byte	0x9
 2465 076d 59       		.byte	0x59
 2466 076e 97070000 		.4byte	0x797
 2467 0772 13       		.uleb128 0x13
 2468 0773 78310000 		.4byte	.LASF173
 2469 0777 09       		.byte	0x9
 2470 0778 5B       		.byte	0x5b
 2471 0779 AB040000 		.4byte	0x4ab
 2472 077d 00       		.byte	0
 2473 077e 13       		.uleb128 0x13
 2474 077f 7C010000 		.4byte	.LASF218
 2475 0783 09       		.byte	0x9
 2476 0784 5C       		.byte	0x5c
 2477 0785 BD060000 		.4byte	0x6bd
 2478 0789 02       		.byte	0x2
 2479 078a 13       		.uleb128 0x13
 2480 078b C52F0000 		.4byte	.LASF169
 2481 078f 09       		.byte	0x9
 2482 0790 5D       		.byte	0x5d
 2483 0791 8C060000 		.4byte	0x68c
 2484 0795 04       		.byte	0x4
 2485 0796 00       		.byte	0
 2486 0797 11       		.uleb128 0x11
 2487 0798 E50A0000 		.4byte	.LASF219
 2488 079c 09       		.byte	0x9
 2489 079d 5E       		.byte	0x5e
 2490 079e 6A070000 		.4byte	0x76a
 2491 07a2 0D       		.uleb128 0xd
 2492 07a3 02       		.byte	0x2
 2493 07a4 3A000000 		.4byte	0x3a
 2494 07a8 0A       		.byte	0xa
 2495 07a9 B1       		.byte	0xb1
 2496 07aa AB0F0000 		.4byte	0xfab
 2497 07ae 0C       		.uleb128 0xc
 2498 07af FD270000 		.4byte	.LASF220
 2499 07b3 0001     		.2byte	0x100
 2500 07b5 0C       		.uleb128 0xc
 2501 07b6 143F0000 		.4byte	.LASF221
 2502 07ba 0101     		.2byte	0x101
 2503 07bc 0C       		.uleb128 0xc
 2504 07bd 5A0B0000 		.4byte	.LASF222
 2505 07c1 0201     		.2byte	0x102
 2506 07c3 0C       		.uleb128 0xc
 2507 07c4 CA3E0000 		.4byte	.LASF223
 2508 07c8 0301     		.2byte	0x103
 2509 07ca 0C       		.uleb128 0xc
ARM GAS  C:\Users\User\AppData\Local\Temp\ccR9uRpe.s 			page 56


 2510 07cb 912E0000 		.4byte	.LASF224
 2511 07cf 0401     		.2byte	0x104
 2512 07d1 0C       		.uleb128 0xc
 2513 07d2 353D0000 		.4byte	.LASF225
 2514 07d6 0501     		.2byte	0x105
 2515 07d8 0C       		.uleb128 0xc
 2516 07d9 5C100000 		.4byte	.LASF226
 2517 07dd 0601     		.2byte	0x106
 2518 07df 0C       		.uleb128 0xc
 2519 07e0 A6370000 		.4byte	.LASF227
 2520 07e4 0701     		.2byte	0x107
 2521 07e6 0C       		.uleb128 0xc
 2522 07e7 EC3C0000 		.4byte	.LASF228
 2523 07eb 0801     		.2byte	0x108
 2524 07ed 0C       		.uleb128 0xc
 2525 07ee 17060000 		.4byte	.LASF229
 2526 07f2 0901     		.2byte	0x109
 2527 07f4 0C       		.uleb128 0xc
 2528 07f5 94030000 		.4byte	.LASF230
 2529 07f9 0A01     		.2byte	0x10a
 2530 07fb 0C       		.uleb128 0xc
 2531 07fc D6300000 		.4byte	.LASF231
 2532 0800 0B01     		.2byte	0x10b
 2533 0802 0C       		.uleb128 0xc
 2534 0803 77210000 		.4byte	.LASF232
 2535 0807 0C01     		.2byte	0x10c
 2536 0809 0C       		.uleb128 0xc
 2537 080a D42C0000 		.4byte	.LASF233
 2538 080e 0D01     		.2byte	0x10d
 2539 0810 0C       		.uleb128 0xc
 2540 0811 63040000 		.4byte	.LASF234
 2541 0815 0E01     		.2byte	0x10e
 2542 0817 0C       		.uleb128 0xc
 2543 0818 D1110000 		.4byte	.LASF235
 2544 081c 0F01     		.2byte	0x10f
 2545 081e 0C       		.uleb128 0xc
 2546 081f EF070000 		.4byte	.LASF236
 2547 0823 1001     		.2byte	0x110
 2548 0825 0C       		.uleb128 0xc
 2549 0826 F63A0000 		.4byte	.LASF237
 2550 082a 1101     		.2byte	0x111
 2551 082c 0C       		.uleb128 0xc
 2552 082d 930D0000 		.4byte	.LASF238
 2553 0831 1201     		.2byte	0x112
 2554 0833 0C       		.uleb128 0xc
 2555 0834 5F410000 		.4byte	.LASF239
 2556 0838 1301     		.2byte	0x113
 2557 083a 0C       		.uleb128 0xc
 2558 083b 6F2F0000 		.4byte	.LASF240
 2559 083f 1401     		.2byte	0x114
 2560 0841 0C       		.uleb128 0xc
 2561 0842 ED0C0000 		.4byte	.LASF241
 2562 0846 1501     		.2byte	0x115
 2563 0848 0C       		.uleb128 0xc
 2564 0849 7F2D0000 		.4byte	.LASF242
 2565 084d 1601     		.2byte	0x116
 2566 084f 0C       		.uleb128 0xc
ARM GAS  C:\Users\User\AppData\Local\Temp\ccR9uRpe.s 			page 57


 2567 0850 BB300000 		.4byte	.LASF243
 2568 0854 1701     		.2byte	0x117
 2569 0856 0C       		.uleb128 0xc
 2570 0857 7B390000 		.4byte	.LASF244
 2571 085b 1801     		.2byte	0x118
 2572 085d 0C       		.uleb128 0xc
 2573 085e E2010000 		.4byte	.LASF245
 2574 0862 1901     		.2byte	0x119
 2575 0864 0C       		.uleb128 0xc
 2576 0865 5C120000 		.4byte	.LASF246
 2577 0869 1A01     		.2byte	0x11a
 2578 086b 0C       		.uleb128 0xc
 2579 086c B52B0000 		.4byte	.LASF247
 2580 0870 1B01     		.2byte	0x11b
 2581 0872 0C       		.uleb128 0xc
 2582 0873 55360000 		.4byte	.LASF248
 2583 0877 1C01     		.2byte	0x11c
 2584 0879 0C       		.uleb128 0xc
 2585 087a 331A0000 		.4byte	.LASF249
 2586 087e 1D01     		.2byte	0x11d
 2587 0880 0C       		.uleb128 0xc
 2588 0881 D8270000 		.4byte	.LASF250
 2589 0885 1E01     		.2byte	0x11e
 2590 0887 0C       		.uleb128 0xc
 2591 0888 3D120000 		.4byte	.LASF251
 2592 088c 1F01     		.2byte	0x11f
 2593 088e 0C       		.uleb128 0xc
 2594 088f 2A110000 		.4byte	.LASF252
 2595 0893 2001     		.2byte	0x120
 2596 0895 0C       		.uleb128 0xc
 2597 0896 3E310000 		.4byte	.LASF253
 2598 089a 2101     		.2byte	0x121
 2599 089c 0C       		.uleb128 0xc
 2600 089d 1C3E0000 		.4byte	.LASF254
 2601 08a1 2201     		.2byte	0x122
 2602 08a3 0C       		.uleb128 0xc
 2603 08a4 13350000 		.4byte	.LASF255
 2604 08a8 2301     		.2byte	0x123
 2605 08aa 0C       		.uleb128 0xc
 2606 08ab 74400000 		.4byte	.LASF256
 2607 08af 2401     		.2byte	0x124
 2608 08b1 0C       		.uleb128 0xc
 2609 08b2 4F250000 		.4byte	.LASF257
 2610 08b6 2501     		.2byte	0x125
 2611 08b8 0C       		.uleb128 0xc
 2612 08b9 2A160000 		.4byte	.LASF258
 2613 08bd 2601     		.2byte	0x126
 2614 08bf 0C       		.uleb128 0xc
 2615 08c0 63370000 		.4byte	.LASF259
 2616 08c4 2701     		.2byte	0x127
 2617 08c6 0C       		.uleb128 0xc
 2618 08c7 23290000 		.4byte	.LASF260
 2619 08cb 2801     		.2byte	0x128
 2620 08cd 0C       		.uleb128 0xc
 2621 08ce D7400000 		.4byte	.LASF261
 2622 08d2 2901     		.2byte	0x129
 2623 08d4 0C       		.uleb128 0xc
ARM GAS  C:\Users\User\AppData\Local\Temp\ccR9uRpe.s 			page 58


 2624 08d5 EE370000 		.4byte	.LASF262
 2625 08d9 2A01     		.2byte	0x12a
 2626 08db 0C       		.uleb128 0xc
 2627 08dc 9F3F0000 		.4byte	.LASF263
 2628 08e0 2B01     		.2byte	0x12b
 2629 08e2 0C       		.uleb128 0xc
 2630 08e3 591D0000 		.4byte	.LASF264
 2631 08e7 2C01     		.2byte	0x12c
 2632 08e9 0C       		.uleb128 0xc
 2633 08ea 933D0000 		.4byte	.LASF265
 2634 08ee 2D01     		.2byte	0x12d
 2635 08f0 0C       		.uleb128 0xc
 2636 08f1 2E050000 		.4byte	.LASF266
 2637 08f5 2E01     		.2byte	0x12e
 2638 08f7 0C       		.uleb128 0xc
 2639 08f8 FD2D0000 		.4byte	.LASF267
 2640 08fc 2F01     		.2byte	0x12f
 2641 08fe 0C       		.uleb128 0xc
 2642 08ff EF1D0000 		.4byte	.LASF268
 2643 0903 3001     		.2byte	0x130
 2644 0905 0C       		.uleb128 0xc
 2645 0906 9E310000 		.4byte	.LASF269
 2646 090a 3101     		.2byte	0x131
 2647 090c 0C       		.uleb128 0xc
 2648 090d 782C0000 		.4byte	.LASF270
 2649 0911 3201     		.2byte	0x132
 2650 0913 0C       		.uleb128 0xc
 2651 0914 B4390000 		.4byte	.LASF271
 2652 0918 3301     		.2byte	0x133
 2653 091a 0C       		.uleb128 0xc
 2654 091b 700E0000 		.4byte	.LASF272
 2655 091f 3401     		.2byte	0x134
 2656 0921 0C       		.uleb128 0xc
 2657 0922 82370000 		.4byte	.LASF273
 2658 0926 3501     		.2byte	0x135
 2659 0928 0C       		.uleb128 0xc
 2660 0929 43180000 		.4byte	.LASF274
 2661 092d 3601     		.2byte	0x136
 2662 092f 0C       		.uleb128 0xc
 2663 0930 C90B0000 		.4byte	.LASF275
 2664 0934 3701     		.2byte	0x137
 2665 0936 0C       		.uleb128 0xc
 2666 0937 E0030000 		.4byte	.LASF276
 2667 093b 3801     		.2byte	0x138
 2668 093d 0C       		.uleb128 0xc
 2669 093e 04040000 		.4byte	.LASF277
 2670 0942 3901     		.2byte	0x139
 2671 0944 0C       		.uleb128 0xc
 2672 0945 BA000000 		.4byte	.LASF278
 2673 0949 3A01     		.2byte	0x13a
 2674 094b 0C       		.uleb128 0xc
 2675 094c 290E0000 		.4byte	.LASF279
 2676 0950 3B01     		.2byte	0x13b
 2677 0952 0C       		.uleb128 0xc
 2678 0953 363F0000 		.4byte	.LASF280
 2679 0957 3C01     		.2byte	0x13c
 2680 0959 0C       		.uleb128 0xc
ARM GAS  C:\Users\User\AppData\Local\Temp\ccR9uRpe.s 			page 59


 2681 095a 36070000 		.4byte	.LASF281
 2682 095e 3D01     		.2byte	0x13d
 2683 0960 0C       		.uleb128 0xc
 2684 0961 FF260000 		.4byte	.LASF282
 2685 0965 3E01     		.2byte	0x13e
 2686 0967 0C       		.uleb128 0xc
 2687 0968 CB340000 		.4byte	.LASF283
 2688 096c 3F01     		.2byte	0x13f
 2689 096e 0C       		.uleb128 0xc
 2690 096f 60150000 		.4byte	.LASF284
 2691 0973 4001     		.2byte	0x140
 2692 0975 0C       		.uleb128 0xc
 2693 0976 45280000 		.4byte	.LASF285
 2694 097a 4101     		.2byte	0x141
 2695 097c 0C       		.uleb128 0xc
 2696 097d ED170000 		.4byte	.LASF286
 2697 0981 4201     		.2byte	0x142
 2698 0983 0C       		.uleb128 0xc
 2699 0984 58070000 		.4byte	.LASF287
 2700 0988 4301     		.2byte	0x143
 2701 098a 0C       		.uleb128 0xc
 2702 098b BB020000 		.4byte	.LASF288
 2703 098f 4401     		.2byte	0x144
 2704 0991 0C       		.uleb128 0xc
 2705 0992 C7090000 		.4byte	.LASF289
 2706 0996 4501     		.2byte	0x145
 2707 0998 0C       		.uleb128 0xc
 2708 0999 E72F0000 		.4byte	.LASF290
 2709 099d 4601     		.2byte	0x146
 2710 099f 0C       		.uleb128 0xc
 2711 09a0 1B360000 		.4byte	.LASF291
 2712 09a4 4701     		.2byte	0x147
 2713 09a6 0C       		.uleb128 0xc
 2714 09a7 E0080000 		.4byte	.LASF292
 2715 09ab 4801     		.2byte	0x148
 2716 09ad 0C       		.uleb128 0xc
 2717 09ae B7260000 		.4byte	.LASF293
 2718 09b2 4901     		.2byte	0x149
 2719 09b4 0C       		.uleb128 0xc
 2720 09b5 7D3A0000 		.4byte	.LASF294
 2721 09b9 4A01     		.2byte	0x14a
 2722 09bb 0C       		.uleb128 0xc
 2723 09bc 49220000 		.4byte	.LASF295
 2724 09c0 4B01     		.2byte	0x14b
 2725 09c2 0C       		.uleb128 0xc
 2726 09c3 D23A0000 		.4byte	.LASF296
 2727 09c7 4C01     		.2byte	0x14c
 2728 09c9 0C       		.uleb128 0xc
 2729 09ca 7E090000 		.4byte	.LASF297
 2730 09ce 4D01     		.2byte	0x14d
 2731 09d0 0C       		.uleb128 0xc
 2732 09d1 5B2B0000 		.4byte	.LASF298
 2733 09d5 4E01     		.2byte	0x14e
 2734 09d7 0C       		.uleb128 0xc
 2735 09d8 B13C0000 		.4byte	.LASF299
 2736 09dc 4F01     		.2byte	0x14f
 2737 09de 0C       		.uleb128 0xc
ARM GAS  C:\Users\User\AppData\Local\Temp\ccR9uRpe.s 			page 60


 2738 09df 193B0000 		.4byte	.LASF300
 2739 09e3 5001     		.2byte	0x150
 2740 09e5 0C       		.uleb128 0xc
 2741 09e6 FB000000 		.4byte	.LASF301
 2742 09ea 5101     		.2byte	0x151
 2743 09ec 0C       		.uleb128 0xc
 2744 09ed CD360000 		.4byte	.LASF302
 2745 09f1 5201     		.2byte	0x152
 2746 09f3 0C       		.uleb128 0xc
 2747 09f4 FC1E0000 		.4byte	.LASF303
 2748 09f8 5301     		.2byte	0x153
 2749 09fa 0C       		.uleb128 0xc
 2750 09fb 49350000 		.4byte	.LASF304
 2751 09ff 5401     		.2byte	0x154
 2752 0a01 0C       		.uleb128 0xc
 2753 0a02 C0320000 		.4byte	.LASF305
 2754 0a06 5501     		.2byte	0x155
 2755 0a08 0C       		.uleb128 0xc
 2756 0a09 66020000 		.4byte	.LASF306
 2757 0a0d 5601     		.2byte	0x156
 2758 0a0f 0C       		.uleb128 0xc
 2759 0a10 DE310000 		.4byte	.LASF307
 2760 0a14 5701     		.2byte	0x157
 2761 0a16 0C       		.uleb128 0xc
 2762 0a17 8C0F0000 		.4byte	.LASF308
 2763 0a1b 5801     		.2byte	0x158
 2764 0a1d 0C       		.uleb128 0xc
 2765 0a1e 310A0000 		.4byte	.LASF309
 2766 0a22 5901     		.2byte	0x159
 2767 0a24 0C       		.uleb128 0xc
 2768 0a25 0E0A0000 		.4byte	.LASF310
 2769 0a29 5A01     		.2byte	0x15a
 2770 0a2b 0C       		.uleb128 0xc
 2771 0a2c 520F0000 		.4byte	.LASF311
 2772 0a30 5B01     		.2byte	0x15b
 2773 0a32 0C       		.uleb128 0xc
 2774 0a33 36200000 		.4byte	.LASF312
 2775 0a37 5C01     		.2byte	0x15c
 2776 0a39 0C       		.uleb128 0xc
 2777 0a3a 513E0000 		.4byte	.LASF313
 2778 0a3e 5D01     		.2byte	0x15d
 2779 0a40 0C       		.uleb128 0xc
 2780 0a41 8C140000 		.4byte	.LASF314
 2781 0a45 5E01     		.2byte	0x15e
 2782 0a47 0C       		.uleb128 0xc
 2783 0a48 CB2F0000 		.4byte	.LASF315
 2784 0a4c 5F01     		.2byte	0x15f
 2785 0a4e 0C       		.uleb128 0xc
 2786 0a4f 2E2A0000 		.4byte	.LASF316
 2787 0a53 6001     		.2byte	0x160
 2788 0a55 0C       		.uleb128 0xc
 2789 0a56 21020000 		.4byte	.LASF317
 2790 0a5a 6101     		.2byte	0x161
 2791 0a5c 0C       		.uleb128 0xc
 2792 0a5d 5C1E0000 		.4byte	.LASF318
 2793 0a61 6201     		.2byte	0x162
 2794 0a63 0C       		.uleb128 0xc
ARM GAS  C:\Users\User\AppData\Local\Temp\ccR9uRpe.s 			page 61


 2795 0a64 16010000 		.4byte	.LASF319
 2796 0a68 6301     		.2byte	0x163
 2797 0a6a 0C       		.uleb128 0xc
 2798 0a6b 950A0000 		.4byte	.LASF320
 2799 0a6f 6401     		.2byte	0x164
 2800 0a71 0C       		.uleb128 0xc
 2801 0a72 793B0000 		.4byte	.LASF321
 2802 0a76 6501     		.2byte	0x165
 2803 0a78 0C       		.uleb128 0xc
 2804 0a79 BE170000 		.4byte	.LASF322
 2805 0a7d 6601     		.2byte	0x166
 2806 0a7f 0C       		.uleb128 0xc
 2807 0a80 97160000 		.4byte	.LASF323
 2808 0a84 6701     		.2byte	0x167
 2809 0a86 0C       		.uleb128 0xc
 2810 0a87 97060000 		.4byte	.LASF324
 2811 0a8b 6801     		.2byte	0x168
 2812 0a8d 0C       		.uleb128 0xc
 2813 0a8e FC0A0000 		.4byte	.LASF325
 2814 0a92 6901     		.2byte	0x169
 2815 0a94 0C       		.uleb128 0xc
 2816 0a95 C6230000 		.4byte	.LASF326
 2817 0a99 6A01     		.2byte	0x16a
 2818 0a9b 0C       		.uleb128 0xc
 2819 0a9c 941F0000 		.4byte	.LASF327
 2820 0aa0 6B01     		.2byte	0x16b
 2821 0aa2 0C       		.uleb128 0xc
 2822 0aa3 6E080000 		.4byte	.LASF328
 2823 0aa7 6C01     		.2byte	0x16c
 2824 0aa9 0C       		.uleb128 0xc
 2825 0aaa 85070000 		.4byte	.LASF329
 2826 0aae 6D01     		.2byte	0x16d
 2827 0ab0 0C       		.uleb128 0xc
 2828 0ab1 43020000 		.4byte	.LASF330
 2829 0ab5 6E01     		.2byte	0x16e
 2830 0ab7 0C       		.uleb128 0xc
 2831 0ab8 4F1F0000 		.4byte	.LASF331
 2832 0abc 6F01     		.2byte	0x16f
 2833 0abe 0C       		.uleb128 0xc
 2834 0abf 49400000 		.4byte	.LASF332
 2835 0ac3 7001     		.2byte	0x170
 2836 0ac5 0C       		.uleb128 0xc
 2837 0ac6 43190000 		.4byte	.LASF333
 2838 0aca 7101     		.2byte	0x171
 2839 0acc 0C       		.uleb128 0xc
 2840 0acd BD160000 		.4byte	.LASF334
 2841 0ad1 7201     		.2byte	0x172
 2842 0ad3 0C       		.uleb128 0xc
 2843 0ad4 DA260000 		.4byte	.LASF335
 2844 0ad8 7301     		.2byte	0x173
 2845 0ada 0C       		.uleb128 0xc
 2846 0adb 8C380000 		.4byte	.LASF336
 2847 0adf 7401     		.2byte	0x174
 2848 0ae1 0C       		.uleb128 0xc
 2849 0ae2 44300000 		.4byte	.LASF337
 2850 0ae6 7501     		.2byte	0x175
 2851 0ae8 0C       		.uleb128 0xc
ARM GAS  C:\Users\User\AppData\Local\Temp\ccR9uRpe.s 			page 62


 2852 0ae9 41040000 		.4byte	.LASF338
 2853 0aed 7601     		.2byte	0x176
 2854 0aef 0C       		.uleb128 0xc
 2855 0af0 FB2E0000 		.4byte	.LASF339
 2856 0af4 7701     		.2byte	0x177
 2857 0af6 0C       		.uleb128 0xc
 2858 0af7 0C140000 		.4byte	.LASF340
 2859 0afb 7801     		.2byte	0x178
 2860 0afd 0C       		.uleb128 0xc
 2861 0afe 131E0000 		.4byte	.LASF341
 2862 0b02 7901     		.2byte	0x179
 2863 0b04 0C       		.uleb128 0xc
 2864 0b05 662A0000 		.4byte	.LASF342
 2865 0b09 7A01     		.2byte	0x17a
 2866 0b0b 0C       		.uleb128 0xc
 2867 0b0c 12340000 		.4byte	.LASF343
 2868 0b10 7B01     		.2byte	0x17b
 2869 0b12 0C       		.uleb128 0xc
 2870 0b13 04150000 		.4byte	.LASF344
 2871 0b17 7C01     		.2byte	0x17c
 2872 0b19 0C       		.uleb128 0xc
 2873 0b1a 58240000 		.4byte	.LASF345
 2874 0b1e 7D01     		.2byte	0x17d
 2875 0b20 0C       		.uleb128 0xc
 2876 0b21 A0220000 		.4byte	.LASF346
 2877 0b25 7E01     		.2byte	0x17e
 2878 0b27 0C       		.uleb128 0xc
 2879 0b28 60270000 		.4byte	.LASF347
 2880 0b2c 7F01     		.2byte	0x17f
 2881 0b2e 0C       		.uleb128 0xc
 2882 0b2f DE330000 		.4byte	.LASF348
 2883 0b33 8001     		.2byte	0x180
 2884 0b35 0C       		.uleb128 0xc
 2885 0b36 3D240000 		.4byte	.LASF349
 2886 0b3a 8101     		.2byte	0x181
 2887 0b3c 0C       		.uleb128 0xc
 2888 0b3d BF240000 		.4byte	.LASF350
 2889 0b41 8201     		.2byte	0x182
 2890 0b43 0C       		.uleb128 0xc
 2891 0b44 10160000 		.4byte	.LASF351
 2892 0b48 8301     		.2byte	0x183
 2893 0b4a 0C       		.uleb128 0xc
 2894 0b4b 380D0000 		.4byte	.LASF352
 2895 0b4f 8401     		.2byte	0x184
 2896 0b51 0C       		.uleb128 0xc
 2897 0b52 40370000 		.4byte	.LASF353
 2898 0b56 8501     		.2byte	0x185
 2899 0b58 0C       		.uleb128 0xc
 2900 0b59 0C1B0000 		.4byte	.LASF354
 2901 0b5d 8601     		.2byte	0x186
 2902 0b5f 0C       		.uleb128 0xc
 2903 0b60 F90B0000 		.4byte	.LASF355
 2904 0b64 8701     		.2byte	0x187
 2905 0b66 0C       		.uleb128 0xc
 2906 0b67 CC370000 		.4byte	.LASF356
 2907 0b6b 8801     		.2byte	0x188
 2908 0b6d 0C       		.uleb128 0xc
ARM GAS  C:\Users\User\AppData\Local\Temp\ccR9uRpe.s 			page 63


 2909 0b6e 78300000 		.4byte	.LASF357
 2910 0b72 8901     		.2byte	0x189
 2911 0b74 0C       		.uleb128 0xc
 2912 0b75 5F2E0000 		.4byte	.LASF358
 2913 0b79 8A01     		.2byte	0x18a
 2914 0b7b 0C       		.uleb128 0xc
 2915 0b7c 98210000 		.4byte	.LASF359
 2916 0b80 8B01     		.2byte	0x18b
 2917 0b82 0C       		.uleb128 0xc
 2918 0b83 8B020000 		.4byte	.LASF360
 2919 0b87 8C01     		.2byte	0x18c
 2920 0b89 0C       		.uleb128 0xc
 2921 0b8a 1D2B0000 		.4byte	.LASF361
 2922 0b8e 8D01     		.2byte	0x18d
 2923 0b90 0C       		.uleb128 0xc
 2924 0b91 373E0000 		.4byte	.LASF362
 2925 0b95 8E01     		.2byte	0x18e
 2926 0b97 0C       		.uleb128 0xc
 2927 0b98 D6390000 		.4byte	.LASF363
 2928 0b9c 8F01     		.2byte	0x18f
 2929 0b9e 0C       		.uleb128 0xc
 2930 0b9f 7B200000 		.4byte	.LASF364
 2931 0ba3 9001     		.2byte	0x190
 2932 0ba5 0C       		.uleb128 0xc
 2933 0ba6 B63D0000 		.4byte	.LASF365
 2934 0baa 9101     		.2byte	0x191
 2935 0bac 0C       		.uleb128 0xc
 2936 0bad CD120000 		.4byte	.LASF366
 2937 0bb1 9201     		.2byte	0x192
 2938 0bb3 0C       		.uleb128 0xc
 2939 0bb4 343B0000 		.4byte	.LASF367
 2940 0bb8 9301     		.2byte	0x193
 2941 0bba 0C       		.uleb128 0xc
 2942 0bbb 16410000 		.4byte	.LASF368
 2943 0bbf 9401     		.2byte	0x194
 2944 0bc1 0C       		.uleb128 0xc
 2945 0bc2 00250000 		.4byte	.LASF369
 2946 0bc6 9501     		.2byte	0x195
 2947 0bc8 0C       		.uleb128 0xc
 2948 0bc9 DD3F0000 		.4byte	.LASF370
 2949 0bcd 9601     		.2byte	0x196
 2950 0bcf 0C       		.uleb128 0xc
 2951 0bd0 9D240000 		.4byte	.LASF371
 2952 0bd4 9701     		.2byte	0x197
 2953 0bd6 0C       		.uleb128 0xc
 2954 0bd7 DD0D0000 		.4byte	.LASF372
 2955 0bdb 9801     		.2byte	0x198
 2956 0bdd 0C       		.uleb128 0xc
 2957 0bde 491B0000 		.4byte	.LASF373
 2958 0be2 9901     		.2byte	0x199
 2959 0be4 0C       		.uleb128 0xc
 2960 0be5 21180000 		.4byte	.LASF374
 2961 0be9 9A01     		.2byte	0x19a
 2962 0beb 0C       		.uleb128 0xc
 2963 0bec 5A0D0000 		.4byte	.LASF375
 2964 0bf0 9B01     		.2byte	0x19b
 2965 0bf2 0C       		.uleb128 0xc
ARM GAS  C:\Users\User\AppData\Local\Temp\ccR9uRpe.s 			page 64


 2966 0bf3 E4320000 		.4byte	.LASF376
 2967 0bf7 9C01     		.2byte	0x19c
 2968 0bf9 0C       		.uleb128 0xc
 2969 0bfa 151C0000 		.4byte	.LASF377
 2970 0bfe 9D01     		.2byte	0x19d
 2971 0c00 0C       		.uleb128 0xc
 2972 0c01 1A2C0000 		.4byte	.LASF378
 2973 0c05 9E01     		.2byte	0x19e
 2974 0c07 0C       		.uleb128 0xc
 2975 0c08 E5040000 		.4byte	.LASF379
 2976 0c0c 9F01     		.2byte	0x19f
 2977 0c0e 0C       		.uleb128 0xc
 2978 0c0f 77100000 		.4byte	.LASF380
 2979 0c13 A001     		.2byte	0x1a0
 2980 0c15 0C       		.uleb128 0xc
 2981 0c16 292D0000 		.4byte	.LASF381
 2982 0c1a A101     		.2byte	0x1a1
 2983 0c1c 0C       		.uleb128 0xc
 2984 0c1d 07180000 		.4byte	.LASF382
 2985 0c21 A201     		.2byte	0x1a2
 2986 0c23 0C       		.uleb128 0xc
 2987 0c24 1A200000 		.4byte	.LASF383
 2988 0c28 A301     		.2byte	0x1a3
 2989 0c2a 0C       		.uleb128 0xc
 2990 0c2b E4210000 		.4byte	.LASF384
 2991 0c2f A401     		.2byte	0x1a4
 2992 0c31 0C       		.uleb128 0xc
 2993 0c32 69380000 		.4byte	.LASF385
 2994 0c36 A501     		.2byte	0x1a5
 2995 0c38 0C       		.uleb128 0xc
 2996 0c39 98150000 		.4byte	.LASF386
 2997 0c3d A601     		.2byte	0x1a6
 2998 0c3f 0C       		.uleb128 0xc
 2999 0c40 D3280000 		.4byte	.LASF387
 3000 0c44 A701     		.2byte	0x1a7
 3001 0c46 0C       		.uleb128 0xc
 3002 0c47 A6140000 		.4byte	.LASF388
 3003 0c4b A801     		.2byte	0x1a8
 3004 0c4d 0C       		.uleb128 0xc
 3005 0c4e 571A0000 		.4byte	.LASF389
 3006 0c52 A901     		.2byte	0x1a9
 3007 0c54 0C       		.uleb128 0xc
 3008 0c55 AA410000 		.4byte	.LASF390
 3009 0c59 AA01     		.2byte	0x1aa
 3010 0c5b 0C       		.uleb128 0xc
 3011 0c5c 802B0000 		.4byte	.LASF391
 3012 0c60 AB01     		.2byte	0x1ab
 3013 0c62 0C       		.uleb128 0xc
 3014 0c63 562C0000 		.4byte	.LASF392
 3015 0c67 AC01     		.2byte	0x1ac
 3016 0c69 0C       		.uleb128 0xc
 3017 0c6a 2B080000 		.4byte	.LASF393
 3018 0c6e AD01     		.2byte	0x1ad
 3019 0c70 0C       		.uleb128 0xc
 3020 0c71 89170000 		.4byte	.LASF394
 3021 0c75 AE01     		.2byte	0x1ae
 3022 0c77 0C       		.uleb128 0xc
ARM GAS  C:\Users\User\AppData\Local\Temp\ccR9uRpe.s 			page 65


 3023 0c78 87330000 		.4byte	.LASF395
 3024 0c7c AF01     		.2byte	0x1af
 3025 0c7e 0C       		.uleb128 0xc
 3026 0c7f 720C0000 		.4byte	.LASF396
 3027 0c83 B001     		.2byte	0x1b0
 3028 0c85 0C       		.uleb128 0xc
 3029 0c86 51000000 		.4byte	.LASF397
 3030 0c8a B101     		.2byte	0x1b1
 3031 0c8c 0C       		.uleb128 0xc
 3032 0c8d 36390000 		.4byte	.LASF398
 3033 0c91 B201     		.2byte	0x1b2
 3034 0c93 0C       		.uleb128 0xc
 3035 0c94 2B130000 		.4byte	.LASF399
 3036 0c98 B301     		.2byte	0x1b3
 3037 0c9a 0C       		.uleb128 0xc
 3038 0c9b 3B410000 		.4byte	.LASF400
 3039 0c9f B401     		.2byte	0x1b4
 3040 0ca1 0C       		.uleb128 0xc
 3041 0ca2 A41D0000 		.4byte	.LASF401
 3042 0ca6 B501     		.2byte	0x1b5
 3043 0ca8 0C       		.uleb128 0xc
 3044 0ca9 E9200000 		.4byte	.LASF402
 3045 0cad B601     		.2byte	0x1b6
 3046 0caf 0C       		.uleb128 0xc
 3047 0cb0 FC400000 		.4byte	.LASF403
 3048 0cb4 B701     		.2byte	0x1b7
 3049 0cb6 0C       		.uleb128 0xc
 3050 0cb7 73350000 		.4byte	.LASF404
 3051 0cbb B801     		.2byte	0x1b8
 3052 0cbd 0C       		.uleb128 0xc
 3053 0cbe 8D280000 		.4byte	.LASF405
 3054 0cc2 B901     		.2byte	0x1b9
 3055 0cc4 0C       		.uleb128 0xc
 3056 0cc5 C42A0000 		.4byte	.LASF406
 3057 0cc9 BA01     		.2byte	0x1ba
 3058 0ccb 0C       		.uleb128 0xc
 3059 0ccc 123C0000 		.4byte	.LASF407
 3060 0cd0 BB01     		.2byte	0x1bb
 3061 0cd2 0C       		.uleb128 0xc
 3062 0cd3 6E1C0000 		.4byte	.LASF408
 3063 0cd7 BC01     		.2byte	0x1bc
 3064 0cd9 0C       		.uleb128 0xc
 3065 0cda A5080000 		.4byte	.LASF409
 3066 0cde BD01     		.2byte	0x1bd
 3067 0ce0 0C       		.uleb128 0xc
 3068 0ce1 C0100000 		.4byte	.LASF410
 3069 0ce5 BE01     		.2byte	0x1be
 3070 0ce7 0C       		.uleb128 0xc
 3071 0ce8 1E400000 		.4byte	.LASF411
 3072 0cec BF01     		.2byte	0x1bf
 3073 0cee 0C       		.uleb128 0xc
 3074 0cef 410C0000 		.4byte	.LASF412
 3075 0cf3 C001     		.2byte	0x1c0
 3076 0cf5 0C       		.uleb128 0xc
 3077 0cf6 4B1C0000 		.4byte	.LASF413
 3078 0cfa C101     		.2byte	0x1c1
 3079 0cfc 0C       		.uleb128 0xc
ARM GAS  C:\Users\User\AppData\Local\Temp\ccR9uRpe.s 			page 66


 3080 0cfd 57200000 		.4byte	.LASF414
 3081 0d01 C201     		.2byte	0x1c2
 3082 0d03 0C       		.uleb128 0xc
 3083 0d04 F43B0000 		.4byte	.LASF415
 3084 0d08 C301     		.2byte	0x1c3
 3085 0d0a 0C       		.uleb128 0xc
 3086 0d0b C8380000 		.4byte	.LASF416
 3087 0d0f C401     		.2byte	0x1c4
 3088 0d11 0C       		.uleb128 0xc
 3089 0d12 46170000 		.4byte	.LASF417
 3090 0d16 C501     		.2byte	0x1c5
 3091 0d18 0C       		.uleb128 0xc
 3092 0d19 A4230000 		.4byte	.LASF418
 3093 0d1d C601     		.2byte	0x1c6
 3094 0d1f 0C       		.uleb128 0xc
 3095 0d20 FC020000 		.4byte	.LASF419
 3096 0d24 C701     		.2byte	0x1c7
 3097 0d26 0C       		.uleb128 0xc
 3098 0d27 F7300000 		.4byte	.LASF420
 3099 0d2b C801     		.2byte	0x1c8
 3100 0d2d 0C       		.uleb128 0xc
 3101 0d2e 1E040000 		.4byte	.LASF421
 3102 0d32 C901     		.2byte	0x1c9
 3103 0d34 0C       		.uleb128 0xc
 3104 0d35 A42D0000 		.4byte	.LASF422
 3105 0d39 CA01     		.2byte	0x1ca
 3106 0d3b 0C       		.uleb128 0xc
 3107 0d3c 530A0000 		.4byte	.LASF423
 3108 0d40 CB01     		.2byte	0x1cb
 3109 0d42 0C       		.uleb128 0xc
 3110 0d43 DE350000 		.4byte	.LASF424
 3111 0d47 CC01     		.2byte	0x1cc
 3112 0d49 0C       		.uleb128 0xc
 3113 0d4a C4330000 		.4byte	.LASF425
 3114 0d4e CD01     		.2byte	0x1cd
 3115 0d50 0C       		.uleb128 0xc
 3116 0d51 C5060000 		.4byte	.LASF426
 3117 0d55 CE01     		.2byte	0x1ce
 3118 0d57 0C       		.uleb128 0xc
 3119 0d58 28300000 		.4byte	.LASF427
 3120 0d5c CF01     		.2byte	0x1cf
 3121 0d5e 0C       		.uleb128 0xc
 3122 0d5f 212E0000 		.4byte	.LASF428
 3123 0d63 D001     		.2byte	0x1d0
 3124 0d65 0C       		.uleb128 0xc
 3125 0d66 C3180000 		.4byte	.LASF429
 3126 0d6a D101     		.2byte	0x1d1
 3127 0d6c 0C       		.uleb128 0xc
 3128 0d6d D93D0000 		.4byte	.LASF430
 3129 0d71 D201     		.2byte	0x1d2
 3130 0d73 0C       		.uleb128 0xc
 3131 0d74 5C230000 		.4byte	.LASF431
 3132 0d78 D301     		.2byte	0x1d3
 3133 0d7a 0C       		.uleb128 0xc
 3134 0d7b B12C0000 		.4byte	.LASF432
 3135 0d7f D401     		.2byte	0x1d4
 3136 0d81 0C       		.uleb128 0xc
ARM GAS  C:\Users\User\AppData\Local\Temp\ccR9uRpe.s 			page 67


 3137 0d82 19310000 		.4byte	.LASF433
 3138 0d86 D501     		.2byte	0x1d5
 3139 0d88 0C       		.uleb128 0xc
 3140 0d89 9A320000 		.4byte	.LASF434
 3141 0d8d D601     		.2byte	0x1d6
 3142 0d8f 0C       		.uleb128 0xc
 3143 0d90 361E0000 		.4byte	.LASF435
 3144 0d94 D701     		.2byte	0x1d7
 3145 0d96 0C       		.uleb128 0xc
 3146 0d97 C01C0000 		.4byte	.LASF436
 3147 0d9b D801     		.2byte	0x1d8
 3148 0d9d 0C       		.uleb128 0xc
 3149 0d9e 13070000 		.4byte	.LASF437
 3150 0da2 D901     		.2byte	0x1d9
 3151 0da4 0C       		.uleb128 0xc
 3152 0da5 E81A0000 		.4byte	.LASF438
 3153 0da9 DA01     		.2byte	0x1da
 3154 0dab 0C       		.uleb128 0xc
 3155 0dac B9350000 		.4byte	.LASF439
 3156 0db0 DB01     		.2byte	0x1db
 3157 0db2 0C       		.uleb128 0xc
 3158 0db3 C3310000 		.4byte	.LASF440
 3159 0db7 DC01     		.2byte	0x1dc
 3160 0db9 0C       		.uleb128 0xc
 3161 0dba F9110000 		.4byte	.LASF441
 3162 0dbe DD01     		.2byte	0x1dd
 3163 0dc0 0C       		.uleb128 0xc
 3164 0dc1 331D0000 		.4byte	.LASF442
 3165 0dc5 DE01     		.2byte	0x1de
 3166 0dc7 0C       		.uleb128 0xc
 3167 0dc8 87270000 		.4byte	.LASF443
 3168 0dcc DF01     		.2byte	0x1df
 3169 0dce 0C       		.uleb128 0xc
 3170 0dcf AF1F0000 		.4byte	.LASF444
 3171 0dd3 E001     		.2byte	0x1e0
 3172 0dd5 0C       		.uleb128 0xc
 3173 0dd6 C2200000 		.4byte	.LASF445
 3174 0dda E101     		.2byte	0x1e1
 3175 0ddc 0C       		.uleb128 0xc
 3176 0ddd 34000000 		.4byte	.LASF446
 3177 0de1 E201     		.2byte	0x1e2
 3178 0de3 0C       		.uleb128 0xc
 3179 0de4 A6040000 		.4byte	.LASF447
 3180 0de8 E301     		.2byte	0x1e3
 3181 0dea 0C       		.uleb128 0xc
 3182 0deb 101A0000 		.4byte	.LASF448
 3183 0def E401     		.2byte	0x1e4
 3184 0df1 0C       		.uleb128 0xc
 3185 0df2 EA090000 		.4byte	.LASF449
 3186 0df6 E501     		.2byte	0x1e5
 3187 0df8 0C       		.uleb128 0xc
 3188 0df9 39010000 		.4byte	.LASF450
 3189 0dfd E601     		.2byte	0x1e6
 3190 0dff 0C       		.uleb128 0xc
 3191 0e00 9D200000 		.4byte	.LASF451
 3192 0e04 E701     		.2byte	0x1e7
 3193 0e06 0C       		.uleb128 0xc
ARM GAS  C:\Users\User\AppData\Local\Temp\ccR9uRpe.s 			page 68


 3194 0e07 B2400000 		.4byte	.LASF452
 3195 0e0b E801     		.2byte	0x1e8
 3196 0e0d 0C       		.uleb128 0xc
 3197 0e0e CA1B0000 		.4byte	.LASF453
 3198 0e12 E901     		.2byte	0x1e9
 3199 0e14 0C       		.uleb128 0xc
 3200 0e15 030F0000 		.4byte	.LASF454
 3201 0e19 EA01     		.2byte	0x1ea
 3202 0e1b 0C       		.uleb128 0xc
 3203 0e1c E1160000 		.4byte	.LASF455
 3204 0e20 EB01     		.2byte	0x1eb
 3205 0e22 0C       		.uleb128 0xc
 3206 0e23 E52B0000 		.4byte	.LASF456
 3207 0e27 EC01     		.2byte	0x1ec
 3208 0e29 0C       		.uleb128 0xc
 3209 0e2a 8B040000 		.4byte	.LASF457
 3210 0e2e ED01     		.2byte	0x1ed
 3211 0e30 0C       		.uleb128 0xc
 3212 0e31 67340000 		.4byte	.LASF458
 3213 0e35 EE01     		.2byte	0x1ee
 3214 0e37 0C       		.uleb128 0xc
 3215 0e38 B10F0000 		.4byte	.LASF459
 3216 0e3c EF01     		.2byte	0x1ef
 3217 0e3e 0C       		.uleb128 0xc
 3218 0e3f D31F0000 		.4byte	.LASF460
 3219 0e43 F001     		.2byte	0x1f0
 3220 0e45 0C       		.uleb128 0xc
 3221 0e46 4F160000 		.4byte	.LASF461
 3222 0e4a F101     		.2byte	0x1f1
 3223 0e4c 0C       		.uleb128 0xc
 3224 0e4d 9D3B0000 		.4byte	.LASF462
 3225 0e51 F201     		.2byte	0x1f2
 3226 0e53 0C       		.uleb128 0xc
 3227 0e54 BB030000 		.4byte	.LASF463
 3228 0e58 F301     		.2byte	0x1f3
 3229 0e5a 0C       		.uleb128 0xc
 3230 0e5b 5D010000 		.4byte	.LASF464
 3231 0e5f F401     		.2byte	0x1f4
 3232 0e61 0C       		.uleb128 0xc
 3233 0e62 4E130000 		.4byte	.LASF465
 3234 0e66 F501     		.2byte	0x1f5
 3235 0e68 0C       		.uleb128 0xc
 3236 0e69 9B100000 		.4byte	.LASF466
 3237 0e6d F601     		.2byte	0x1f6
 3238 0e6f 0C       		.uleb128 0xc
 3239 0e70 3A270000 		.4byte	.LASF467
 3240 0e74 F701     		.2byte	0x1f7
 3241 0e76 0C       		.uleb128 0xc
 3242 0e77 1B3A0000 		.4byte	.LASF468
 3243 0e7b F801     		.2byte	0x1f8
 3244 0e7d 0C       		.uleb128 0xc
 3245 0e7e 80240000 		.4byte	.LASF469
 3246 0e82 F901     		.2byte	0x1f9
 3247 0e84 0C       		.uleb128 0xc
 3248 0e85 63330000 		.4byte	.LASF470
 3249 0e89 FA01     		.2byte	0x1fa
 3250 0e8b 0C       		.uleb128 0xc
ARM GAS  C:\Users\User\AppData\Local\Temp\ccR9uRpe.s 			page 69


 3251 0e8c 70110000 		.4byte	.LASF471
 3252 0e90 FB01     		.2byte	0x1fb
 3253 0e92 0C       		.uleb128 0xc
 3254 0e93 0A050000 		.4byte	.LASF472
 3255 0e97 FC01     		.2byte	0x1fc
 3256 0e99 0C       		.uleb128 0xc
 3257 0e9a 3E330000 		.4byte	.LASF473
 3258 0e9e FD01     		.2byte	0x1fd
 3259 0ea0 0C       		.uleb128 0xc
 3260 0ea1 B5110000 		.4byte	.LASF474
 3261 0ea5 FE01     		.2byte	0x1fe
 3262 0ea7 0C       		.uleb128 0xc
 3263 0ea8 44210000 		.4byte	.LASF475
 3264 0eac FF01     		.2byte	0x1ff
 3265 0eae 0C       		.uleb128 0xc
 3266 0eaf 02320000 		.4byte	.LASF476
 3267 0eb3 0002     		.2byte	0x200
 3268 0eb5 0C       		.uleb128 0xc
 3269 0eb6 73160000 		.4byte	.LASF477
 3270 0eba 0102     		.2byte	0x201
 3271 0ebc 0C       		.uleb128 0xc
 3272 0ebd A6380000 		.4byte	.LASF478
 3273 0ec1 0202     		.2byte	0x202
 3274 0ec3 0C       		.uleb128 0xc
 3275 0ec4 30140000 		.4byte	.LASF479
 3276 0ec8 0302     		.2byte	0x203
 3277 0eca 0C       		.uleb128 0xc
 3278 0ecb 360B0000 		.4byte	.LASF480
 3279 0ecf 0402     		.2byte	0x204
 3280 0ed1 0C       		.uleb128 0xc
 3281 0ed2 5B2D0000 		.4byte	.LASF481
 3282 0ed6 0502     		.2byte	0x205
 3283 0ed8 0C       		.uleb128 0xc
 3284 0ed9 1E190000 		.4byte	.LASF482
 3285 0edd 0602     		.2byte	0x206
 3286 0edf 0C       		.uleb128 0xc
 3287 0ee0 D40C0000 		.4byte	.LASF483
 3288 0ee4 0702     		.2byte	0x207
 3289 0ee6 0C       		.uleb128 0xc
 3290 0ee7 F6190000 		.4byte	.LASF484
 3291 0eeb 0802     		.2byte	0x208
 3292 0eed 0C       		.uleb128 0xc
 3293 0eee 8B080000 		.4byte	.LASF485
 3294 0ef2 0902     		.2byte	0x209
 3295 0ef4 0C       		.uleb128 0xc
 3296 0ef5 F5250000 		.4byte	.LASF486
 3297 0ef9 0A02     		.2byte	0x20a
 3298 0efb 0C       		.uleb128 0xc
 3299 0efc 12000000 		.4byte	.LASF487
 3300 0f00 0B02     		.2byte	0x20b
 3301 0f02 0C       		.uleb128 0xc
 3302 0f03 61290000 		.4byte	.LASF488
 3303 0f07 0C02     		.2byte	0x20c
 3304 0f09 0C       		.uleb128 0xc
 3305 0f0a 58390000 		.4byte	.LASF489
 3306 0f0e 0D02     		.2byte	0x20d
 3307 0f10 0C       		.uleb128 0xc
ARM GAS  C:\Users\User\AppData\Local\Temp\ccR9uRpe.s 			page 70


 3308 0f11 C1040000 		.4byte	.LASF490
 3309 0f15 0E02     		.2byte	0x20e
 3310 0f17 0C       		.uleb128 0xc
 3311 0f18 3D320000 		.4byte	.LASF491
 3312 0f1c 0F02     		.2byte	0x20f
 3313 0f1e 0C       		.uleb128 0xc
 3314 0f1f 0A230000 		.4byte	.LASF492
 3315 0f23 1002     		.2byte	0x210
 3316 0f25 0C       		.uleb128 0xc
 3317 0f26 3A150000 		.4byte	.LASF493
 3318 0f2a 1102     		.2byte	0x211
 3319 0f2c 0C       		.uleb128 0xc
 3320 0f2d 101D0000 		.4byte	.LASF494
 3321 0f31 1202     		.2byte	0x212
 3322 0f33 0C       		.uleb128 0xc
 3323 0f34 EF0F0000 		.4byte	.LASF495
 3324 0f38 1302     		.2byte	0x213
 3325 0f3a 0C       		.uleb128 0xc
 3326 0f3b 85410000 		.4byte	.LASF496
 3327 0f3f 1402     		.2byte	0x214
 3328 0f41 0C       		.uleb128 0xc
 3329 0f42 2B170000 		.4byte	.LASF497
 3330 0f46 1502     		.2byte	0x215
 3331 0f48 0C       		.uleb128 0xc
 3332 0f49 86010000 		.4byte	.LASF498
 3333 0f4d 1602     		.2byte	0x216
 3334 0f4f 0C       		.uleb128 0xc
 3335 0f50 84290000 		.4byte	.LASF499
 3336 0f54 1702     		.2byte	0x217
 3337 0f56 0C       		.uleb128 0xc
 3338 0f57 11260000 		.4byte	.LASF500
 3339 0f5b 1802     		.2byte	0x218
 3340 0f5d 0C       		.uleb128 0xc
 3341 0f5e 90180000 		.4byte	.LASF501
 3342 0f62 1902     		.2byte	0x219
 3343 0f64 0C       		.uleb128 0xc
 3344 0f65 EF340000 		.4byte	.LASF502
 3345 0f69 1A02     		.2byte	0x21a
 3346 0f6b 0C       		.uleb128 0xc
 3347 0f6c 663C0000 		.4byte	.LASF503
 3348 0f70 1B02     		.2byte	0x21b
 3349 0f72 0C       		.uleb128 0xc
 3350 0f73 FF010000 		.4byte	.LASF504
 3351 0f77 1C02     		.2byte	0x21c
 3352 0f79 0C       		.uleb128 0xc
 3353 0f7a B0280000 		.4byte	.LASF505
 3354 0f7e 1D02     		.2byte	0x21d
 3355 0f80 0C       		.uleb128 0xc
 3356 0f81 C6130000 		.4byte	.LASF506
 3357 0f85 1E02     		.2byte	0x21e
 3358 0f87 0C       		.uleb128 0xc
 3359 0f88 BC150000 		.4byte	.LASF507
 3360 0f8c 1F02     		.2byte	0x21f
 3361 0f8e 0C       		.uleb128 0xc
 3362 0f8f 5A3F0000 		.4byte	.LASF508
 3363 0f93 2002     		.2byte	0x220
 3364 0f95 0C       		.uleb128 0xc
ARM GAS  C:\Users\User\AppData\Local\Temp\ccR9uRpe.s 			page 71


 3365 0f96 CC0F0000 		.4byte	.LASF509
 3366 0f9a 2102     		.2byte	0x221
 3367 0f9c 0C       		.uleb128 0xc
 3368 0f9d 4C0E0000 		.4byte	.LASF510
 3369 0fa1 2202     		.2byte	0x222
 3370 0fa3 0C       		.uleb128 0xc
 3371 0fa4 E72A0000 		.4byte	.LASF511
 3372 0fa8 00E0     		.2byte	0xe000
 3373 0faa 00       		.byte	0
 3374 0fab 0A       		.uleb128 0xa
 3375 0fac 01       		.byte	0x1
 3376 0fad 2C000000 		.4byte	0x2c
 3377 0fb1 0A       		.byte	0xa
 3378 0fb2 5008     		.2byte	0x850
 3379 0fb4 D70F0000 		.4byte	0xfd7
 3380 0fb8 0B       		.uleb128 0xb
 3381 0fb9 EF0E0000 		.4byte	.LASF512
 3382 0fbd 00       		.byte	0
 3383 0fbe 0B       		.uleb128 0xb
 3384 0fbf 1F1F0000 		.4byte	.LASF513
 3385 0fc3 01       		.byte	0x1
 3386 0fc4 0B       		.uleb128 0xb
 3387 0fc5 FC3D0000 		.4byte	.LASF514
 3388 0fc9 02       		.byte	0x2
 3389 0fca 0B       		.uleb128 0xb
 3390 0fcb 02090000 		.4byte	.LASF515
 3391 0fcf 03       		.byte	0x3
 3392 0fd0 0B       		.uleb128 0xb
 3393 0fd1 36340000 		.4byte	.LASF516
 3394 0fd5 04       		.byte	0x4
 3395 0fd6 00       		.byte	0
 3396 0fd7 04       		.uleb128 0x4
 3397 0fd8 832E0000 		.4byte	.LASF517
 3398 0fdc 0A       		.byte	0xa
 3399 0fdd 5E08     		.2byte	0x85e
 3400 0fdf AB0F0000 		.4byte	0xfab
 3401 0fe3 18       		.uleb128 0x18
 3402 0fe4 83310000 		.4byte	.LASF554
 3403 0fe8 01       		.byte	0x1
 3404 0fe9 5C       		.byte	0x5c
 3405 0fea 00000000 		.4byte	.LFB2
 3406 0fee 14000000 		.4byte	.LFE2-.LFB2
 3407 0ff2 01       		.uleb128 0x1
 3408 0ff3 9C       		.byte	0x9c
 3409 0ff4 19       		.uleb128 0x19
 3410 0ff5 F7290000 		.4byte	.LASF541
 3411 0ff9 01       		.byte	0x1
 3412 0ffa 86       		.byte	0x86
 3413 0ffb 00000000 		.4byte	.LFB3
 3414 0fff 1C000000 		.4byte	.LFE3-.LFB3
 3415 1003 01       		.uleb128 0x1
 3416 1004 9C       		.byte	0x9c
 3417 1005 18100000 		.4byte	0x1018
 3418 1009 1A       		.uleb128 0x1a
 3419 100a EC0B0000 		.4byte	.LASF518
 3420 100e 01       		.byte	0x1
 3421 100f 86       		.byte	0x86
ARM GAS  C:\Users\User\AppData\Local\Temp\ccR9uRpe.s 			page 72


 3422 1010 37060000 		.4byte	0x637
 3423 1014 02       		.uleb128 0x2
 3424 1015 91       		.byte	0x91
 3425 1016 74       		.sleb128 -12
 3426 1017 00       		.byte	0
 3427 1018 1B       		.uleb128 0x1b
 3428 1019 1F030000 		.4byte	.LASF523
 3429 101d 01       		.byte	0x1
 3430 101e 9F       		.byte	0x9f
 3431 101f 66030000 		.4byte	0x366
 3432 1023 00000000 		.4byte	.LFB4
 3433 1027 88000000 		.4byte	.LFE4-.LFB4
 3434 102b 01       		.uleb128 0x1
 3435 102c 9C       		.byte	0x9c
 3436 102d 78100000 		.4byte	0x1078
 3437 1031 1A       		.uleb128 0x1a
 3438 1032 7C010000 		.4byte	.LASF218
 3439 1036 01       		.byte	0x1
 3440 1037 9F       		.byte	0x9f
 3441 1038 BD060000 		.4byte	0x6bd
 3442 103c 02       		.uleb128 0x2
 3443 103d 91       		.byte	0x91
 3444 103e 67       		.sleb128 -25
 3445 103f 1A       		.uleb128 0x1a
 3446 1040 5B030000 		.4byte	.LASF519
 3447 1044 01       		.byte	0x1
 3448 1045 A0       		.byte	0xa0
 3449 1046 6B000000 		.4byte	0x6b
 3450 104a 02       		.uleb128 0x2
 3451 104b 91       		.byte	0x91
 3452 104c 66       		.sleb128 -26
 3453 104d 1A       		.uleb128 0x1a
 3454 104e E3170000 		.4byte	.LASF520
 3455 1052 01       		.byte	0x1
 3456 1053 A0       		.byte	0xa0
 3457 1054 72030000 		.4byte	0x372
 3458 1058 02       		.uleb128 0x2
 3459 1059 91       		.byte	0x91
 3460 105a 60       		.sleb128 -32
 3461 105b 1C       		.uleb128 0x1c
 3462 105c 28330000 		.4byte	.LASF521
 3463 1060 01       		.byte	0x1
 3464 1061 A2       		.byte	0xa2
 3465 1062 66030000 		.4byte	0x366
 3466 1066 02       		.uleb128 0x2
 3467 1067 91       		.byte	0x91
 3468 1068 76       		.sleb128 -10
 3469 1069 1C       		.uleb128 0x1c
 3470 106a 8C1C0000 		.4byte	.LASF522
 3471 106e 01       		.byte	0x1
 3472 106f A3       		.byte	0xa3
 3473 1070 18050000 		.4byte	0x518
 3474 1074 02       		.uleb128 0x2
 3475 1075 91       		.byte	0x91
 3476 1076 68       		.sleb128 -24
 3477 1077 00       		.byte	0
 3478 1078 1B       		.uleb128 0x1b
ARM GAS  C:\Users\User\AppData\Local\Temp\ccR9uRpe.s 			page 73


 3479 1079 7F1E0000 		.4byte	.LASF524
 3480 107d 01       		.byte	0x1
 3481 107e CB       		.byte	0xcb
 3482 107f 66030000 		.4byte	0x366
 3483 1083 00000000 		.4byte	.LFB5
 3484 1087 88000000 		.4byte	.LFE5-.LFB5
 3485 108b 01       		.uleb128 0x1
 3486 108c 9C       		.byte	0x9c
 3487 108d D8100000 		.4byte	0x10d8
 3488 1091 1A       		.uleb128 0x1a
 3489 1092 7C010000 		.4byte	.LASF218
 3490 1096 01       		.byte	0x1
 3491 1097 CB       		.byte	0xcb
 3492 1098 BD060000 		.4byte	0x6bd
 3493 109c 02       		.uleb128 0x2
 3494 109d 91       		.byte	0x91
 3495 109e 67       		.sleb128 -25
 3496 109f 1A       		.uleb128 0x1a
 3497 10a0 5B030000 		.4byte	.LASF519
 3498 10a4 01       		.byte	0x1
 3499 10a5 CC       		.byte	0xcc
 3500 10a6 6B000000 		.4byte	0x6b
 3501 10aa 02       		.uleb128 0x2
 3502 10ab 91       		.byte	0x91
 3503 10ac 66       		.sleb128 -26
 3504 10ad 1A       		.uleb128 0x1a
 3505 10ae E3170000 		.4byte	.LASF520
 3506 10b2 01       		.byte	0x1
 3507 10b3 CC       		.byte	0xcc
 3508 10b4 72030000 		.4byte	0x372
 3509 10b8 02       		.uleb128 0x2
 3510 10b9 91       		.byte	0x91
 3511 10ba 60       		.sleb128 -32
 3512 10bb 1C       		.uleb128 0x1c
 3513 10bc 28330000 		.4byte	.LASF521
 3514 10c0 01       		.byte	0x1
 3515 10c1 CE       		.byte	0xce
 3516 10c2 66030000 		.4byte	0x366
 3517 10c6 02       		.uleb128 0x2
 3518 10c7 91       		.byte	0x91
 3519 10c8 76       		.sleb128 -10
 3520 10c9 1C       		.uleb128 0x1c
 3521 10ca 8C1C0000 		.4byte	.LASF522
 3522 10ce 01       		.byte	0x1
 3523 10cf CF       		.byte	0xcf
 3524 10d0 18050000 		.4byte	0x518
 3525 10d4 02       		.uleb128 0x2
 3526 10d5 91       		.byte	0x91
 3527 10d6 68       		.sleb128 -24
 3528 10d7 00       		.byte	0
 3529 10d8 1B       		.uleb128 0x1b
 3530 10d9 05170000 		.4byte	.LASF525
 3531 10dd 01       		.byte	0x1
 3532 10de F7       		.byte	0xf7
 3533 10df 66030000 		.4byte	0x366
 3534 10e3 00000000 		.4byte	.LFB6
 3535 10e7 B8000000 		.4byte	.LFE6-.LFB6
ARM GAS  C:\Users\User\AppData\Local\Temp\ccR9uRpe.s 			page 74


 3536 10eb 01       		.uleb128 0x1
 3537 10ec 9C       		.byte	0x9c
 3538 10ed 46110000 		.4byte	0x1146
 3539 10f1 1A       		.uleb128 0x1a
 3540 10f2 7C010000 		.4byte	.LASF218
 3541 10f6 01       		.byte	0x1
 3542 10f7 F7       		.byte	0xf7
 3543 10f8 BD060000 		.4byte	0x6bd
 3544 10fc 02       		.uleb128 0x2
 3545 10fd 91       		.byte	0x91
 3546 10fe 5F       		.sleb128 -33
 3547 10ff 1A       		.uleb128 0x1a
 3548 1100 DF250000 		.4byte	.LASF526
 3549 1104 01       		.byte	0x1
 3550 1105 F8       		.byte	0xf8
 3551 1106 E7060000 		.4byte	0x6e7
 3552 110a 02       		.uleb128 0x2
 3553 110b 91       		.byte	0x91
 3554 110c 5E       		.sleb128 -34
 3555 110d 1A       		.uleb128 0x1a
 3556 110e 5B030000 		.4byte	.LASF519
 3557 1112 01       		.byte	0x1
 3558 1113 F8       		.byte	0xf8
 3559 1114 6B000000 		.4byte	0x6b
 3560 1118 02       		.uleb128 0x2
 3561 1119 91       		.byte	0x91
 3562 111a 5D       		.sleb128 -35
 3563 111b 1A       		.uleb128 0x1a
 3564 111c E3170000 		.4byte	.LASF520
 3565 1120 01       		.byte	0x1
 3566 1121 F8       		.byte	0xf8
 3567 1122 72030000 		.4byte	0x372
 3568 1126 02       		.uleb128 0x2
 3569 1127 91       		.byte	0x91
 3570 1128 58       		.sleb128 -40
 3571 1129 1C       		.uleb128 0x1c
 3572 112a 28330000 		.4byte	.LASF521
 3573 112e 01       		.byte	0x1
 3574 112f FA       		.byte	0xfa
 3575 1130 66030000 		.4byte	0x366
 3576 1134 02       		.uleb128 0x2
 3577 1135 91       		.byte	0x91
 3578 1136 6E       		.sleb128 -18
 3579 1137 1C       		.uleb128 0x1c
 3580 1138 8C1C0000 		.4byte	.LASF522
 3581 113c 01       		.byte	0x1
 3582 113d FB       		.byte	0xfb
 3583 113e 18050000 		.4byte	0x518
 3584 1142 02       		.uleb128 0x2
 3585 1143 91       		.byte	0x91
 3586 1144 60       		.sleb128 -32
 3587 1145 00       		.byte	0
 3588 1146 1D       		.uleb128 0x1d
 3589 1147 8F250000 		.4byte	.LASF527
 3590 114b 01       		.byte	0x1
 3591 114c 2901     		.2byte	0x129
 3592 114e 66030000 		.4byte	0x366
ARM GAS  C:\Users\User\AppData\Local\Temp\ccR9uRpe.s 			page 75


 3593 1152 00000000 		.4byte	.LFB7
 3594 1156 B8000000 		.4byte	.LFE7-.LFB7
 3595 115a 01       		.uleb128 0x1
 3596 115b 9C       		.byte	0x9c
 3597 115c BB110000 		.4byte	0x11bb
 3598 1160 1E       		.uleb128 0x1e
 3599 1161 7C010000 		.4byte	.LASF218
 3600 1165 01       		.byte	0x1
 3601 1166 2901     		.2byte	0x129
 3602 1168 BD060000 		.4byte	0x6bd
 3603 116c 02       		.uleb128 0x2
 3604 116d 91       		.byte	0x91
 3605 116e 5F       		.sleb128 -33
 3606 116f 1E       		.uleb128 0x1e
 3607 1170 DF250000 		.4byte	.LASF526
 3608 1174 01       		.byte	0x1
 3609 1175 2A01     		.2byte	0x12a
 3610 1177 E7060000 		.4byte	0x6e7
 3611 117b 02       		.uleb128 0x2
 3612 117c 91       		.byte	0x91
 3613 117d 5E       		.sleb128 -34
 3614 117e 1E       		.uleb128 0x1e
 3615 117f 5B030000 		.4byte	.LASF519
 3616 1183 01       		.byte	0x1
 3617 1184 2A01     		.2byte	0x12a
 3618 1186 6B000000 		.4byte	0x6b
 3619 118a 02       		.uleb128 0x2
 3620 118b 91       		.byte	0x91
 3621 118c 5D       		.sleb128 -35
 3622 118d 1E       		.uleb128 0x1e
 3623 118e E3170000 		.4byte	.LASF520
 3624 1192 01       		.byte	0x1
 3625 1193 2A01     		.2byte	0x12a
 3626 1195 72030000 		.4byte	0x372
 3627 1199 02       		.uleb128 0x2
 3628 119a 91       		.byte	0x91
 3629 119b 58       		.sleb128 -40
 3630 119c 1F       		.uleb128 0x1f
 3631 119d 28330000 		.4byte	.LASF521
 3632 11a1 01       		.byte	0x1
 3633 11a2 2C01     		.2byte	0x12c
 3634 11a4 66030000 		.4byte	0x366
 3635 11a8 02       		.uleb128 0x2
 3636 11a9 91       		.byte	0x91
 3637 11aa 6E       		.sleb128 -18
 3638 11ab 1F       		.uleb128 0x1f
 3639 11ac 8C1C0000 		.4byte	.LASF522
 3640 11b0 01       		.byte	0x1
 3641 11b1 2D01     		.2byte	0x12d
 3642 11b3 18050000 		.4byte	0x518
 3643 11b7 02       		.uleb128 0x2
 3644 11b8 91       		.byte	0x91
 3645 11b9 60       		.sleb128 -32
 3646 11ba 00       		.byte	0
 3647 11bb 1D       		.uleb128 0x1d
 3648 11bc 73250000 		.4byte	.LASF528
 3649 11c0 01       		.byte	0x1
ARM GAS  C:\Users\User\AppData\Local\Temp\ccR9uRpe.s 			page 76


 3650 11c1 5201     		.2byte	0x152
 3651 11c3 6F040000 		.4byte	0x46f
 3652 11c7 00000000 		.4byte	.LFB8
 3653 11cb 00030000 		.4byte	.LFE8-.LFB8
 3654 11cf 01       		.uleb128 0x1
 3655 11d0 9C       		.byte	0x9c
 3656 11d1 71120000 		.4byte	0x1271
 3657 11d5 1E       		.uleb128 0x1e
 3658 11d6 B0020000 		.4byte	.LASF529
 3659 11da 01       		.byte	0x1
 3660 11db 5201     		.2byte	0x152
 3661 11dd 71120000 		.4byte	0x1271
 3662 11e1 02       		.uleb128 0x2
 3663 11e2 91       		.byte	0x91
 3664 11e3 54       		.sleb128 -44
 3665 11e4 1F       		.uleb128 0x1f
 3666 11e5 4E2D0000 		.4byte	.LASF530
 3667 11e9 01       		.byte	0x1
 3668 11ea 5401     		.2byte	0x154
 3669 11ec BD060000 		.4byte	0x6bd
 3670 11f0 02       		.uleb128 0x2
 3671 11f1 91       		.byte	0x91
 3672 11f2 6F       		.sleb128 -17
 3673 11f3 1F       		.uleb128 0x1f
 3674 11f4 BB0E0000 		.4byte	.LASF531
 3675 11f8 01       		.byte	0x1
 3676 11f9 5501     		.2byte	0x155
 3677 11fb 97070000 		.4byte	0x797
 3678 11ff 02       		.uleb128 0x2
 3679 1200 91       		.byte	0x91
 3680 1201 5C       		.sleb128 -36
 3681 1202 1F       		.uleb128 0x1f
 3682 1203 E43C0000 		.4byte	.LASF532
 3683 1207 01       		.byte	0x1
 3684 1208 5601     		.2byte	0x156
 3685 120a 6F040000 		.4byte	0x46f
 3686 120e 02       		.uleb128 0x2
 3687 120f 91       		.byte	0x91
 3688 1210 6E       		.sleb128 -18
 3689 1211 1F       		.uleb128 0x1f
 3690 1212 D82B0000 		.4byte	.LASF533
 3691 1216 01       		.byte	0x1
 3692 1217 5701     		.2byte	0x157
 3693 1219 6B000000 		.4byte	0x6b
 3694 121d 02       		.uleb128 0x2
 3695 121e 91       		.byte	0x91
 3696 121f 6D       		.sleb128 -19
 3697 1220 20       		.uleb128 0x20
 3698 1221 B4000000 		.4byte	.LBB2
 3699 1225 9E000000 		.4byte	.LBE2-.LBB2
 3700 1229 1F       		.uleb128 0x1f
 3701 122a 0D2C0000 		.4byte	.LASF534
 3702 122e 01       		.byte	0x1
 3703 122f 6B01     		.2byte	0x16b
 3704 1231 77120000 		.4byte	0x1277
 3705 1235 02       		.uleb128 0x2
 3706 1236 91       		.byte	0x91
ARM GAS  C:\Users\User\AppData\Local\Temp\ccR9uRpe.s 			page 77


 3707 1237 58       		.sleb128 -40
 3708 1238 1F       		.uleb128 0x1f
 3709 1239 9A110000 		.4byte	.LASF535
 3710 123d 01       		.byte	0x1
 3711 123e 6C01     		.2byte	0x16c
 3712 1240 77000000 		.4byte	0x77
 3713 1244 02       		.uleb128 0x2
 3714 1245 91       		.byte	0x91
 3715 1246 6A       		.sleb128 -22
 3716 1247 20       		.uleb128 0x20
 3717 1248 E8000000 		.4byte	.LBB3
 3718 124c 6A000000 		.4byte	.LBE3-.LBB3
 3719 1250 1F       		.uleb128 0x1f
 3720 1251 6C220000 		.4byte	.LASF536
 3721 1255 01       		.byte	0x1
 3722 1256 7601     		.2byte	0x176
 3723 1258 77000000 		.4byte	0x77
 3724 125c 02       		.uleb128 0x2
 3725 125d 91       		.byte	0x91
 3726 125e 68       		.sleb128 -24
 3727 125f 1F       		.uleb128 0x1f
 3728 1260 AF000000 		.4byte	.LASF537
 3729 1264 01       		.byte	0x1
 3730 1265 7701     		.2byte	0x177
 3731 1267 77000000 		.4byte	0x77
 3732 126b 02       		.uleb128 0x2
 3733 126c 91       		.byte	0x91
 3734 126d 66       		.sleb128 -26
 3735 126e 00       		.byte	0
 3736 126f 00       		.byte	0
 3737 1270 00       		.byte	0
 3738 1271 07       		.uleb128 0x7
 3739 1272 04       		.byte	0x4
 3740 1273 50050000 		.4byte	0x550
 3741 1277 16       		.uleb128 0x16
 3742 1278 6B000000 		.4byte	0x6b
 3743 127c 87120000 		.4byte	0x1287
 3744 1280 17       		.uleb128 0x17
 3745 1281 B0000000 		.4byte	0xb0
 3746 1285 03       		.byte	0x3
 3747 1286 00       		.byte	0
 3748 1287 1D       		.uleb128 0x1d
 3749 1288 79030000 		.4byte	.LASF538
 3750 128c 01       		.byte	0x1
 3751 128d DC01     		.2byte	0x1dc
 3752 128f 66030000 		.4byte	0x366
 3753 1293 00000000 		.4byte	.LFB9
 3754 1297 E4000000 		.4byte	.LFE9-.LFB9
 3755 129b 01       		.uleb128 0x1
 3756 129c 9C       		.byte	0x9c
 3757 129d 06130000 		.4byte	0x1306
 3758 12a1 1E       		.uleb128 0x1e
 3759 12a2 78310000 		.4byte	.LASF173
 3760 12a6 01       		.byte	0x1
 3761 12a7 DC01     		.2byte	0x1dc
 3762 12a9 AB040000 		.4byte	0x4ab
 3763 12ad 02       		.uleb128 0x2
ARM GAS  C:\Users\User\AppData\Local\Temp\ccR9uRpe.s 			page 78


 3764 12ae 91       		.byte	0x91
 3765 12af 5C       		.sleb128 -36
 3766 12b0 1E       		.uleb128 0x1e
 3767 12b1 7C010000 		.4byte	.LASF218
 3768 12b5 01       		.byte	0x1
 3769 12b6 DD01     		.2byte	0x1dd
 3770 12b8 BD060000 		.4byte	0x6bd
 3771 12bc 02       		.uleb128 0x2
 3772 12bd 91       		.byte	0x91
 3773 12be 5B       		.sleb128 -37
 3774 12bf 1E       		.uleb128 0x1e
 3775 12c0 5B030000 		.4byte	.LASF519
 3776 12c4 01       		.byte	0x1
 3777 12c5 DD01     		.2byte	0x1dd
 3778 12c7 6B000000 		.4byte	0x6b
 3779 12cb 02       		.uleb128 0x2
 3780 12cc 91       		.byte	0x91
 3781 12cd 5A       		.sleb128 -38
 3782 12ce 1E       		.uleb128 0x1e
 3783 12cf E3170000 		.4byte	.LASF520
 3784 12d3 01       		.byte	0x1
 3785 12d4 DD01     		.2byte	0x1dd
 3786 12d6 72030000 		.4byte	0x372
 3787 12da 02       		.uleb128 0x2
 3788 12db 91       		.byte	0x91
 3789 12dc 54       		.sleb128 -44
 3790 12dd 1F       		.uleb128 0x1f
 3791 12de 28330000 		.4byte	.LASF521
 3792 12e2 01       		.byte	0x1
 3793 12e3 E001     		.2byte	0x1e0
 3794 12e5 66030000 		.4byte	0x366
 3795 12e9 02       		.uleb128 0x2
 3796 12ea 91       		.byte	0x91
 3797 12eb 6E       		.sleb128 -18
 3798 12ec 20       		.uleb128 0x20
 3799 12ed 80000000 		.4byte	.LBB4
 3800 12f1 4A000000 		.4byte	.LBE4-.LBB4
 3801 12f5 1F       		.uleb128 0x1f
 3802 12f6 5A3C0000 		.4byte	.LASF539
 3803 12fa 01       		.byte	0x1
 3804 12fb ED01     		.2byte	0x1ed
 3805 12fd 24050000 		.4byte	0x524
 3806 1301 02       		.uleb128 0x2
 3807 1302 91       		.byte	0x91
 3808 1303 60       		.sleb128 -32
 3809 1304 00       		.byte	0
 3810 1305 00       		.byte	0
 3811 1306 1D       		.uleb128 0x1d
 3812 1307 AB330000 		.4byte	.LASF540
 3813 130b 01       		.byte	0x1
 3814 130c 2402     		.2byte	0x224
 3815 130e 66030000 		.4byte	0x366
 3816 1312 00000000 		.4byte	.LFB10
 3817 1316 FC000000 		.4byte	.LFE10-.LFB10
 3818 131a 01       		.uleb128 0x1
 3819 131b 9C       		.byte	0x9c
 3820 131c 85130000 		.4byte	0x1385
ARM GAS  C:\Users\User\AppData\Local\Temp\ccR9uRpe.s 			page 79


 3821 1320 1E       		.uleb128 0x1e
 3822 1321 78310000 		.4byte	.LASF173
 3823 1325 01       		.byte	0x1
 3824 1326 2402     		.2byte	0x224
 3825 1328 AB040000 		.4byte	0x4ab
 3826 132c 02       		.uleb128 0x2
 3827 132d 91       		.byte	0x91
 3828 132e 5C       		.sleb128 -36
 3829 132f 1E       		.uleb128 0x1e
 3830 1330 7C010000 		.4byte	.LASF218
 3831 1334 01       		.byte	0x1
 3832 1335 2502     		.2byte	0x225
 3833 1337 BD060000 		.4byte	0x6bd
 3834 133b 02       		.uleb128 0x2
 3835 133c 91       		.byte	0x91
 3836 133d 5B       		.sleb128 -37
 3837 133e 1E       		.uleb128 0x1e
 3838 133f 5B030000 		.4byte	.LASF519
 3839 1343 01       		.byte	0x1
 3840 1344 2502     		.2byte	0x225
 3841 1346 6B000000 		.4byte	0x6b
 3842 134a 02       		.uleb128 0x2
 3843 134b 91       		.byte	0x91
 3844 134c 5A       		.sleb128 -38
 3845 134d 1E       		.uleb128 0x1e
 3846 134e E3170000 		.4byte	.LASF520
 3847 1352 01       		.byte	0x1
 3848 1353 2502     		.2byte	0x225
 3849 1355 72030000 		.4byte	0x372
 3850 1359 02       		.uleb128 0x2
 3851 135a 91       		.byte	0x91
 3852 135b 54       		.sleb128 -44
 3853 135c 1F       		.uleb128 0x1f
 3854 135d 28330000 		.4byte	.LASF521
 3855 1361 01       		.byte	0x1
 3856 1362 2702     		.2byte	0x227
 3857 1364 66030000 		.4byte	0x366
 3858 1368 02       		.uleb128 0x2
 3859 1369 91       		.byte	0x91
 3860 136a 6E       		.sleb128 -18
 3861 136b 20       		.uleb128 0x20
 3862 136c 80000000 		.4byte	.LBB5
 3863 1370 5E000000 		.4byte	.LBE5-.LBB5
 3864 1374 1F       		.uleb128 0x1f
 3865 1375 5A3C0000 		.4byte	.LASF539
 3866 1379 01       		.byte	0x1
 3867 137a 3402     		.2byte	0x234
 3868 137c 24050000 		.4byte	0x524
 3869 1380 02       		.uleb128 0x2
 3870 1381 91       		.byte	0x91
 3871 1382 60       		.sleb128 -32
 3872 1383 00       		.byte	0
 3873 1384 00       		.byte	0
 3874 1385 21       		.uleb128 0x21
 3875 1386 A91A0000 		.4byte	.LASF542
 3876 138a 01       		.byte	0x1
 3877 138b 5002     		.2byte	0x250
ARM GAS  C:\Users\User\AppData\Local\Temp\ccR9uRpe.s 			page 80


 3878 138d 00000000 		.4byte	.LFB11
 3879 1391 D8000000 		.4byte	.LFE11-.LFB11
 3880 1395 01       		.uleb128 0x1
 3881 1396 9C       		.byte	0x9c
 3882 1397 D8130000 		.4byte	0x13d8
 3883 139b 1E       		.uleb128 0x1e
 3884 139c B0020000 		.4byte	.LASF529
 3885 13a0 01       		.byte	0x1
 3886 13a1 5002     		.2byte	0x250
 3887 13a3 D8130000 		.4byte	0x13d8
 3888 13a7 02       		.uleb128 0x2
 3889 13a8 91       		.byte	0x91
 3890 13a9 64       		.sleb128 -28
 3891 13aa 1F       		.uleb128 0x1f
 3892 13ab 4E2D0000 		.4byte	.LASF530
 3893 13af 01       		.byte	0x1
 3894 13b0 5202     		.2byte	0x252
 3895 13b2 BD060000 		.4byte	0x6bd
 3896 13b6 02       		.uleb128 0x2
 3897 13b7 91       		.byte	0x91
 3898 13b8 77       		.sleb128 -9
 3899 13b9 1F       		.uleb128 0x1f
 3900 13ba BB0E0000 		.4byte	.LASF531
 3901 13be 01       		.byte	0x1
 3902 13bf 5302     		.2byte	0x253
 3903 13c1 97070000 		.4byte	0x797
 3904 13c5 02       		.uleb128 0x2
 3905 13c6 91       		.byte	0x91
 3906 13c7 6C       		.sleb128 -20
 3907 13c8 1F       		.uleb128 0x1f
 3908 13c9 D82B0000 		.4byte	.LASF533
 3909 13cd 01       		.byte	0x1
 3910 13ce 5402     		.2byte	0x254
 3911 13d0 6B000000 		.4byte	0x6b
 3912 13d4 02       		.uleb128 0x2
 3913 13d5 91       		.byte	0x91
 3914 13d6 76       		.sleb128 -10
 3915 13d7 00       		.byte	0
 3916 13d8 07       		.uleb128 0x7
 3917 13d9 04       		.byte	0x4
 3918 13da DE130000 		.4byte	0x13de
 3919 13de 22       		.uleb128 0x22
 3920 13df AB040000 		.4byte	0x4ab
 3921 13e3 1C       		.uleb128 0x1c
 3922 13e4 A3010000 		.4byte	.LASF543
 3923 13e8 01       		.byte	0x1
 3924 13e9 13       		.byte	0x13
 3925 13ea 37060000 		.4byte	0x637
 3926 13ee 05       		.uleb128 0x5
 3927 13ef 03       		.byte	0x3
 3928 13f0 00000000 		.4byte	CyBle_HtsApplCallback
 3929 13f4 1C       		.uleb128 0x1c
 3930 13f5 64310000 		.4byte	.LASF544
 3931 13f9 01       		.byte	0x1
 3932 13fa 49       		.byte	0x49
 3933 13fb 7B040000 		.4byte	0x47b
 3934 13ff 05       		.uleb128 0x5
ARM GAS  C:\Users\User\AppData\Local\Temp\ccR9uRpe.s 			page 81


 3935 1400 03       		.byte	0x3
 3936 1401 04000000 		.4byte	cyBle_htssReqHandle
 3937 1405 23       		.uleb128 0x23
 3938 1406 433A0000 		.4byte	.LASF545
 3939 140a 07       		.byte	0x7
 3940 140b A402     		.2byte	0x2a4
 3941 140d A4000000 		.4byte	0xa4
 3942 1411 23       		.uleb128 0x23
 3943 1412 25320000 		.4byte	.LASF546
 3944 1416 07       		.byte	0x7
 3945 1417 C302     		.2byte	0x2c3
 3946 1419 6B000000 		.4byte	0x6b
 3947 141d 23       		.uleb128 0x23
 3948 141e 00000000 		.4byte	.LASF547
 3949 1422 07       		.byte	0x7
 3950 1423 C902     		.2byte	0x2c9
 3951 1425 6B000000 		.4byte	0x6b
 3952 1429 16       		.uleb128 0x16
 3953 142a 39140000 		.4byte	0x1439
 3954 142e 39140000 		.4byte	0x1439
 3955 1432 17       		.uleb128 0x17
 3956 1433 B0000000 		.4byte	0xb0
 3957 1437 2A       		.byte	0x2a
 3958 1438 00       		.byte	0
 3959 1439 22       		.uleb128 0x22
 3960 143a 2B060000 		.4byte	0x62b
 3961 143e 24       		.uleb128 0x24
 3962 143f 12240000 		.4byte	.LASF548
 3963 1443 0B       		.byte	0xb
 3964 1444 EA       		.byte	0xea
 3965 1445 49140000 		.4byte	0x1449
 3966 1449 22       		.uleb128 0x22
 3967 144a 29140000 		.4byte	0x1429
 3968 144e 25       		.uleb128 0x25
 3969 144f 511E0000 		.4byte	.LASF549
 3970 1453 01       		.byte	0x1
 3971 1454 17       		.byte	0x17
 3972 1455 5F140000 		.4byte	0x145f
 3973 1459 05       		.uleb128 0x5
 3974 145a 03       		.byte	0x3
 3975 145b 00000000 		.4byte	cyBle_htss
 3976 145f 22       		.uleb128 0x22
 3977 1460 5F070000 		.4byte	0x75f
 3978 1464 23       		.uleb128 0x23
 3979 1465 32330000 		.4byte	.LASF550
 3980 1469 0A       		.byte	0xa
 3981 146a A90A     		.2byte	0xaa9
 3982 146c D70F0000 		.4byte	0xfd7
 3983 1470 00       		.byte	0
 3984              		.section	.debug_abbrev,"",%progbits
 3985              	.Ldebug_abbrev0:
 3986 0000 01       		.uleb128 0x1
 3987 0001 11       		.uleb128 0x11
 3988 0002 01       		.byte	0x1
 3989 0003 25       		.uleb128 0x25
 3990 0004 0E       		.uleb128 0xe
 3991 0005 13       		.uleb128 0x13
ARM GAS  C:\Users\User\AppData\Local\Temp\ccR9uRpe.s 			page 82


 3992 0006 0B       		.uleb128 0xb
 3993 0007 03       		.uleb128 0x3
 3994 0008 0E       		.uleb128 0xe
 3995 0009 1B       		.uleb128 0x1b
 3996 000a 0E       		.uleb128 0xe
 3997 000b 55       		.uleb128 0x55
 3998 000c 17       		.uleb128 0x17
 3999 000d 11       		.uleb128 0x11
 4000 000e 01       		.uleb128 0x1
 4001 000f 10       		.uleb128 0x10
 4002 0010 17       		.uleb128 0x17
 4003 0011 00       		.byte	0
 4004 0012 00       		.byte	0
 4005 0013 02       		.uleb128 0x2
 4006 0014 24       		.uleb128 0x24
 4007 0015 00       		.byte	0
 4008 0016 0B       		.uleb128 0xb
 4009 0017 0B       		.uleb128 0xb
 4010 0018 3E       		.uleb128 0x3e
 4011 0019 0B       		.uleb128 0xb
 4012 001a 03       		.uleb128 0x3
 4013 001b 0E       		.uleb128 0xe
 4014 001c 00       		.byte	0
 4015 001d 00       		.byte	0
 4016 001e 03       		.uleb128 0x3
 4017 001f 24       		.uleb128 0x24
 4018 0020 00       		.byte	0
 4019 0021 0B       		.uleb128 0xb
 4020 0022 0B       		.uleb128 0xb
 4021 0023 3E       		.uleb128 0x3e
 4022 0024 0B       		.uleb128 0xb
 4023 0025 03       		.uleb128 0x3
 4024 0026 08       		.uleb128 0x8
 4025 0027 00       		.byte	0
 4026 0028 00       		.byte	0
 4027 0029 04       		.uleb128 0x4
 4028 002a 16       		.uleb128 0x16
 4029 002b 00       		.byte	0
 4030 002c 03       		.uleb128 0x3
 4031 002d 0E       		.uleb128 0xe
 4032 002e 3A       		.uleb128 0x3a
 4033 002f 0B       		.uleb128 0xb
 4034 0030 3B       		.uleb128 0x3b
 4035 0031 05       		.uleb128 0x5
 4036 0032 49       		.uleb128 0x49
 4037 0033 13       		.uleb128 0x13
 4038 0034 00       		.byte	0
 4039 0035 00       		.byte	0
 4040 0036 05       		.uleb128 0x5
 4041 0037 35       		.uleb128 0x35
 4042 0038 00       		.byte	0
 4043 0039 49       		.uleb128 0x49
 4044 003a 13       		.uleb128 0x13
 4045 003b 00       		.byte	0
 4046 003c 00       		.byte	0
 4047 003d 06       		.uleb128 0x6
 4048 003e 0F       		.uleb128 0xf
ARM GAS  C:\Users\User\AppData\Local\Temp\ccR9uRpe.s 			page 83


 4049 003f 00       		.byte	0
 4050 0040 0B       		.uleb128 0xb
 4051 0041 0B       		.uleb128 0xb
 4052 0042 00       		.byte	0
 4053 0043 00       		.byte	0
 4054 0044 07       		.uleb128 0x7
 4055 0045 0F       		.uleb128 0xf
 4056 0046 00       		.byte	0
 4057 0047 0B       		.uleb128 0xb
 4058 0048 0B       		.uleb128 0xb
 4059 0049 49       		.uleb128 0x49
 4060 004a 13       		.uleb128 0x13
 4061 004b 00       		.byte	0
 4062 004c 00       		.byte	0
 4063 004d 08       		.uleb128 0x8
 4064 004e 15       		.uleb128 0x15
 4065 004f 01       		.byte	0x1
 4066 0050 27       		.uleb128 0x27
 4067 0051 19       		.uleb128 0x19
 4068 0052 01       		.uleb128 0x1
 4069 0053 13       		.uleb128 0x13
 4070 0054 00       		.byte	0
 4071 0055 00       		.byte	0
 4072 0056 09       		.uleb128 0x9
 4073 0057 05       		.uleb128 0x5
 4074 0058 00       		.byte	0
 4075 0059 49       		.uleb128 0x49
 4076 005a 13       		.uleb128 0x13
 4077 005b 00       		.byte	0
 4078 005c 00       		.byte	0
 4079 005d 0A       		.uleb128 0xa
 4080 005e 04       		.uleb128 0x4
 4081 005f 01       		.byte	0x1
 4082 0060 0B       		.uleb128 0xb
 4083 0061 0B       		.uleb128 0xb
 4084 0062 49       		.uleb128 0x49
 4085 0063 13       		.uleb128 0x13
 4086 0064 3A       		.uleb128 0x3a
 4087 0065 0B       		.uleb128 0xb
 4088 0066 3B       		.uleb128 0x3b
 4089 0067 05       		.uleb128 0x5
 4090 0068 01       		.uleb128 0x1
 4091 0069 13       		.uleb128 0x13
 4092 006a 00       		.byte	0
 4093 006b 00       		.byte	0
 4094 006c 0B       		.uleb128 0xb
 4095 006d 28       		.uleb128 0x28
 4096 006e 00       		.byte	0
 4097 006f 03       		.uleb128 0x3
 4098 0070 0E       		.uleb128 0xe
 4099 0071 1C       		.uleb128 0x1c
 4100 0072 0B       		.uleb128 0xb
 4101 0073 00       		.byte	0
 4102 0074 00       		.byte	0
 4103 0075 0C       		.uleb128 0xc
 4104 0076 28       		.uleb128 0x28
 4105 0077 00       		.byte	0
ARM GAS  C:\Users\User\AppData\Local\Temp\ccR9uRpe.s 			page 84


 4106 0078 03       		.uleb128 0x3
 4107 0079 0E       		.uleb128 0xe
 4108 007a 1C       		.uleb128 0x1c
 4109 007b 05       		.uleb128 0x5
 4110 007c 00       		.byte	0
 4111 007d 00       		.byte	0
 4112 007e 0D       		.uleb128 0xd
 4113 007f 04       		.uleb128 0x4
 4114 0080 01       		.byte	0x1
 4115 0081 0B       		.uleb128 0xb
 4116 0082 0B       		.uleb128 0xb
 4117 0083 49       		.uleb128 0x49
 4118 0084 13       		.uleb128 0x13
 4119 0085 3A       		.uleb128 0x3a
 4120 0086 0B       		.uleb128 0xb
 4121 0087 3B       		.uleb128 0x3b
 4122 0088 0B       		.uleb128 0xb
 4123 0089 01       		.uleb128 0x1
 4124 008a 13       		.uleb128 0x13
 4125 008b 00       		.byte	0
 4126 008c 00       		.byte	0
 4127 008d 0E       		.uleb128 0xe
 4128 008e 13       		.uleb128 0x13
 4129 008f 01       		.byte	0x1
 4130 0090 0B       		.uleb128 0xb
 4131 0091 0B       		.uleb128 0xb
 4132 0092 3A       		.uleb128 0x3a
 4133 0093 0B       		.uleb128 0xb
 4134 0094 3B       		.uleb128 0x3b
 4135 0095 05       		.uleb128 0x5
 4136 0096 01       		.uleb128 0x1
 4137 0097 13       		.uleb128 0x13
 4138 0098 00       		.byte	0
 4139 0099 00       		.byte	0
 4140 009a 0F       		.uleb128 0xf
 4141 009b 0D       		.uleb128 0xd
 4142 009c 00       		.byte	0
 4143 009d 03       		.uleb128 0x3
 4144 009e 0E       		.uleb128 0xe
 4145 009f 3A       		.uleb128 0x3a
 4146 00a0 0B       		.uleb128 0xb
 4147 00a1 3B       		.uleb128 0x3b
 4148 00a2 05       		.uleb128 0x5
 4149 00a3 49       		.uleb128 0x49
 4150 00a4 13       		.uleb128 0x13
 4151 00a5 38       		.uleb128 0x38
 4152 00a6 0B       		.uleb128 0xb
 4153 00a7 00       		.byte	0
 4154 00a8 00       		.byte	0
 4155 00a9 10       		.uleb128 0x10
 4156 00aa 0D       		.uleb128 0xd
 4157 00ab 00       		.byte	0
 4158 00ac 03       		.uleb128 0x3
 4159 00ad 08       		.uleb128 0x8
 4160 00ae 3A       		.uleb128 0x3a
 4161 00af 0B       		.uleb128 0xb
 4162 00b0 3B       		.uleb128 0x3b
ARM GAS  C:\Users\User\AppData\Local\Temp\ccR9uRpe.s 			page 85


 4163 00b1 05       		.uleb128 0x5
 4164 00b2 49       		.uleb128 0x49
 4165 00b3 13       		.uleb128 0x13
 4166 00b4 38       		.uleb128 0x38
 4167 00b5 0B       		.uleb128 0xb
 4168 00b6 00       		.byte	0
 4169 00b7 00       		.byte	0
 4170 00b8 11       		.uleb128 0x11
 4171 00b9 16       		.uleb128 0x16
 4172 00ba 00       		.byte	0
 4173 00bb 03       		.uleb128 0x3
 4174 00bc 0E       		.uleb128 0xe
 4175 00bd 3A       		.uleb128 0x3a
 4176 00be 0B       		.uleb128 0xb
 4177 00bf 3B       		.uleb128 0x3b
 4178 00c0 0B       		.uleb128 0xb
 4179 00c1 49       		.uleb128 0x49
 4180 00c2 13       		.uleb128 0x13
 4181 00c3 00       		.byte	0
 4182 00c4 00       		.byte	0
 4183 00c5 12       		.uleb128 0x12
 4184 00c6 13       		.uleb128 0x13
 4185 00c7 01       		.byte	0x1
 4186 00c8 0B       		.uleb128 0xb
 4187 00c9 0B       		.uleb128 0xb
 4188 00ca 3A       		.uleb128 0x3a
 4189 00cb 0B       		.uleb128 0xb
 4190 00cc 3B       		.uleb128 0x3b
 4191 00cd 0B       		.uleb128 0xb
 4192 00ce 01       		.uleb128 0x1
 4193 00cf 13       		.uleb128 0x13
 4194 00d0 00       		.byte	0
 4195 00d1 00       		.byte	0
 4196 00d2 13       		.uleb128 0x13
 4197 00d3 0D       		.uleb128 0xd
 4198 00d4 00       		.byte	0
 4199 00d5 03       		.uleb128 0x3
 4200 00d6 0E       		.uleb128 0xe
 4201 00d7 3A       		.uleb128 0x3a
 4202 00d8 0B       		.uleb128 0xb
 4203 00d9 3B       		.uleb128 0x3b
 4204 00da 0B       		.uleb128 0xb
 4205 00db 49       		.uleb128 0x49
 4206 00dc 13       		.uleb128 0x13
 4207 00dd 38       		.uleb128 0x38
 4208 00de 0B       		.uleb128 0xb
 4209 00df 00       		.byte	0
 4210 00e0 00       		.byte	0
 4211 00e1 14       		.uleb128 0x14
 4212 00e2 17       		.uleb128 0x17
 4213 00e3 01       		.byte	0x1
 4214 00e4 0B       		.uleb128 0xb
 4215 00e5 0B       		.uleb128 0xb
 4216 00e6 3A       		.uleb128 0x3a
 4217 00e7 0B       		.uleb128 0xb
 4218 00e8 3B       		.uleb128 0x3b
 4219 00e9 0B       		.uleb128 0xb
ARM GAS  C:\Users\User\AppData\Local\Temp\ccR9uRpe.s 			page 86


 4220 00ea 01       		.uleb128 0x1
 4221 00eb 13       		.uleb128 0x13
 4222 00ec 00       		.byte	0
 4223 00ed 00       		.byte	0
 4224 00ee 15       		.uleb128 0x15
 4225 00ef 0D       		.uleb128 0xd
 4226 00f0 00       		.byte	0
 4227 00f1 03       		.uleb128 0x3
 4228 00f2 0E       		.uleb128 0xe
 4229 00f3 3A       		.uleb128 0x3a
 4230 00f4 0B       		.uleb128 0xb
 4231 00f5 3B       		.uleb128 0x3b
 4232 00f6 0B       		.uleb128 0xb
 4233 00f7 49       		.uleb128 0x49
 4234 00f8 13       		.uleb128 0x13
 4235 00f9 00       		.byte	0
 4236 00fa 00       		.byte	0
 4237 00fb 16       		.uleb128 0x16
 4238 00fc 01       		.uleb128 0x1
 4239 00fd 01       		.byte	0x1
 4240 00fe 49       		.uleb128 0x49
 4241 00ff 13       		.uleb128 0x13
 4242 0100 01       		.uleb128 0x1
 4243 0101 13       		.uleb128 0x13
 4244 0102 00       		.byte	0
 4245 0103 00       		.byte	0
 4246 0104 17       		.uleb128 0x17
 4247 0105 21       		.uleb128 0x21
 4248 0106 00       		.byte	0
 4249 0107 49       		.uleb128 0x49
 4250 0108 13       		.uleb128 0x13
 4251 0109 2F       		.uleb128 0x2f
 4252 010a 0B       		.uleb128 0xb
 4253 010b 00       		.byte	0
 4254 010c 00       		.byte	0
 4255 010d 18       		.uleb128 0x18
 4256 010e 2E       		.uleb128 0x2e
 4257 010f 00       		.byte	0
 4258 0110 3F       		.uleb128 0x3f
 4259 0111 19       		.uleb128 0x19
 4260 0112 03       		.uleb128 0x3
 4261 0113 0E       		.uleb128 0xe
 4262 0114 3A       		.uleb128 0x3a
 4263 0115 0B       		.uleb128 0xb
 4264 0116 3B       		.uleb128 0x3b
 4265 0117 0B       		.uleb128 0xb
 4266 0118 27       		.uleb128 0x27
 4267 0119 19       		.uleb128 0x19
 4268 011a 11       		.uleb128 0x11
 4269 011b 01       		.uleb128 0x1
 4270 011c 12       		.uleb128 0x12
 4271 011d 06       		.uleb128 0x6
 4272 011e 40       		.uleb128 0x40
 4273 011f 18       		.uleb128 0x18
 4274 0120 9742     		.uleb128 0x2117
 4275 0122 19       		.uleb128 0x19
 4276 0123 00       		.byte	0
ARM GAS  C:\Users\User\AppData\Local\Temp\ccR9uRpe.s 			page 87


 4277 0124 00       		.byte	0
 4278 0125 19       		.uleb128 0x19
 4279 0126 2E       		.uleb128 0x2e
 4280 0127 01       		.byte	0x1
 4281 0128 3F       		.uleb128 0x3f
 4282 0129 19       		.uleb128 0x19
 4283 012a 03       		.uleb128 0x3
 4284 012b 0E       		.uleb128 0xe
 4285 012c 3A       		.uleb128 0x3a
 4286 012d 0B       		.uleb128 0xb
 4287 012e 3B       		.uleb128 0x3b
 4288 012f 0B       		.uleb128 0xb
 4289 0130 27       		.uleb128 0x27
 4290 0131 19       		.uleb128 0x19
 4291 0132 11       		.uleb128 0x11
 4292 0133 01       		.uleb128 0x1
 4293 0134 12       		.uleb128 0x12
 4294 0135 06       		.uleb128 0x6
 4295 0136 40       		.uleb128 0x40
 4296 0137 18       		.uleb128 0x18
 4297 0138 9742     		.uleb128 0x2117
 4298 013a 19       		.uleb128 0x19
 4299 013b 01       		.uleb128 0x1
 4300 013c 13       		.uleb128 0x13
 4301 013d 00       		.byte	0
 4302 013e 00       		.byte	0
 4303 013f 1A       		.uleb128 0x1a
 4304 0140 05       		.uleb128 0x5
 4305 0141 00       		.byte	0
 4306 0142 03       		.uleb128 0x3
 4307 0143 0E       		.uleb128 0xe
 4308 0144 3A       		.uleb128 0x3a
 4309 0145 0B       		.uleb128 0xb
 4310 0146 3B       		.uleb128 0x3b
 4311 0147 0B       		.uleb128 0xb
 4312 0148 49       		.uleb128 0x49
 4313 0149 13       		.uleb128 0x13
 4314 014a 02       		.uleb128 0x2
 4315 014b 18       		.uleb128 0x18
 4316 014c 00       		.byte	0
 4317 014d 00       		.byte	0
 4318 014e 1B       		.uleb128 0x1b
 4319 014f 2E       		.uleb128 0x2e
 4320 0150 01       		.byte	0x1
 4321 0151 3F       		.uleb128 0x3f
 4322 0152 19       		.uleb128 0x19
 4323 0153 03       		.uleb128 0x3
 4324 0154 0E       		.uleb128 0xe
 4325 0155 3A       		.uleb128 0x3a
 4326 0156 0B       		.uleb128 0xb
 4327 0157 3B       		.uleb128 0x3b
 4328 0158 0B       		.uleb128 0xb
 4329 0159 27       		.uleb128 0x27
 4330 015a 19       		.uleb128 0x19
 4331 015b 49       		.uleb128 0x49
 4332 015c 13       		.uleb128 0x13
 4333 015d 11       		.uleb128 0x11
ARM GAS  C:\Users\User\AppData\Local\Temp\ccR9uRpe.s 			page 88


 4334 015e 01       		.uleb128 0x1
 4335 015f 12       		.uleb128 0x12
 4336 0160 06       		.uleb128 0x6
 4337 0161 40       		.uleb128 0x40
 4338 0162 18       		.uleb128 0x18
 4339 0163 9642     		.uleb128 0x2116
 4340 0165 19       		.uleb128 0x19
 4341 0166 01       		.uleb128 0x1
 4342 0167 13       		.uleb128 0x13
 4343 0168 00       		.byte	0
 4344 0169 00       		.byte	0
 4345 016a 1C       		.uleb128 0x1c
 4346 016b 34       		.uleb128 0x34
 4347 016c 00       		.byte	0
 4348 016d 03       		.uleb128 0x3
 4349 016e 0E       		.uleb128 0xe
 4350 016f 3A       		.uleb128 0x3a
 4351 0170 0B       		.uleb128 0xb
 4352 0171 3B       		.uleb128 0x3b
 4353 0172 0B       		.uleb128 0xb
 4354 0173 49       		.uleb128 0x49
 4355 0174 13       		.uleb128 0x13
 4356 0175 02       		.uleb128 0x2
 4357 0176 18       		.uleb128 0x18
 4358 0177 00       		.byte	0
 4359 0178 00       		.byte	0
 4360 0179 1D       		.uleb128 0x1d
 4361 017a 2E       		.uleb128 0x2e
 4362 017b 01       		.byte	0x1
 4363 017c 3F       		.uleb128 0x3f
 4364 017d 19       		.uleb128 0x19
 4365 017e 03       		.uleb128 0x3
 4366 017f 0E       		.uleb128 0xe
 4367 0180 3A       		.uleb128 0x3a
 4368 0181 0B       		.uleb128 0xb
 4369 0182 3B       		.uleb128 0x3b
 4370 0183 05       		.uleb128 0x5
 4371 0184 27       		.uleb128 0x27
 4372 0185 19       		.uleb128 0x19
 4373 0186 49       		.uleb128 0x49
 4374 0187 13       		.uleb128 0x13
 4375 0188 11       		.uleb128 0x11
 4376 0189 01       		.uleb128 0x1
 4377 018a 12       		.uleb128 0x12
 4378 018b 06       		.uleb128 0x6
 4379 018c 40       		.uleb128 0x40
 4380 018d 18       		.uleb128 0x18
 4381 018e 9642     		.uleb128 0x2116
 4382 0190 19       		.uleb128 0x19
 4383 0191 01       		.uleb128 0x1
 4384 0192 13       		.uleb128 0x13
 4385 0193 00       		.byte	0
 4386 0194 00       		.byte	0
 4387 0195 1E       		.uleb128 0x1e
 4388 0196 05       		.uleb128 0x5
 4389 0197 00       		.byte	0
 4390 0198 03       		.uleb128 0x3
ARM GAS  C:\Users\User\AppData\Local\Temp\ccR9uRpe.s 			page 89


 4391 0199 0E       		.uleb128 0xe
 4392 019a 3A       		.uleb128 0x3a
 4393 019b 0B       		.uleb128 0xb
 4394 019c 3B       		.uleb128 0x3b
 4395 019d 05       		.uleb128 0x5
 4396 019e 49       		.uleb128 0x49
 4397 019f 13       		.uleb128 0x13
 4398 01a0 02       		.uleb128 0x2
 4399 01a1 18       		.uleb128 0x18
 4400 01a2 00       		.byte	0
 4401 01a3 00       		.byte	0
 4402 01a4 1F       		.uleb128 0x1f
 4403 01a5 34       		.uleb128 0x34
 4404 01a6 00       		.byte	0
 4405 01a7 03       		.uleb128 0x3
 4406 01a8 0E       		.uleb128 0xe
 4407 01a9 3A       		.uleb128 0x3a
 4408 01aa 0B       		.uleb128 0xb
 4409 01ab 3B       		.uleb128 0x3b
 4410 01ac 05       		.uleb128 0x5
 4411 01ad 49       		.uleb128 0x49
 4412 01ae 13       		.uleb128 0x13
 4413 01af 02       		.uleb128 0x2
 4414 01b0 18       		.uleb128 0x18
 4415 01b1 00       		.byte	0
 4416 01b2 00       		.byte	0
 4417 01b3 20       		.uleb128 0x20
 4418 01b4 0B       		.uleb128 0xb
 4419 01b5 01       		.byte	0x1
 4420 01b6 11       		.uleb128 0x11
 4421 01b7 01       		.uleb128 0x1
 4422 01b8 12       		.uleb128 0x12
 4423 01b9 06       		.uleb128 0x6
 4424 01ba 00       		.byte	0
 4425 01bb 00       		.byte	0
 4426 01bc 21       		.uleb128 0x21
 4427 01bd 2E       		.uleb128 0x2e
 4428 01be 01       		.byte	0x1
 4429 01bf 3F       		.uleb128 0x3f
 4430 01c0 19       		.uleb128 0x19
 4431 01c1 03       		.uleb128 0x3
 4432 01c2 0E       		.uleb128 0xe
 4433 01c3 3A       		.uleb128 0x3a
 4434 01c4 0B       		.uleb128 0xb
 4435 01c5 3B       		.uleb128 0x3b
 4436 01c6 05       		.uleb128 0x5
 4437 01c7 27       		.uleb128 0x27
 4438 01c8 19       		.uleb128 0x19
 4439 01c9 11       		.uleb128 0x11
 4440 01ca 01       		.uleb128 0x1
 4441 01cb 12       		.uleb128 0x12
 4442 01cc 06       		.uleb128 0x6
 4443 01cd 40       		.uleb128 0x40
 4444 01ce 18       		.uleb128 0x18
 4445 01cf 9642     		.uleb128 0x2116
 4446 01d1 19       		.uleb128 0x19
 4447 01d2 01       		.uleb128 0x1
ARM GAS  C:\Users\User\AppData\Local\Temp\ccR9uRpe.s 			page 90


 4448 01d3 13       		.uleb128 0x13
 4449 01d4 00       		.byte	0
 4450 01d5 00       		.byte	0
 4451 01d6 22       		.uleb128 0x22
 4452 01d7 26       		.uleb128 0x26
 4453 01d8 00       		.byte	0
 4454 01d9 49       		.uleb128 0x49
 4455 01da 13       		.uleb128 0x13
 4456 01db 00       		.byte	0
 4457 01dc 00       		.byte	0
 4458 01dd 23       		.uleb128 0x23
 4459 01de 34       		.uleb128 0x34
 4460 01df 00       		.byte	0
 4461 01e0 03       		.uleb128 0x3
 4462 01e1 0E       		.uleb128 0xe
 4463 01e2 3A       		.uleb128 0x3a
 4464 01e3 0B       		.uleb128 0xb
 4465 01e4 3B       		.uleb128 0x3b
 4466 01e5 05       		.uleb128 0x5
 4467 01e6 49       		.uleb128 0x49
 4468 01e7 13       		.uleb128 0x13
 4469 01e8 3F       		.uleb128 0x3f
 4470 01e9 19       		.uleb128 0x19
 4471 01ea 3C       		.uleb128 0x3c
 4472 01eb 19       		.uleb128 0x19
 4473 01ec 00       		.byte	0
 4474 01ed 00       		.byte	0
 4475 01ee 24       		.uleb128 0x24
 4476 01ef 34       		.uleb128 0x34
 4477 01f0 00       		.byte	0
 4478 01f1 03       		.uleb128 0x3
 4479 01f2 0E       		.uleb128 0xe
 4480 01f3 3A       		.uleb128 0x3a
 4481 01f4 0B       		.uleb128 0xb
 4482 01f5 3B       		.uleb128 0x3b
 4483 01f6 0B       		.uleb128 0xb
 4484 01f7 49       		.uleb128 0x49
 4485 01f8 13       		.uleb128 0x13
 4486 01f9 3F       		.uleb128 0x3f
 4487 01fa 19       		.uleb128 0x19
 4488 01fb 3C       		.uleb128 0x3c
 4489 01fc 19       		.uleb128 0x19
 4490 01fd 00       		.byte	0
 4491 01fe 00       		.byte	0
 4492 01ff 25       		.uleb128 0x25
 4493 0200 34       		.uleb128 0x34
 4494 0201 00       		.byte	0
 4495 0202 03       		.uleb128 0x3
 4496 0203 0E       		.uleb128 0xe
 4497 0204 3A       		.uleb128 0x3a
 4498 0205 0B       		.uleb128 0xb
 4499 0206 3B       		.uleb128 0x3b
 4500 0207 0B       		.uleb128 0xb
 4501 0208 49       		.uleb128 0x49
 4502 0209 13       		.uleb128 0x13
 4503 020a 3F       		.uleb128 0x3f
 4504 020b 19       		.uleb128 0x19
ARM GAS  C:\Users\User\AppData\Local\Temp\ccR9uRpe.s 			page 91


 4505 020c 02       		.uleb128 0x2
 4506 020d 18       		.uleb128 0x18
 4507 020e 00       		.byte	0
 4508 020f 00       		.byte	0
 4509 0210 00       		.byte	0
 4510              		.section	.debug_aranges,"",%progbits
 4511 0000 64000000 		.4byte	0x64
 4512 0004 0200     		.2byte	0x2
 4513 0006 00000000 		.4byte	.Ldebug_info0
 4514 000a 04       		.byte	0x4
 4515 000b 00       		.byte	0
 4516 000c 0000     		.2byte	0
 4517 000e 0000     		.2byte	0
 4518 0010 00000000 		.4byte	.LFB2
 4519 0014 14000000 		.4byte	.LFE2-.LFB2
 4520 0018 00000000 		.4byte	.LFB3
 4521 001c 1C000000 		.4byte	.LFE3-.LFB3
 4522 0020 00000000 		.4byte	.LFB4
 4523 0024 88000000 		.4byte	.LFE4-.LFB4
 4524 0028 00000000 		.4byte	.LFB5
 4525 002c 88000000 		.4byte	.LFE5-.LFB5
 4526 0030 00000000 		.4byte	.LFB6
 4527 0034 B8000000 		.4byte	.LFE6-.LFB6
 4528 0038 00000000 		.4byte	.LFB7
 4529 003c B8000000 		.4byte	.LFE7-.LFB7
 4530 0040 00000000 		.4byte	.LFB8
 4531 0044 00030000 		.4byte	.LFE8-.LFB8
 4532 0048 00000000 		.4byte	.LFB9
 4533 004c E4000000 		.4byte	.LFE9-.LFB9
 4534 0050 00000000 		.4byte	.LFB10
 4535 0054 FC000000 		.4byte	.LFE10-.LFB10
 4536 0058 00000000 		.4byte	.LFB11
 4537 005c D8000000 		.4byte	.LFE11-.LFB11
 4538 0060 00000000 		.4byte	0
 4539 0064 00000000 		.4byte	0
 4540              		.section	.debug_ranges,"",%progbits
 4541              	.Ldebug_ranges0:
 4542 0000 00000000 		.4byte	.LFB2
 4543 0004 14000000 		.4byte	.LFE2
 4544 0008 00000000 		.4byte	.LFB3
 4545 000c 1C000000 		.4byte	.LFE3
 4546 0010 00000000 		.4byte	.LFB4
 4547 0014 88000000 		.4byte	.LFE4
 4548 0018 00000000 		.4byte	.LFB5
 4549 001c 88000000 		.4byte	.LFE5
 4550 0020 00000000 		.4byte	.LFB6
 4551 0024 B8000000 		.4byte	.LFE6
 4552 0028 00000000 		.4byte	.LFB7
 4553 002c B8000000 		.4byte	.LFE7
 4554 0030 00000000 		.4byte	.LFB8
 4555 0034 00030000 		.4byte	.LFE8
 4556 0038 00000000 		.4byte	.LFB9
 4557 003c E4000000 		.4byte	.LFE9
 4558 0040 00000000 		.4byte	.LFB10
 4559 0044 FC000000 		.4byte	.LFE10
 4560 0048 00000000 		.4byte	.LFB11
 4561 004c D8000000 		.4byte	.LFE11
ARM GAS  C:\Users\User\AppData\Local\Temp\ccR9uRpe.s 			page 92


 4562 0050 00000000 		.4byte	0
 4563 0054 00000000 		.4byte	0
 4564              		.section	.debug_line,"",%progbits
 4565              	.Ldebug_line0:
 4566 0000 54020000 		.section	.debug_str,"MS",%progbits,1
 4566      0200DB00 
 4566      00000201 
 4566      FB0E0D00 
 4566      01010101 
 4567              	.LASF547:
 4568 0000 6379426C 		.ascii	"cyBle_peerBonding\000"
 4568      655F7065 
 4568      6572426F 
 4568      6E64696E 
 4568      6700
 4569              	.LASF487:
 4570 0012 4359424C 		.ascii	"CYBLE_EVT_UDSC_READ_CHAR_RESPONSE\000"
 4570      455F4556 
 4570      545F5544 
 4570      53435F52 
 4570      4541445F 
 4571              	.LASF446:
 4572 0034 4359424C 		.ascii	"CYBLE_EVT_PLXSC_NOTIFICATION\000"
 4572      455F4556 
 4572      545F504C 
 4572      5853435F 
 4572      4E4F5449 
 4573              	.LASF397:
 4574 0051 4359424C 		.ascii	"CYBLE_EVT_HTSS_NOTIFICATION_DISABLED\000"
 4574      455F4556 
 4574      545F4854 
 4574      53535F4E 
 4574      4F544946 
 4575              	.LASF151:
 4576 0076 4359424C 		.ascii	"CYBLE_GATT_ERR_INVALID_CRC\000"
 4576      455F4741 
 4576      54545F45 
 4576      52525F49 
 4576      4E56414C 
 4577              	.LASF201:
 4578 0091 4359424C 		.ascii	"CYBLE_DIS_CHAR_COUNT\000"
 4578      455F4449 
 4578      535F4348 
 4578      41525F43 
 4578      4F554E54 
 4579              	.LASF16:
 4580 00a6 73697A65 		.ascii	"sizetype\000"
 4580      74797065 
 4580      00
 4581              	.LASF537:
 4582 00af 75707065 		.ascii	"upperValue\000"
 4582      7256616C 
 4582      756500
 4583              	.LASF278:
 4584 00ba 4359424C 		.ascii	"CYBLE_EVT_BCSC_READ_CHAR_RESPONSE\000"
 4584      455F4556 
 4584      545F4243 
ARM GAS  C:\Users\User\AppData\Local\Temp\ccR9uRpe.s 			page 93


 4584      53435F52 
 4584      4541445F 
 4585              	.LASF172:
 4586 00dc 4359424C 		.ascii	"CYBLE_GATTS_HANDLE_VALUE_NTF_T\000"
 4586      455F4741 
 4586      5454535F 
 4586      48414E44 
 4586      4C455F56 
 4587              	.LASF301:
 4588 00fb 4359424C 		.ascii	"CYBLE_EVT_CGMSC_INDICATION\000"
 4588      455F4556 
 4588      545F4347 
 4588      4D53435F 
 4588      494E4449 
 4589              	.LASF319:
 4590 0116 4359424C 		.ascii	"CYBLE_EVT_CPSC_READ_DESCR_RESPONSE\000"
 4590      455F4556 
 4590      545F4350 
 4590      53435F52 
 4590      4541445F 
 4591              	.LASF450:
 4592 0139 4359424C 		.ascii	"CYBLE_EVT_PLXSC_READ_DESCR_RESPONSE\000"
 4592      455F4556 
 4592      545F504C 
 4592      5853435F 
 4592      52454144 
 4593              	.LASF464:
 4594 015d 4359424C 		.ascii	"CYBLE_EVT_RTUSS_WRITE_CHAR_CMD\000"
 4594      455F4556 
 4594      545F5254 
 4594      5553535F 
 4594      57524954 
 4595              	.LASF218:
 4596 017c 63686172 		.ascii	"charIndex\000"
 4596      496E6465 
 4596      7800
 4597              	.LASF498:
 4598 0186 4359424C 		.ascii	"CYBLE_EVT_WPTSC_NOTIFICATION\000"
 4598      455F4556 
 4598      545F5750 
 4598      5453435F 
 4598      4E4F5449 
 4599              	.LASF543:
 4600 01a3 4379426C 		.ascii	"CyBle_HtsApplCallback\000"
 4600      655F4874 
 4600      73417070 
 4600      6C43616C 
 4600      6C626163 
 4601              	.LASF37:
 4602 01b9 4359424C 		.ascii	"CYBLE_EVT_GAP_NUMERIC_COMPARISON_REQUEST\000"
 4602      455F4556 
 4602      545F4741 
 4602      505F4E55 
 4602      4D455249 
 4603              	.LASF245:
 4604 01e2 4359424C 		.ascii	"CYBLE_EVT_AIOSC_NOTIFICATION\000"
 4604      455F4556 
ARM GAS  C:\Users\User\AppData\Local\Temp\ccR9uRpe.s 			page 94


 4604      545F4149 
 4604      4F53435F 
 4604      4E4F5449 
 4605              	.LASF504:
 4606 01ff 4359424C 		.ascii	"CYBLE_EVT_WSSS_INDICATION_ENABLED\000"
 4606      455F4556 
 4606      545F5753 
 4606      53535F49 
 4606      4E444943 
 4607              	.LASF317:
 4608 0221 4359424C 		.ascii	"CYBLE_EVT_CPSC_READ_CHAR_RESPONSE\000"
 4608      455F4556 
 4608      545F4350 
 4608      53435F52 
 4608      4541445F 
 4609              	.LASF330:
 4610 0243 4359424C 		.ascii	"CYBLE_EVT_CSCSC_READ_CHAR_RESPONSE\000"
 4610      455F4556 
 4610      545F4353 
 4610      4353435F 
 4610      52454144 
 4611              	.LASF306:
 4612 0266 4359424C 		.ascii	"CYBLE_EVT_CGMSC_WRITE_DESCR_RESPONSE\000"
 4612      455F4556 
 4612      545F4347 
 4612      4D53435F 
 4612      57524954 
 4613              	.LASF360:
 4614 028b 4359424C 		.ascii	"CYBLE_EVT_GLSS_NOTIFICATION_DISABLED\000"
 4614      455F4556 
 4614      545F474C 
 4614      53535F4E 
 4614      4F544946 
 4615              	.LASF529:
 4616 02b0 6576656E 		.ascii	"eventParam\000"
 4616      74506172 
 4616      616D00
 4617              	.LASF288:
 4618 02bb 4359424C 		.ascii	"CYBLE_EVT_BLSC_READ_CHAR_RESPONSE\000"
 4618      455F4556 
 4618      545F424C 
 4618      53435F52 
 4618      4541445F 
 4619              	.LASF31:
 4620 02dd 4359424C 		.ascii	"CYBLE_EVT_GAP_DEVICE_CONNECTED\000"
 4620      455F4556 
 4620      545F4741 
 4620      505F4445 
 4620      56494345 
 4621              	.LASF419:
 4622 02fc 4359424C 		.ascii	"CYBLE_EVT_LLSC_WRITE_CHAR_RESPONSE\000"
 4622      455F4556 
 4622      545F4C4C 
 4622      53435F57 
 4622      52495445 
 4623              	.LASF523:
 4624 031f 4379426C 		.ascii	"CyBle_HtssSetCharacteristicValue\000"
ARM GAS  C:\Users\User\AppData\Local\Temp\ccR9uRpe.s 			page 95


 4624      655F4874 
 4624      73735365 
 4624      74436861 
 4624      72616374 
 4625              	.LASF49:
 4626 0340 4359424C 		.ascii	"CYBLE_EVT_GATT_CONNECT_IND\000"
 4626      455F4556 
 4626      545F4741 
 4626      54545F43 
 4626      4F4E4E45 
 4627              	.LASF519:
 4628 035b 61747472 		.ascii	"attrSize\000"
 4628      53697A65 
 4628      00
 4629              	.LASF209:
 4630 0364 4359424C 		.ascii	"CYBLE_HTS_VRD\000"
 4630      455F4854 
 4630      535F5652 
 4630      4400
 4631              	.LASF11:
 4632 0372 75696E74 		.ascii	"uint32\000"
 4632      333200
 4633              	.LASF538:
 4634 0379 4379426C 		.ascii	"CyBle_HtssSendNotification\000"
 4634      655F4874 
 4634      73735365 
 4634      6E644E6F 
 4634      74696669 
 4635              	.LASF230:
 4636 0394 4359424C 		.ascii	"CYBLE_EVT_GATTC_DESCR_DISCOVERY_FAILED\000"
 4636      455F4556 
 4636      545F4741 
 4636      5454435F 
 4636      44455343 
 4637              	.LASF463:
 4638 03bb 4359424C 		.ascii	"CYBLE_EVT_RSCSC_WRITE_DESCR_RESPONSE\000"
 4638      455F4556 
 4638      545F5253 
 4638      4353435F 
 4638      57524954 
 4639              	.LASF276:
 4640 03e0 4359424C 		.ascii	"CYBLE_EVT_BCSS_INDICATION_CONFIRMED\000"
 4640      455F4556 
 4640      545F4243 
 4640      53535F49 
 4640      4E444943 
 4641              	.LASF277:
 4642 0404 4359424C 		.ascii	"CYBLE_EVT_BCSC_INDICATION\000"
 4642      455F4556 
 4642      545F4243 
 4642      53435F49 
 4642      4E444943 
 4643              	.LASF421:
 4644 041e 4359424C 		.ascii	"CYBLE_EVT_LNSS_INDICATION_DISABLED\000"
 4644      455F4556 
 4644      545F4C4E 
 4644      53535F49 
ARM GAS  C:\Users\User\AppData\Local\Temp\ccR9uRpe.s 			page 96


 4644      4E444943 
 4645              	.LASF338:
 4646 0441 4359424C 		.ascii	"CYBLE_EVT_CTSC_READ_CHAR_RESPONSE\000"
 4646      455F4556 
 4646      545F4354 
 4646      53435F52 
 4646      4541445F 
 4647              	.LASF234:
 4648 0463 4359424C 		.ascii	"CYBLE_EVT_GATTC_SRVC_DISCOVERY_COMPLETE\000"
 4648      455F4556 
 4648      545F4741 
 4648      5454435F 
 4648      53525643 
 4649              	.LASF457:
 4650 048b 4359424C 		.ascii	"CYBLE_EVT_RSCSS_CHAR_WRITE\000"
 4650      455F4556 
 4650      545F5253 
 4650      4353535F 
 4650      43484152 
 4651              	.LASF447:
 4652 04a6 4359424C 		.ascii	"CYBLE_EVT_PLXSC_INDICATION\000"
 4652      455F4556 
 4652      545F504C 
 4652      5853435F 
 4652      494E4449 
 4653              	.LASF490:
 4654 04c1 4359424C 		.ascii	"CYBLE_EVT_UDSC_WRITE_DESCR_RESPONSE\000"
 4654      455F4556 
 4654      545F5544 
 4654      53435F57 
 4654      52495445 
 4655              	.LASF379:
 4656 04e5 4359424C 		.ascii	"CYBLE_EVT_HIDSC_WRITE_DESCR_RESPONSE\000"
 4656      455F4556 
 4656      545F4849 
 4656      4453435F 
 4656      57524954 
 4657              	.LASF472:
 4658 050a 4359424C 		.ascii	"CYBLE_EVT_TPSS_NOTIFICATION_ENABLED\000"
 4658      455F4556 
 4658      545F5450 
 4658      53535F4E 
 4658      4F544946 
 4659              	.LASF266:
 4660 052e 4359424C 		.ascii	"CYBLE_EVT_ANSC_READ_DESCR_RESPONSE\000"
 4660      455F4556 
 4660      545F414E 
 4660      53435F52 
 4660      4541445F 
 4661              	.LASF125:
 4662 0551 4359424C 		.ascii	"CYBLE_GATT_ERR_READ_NOT_PERMITTED\000"
 4662      455F4741 
 4662      54545F45 
 4662      52525F52 
 4662      4541445F 
 4663              	.LASF140:
 4664 0573 4359424C 		.ascii	"CYBLE_GATT_ERR_INSUFFICIENT_RESOURCE\000"
ARM GAS  C:\Users\User\AppData\Local\Temp\ccR9uRpe.s 			page 97


 4664      455F4741 
 4664      54545F45 
 4664      52525F49 
 4664      4E535546 
 4665              	.LASF208:
 4666 0598 4359424C 		.ascii	"CYBLE_HTS_CCCD\000"
 4666      455F4854 
 4666      535F4343 
 4666      434400
 4667              	.LASF139:
 4668 05a7 4359424C 		.ascii	"CYBLE_GATT_ERR_UNSUPPORTED_GROUP_TYPE\000"
 4668      455F4741 
 4668      54545F45 
 4668      52525F55 
 4668      4E535550 
 4669              	.LASF105:
 4670 05cd 4359424C 		.ascii	"CYBLE_ERROR_L2CAP_CONNECTION_ENTITY_NOT_FOUND\000"
 4670      455F4552 
 4670      524F525F 
 4670      4C324341 
 4670      505F434F 
 4671              	.LASF111:
 4672 05fb 4359424C 		.ascii	"CYBLE_ERROR_MIC_AUTH_FAILED\000"
 4672      455F4552 
 4672      524F525F 
 4672      4D49435F 
 4672      41555448 
 4673              	.LASF229:
 4674 0617 4359424C 		.ascii	"CYBLE_EVT_GATTC_CHAR_DISCOVERY_FAILED\000"
 4674      455F4556 
 4674      545F4741 
 4674      5454435F 
 4674      43484152 
 4675              	.LASF69:
 4676 063d 4359424C 		.ascii	"CYBLE_EVT_GATTS_DATA_SIGNED_CMD_REQ\000"
 4676      455F4556 
 4676      545F4741 
 4676      5454535F 
 4676      44415441 
 4677              	.LASF81:
 4678 0661 4359424C 		.ascii	"CYBLE_EVT_L2CAP_CBFC_RX_CREDIT_IND\000"
 4678      455F4556 
 4678      545F4C32 
 4678      4341505F 
 4678      43424643 
 4679              	.LASF168:
 4680 0684 4359424C 		.ascii	"CYBLE_GATT_VALUE_T\000"
 4680      455F4741 
 4680      54545F56 
 4680      414C5545 
 4680      5F5400
 4681              	.LASF324:
 4682 0697 4359424C 		.ascii	"CYBLE_EVT_CSCSS_INDICATION_ENABLED\000"
 4682      455F4556 
 4682      545F4353 
 4682      4353535F 
 4682      494E4449 
ARM GAS  C:\Users\User\AppData\Local\Temp\ccR9uRpe.s 			page 98


 4683              	.LASF187:
 4684 06ba 7065726D 		.ascii	"permission\000"
 4684      69737369 
 4684      6F6E00
 4685              	.LASF426:
 4686 06c5 4359424C 		.ascii	"CYBLE_EVT_LNSC_INDICATION\000"
 4686      455F4556 
 4686      545F4C4E 
 4686      53435F49 
 4686      4E444943 
 4687              	.LASF141:
 4688 06df 4359424C 		.ascii	"CYBLE_GATT_ERR_TRIGGER_CODITION_VALUE_NOT_SUPPORTED"
 4688      455F4741 
 4688      54545F45 
 4688      52525F54 
 4688      52494747 
 4689 0712 00       		.ascii	"\000"
 4690              	.LASF437:
 4691 0713 4359424C 		.ascii	"CYBLE_EVT_PASSC_READ_CHAR_RESPONSE\000"
 4691      455F4556 
 4691      545F5041 
 4691      5353435F 
 4691      52454144 
 4692              	.LASF281:
 4693 0736 4359424C 		.ascii	"CYBLE_EVT_BLSS_INDICATION_ENABLED\000"
 4693      455F4556 
 4693      545F424C 
 4693      53535F49 
 4693      4E444943 
 4694              	.LASF287:
 4695 0758 4359424C 		.ascii	"CYBLE_EVT_BLSC_NOTIFICATION\000"
 4695      455F4556 
 4695      545F424C 
 4695      53435F4E 
 4695      4F544946 
 4696              	.LASF191:
 4697 0774 4359424C 		.ascii	"CYBLE_CALLBACK_T\000"
 4697      455F4341 
 4697      4C4C4241 
 4697      434B5F54 
 4697      00
 4698              	.LASF329:
 4699 0785 4359424C 		.ascii	"CYBLE_EVT_CSCSC_INDICATION\000"
 4699      455F4556 
 4699      545F4353 
 4699      4353435F 
 4699      494E4449 
 4700              	.LASF196:
 4701 07a0 4359424C 		.ascii	"CYBLE_DIS_FIRMWARE_REV\000"
 4701      455F4449 
 4701      535F4649 
 4701      524D5741 
 4701      52455F52 
 4702              	.LASF66:
 4703 07b7 4359424C 		.ascii	"CYBLE_EVT_GATTC_HANDLE_VALUE_NTF\000"
 4703      455F4556 
 4703      545F4741 
ARM GAS  C:\Users\User\AppData\Local\Temp\ccR9uRpe.s 			page 99


 4703      5454435F 
 4703      48414E44 
 4704              	.LASF25:
 4705 07d8 4359424C 		.ascii	"CYBLE_EVT_GAP_AUTH_REQ\000"
 4705      455F4556 
 4705      545F4741 
 4705      505F4155 
 4705      54485F52 
 4706              	.LASF236:
 4707 07ef 4359424C 		.ascii	"CYBLE_EVT_GATTC_CHAR_DISCOVERY_COMPLETE\000"
 4707      455F4556 
 4707      545F4741 
 4707      5454435F 
 4707      43484152 
 4708              	.LASF166:
 4709 0817 4359424C 		.ascii	"CYBLE_CONN_HANDLE_T\000"
 4709      455F434F 
 4709      4E4E5F48 
 4709      414E444C 
 4709      455F5400 
 4710              	.LASF393:
 4711 082b 4359424C 		.ascii	"CYBLE_EVT_HRSC_WRITE_CHAR_RESPONSE\000"
 4711      455F4556 
 4711      545F4852 
 4711      53435F57 
 4711      52495445 
 4712              	.LASF100:
 4713 084e 4359424C 		.ascii	"CYBLE_ERROR_BT_ON_NOT_COMPLETED\000"
 4713      455F4552 
 4713      524F525F 
 4713      42545F4F 
 4713      4E5F4E4F 
 4714              	.LASF328:
 4715 086e 4359424C 		.ascii	"CYBLE_EVT_CSCSC_NOTIFICATION\000"
 4715      455F4556 
 4715      545F4353 
 4715      4353435F 
 4715      4E4F5449 
 4716              	.LASF485:
 4717 088b 4359424C 		.ascii	"CYBLE_EVT_UDSC_INDICATION\000"
 4717      455F4556 
 4717      545F5544 
 4717      53435F49 
 4717      4E444943 
 4718              	.LASF409:
 4719 08a5 4359424C 		.ascii	"CYBLE_EVT_IPSS_WRITE_CHAR\000"
 4719      455F4556 
 4719      545F4950 
 4719      53535F57 
 4719      52495445 
 4720              	.LASF46:
 4721 08bf 4359424C 		.ascii	"CYBLE_EVT_GAP_AUTH_REQ_REPLY_ERR\000"
 4721      455F4556 
 4721      545F4741 
 4721      505F4155 
 4721      54485F52 
 4722              	.LASF292:
ARM GAS  C:\Users\User\AppData\Local\Temp\ccR9uRpe.s 			page 100


 4723 08e0 4359424C 		.ascii	"CYBLE_EVT_BMSC_READ_CHAR_RESPONSE\000"
 4723      455F4556 
 4723      545F424D 
 4723      53435F52 
 4723      4541445F 
 4724              	.LASF515:
 4725 0902 4359424C 		.ascii	"CYBLE_STATE_ADVERTISING\000"
 4725      455F5354 
 4725      4154455F 
 4725      41445645 
 4725      52544953 
 4726              	.LASF39:
 4727 091a 4359424C 		.ascii	"CYBLE_EVT_GAP_OOB_GENERATED_NOTIFICATION\000"
 4727      455F4556 
 4727      545F4741 
 4727      505F4F4F 
 4727      425F4745 
 4728              	.LASF213:
 4729 0943 64657363 		.ascii	"descrHandle\000"
 4729      7248616E 
 4729      646C6500 
 4730              	.LASF164:
 4731 094f 62644861 		.ascii	"bdHandle\000"
 4731      6E646C65 
 4731      00
 4732              	.LASF153:
 4733 0958 4359424C 		.ascii	"CYBLE_GATTS_ERR_NETWORK_NOT_AVAILABLE\000"
 4733      455F4741 
 4733      5454535F 
 4733      4552525F 
 4733      4E455457 
 4734              	.LASF297:
 4735 097e 4359424C 		.ascii	"CYBLE_EVT_CGMSS_INDICATION_CONFIRMED\000"
 4735      455F4556 
 4735      545F4347 
 4735      4D53535F 
 4735      494E4449 
 4736              	.LASF156:
 4737 09a3 4359424C 		.ascii	"CYBLE_GATT_ERR_ANCS_INVALID_COMMAND\000"
 4737      455F4741 
 4737      54545F45 
 4737      52525F41 
 4737      4E43535F 
 4738              	.LASF289:
 4739 09c7 4359424C 		.ascii	"CYBLE_EVT_BLSC_READ_DESCR_RESPONSE\000"
 4739      455F4556 
 4739      545F424C 
 4739      53435F52 
 4739      4541445F 
 4740              	.LASF449:
 4741 09ea 4359424C 		.ascii	"CYBLE_EVT_PLXSC_WRITE_CHAR_RESPONSE\000"
 4741      455F4556 
 4741      545F504C 
 4741      5853435F 
 4741      57524954 
 4742              	.LASF310:
 4743 0a0e 4359424C 		.ascii	"CYBLE_EVT_CPSS_INDICATION_DISABLED\000"
ARM GAS  C:\Users\User\AppData\Local\Temp\ccR9uRpe.s 			page 101


 4743      455F4556 
 4743      545F4350 
 4743      53535F49 
 4743      4E444943 
 4744              	.LASF309:
 4745 0a31 4359424C 		.ascii	"CYBLE_EVT_CPSS_INDICATION_ENABLED\000"
 4745      455F4556 
 4745      545F4350 
 4745      53535F49 
 4745      4E444943 
 4746              	.LASF423:
 4747 0a53 4359424C 		.ascii	"CYBLE_EVT_LNSS_NOTIFICATION_ENABLED\000"
 4747      455F4556 
 4747      545F4C4E 
 4747      53535F4E 
 4747      4F544946 
 4748              	.LASF62:
 4749 0a77 4359424C 		.ascii	"CYBLE_EVT_GATTS_WRITE_CMD_REQ\000"
 4749      455F4556 
 4749      545F4741 
 4749      5454535F 
 4749      57524954 
 4750              	.LASF320:
 4751 0a95 4359424C 		.ascii	"CYBLE_EVT_CPSC_WRITE_DESCR_RESPONSE\000"
 4751      455F4556 
 4751      545F4350 
 4751      53435F57 
 4751      52495445 
 4752              	.LASF82:
 4753 0ab9 4359424C 		.ascii	"CYBLE_EVT_L2CAP_CBFC_TX_CREDIT_IND\000"
 4753      455F4556 
 4753      545F4C32 
 4753      4341505F 
 4753      43424643 
 4754              	.LASF4:
 4755 0adc 6C6F6E67 		.ascii	"long int\000"
 4755      20696E74 
 4755      00
 4756              	.LASF219:
 4757 0ae5 4359424C 		.ascii	"CYBLE_HTS_CHAR_VALUE_T\000"
 4757      455F4854 
 4757      535F4348 
 4757      41525F56 
 4757      414C5545 
 4758              	.LASF325:
 4759 0afc 4359424C 		.ascii	"CYBLE_EVT_CSCSS_INDICATION_DISABLED\000"
 4759      455F4556 
 4759      545F4353 
 4759      4353535F 
 4759      494E4449 
 4760              	.LASF204:
 4761 0b20 4359424C 		.ascii	"CYBLE_HTS_INTERM_TEMP\000"
 4761      455F4854 
 4761      535F494E 
 4761      5445524D 
 4761      5F54454D 
 4762              	.LASF480:
ARM GAS  C:\Users\User\AppData\Local\Temp\ccR9uRpe.s 			page 102


 4763 0b36 4359424C 		.ascii	"CYBLE_EVT_UDSS_INDICATION_CONFIRMED\000"
 4763      455F4556 
 4763      545F5544 
 4763      53535F49 
 4763      4E444943 
 4764              	.LASF222:
 4765 0b5a 4359424C 		.ascii	"CYBLE_LONG_TERM_KEY_REQUEST_REPLY\000"
 4765      455F4C4F 
 4765      4E475F54 
 4765      45524D5F 
 4765      4B45595F 
 4766              	.LASF18:
 4767 0b7c 4359424C 		.ascii	"CYBLE_EVT_STACK_ON\000"
 4767      455F4556 
 4767      545F5354 
 4767      41434B5F 
 4767      4F4E00
 4768              	.LASF107:
 4769 0b8f 4359424C 		.ascii	"CYBLE_ERROR_L2CAP_PSM_NOT_IN_RANGE\000"
 4769      455F4552 
 4769      524F525F 
 4769      4C324341 
 4769      505F5053 
 4770              	.LASF195:
 4771 0bb2 4359424C 		.ascii	"CYBLE_DIS_HARDWARE_REV\000"
 4771      455F4449 
 4771      535F4841 
 4771      52445741 
 4771      52455F52 
 4772              	.LASF275:
 4773 0bc9 4359424C 		.ascii	"CYBLE_EVT_BCSS_INDICATION_DISABLED\000"
 4773      455F4556 
 4773      545F4243 
 4773      53535F49 
 4773      4E444943 
 4774              	.LASF518:
 4775 0bec 63616C6C 		.ascii	"callbackFunc\000"
 4775      6261636B 
 4775      46756E63 
 4775      00
 4776              	.LASF355:
 4777 0bf9 4359424C 		.ascii	"CYBLE_EVT_ESSC_WRITE_DESCR_RESPONSE\000"
 4777      455F4556 
 4777      545F4553 
 4777      53435F57 
 4777      52495445 
 4778              	.LASF152:
 4779 0c1d 4359424C 		.ascii	"CYBLE_GATTS_ERR_HPS_INVALID_REQUEST\000"
 4779      455F4741 
 4779      5454535F 
 4779      4552525F 
 4779      4850535F 
 4780              	.LASF412:
 4781 0c41 4359424C 		.ascii	"CYBLE_EVT_IPSC_WRITE_CHAR_RESPONSE\000"
 4781      455F4556 
 4781      545F4950 
 4781      53435F57 
ARM GAS  C:\Users\User\AppData\Local\Temp\ccR9uRpe.s 			page 103


 4781      52495445 
 4782              	.LASF215:
 4783 0c64 73657276 		.ascii	"serviceHandle\000"
 4783      69636548 
 4783      616E646C 
 4783      6500
 4784              	.LASF396:
 4785 0c72 4359424C 		.ascii	"CYBLE_EVT_HTSS_NOTIFICATION_ENABLED\000"
 4785      455F4556 
 4785      545F4854 
 4785      53535F4E 
 4785      4F544946 
 4786              	.LASF127:
 4787 0c96 4359424C 		.ascii	"CYBLE_GATT_ERR_INVALID_PDU\000"
 4787      455F4741 
 4787      54545F45 
 4787      52525F49 
 4787      4E56414C 
 4788              	.LASF119:
 4789 0cb1 4359424C 		.ascii	"CYBLE_ERROR_CHAR_IS_NOT_DISCOVERED\000"
 4789      455F4552 
 4789      524F525F 
 4789      43484152 
 4789      5F49535F 
 4790              	.LASF483:
 4791 0cd4 4359424C 		.ascii	"CYBLE_EVT_UDSS_READ_CHAR\000"
 4791      455F4556 
 4791      545F5544 
 4791      53535F52 
 4791      4541445F 
 4792              	.LASF241:
 4793 0ced 4359424C 		.ascii	"CYBLE_EVT_AIOSS_INDICATION_DISABLED\000"
 4793      455F4556 
 4793      545F4149 
 4793      4F53535F 
 4793      494E4449 
 4794              	.LASF171:
 4795 0d11 4359424C 		.ascii	"CYBLE_GATT_HANDLE_VALUE_PAIR_T\000"
 4795      455F4741 
 4795      54545F48 
 4795      414E444C 
 4795      455F5641 
 4796              	.LASF186:
 4797 0d30 61747454 		.ascii	"attType\000"
 4797      79706500 
 4798              	.LASF352:
 4799 0d38 4359424C 		.ascii	"CYBLE_EVT_ESSC_READ_CHAR_RESPONSE\000"
 4799      455F4556 
 4799      545F4553 
 4799      53435F52 
 4799      4541445F 
 4800              	.LASF375:
 4801 0d5a 4359424C 		.ascii	"CYBLE_EVT_HIDSC_NOTIFICATION\000"
 4801      455F4556 
 4801      545F4849 
 4801      4453435F 
 4801      4E4F5449 
ARM GAS  C:\Users\User\AppData\Local\Temp\ccR9uRpe.s 			page 104


 4802              	.LASF75:
 4803 0d77 4359424C 		.ascii	"CYBLE_EVT_L2CAP_COMMAND_REJ\000"
 4803      455F4556 
 4803      545F4C32 
 4803      4341505F 
 4803      434F4D4D 
 4804              	.LASF238:
 4805 0d93 4359424C 		.ascii	"CYBLE_EVT_AIOSS_NOTIFICATION_ENABLED\000"
 4805      455F4556 
 4805      545F4149 
 4805      4F53535F 
 4805      4E4F5449 
 4806              	.LASF136:
 4807 0db8 4359424C 		.ascii	"CYBLE_GATT_ERR_INVALID_ATTRIBUTE_LEN\000"
 4807      455F4741 
 4807      54545F45 
 4807      52525F49 
 4807      4E56414C 
 4808              	.LASF372:
 4809 0ddd 4359424C 		.ascii	"CYBLE_EVT_HIDSS_SUSPEND\000"
 4809      455F4556 
 4809      545F4849 
 4809      4453535F 
 4809      53555350 
 4810              	.LASF108:
 4811 0df5 4359424C 		.ascii	"CYBLE_ERROR_GATT_DB_INVALID_ATTR_HANDLE\000"
 4811      455F4552 
 4811      524F525F 
 4811      47415454 
 4811      5F44425F 
 4812              	.LASF0:
 4813 0e1d 7369676E 		.ascii	"signed char\000"
 4813      65642063 
 4813      68617200 
 4814              	.LASF279:
 4815 0e29 4359424C 		.ascii	"CYBLE_EVT_BCSC_READ_DESCR_RESPONSE\000"
 4815      455F4556 
 4815      545F4243 
 4815      53435F52 
 4815      4541445F 
 4816              	.LASF510:
 4817 0e4c 4359424C 		.ascii	"CYBLE_EVT_WSSC_WRITE_DESCR_RESPONSE\000"
 4817      455F4556 
 4817      545F5753 
 4817      53435F57 
 4817      52495445 
 4818              	.LASF272:
 4819 0e70 4359424C 		.ascii	"CYBLE_EVT_BASC_READ_DESCR_RESPONSE\000"
 4819      455F4556 
 4819      545F4241 
 4819      53435F52 
 4819      4541445F 
 4820              	.LASF20:
 4821 0e93 4359424C 		.ascii	"CYBLE_EVT_HARDWARE_ERROR\000"
 4821      455F4556 
 4821      545F4841 
 4821      52445741 
ARM GAS  C:\Users\User\AppData\Local\Temp\ccR9uRpe.s 			page 105


 4821      52455F45 
 4822              	.LASF89:
 4823 0eac 4359424C 		.ascii	"CYBLE_ERROR_OK\000"
 4823      455F4552 
 4823      524F525F 
 4823      4F4B00
 4824              	.LASF531:
 4825 0ebb 6C6F6343 		.ascii	"locCharValue\000"
 4825      68617256 
 4825      616C7565 
 4825      00
 4826              	.LASF53:
 4827 0ec8 4359424C 		.ascii	"CYBLE_EVT_GATTC_READ_BY_GROUP_TYPE_RSP\000"
 4827      455F4556 
 4827      545F4741 
 4827      5454435F 
 4827      52454144 
 4828              	.LASF512:
 4829 0eef 4359424C 		.ascii	"CYBLE_STATE_STOPPED\000"
 4829      455F5354 
 4829      4154455F 
 4829      53544F50 
 4829      50454400 
 4830              	.LASF454:
 4831 0f03 4359424C 		.ascii	"CYBLE_EVT_RSCSS_INDICATION_ENABLED\000"
 4831      455F4556 
 4831      545F5253 
 4831      4353535F 
 4831      494E4449 
 4832              	.LASF1:
 4833 0f26 756E7369 		.ascii	"unsigned char\000"
 4833      676E6564 
 4833      20636861 
 4833      7200
 4834              	.LASF52:
 4835 0f34 4359424C 		.ascii	"CYBLE_EVT_GATTC_XCHNG_MTU_RSP\000"
 4835      455F4556 
 4835      545F4741 
 4835      5454435F 
 4835      5843484E 
 4836              	.LASF311:
 4837 0f52 4359424C 		.ascii	"CYBLE_EVT_CPSS_INDICATION_CONFIRMED\000"
 4837      455F4556 
 4837      545F4350 
 4837      53535F49 
 4837      4E444943 
 4838              	.LASF210:
 4839 0f76 4359424C 		.ascii	"CYBLE_HTS_DESCR_COUNT\000"
 4839      455F4854 
 4839      535F4445 
 4839      5343525F 
 4839      434F554E 
 4840              	.LASF308:
 4841 0f8c 4359424C 		.ascii	"CYBLE_EVT_CPSS_NOTIFICATION_DISABLED\000"
 4841      455F4556 
 4841      545F4350 
 4841      53535F4E 
ARM GAS  C:\Users\User\AppData\Local\Temp\ccR9uRpe.s 			page 106


 4841      4F544946 
 4842              	.LASF459:
 4843 0fb1 4359424C 		.ascii	"CYBLE_EVT_RSCSC_INDICATION\000"
 4843      455F4556 
 4843      545F5253 
 4843      4353435F 
 4843      494E4449 
 4844              	.LASF509:
 4845 0fcc 4359424C 		.ascii	"CYBLE_EVT_WSSC_READ_DESCR_RESPONSE\000"
 4845      455F4556 
 4845      545F5753 
 4845      53435F52 
 4845      4541445F 
 4846              	.LASF495:
 4847 0fef 4359424C 		.ascii	"CYBLE_EVT_WPTSS_INDICATION_DISABLED\000"
 4847      455F4556 
 4847      545F5750 
 4847      5453535F 
 4847      494E4449 
 4848              	.LASF43:
 4849 1013 4359424C 		.ascii	"CYBLE_EVT_GAP_SMP_NEGOTIATED_AUTH_INFO\000"
 4849      455F4556 
 4849      545F4741 
 4849      505F534D 
 4849      505F4E45 
 4850              	.LASF44:
 4851 103a 4359424C 		.ascii	"CYBLE_EVT_GAP_CONN_ESTB\000"
 4851      455F4556 
 4851      545F4741 
 4851      505F434F 
 4851      4E4E5F45 
 4852              	.LASF185:
 4853 1052 61747448 		.ascii	"attHandle\000"
 4853      616E646C 
 4853      6500
 4854              	.LASF226:
 4855 105c 4359424C 		.ascii	"CYBLE_EVT_GATTC_INDICATION\000"
 4855      455F4556 
 4855      545F4741 
 4855      5454435F 
 4855      494E4449 
 4856              	.LASF380:
 4857 1077 4359424C 		.ascii	"CYBLE_EVT_HPSS_NOTIFICATION_ENABLED\000"
 4857      455F4556 
 4857      545F4850 
 4857      53535F4E 
 4857      4F544946 
 4858              	.LASF466:
 4859 109b 4359424C 		.ascii	"CYBLE_EVT_SCPSS_NOTIFICATION_ENABLED\000"
 4859      455F4556 
 4859      545F5343 
 4859      5053535F 
 4859      4E4F5449 
 4860              	.LASF410:
 4861 10c0 4359424C 		.ascii	"CYBLE_EVT_IPSC_READ_CHAR_RESPONSE\000"
 4861      455F4556 
 4861      545F4950 
ARM GAS  C:\Users\User\AppData\Local\Temp\ccR9uRpe.s 			page 107


 4861      53435F52 
 4861      4541445F 
 4862              	.LASF79:
 4863 10e2 4359424C 		.ascii	"CYBLE_EVT_L2CAP_CBFC_DISCONN_CNF\000"
 4863      455F4556 
 4863      545F4C32 
 4863      4341505F 
 4863      43424643 
 4864              	.LASF56:
 4865 1103 4359424C 		.ascii	"CYBLE_EVT_GATTC_FIND_BY_TYPE_VALUE_RSP\000"
 4865      455F4556 
 4865      545F4741 
 4865      5454435F 
 4865      46494E44 
 4866              	.LASF252:
 4867 112a 4359424C 		.ascii	"CYBLE_EVT_ANCSS_NOTIFICATION_ENABLED\000"
 4867      455F4556 
 4867      545F414E 
 4867      4353535F 
 4867      4E4F5449 
 4868              	.LASF40:
 4869 114f 4359424C 		.ascii	"CYBLE_EVT_GAP_DATA_LENGTH_CHANGE\000"
 4869      455F4556 
 4869      545F4741 
 4869      505F4441 
 4869      54415F4C 
 4870              	.LASF471:
 4871 1170 4359424C 		.ascii	"CYBLE_EVT_SCPSC_WRITE_DESCR_RESPONSE\000"
 4871      455F4556 
 4871      545F5343 
 4871      5053435F 
 4871      57524954 
 4872              	.LASF14:
 4873 1195 63686172 		.ascii	"char\000"
 4873      00
 4874              	.LASF535:
 4875 119a 72657175 		.ascii	"requestValue\000"
 4875      65737456 
 4875      616C7565 
 4875      00
 4876              	.LASF179:
 4877 11a7 6D617841 		.ascii	"maxAttrLength\000"
 4877      7474724C 
 4877      656E6774 
 4877      6800
 4878              	.LASF474:
 4879 11b5 4359424C 		.ascii	"CYBLE_EVT_TPSC_NOTIFICATION\000"
 4879      455F4556 
 4879      545F5450 
 4879      53435F4E 
 4879      4F544946 
 4880              	.LASF235:
 4881 11d1 4359424C 		.ascii	"CYBLE_EVT_GATTC_INCL_DISCOVERY_COMPLETE\000"
 4881      455F4556 
 4881      545F4741 
 4881      5454435F 
 4881      494E434C 
ARM GAS  C:\Users\User\AppData\Local\Temp\ccR9uRpe.s 			page 108


 4882              	.LASF441:
 4883 11f9 4359424C 		.ascii	"CYBLE_EVT_PLXSS_NOTIFICATION_ENABLED\000"
 4883      455F4556 
 4883      545F504C 
 4883      5853535F 
 4883      4E4F5449 
 4884              	.LASF59:
 4885 121e 4359424C 		.ascii	"CYBLE_EVT_GATTC_READ_MULTI_RSP\000"
 4885      455F4556 
 4885      545F4741 
 4885      5454435F 
 4885      52454144 
 4886              	.LASF251:
 4887 123d 4359424C 		.ascii	"CYBLE_EVT_AIOSC_ERROR_RESPONSE\000"
 4887      455F4556 
 4887      545F4149 
 4887      4F53435F 
 4887      4552524F 
 4888              	.LASF246:
 4889 125c 4359424C 		.ascii	"CYBLE_EVT_AIOSC_INDICATION\000"
 4889      455F4556 
 4889      545F4149 
 4889      4F53435F 
 4889      494E4449 
 4890              	.LASF17:
 4891 1277 4359424C 		.ascii	"CYBLE_EVT_HOST_INVALID\000"
 4891      455F4556 
 4891      545F484F 
 4891      53545F49 
 4891      4E56414C 
 4892              	.LASF137:
 4893 128e 4359424C 		.ascii	"CYBLE_GATT_ERR_UNLIKELY_ERROR\000"
 4893      455F4741 
 4893      54545F45 
 4893      52525F55 
 4893      4E4C494B 
 4894              	.LASF42:
 4895 12ac 4359424C 		.ascii	"CYBLE_EVT_GAPC_DIRECT_ADV_REPORT\000"
 4895      455F4556 
 4895      545F4741 
 4895      50435F44 
 4895      49524543 
 4896              	.LASF366:
 4897 12cd 4359424C 		.ascii	"CYBLE_EVT_GLSC_READ_DESCR_RESPONSE\000"
 4897      455F4556 
 4897      545F474C 
 4897      53435F52 
 4897      4541445F 
 4898              	.LASF96:
 4899 12f0 4359424C 		.ascii	"CYBLE_ERROR_NO_DEVICE_ENTITY\000"
 4899      455F4552 
 4899      524F525F 
 4899      4E4F5F44 
 4899      45564943 
 4900              	.LASF58:
 4901 130d 4359424C 		.ascii	"CYBLE_EVT_GATTC_READ_BLOB_RSP\000"
 4901      455F4556 
ARM GAS  C:\Users\User\AppData\Local\Temp\ccR9uRpe.s 			page 109


 4901      545F4741 
 4901      5454435F 
 4901      52454144 
 4902              	.LASF399:
 4903 132b 4359424C 		.ascii	"CYBLE_EVT_HTSS_INDICATION_DISABLED\000"
 4903      455F4556 
 4903      545F4854 
 4903      53535F49 
 4903      4E444943 
 4904              	.LASF465:
 4905 134e 4359424C 		.ascii	"CYBLE_EVT_RTUSC_READ_CHAR_RESPONSE\000"
 4905      455F4556 
 4905      545F5254 
 4905      5553435F 
 4905      52454144 
 4906              	.LASF65:
 4907 1371 4359424C 		.ascii	"CYBLE_EVT_GATTC_EXEC_WRITE_RSP\000"
 4907      455F4556 
 4907      545F4741 
 4907      5454435F 
 4907      45584543 
 4908              	.LASF142:
 4909 1390 4359424C 		.ascii	"CYBLE_GATT_ERR_HEART_RATE_CONTROL_POINT_NOT_SUPPORT"
 4909      455F4741 
 4909      54545F45 
 4909      52525F48 
 4909      45415254 
 4910 13c3 454400   		.ascii	"ED\000"
 4911              	.LASF506:
 4912 13c6 4359424C 		.ascii	"CYBLE_EVT_WSSS_INDICATION_CONFIRMED\000"
 4912      455F4556 
 4912      545F5753 
 4912      53535F49 
 4912      4E444943 
 4913              	.LASF134:
 4914 13ea 4359424C 		.ascii	"CYBLE_GATT_ERR_ATTRIBUTE_NOT_LONG\000"
 4914      455F4741 
 4914      54545F45 
 4914      52525F41 
 4914      54545249 
 4915              	.LASF340:
 4916 140c 4359424C 		.ascii	"CYBLE_EVT_CTSC_WRITE_DESCR_RESPONSE\000"
 4916      455F4556 
 4916      545F4354 
 4916      53435F57 
 4916      52495445 
 4917              	.LASF479:
 4918 1430 4359424C 		.ascii	"CYBLE_EVT_UDSS_INDICATION_DISABLED\000"
 4918      455F4556 
 4918      545F5544 
 4918      53535F49 
 4918      4E444943 
 4919              	.LASF197:
 4920 1453 4359424C 		.ascii	"CYBLE_DIS_SOFTWARE_REV\000"
 4920      455F4449 
 4920      535F534F 
 4920      46545741 
ARM GAS  C:\Users\User\AppData\Local\Temp\ccR9uRpe.s 			page 110


 4920      52455F52 
 4921              	.LASF70:
 4922 146a 4359424C 		.ascii	"CYBLE_EVT_GATTC_STOP_CMD_COMPLETE\000"
 4922      455F4556 
 4922      545F4741 
 4922      5454435F 
 4922      53544F50 
 4923              	.LASF314:
 4924 148c 4359424C 		.ascii	"CYBLE_EVT_CPSS_CHAR_WRITE\000"
 4924      455F4556 
 4924      545F4350 
 4924      53535F43 
 4924      4841525F 
 4925              	.LASF388:
 4926 14a6 4359424C 		.ascii	"CYBLE_EVT_HRSS_ENERGY_EXPENDED_RESET\000"
 4926      455F4556 
 4926      545F4852 
 4926      53535F45 
 4926      4E455247 
 4927              	.LASF158:
 4928 14cb 4359424C 		.ascii	"CYBLE_GATT_ERR_ANCS_ACTION_FAILED\000"
 4928      455F4741 
 4928      54545F45 
 4928      52525F41 
 4928      4E43535F 
 4929              	.LASF193:
 4930 14ed 4359424C 		.ascii	"CYBLE_DIS_MODEL_NUMBER\000"
 4930      455F4449 
 4930      535F4D4F 
 4930      44454C5F 
 4930      4E554D42 
 4931              	.LASF344:
 4932 1504 4359424C 		.ascii	"CYBLE_EVT_ESSS_NOTIFICATION_DISABLED\000"
 4932      455F4556 
 4932      545F4553 
 4932      53535F4E 
 4932      4F544946 
 4933              	.LASF190:
 4934 1529 4359424C 		.ascii	"CYBLE_GATTS_DB_T\000"
 4934      455F4741 
 4934      5454535F 
 4934      44425F54 
 4934      00
 4935              	.LASF493:
 4936 153a 4359424C 		.ascii	"CYBLE_EVT_WPTSS_NOTIFICATION_DISABLED\000"
 4936      455F4556 
 4936      545F5750 
 4936      5453535F 
 4936      4E4F5449 
 4937              	.LASF284:
 4938 1560 4359424C 		.ascii	"CYBLE_EVT_BLSS_NOTIFICATION_ENABLED\000"
 4938      455F4556 
 4938      545F424C 
 4938      53535F4E 
 4938      4F544946 
 4939              	.LASF198:
 4940 1584 4359424C 		.ascii	"CYBLE_DIS_SYSTEM_ID\000"
ARM GAS  C:\Users\User\AppData\Local\Temp\ccR9uRpe.s 			page 111


 4940      455F4449 
 4940      535F5359 
 4940      5354454D 
 4940      5F494400 
 4941              	.LASF386:
 4942 1598 4359424C 		.ascii	"CYBLE_EVT_HPSC_WRITE_DESCR_RESPONSE\000"
 4942      455F4556 
 4942      545F4850 
 4942      53435F57 
 4942      52495445 
 4943              	.LASF507:
 4944 15bc 4359424C 		.ascii	"CYBLE_EVT_WSSC_INDICATION\000"
 4944      455F4556 
 4944      545F5753 
 4944      53435F49 
 4944      4E444943 
 4945              	.LASF115:
 4946 15d6 4359424C 		.ascii	"CYBLE_ERROR_CONTROLLER_BUSY\000"
 4946      455F4552 
 4946      524F525F 
 4946      434F4E54 
 4946      524F4C4C 
 4947              	.LASF90:
 4948 15f2 4359424C 		.ascii	"CYBLE_ERROR_INVALID_PARAMETER\000"
 4948      455F4552 
 4948      524F525F 
 4948      494E5641 
 4948      4C49445F 
 4949              	.LASF351:
 4950 1610 4359424C 		.ascii	"CYBLE_EVT_ESSC_INDICATION\000"
 4950      455F4556 
 4950      545F4553 
 4950      53435F49 
 4950      4E444943 
 4951              	.LASF258:
 4952 162a 4359424C 		.ascii	"CYBLE_EVT_ANCSC_WRITE_DESCR_RESPONSE\000"
 4952      455F4556 
 4952      545F414E 
 4952      4353435F 
 4952      57524954 
 4953              	.LASF461:
 4954 164f 4359424C 		.ascii	"CYBLE_EVT_RSCSC_WRITE_CHAR_RESPONSE\000"
 4954      455F4556 
 4954      545F5253 
 4954      4353435F 
 4954      57524954 
 4955              	.LASF477:
 4956 1673 4359424C 		.ascii	"CYBLE_EVT_TPSC_WRITE_DESCR_RESPONSE\000"
 4956      455F4556 
 4956      545F5450 
 4956      53435F57 
 4956      52495445 
 4957              	.LASF323:
 4958 1697 4359424C 		.ascii	"CYBLE_EVT_CSCSS_NOTIFICATION_DISABLED\000"
 4958      455F4556 
 4958      545F4353 
 4958      4353535F 
ARM GAS  C:\Users\User\AppData\Local\Temp\ccR9uRpe.s 			page 112


 4958      4E4F5449 
 4959              	.LASF334:
 4960 16bd 4359424C 		.ascii	"CYBLE_EVT_CTSS_NOTIFICATION_ENABLED\000"
 4960      455F4556 
 4960      545F4354 
 4960      53535F4E 
 4960      4F544946 
 4961              	.LASF455:
 4962 16e1 4359424C 		.ascii	"CYBLE_EVT_RSCSS_INDICATION_DISABLED\000"
 4962      455F4556 
 4962      545F5253 
 4962      4353535F 
 4962      494E4449 
 4963              	.LASF525:
 4964 1705 4379426C 		.ascii	"CyBle_HtssSetCharacteristicDescriptor\000"
 4964      655F4874 
 4964      73735365 
 4964      74436861 
 4964      72616374 
 4965              	.LASF497:
 4966 172b 4359424C 		.ascii	"CYBLE_EVT_WPTSS_WRITE_CHAR\000"
 4966      455F4556 
 4966      545F5750 
 4966      5453535F 
 4966      57524954 
 4967              	.LASF417:
 4968 1746 4359424C 		.ascii	"CYBLE_EVT_LLSS_WRITE_CHAR_REQ\000"
 4968      455F4556 
 4968      545F4C4C 
 4968      53535F57 
 4968      52495445 
 4969              	.LASF92:
 4970 1764 4359424C 		.ascii	"CYBLE_ERROR_MEMORY_ALLOCATION_FAILED\000"
 4970      455F4552 
 4970      524F525F 
 4970      4D454D4F 
 4970      52595F41 
 4971              	.LASF394:
 4972 1789 4359424C 		.ascii	"CYBLE_EVT_HRSC_READ_DESCR_RESPONSE\000"
 4972      455F4556 
 4972      545F4852 
 4972      53435F52 
 4972      4541445F 
 4973              	.LASF214:
 4974 17ac 4359424C 		.ascii	"CYBLE_HTSS_CHAR_T\000"
 4974      455F4854 
 4974      53535F43 
 4974      4841525F 
 4974      5400
 4975              	.LASF322:
 4976 17be 4359424C 		.ascii	"CYBLE_EVT_CSCSS_NOTIFICATION_ENABLED\000"
 4976      455F4556 
 4976      545F4353 
 4976      4353535F 
 4976      4E4F5449 
 4977              	.LASF520:
 4978 17e3 61747472 		.ascii	"attrValue\000"
ARM GAS  C:\Users\User\AppData\Local\Temp\ccR9uRpe.s 			page 113


 4978      56616C75 
 4978      6500
 4979              	.LASF286:
 4980 17ed 4359424C 		.ascii	"CYBLE_EVT_BLSC_INDICATION\000"
 4980      455F4556 
 4980      545F424C 
 4980      53435F49 
 4980      4E444943 
 4981              	.LASF382:
 4982 1807 4359424C 		.ascii	"CYBLE_EVT_HPSS_CHAR_WRITE\000"
 4982      455F4556 
 4982      545F4850 
 4982      53535F43 
 4982      4841525F 
 4983              	.LASF374:
 4984 1821 4359424C 		.ascii	"CYBLE_EVT_HIDSS_REPORT_CHAR_WRITE\000"
 4984      455F4556 
 4984      545F4849 
 4984      4453535F 
 4984      5245504F 
 4985              	.LASF274:
 4986 1843 4359424C 		.ascii	"CYBLE_EVT_BCSS_INDICATION_ENABLED\000"
 4986      455F4556 
 4986      545F4243 
 4986      53535F49 
 4986      4E444943 
 4987              	.LASF149:
 4988 1865 4359424C 		.ascii	"CYBLE_GATTS_ERR_CCCD_IMPROPERLY_CONFIGURED\000"
 4988      455F4741 
 4988      5454535F 
 4988      4552525F 
 4988      43434344 
 4989              	.LASF501:
 4990 1890 4359424C 		.ascii	"CYBLE_EVT_WPTSC_READ_CHAR_RESPONSE\000"
 4990      455F4556 
 4990      545F5750 
 4990      5453435F 
 4990      52454144 
 4991              	.LASF116:
 4992 18b3 4359424C 		.ascii	"CYBLE_ERROR_MAX\000"
 4992      455F4552 
 4992      524F525F 
 4992      4D415800 
 4993              	.LASF429:
 4994 18c3 4359424C 		.ascii	"CYBLE_EVT_LNSC_WRITE_CHAR_RESPONSE\000"
 4994      455F4556 
 4994      545F4C4E 
 4994      53435F57 
 4994      52495445 
 4995              	.LASF74:
 4996 18e6 4359424C 		.ascii	"CYBLE_EVT_L2CAP_CONN_PARAM_UPDATE_RSP\000"
 4996      455F4556 
 4996      545F4C32 
 4996      4341505F 
 4996      434F4E4E 
 4997              	.LASF86:
 4998 190c 4359424C 		.ascii	"CYBLE_EVT_HCI_PKT\000"
ARM GAS  C:\Users\User\AppData\Local\Temp\ccR9uRpe.s 			page 114


 4998      455F4556 
 4998      545F4843 
 4998      495F504B 
 4998      5400
 4999              	.LASF482:
 5000 191e 4359424C 		.ascii	"CYBLE_EVT_UDSS_NOTIFICATION_DISABLED\000"
 5000      455F4556 
 5000      545F5544 
 5000      53535F4E 
 5000      4F544946 
 5001              	.LASF333:
 5002 1943 4359424C 		.ascii	"CYBLE_EVT_CSCSC_WRITE_DESCR_RESPONSE\000"
 5002      455F4556 
 5002      545F4353 
 5002      4353435F 
 5002      57524954 
 5003              	.LASF551:
 5004 1968 474E5520 		.ascii	"GNU C11 5.4.1 20160609 (release) [ARM/embedded-5-br"
 5004      43313120 
 5004      352E342E 
 5004      31203230 
 5004      31363036 
 5005 199b 616E6368 		.ascii	"anch revision 237715] -mcpu=cortex-m0 -mthumb -g -O"
 5005      20726576 
 5005      6973696F 
 5005      6E203233 
 5005      37373135 
 5006 19ce 30202D66 		.ascii	"0 -ffunction-sections -ffat-lto-objects\000"
 5006      66756E63 
 5006      74696F6E 
 5006      2D736563 
 5006      74696F6E 
 5007              	.LASF484:
 5008 19f6 4359424C 		.ascii	"CYBLE_EVT_UDSS_WRITE_CHAR\000"
 5008      455F4556 
 5008      545F5544 
 5008      53535F57 
 5008      52495445 
 5009              	.LASF448:
 5010 1a10 4359424C 		.ascii	"CYBLE_EVT_PLXSC_READ_CHAR_RESPONSE\000"
 5010      455F4556 
 5010      545F504C 
 5010      5853435F 
 5010      52454144 
 5011              	.LASF249:
 5012 1a33 4359424C 		.ascii	"CYBLE_EVT_AIOSC_READ_DESCR_RESPONSE\000"
 5012      455F4556 
 5012      545F4149 
 5012      4F53435F 
 5012      52454144 
 5013              	.LASF389:
 5014 1a57 4359424C 		.ascii	"CYBLE_EVT_HRSS_NOTIFICATION_ENABLED\000"
 5014      455F4556 
 5014      545F4852 
 5014      53535F4E 
 5014      4F544946 
 5015              	.LASF143:
ARM GAS  C:\Users\User\AppData\Local\Temp\ccR9uRpe.s 			page 115


 5016 1a7b 4359424C 		.ascii	"CYBLE_GATT_ERR_USER_DATA_ACCESS_NOT_PERMITTED\000"
 5016      455F4741 
 5016      54545F45 
 5016      52525F55 
 5016      5345525F 
 5017              	.LASF542:
 5018 1aa9 4379426C 		.ascii	"CyBle_HtssConfirmationEventHandler\000"
 5018      655F4874 
 5018      7373436F 
 5018      6E666972 
 5018      6D617469 
 5019              	.LASF28:
 5020 1acc 4359424C 		.ascii	"CYBLE_EVT_GAP_AUTH_COMPLETE\000"
 5020      455F4556 
 5020      545F4741 
 5020      505F4155 
 5020      54485F43 
 5021              	.LASF438:
 5022 1ae8 4359424C 		.ascii	"CYBLE_EVT_PASSC_READ_DESCR_RESPONSE\000"
 5022      455F4556 
 5022      545F5041 
 5022      5353435F 
 5022      52454144 
 5023              	.LASF354:
 5024 1b0c 4359424C 		.ascii	"CYBLE_EVT_ESSC_READ_DESCR_RESPONSE\000"
 5024      455F4556 
 5024      545F4553 
 5024      53435F52 
 5024      4541445F 
 5025              	.LASF29:
 5026 1b2f 4359424C 		.ascii	"CYBLE_EVT_GAP_AUTH_FAILED\000"
 5026      455F4556 
 5026      545F4741 
 5026      505F4155 
 5026      54485F46 
 5027              	.LASF373:
 5028 1b49 4359424C 		.ascii	"CYBLE_EVT_HIDSS_EXIT_SUSPEND\000"
 5028      455F4556 
 5028      545F4849 
 5028      4453535F 
 5028      45584954 
 5029              	.LASF121:
 5030 1b66 4359424C 		.ascii	"CYBLE_ERROR_STACK_BUSY\000"
 5030      455F4552 
 5030      524F525F 
 5030      53544143 
 5030      4B5F4255 
 5031              	.LASF159:
 5032 1b7d 4359424C 		.ascii	"CYBLE_GATT_ERR_CCCD_IMPROPERLY_CONFIGURED\000"
 5032      455F4741 
 5032      54545F45 
 5032      52525F43 
 5032      4343445F 
 5033              	.LASF93:
 5034 1ba7 4359424C 		.ascii	"CYBLE_ERROR_INSUFFICIENT_RESOURCES\000"
 5034      455F4552 
 5034      524F525F 
ARM GAS  C:\Users\User\AppData\Local\Temp\ccR9uRpe.s 			page 116


 5034      494E5355 
 5034      46464943 
 5035              	.LASF453:
 5036 1bca 4359424C 		.ascii	"CYBLE_EVT_RSCSS_NOTIFICATION_DISABLED\000"
 5036      455F4556 
 5036      545F5253 
 5036      4353535F 
 5036      4E4F5449 
 5037              	.LASF147:
 5038 1bf0 4359424C 		.ascii	"CYBLE_GATT_ERR_OP_CODE_NOT_SUPPORTED\000"
 5038      455F4741 
 5038      54545F45 
 5038      52525F4F 
 5038      505F434F 
 5039              	.LASF377:
 5040 1c15 4359424C 		.ascii	"CYBLE_EVT_HIDSC_WRITE_CHAR_RESPONSE\000"
 5040      455F4556 
 5040      545F4849 
 5040      4453435F 
 5040      57524954 
 5041              	.LASF5:
 5042 1c39 6C6F6E67 		.ascii	"long unsigned int\000"
 5042      20756E73 
 5042      69676E65 
 5042      6420696E 
 5042      7400
 5043              	.LASF413:
 5044 1c4b 4359424C 		.ascii	"CYBLE_EVT_IPSC_READ_DESCR_RESPONSE\000"
 5044      455F4556 
 5044      545F4950 
 5044      53435F52 
 5044      4541445F 
 5045              	.LASF408:
 5046 1c6e 4359424C 		.ascii	"CYBLE_EVT_IASS_WRITE_CHAR_CMD\000"
 5046      455F4556 
 5046      545F4941 
 5046      53535F57 
 5046      52495445 
 5047              	.LASF522:
 5048 1c8c 6C6F6348 		.ascii	"locHandleValuePair\000"
 5048      616E646C 
 5048      6556616C 
 5048      75655061 
 5048      697200
 5049              	.LASF552:
 5050 1c9f 47656E65 		.ascii	"Generated_Source\\PSoC4\\BLE_hts.c\000"
 5050      72617465 
 5050      645F536F 
 5050      75726365 
 5050      5C50536F 
 5051              	.LASF436:
 5052 1cc0 4359424C 		.ascii	"CYBLE_EVT_PASSC_NOTIFICATION\000"
 5052      455F4556 
 5052      545F5041 
 5052      5353435F 
 5052      4E4F5449 
 5053              	.LASF113:
ARM GAS  C:\Users\User\AppData\Local\Temp\ccR9uRpe.s 			page 117


 5054 1cdd 4359424C 		.ascii	"CYBLE_ERROR_UNSUPPORTED_FEATURE_OR_PARAMETER_VALUE\000"
 5054      455F4552 
 5054      524F525F 
 5054      554E5355 
 5054      50504F52 
 5055              	.LASF494:
 5056 1d10 4359424C 		.ascii	"CYBLE_EVT_WPTSS_INDICATION_ENABLED\000"
 5056      455F4556 
 5056      545F5750 
 5056      5453535F 
 5056      494E4449 
 5057              	.LASF442:
 5058 1d33 4359424C 		.ascii	"CYBLE_EVT_PLXSS_NOTIFICATION_DISABLED\000"
 5058      455F4556 
 5058      545F504C 
 5058      5853535F 
 5058      4E4F5449 
 5059              	.LASF264:
 5060 1d59 4359424C 		.ascii	"CYBLE_EVT_ANSC_READ_CHAR_RESPONSE\000"
 5060      455F4556 
 5060      545F414E 
 5060      53435F52 
 5060      4541445F 
 5061              	.LASF103:
 5062 1d7b 4359424C 		.ascii	"CYBLE_ERROR_L2CAP_PSM_ALREADY_REGISTERED\000"
 5062      455F4552 
 5062      524F525F 
 5062      4C324341 
 5062      505F5053 
 5063              	.LASF401:
 5064 1da4 4359424C 		.ascii	"CYBLE_EVT_HTSS_CHAR_WRITE\000"
 5064      455F4556 
 5064      545F4854 
 5064      53535F43 
 5064      4841525F 
 5065              	.LASF183:
 5066 1dbe 61747456 		.ascii	"attValueUuid\000"
 5066      616C7565 
 5066      55756964 
 5066      00
 5067              	.LASF155:
 5068 1dcb 4359424C 		.ascii	"CYBLE_GATT_ERR_ANCS_UNKNOWN_COMMAND\000"
 5068      455F4741 
 5068      54545F45 
 5068      52525F41 
 5068      4E43535F 
 5069              	.LASF268:
 5070 1def 4359424C 		.ascii	"CYBLE_EVT_BASS_NOTIFICATION_ENABLED\000"
 5070      455F4556 
 5070      545F4241 
 5070      53535F4E 
 5070      4F544946 
 5071              	.LASF341:
 5072 1e13 4359424C 		.ascii	"CYBLE_EVT_CTSC_WRITE_CHAR_RESPONSE\000"
 5072      455F4556 
 5072      545F4354 
 5072      53435F57 
ARM GAS  C:\Users\User\AppData\Local\Temp\ccR9uRpe.s 			page 118


 5072      52495445 
 5073              	.LASF435:
 5074 1e36 4359424C 		.ascii	"CYBLE_EVT_PASSS_WRITE_CHAR\000"
 5074      455F4556 
 5074      545F5041 
 5074      5353535F 
 5074      57524954 
 5075              	.LASF549:
 5076 1e51 6379426C 		.ascii	"cyBle_htss\000"
 5076      655F6874 
 5076      737300
 5077              	.LASF318:
 5078 1e5c 4359424C 		.ascii	"CYBLE_EVT_CPSC_WRITE_CHAR_RESPONSE\000"
 5078      455F4556 
 5078      545F4350 
 5078      53435F57 
 5078      52495445 
 5079              	.LASF524:
 5080 1e7f 4379426C 		.ascii	"CyBle_HtssGetCharacteristicValue\000"
 5080      655F4874 
 5080      73734765 
 5080      74436861 
 5080      72616374 
 5081              	.LASF194:
 5082 1ea0 4359424C 		.ascii	"CYBLE_DIS_SERIAL_NUMBER\000"
 5082      455F4449 
 5082      535F5345 
 5082      5249414C 
 5082      5F4E554D 
 5083              	.LASF205:
 5084 1eb8 4359424C 		.ascii	"CYBLE_HTS_MEASURE_INTERVAL\000"
 5084      455F4854 
 5084      535F4D45 
 5084      41535552 
 5084      455F494E 
 5085              	.LASF34:
 5086 1ed3 4359424C 		.ascii	"CYBLE_EVT_GAP_CONNECTION_UPDATE_COMPLETE\000"
 5086      455F4556 
 5086      545F4741 
 5086      505F434F 
 5086      4E4E4543 
 5087              	.LASF303:
 5088 1efc 4359424C 		.ascii	"CYBLE_EVT_CGMSC_READ_CHAR_RESPONSE\000"
 5088      455F4556 
 5088      545F4347 
 5088      4D53435F 
 5088      52454144 
 5089              	.LASF513:
 5090 1f1f 4359424C 		.ascii	"CYBLE_STATE_INITIALIZING\000"
 5090      455F5354 
 5090      4154455F 
 5090      494E4954 
 5090      49414C49 
 5091              	.LASF207:
 5092 1f38 4359424C 		.ascii	"CYBLE_HTS_CHAR_INDEX_T\000"
 5092      455F4854 
 5092      535F4348 
ARM GAS  C:\Users\User\AppData\Local\Temp\ccR9uRpe.s 			page 119


 5092      41525F49 
 5092      4E444558 
 5093              	.LASF331:
 5094 1f4f 4359424C 		.ascii	"CYBLE_EVT_CSCSC_WRITE_CHAR_RESPONSE\000"
 5094      455F4556 
 5094      545F4353 
 5094      4353435F 
 5094      57524954 
 5095              	.LASF78:
 5096 1f73 4359424C 		.ascii	"CYBLE_EVT_L2CAP_CBFC_DISCONN_IND\000"
 5096      455F4556 
 5096      545F4C32 
 5096      4341505F 
 5096      43424643 
 5097              	.LASF327:
 5098 1f94 4359424C 		.ascii	"CYBLE_EVT_CSCSS_CHAR_WRITE\000"
 5098      455F4556 
 5098      545F4353 
 5098      4353535F 
 5098      43484152 
 5099              	.LASF444:
 5100 1faf 4359424C 		.ascii	"CYBLE_EVT_PLXSS_INDICATION_DISABLED\000"
 5100      455F4556 
 5100      545F504C 
 5100      5853535F 
 5100      494E4449 
 5101              	.LASF460:
 5102 1fd3 4359424C 		.ascii	"CYBLE_EVT_RSCSC_READ_CHAR_RESPONSE\000"
 5102      455F4556 
 5102      545F5253 
 5102      4353435F 
 5102      52454144 
 5103              	.LASF26:
 5104 1ff6 4359424C 		.ascii	"CYBLE_EVT_GAP_PASSKEY_ENTRY_REQUEST\000"
 5104      455F4556 
 5104      545F4741 
 5104      505F5041 
 5104      53534B45 
 5105              	.LASF383:
 5106 201a 4359424C 		.ascii	"CYBLE_EVT_HPSC_NOTIFICATION\000"
 5106      455F4556 
 5106      545F4850 
 5106      53435F4E 
 5106      4F544946 
 5107              	.LASF312:
 5108 2036 4359424C 		.ascii	"CYBLE_EVT_CPSS_BROADCAST_ENABLED\000"
 5108      455F4556 
 5108      545F4350 
 5108      53535F42 
 5108      524F4144 
 5109              	.LASF414:
 5110 2057 4359424C 		.ascii	"CYBLE_EVT_IPSC_WRITE_DESCR_RESPONSE\000"
 5110      455F4556 
 5110      545F4950 
 5110      53435F57 
 5110      52495445 
 5111              	.LASF364:
ARM GAS  C:\Users\User\AppData\Local\Temp\ccR9uRpe.s 			page 120


 5112 207b 4359424C 		.ascii	"CYBLE_EVT_GLSC_READ_CHAR_RESPONSE\000"
 5112      455F4556 
 5112      545F474C 
 5112      53435F52 
 5112      4541445F 
 5113              	.LASF451:
 5114 209d 4359424C 		.ascii	"CYBLE_EVT_PLXSC_WRITE_DESCR_RESPONSE\000"
 5114      455F4556 
 5114      545F504C 
 5114      5853435F 
 5114      57524954 
 5115              	.LASF445:
 5116 20c2 4359424C 		.ascii	"CYBLE_EVT_PLXS_INDICATION_CONFIRMATION\000"
 5116      455F4556 
 5116      545F504C 
 5116      58535F49 
 5116      4E444943 
 5117              	.LASF402:
 5118 20e9 4359424C 		.ascii	"CYBLE_EVT_HTSC_NOTIFICATION\000"
 5118      455F4556 
 5118      545F4854 
 5118      53435F4E 
 5118      4F544946 
 5119              	.LASF6:
 5120 2105 6C6F6E67 		.ascii	"long long int\000"
 5120      206C6F6E 
 5120      6720696E 
 5120      7400
 5121              	.LASF553:
 5122 2113 433A5C55 		.ascii	"C:\\Users\\User\\Desktop\\Hi\\Demo1\\DS18x8_demo.cy"
 5122      73657273 
 5122      5C557365 
 5122      725C4465 
 5122      736B746F 
 5123 2140 64736E00 		.ascii	"dsn\000"
 5124              	.LASF475:
 5125 2144 4359424C 		.ascii	"CYBLE_EVT_TPSC_READ_CHAR_RESPONSE\000"
 5125      455F4556 
 5125      545F5450 
 5125      53435F52 
 5125      4541445F 
 5126              	.LASF200:
 5127 2166 4359424C 		.ascii	"CYBLE_DIS_PNP_ID\000"
 5127      455F4449 
 5127      535F504E 
 5127      505F4944 
 5127      00
 5128              	.LASF232:
 5129 2177 4359424C 		.ascii	"CYBLE_EVT_GATTC_CHAR_DUPLICATION\000"
 5129      455F4556 
 5129      545F4741 
 5129      5454435F 
 5129      43484152 
 5130              	.LASF359:
 5131 2198 4359424C 		.ascii	"CYBLE_EVT_GLSS_NOTIFICATION_ENABLED\000"
 5131      455F4556 
 5131      545F474C 
ARM GAS  C:\Users\User\AppData\Local\Temp\ccR9uRpe.s 			page 121


 5131      53535F4E 
 5131      4F544946 
 5132              	.LASF132:
 5133 21bc 4359424C 		.ascii	"CYBLE_GATT_ERR_PREPARE_WRITE_QUEUE_FULL\000"
 5133      455F4741 
 5133      54545F45 
 5133      52525F50 
 5133      52455041 
 5134              	.LASF384:
 5135 21e4 4359424C 		.ascii	"CYBLE_EVT_HPSC_READ_CHAR_RESPONSE\000"
 5135      455F4556 
 5135      545F4850 
 5135      53435F52 
 5135      4541445F 
 5136              	.LASF104:
 5137 2206 4359424C 		.ascii	"CYBLE_ERROR_L2CAP_PSM_NOT_REGISTERED\000"
 5137      455F4552 
 5137      524F525F 
 5137      4C324341 
 5137      505F5053 
 5138              	.LASF94:
 5139 222b 4359424C 		.ascii	"CYBLE_ERROR_OOB_NOT_AVAILABLE\000"
 5139      455F4552 
 5139      524F525F 
 5139      4F4F425F 
 5139      4E4F545F 
 5140              	.LASF295:
 5141 2249 4359424C 		.ascii	"CYBLE_EVT_CGMSS_INDICATION_ENABLED\000"
 5141      455F4556 
 5141      545F4347 
 5141      4D53535F 
 5141      494E4449 
 5142              	.LASF536:
 5143 226c 6C6F7765 		.ascii	"lowerValue\000"
 5143      7256616C 
 5143      756500
 5144              	.LASF13:
 5145 2277 646F7562 		.ascii	"double\000"
 5145      6C6500
 5146              	.LASF109:
 5147 227e 4359424C 		.ascii	"CYBLE_ERROR_DEVICE_ALREADY_EXISTS\000"
 5147      455F4552 
 5147      524F525F 
 5147      44455649 
 5147      43455F41 
 5148              	.LASF346:
 5149 22a0 4359424C 		.ascii	"CYBLE_EVT_ESSS_INDICATION_DISABLED\000"
 5149      455F4556 
 5149      545F4553 
 5149      53535F49 
 5149      4E444943 
 5150              	.LASF84:
 5151 22c3 4359424C 		.ascii	"CYBLE_EVT_PENDING_FLASH_WRITE\000"
 5151      455F4556 
 5151      545F5045 
 5151      4E44494E 
 5151      475F464C 
ARM GAS  C:\Users\User\AppData\Local\Temp\ccR9uRpe.s 			page 122


 5152              	.LASF135:
 5153 22e1 4359424C 		.ascii	"CYBLE_GATT_ERR_INSUFFICIENT_ENC_KEY_SIZE\000"
 5153      455F4741 
 5153      54545F45 
 5153      52525F49 
 5153      4E535546 
 5154              	.LASF492:
 5155 230a 4359424C 		.ascii	"CYBLE_EVT_WPTSS_NOTIFICATION_ENABLED\000"
 5155      455F4556 
 5155      545F5750 
 5155      5453535F 
 5155      4E4F5449 
 5156              	.LASF160:
 5157 232f 4359424C 		.ascii	"CYBLE_GATT_ERR_PROCEDURE_ALREADY_IN_PROGRESS\000"
 5157      455F4741 
 5157      54545F45 
 5157      52525F50 
 5157      524F4345 
 5158              	.LASF431:
 5159 235c 4359424C 		.ascii	"CYBLE_EVT_LNSC_WRITE_DESCR_RESPONSE\000"
 5159      455F4556 
 5159      545F4C4E 
 5159      53435F57 
 5159      52495445 
 5160              	.LASF41:
 5161 2380 4359424C 		.ascii	"CYBLE_EVT_GAP_ENHANCE_CONN_COMPLETE\000"
 5161      455F4556 
 5161      545F4741 
 5161      505F454E 
 5161      48414E43 
 5162              	.LASF418:
 5163 23a4 4359424C 		.ascii	"CYBLE_EVT_LLSC_READ_CHAR_RESPONSE\000"
 5163      455F4556 
 5163      545F4C4C 
 5163      53435F52 
 5163      4541445F 
 5164              	.LASF326:
 5165 23c6 4359424C 		.ascii	"CYBLE_EVT_CSCSS_INDICATION_CONFIRMATION\000"
 5165      455F4556 
 5165      545F4353 
 5165      4353535F 
 5165      494E4449 
 5166              	.LASF106:
 5167 23ee 4359424C 		.ascii	"CYBLE_ERROR_L2CAP_CHANNEL_NOT_FOUND\000"
 5167      455F4552 
 5167      524F525F 
 5167      4C324341 
 5167      505F4348 
 5168              	.LASF548:
 5169 2412 6379426C 		.ascii	"cyBle_gattDB\000"
 5169      655F6761 
 5169      74744442 
 5169      00
 5170              	.LASF97:
 5171 241f 4359424C 		.ascii	"CYBLE_ERROR_REPEATED_ATTEMPTS\000"
 5171      455F4552 
 5171      524F525F 
ARM GAS  C:\Users\User\AppData\Local\Temp\ccR9uRpe.s 			page 123


 5171      52455045 
 5171      41544544 
 5172              	.LASF349:
 5173 243d 4359424C 		.ascii	"CYBLE_EVT_ESSS_DESCR_WRITE\000"
 5173      455F4556 
 5173      545F4553 
 5173      53535F44 
 5173      45534352 
 5174              	.LASF345:
 5175 2458 4359424C 		.ascii	"CYBLE_EVT_ESSS_INDICATION_ENABLED\000"
 5175      455F4556 
 5175      545F4553 
 5175      53535F49 
 5175      4E444943 
 5176              	.LASF12:
 5177 247a 666C6F61 		.ascii	"float\000"
 5177      7400
 5178              	.LASF469:
 5179 2480 4359424C 		.ascii	"CYBLE_EVT_SCPSC_NOTIFICATION\000"
 5179      455F4556 
 5179      545F5343 
 5179      5053435F 
 5179      4E4F5449 
 5180              	.LASF371:
 5181 249d 4359424C 		.ascii	"CYBLE_EVT_HIDSS_REPORT_MODE_ENTER\000"
 5181      455F4556 
 5181      545F4849 
 5181      4453535F 
 5181      5245504F 
 5182              	.LASF350:
 5183 24bf 4359424C 		.ascii	"CYBLE_EVT_ESSC_NOTIFICATION\000"
 5183      455F4556 
 5183      545F4553 
 5183      53435F4E 
 5183      4F544946 
 5184              	.LASF110:
 5185 24db 4359424C 		.ascii	"CYBLE_ERROR_FLASH_WRITE_NOT_PERMITED\000"
 5185      455F4552 
 5185      524F525F 
 5185      464C4153 
 5185      485F5752 
 5186              	.LASF369:
 5187 2500 4359424C 		.ascii	"CYBLE_EVT_HIDSS_NOTIFICATION_DISABLED\000"
 5187      455F4556 
 5187      545F4849 
 5187      4453535F 
 5187      4E4F5449 
 5188              	.LASF71:
 5189 2526 4359424C 		.ascii	"CYBLE_EVT_GATTS_READ_CHAR_VAL_ACCESS_REQ\000"
 5189      455F4556 
 5189      545F4741 
 5189      5454535F 
 5189      52454144 
 5190              	.LASF257:
 5191 254f 4359424C 		.ascii	"CYBLE_EVT_ANCSC_READ_DESCR_RESPONSE\000"
 5191      455F4556 
 5191      545F414E 
ARM GAS  C:\Users\User\AppData\Local\Temp\ccR9uRpe.s 			page 124


 5191      4353435F 
 5191      52454144 
 5192              	.LASF528:
 5193 2573 4379426C 		.ascii	"CyBle_HtssWriteEventHandler\000"
 5193      655F4874 
 5193      73735772 
 5193      69746545 
 5193      76656E74 
 5194              	.LASF527:
 5195 258f 4379426C 		.ascii	"CyBle_HtssGetCharacteristicDescriptor\000"
 5195      655F4874 
 5195      73734765 
 5195      74436861 
 5195      72616374 
 5196              	.LASF131:
 5197 25b5 4359424C 		.ascii	"CYBLE_GATT_ERR_INSUFFICIENT_AUTHORIZATION\000"
 5197      455F4741 
 5197      54545F45 
 5197      52525F49 
 5197      4E535546 
 5198              	.LASF526:
 5199 25df 64657363 		.ascii	"descrIndex\000"
 5199      72496E64 
 5199      657800
 5200              	.LASF170:
 5201 25ea 61747472 		.ascii	"attrHandle\000"
 5201      48616E64 
 5201      6C6500
 5202              	.LASF486:
 5203 25f5 4359424C 		.ascii	"CYBLE_EVT_UDSC_NOTIFICATION\000"
 5203      455F4556 
 5203      545F5544 
 5203      53435F4E 
 5203      4F544946 
 5204              	.LASF500:
 5205 2611 4359424C 		.ascii	"CYBLE_EVT_WPTSC_WRITE_CHAR_RESPONSE\000"
 5205      455F4556 
 5205      545F5750 
 5205      5453435F 
 5205      57524954 
 5206              	.LASF175:
 5207 2635 4359424C 		.ascii	"CYBLE_GATTS_WRITE_REQ_PARAM_T\000"
 5207      455F4741 
 5207      5454535F 
 5207      57524954 
 5207      455F5245 
 5208              	.LASF8:
 5209 2653 756E7369 		.ascii	"unsigned int\000"
 5209      676E6564 
 5209      20696E74 
 5209      00
 5210              	.LASF63:
 5211 2660 4359424C 		.ascii	"CYBLE_EVT_GATTS_PREP_WRITE_REQ\000"
 5211      455F4556 
 5211      545F4741 
 5211      5454535F 
 5211      50524550 
ARM GAS  C:\Users\User\AppData\Local\Temp\ccR9uRpe.s 			page 125


 5212              	.LASF188:
 5213 267f 61747445 		.ascii	"attEndHandle\000"
 5213      6E644861 
 5213      6E646C65 
 5213      00
 5214              	.LASF128:
 5215 268c 4359424C 		.ascii	"CYBLE_GATT_ERR_INSUFFICIENT_AUTHENTICATION\000"
 5215      455F4741 
 5215      54545F45 
 5215      52525F49 
 5215      4E535546 
 5216              	.LASF293:
 5217 26b7 4359424C 		.ascii	"CYBLE_EVT_BMSC_WRITE_CHAR_RESPONSE\000"
 5217      455F4556 
 5217      545F424D 
 5217      53435F57 
 5217      52495445 
 5218              	.LASF335:
 5219 26da 4359424C 		.ascii	"CYBLE_EVT_CTSS_NOTIFICATION_DISABLED\000"
 5219      455F4556 
 5219      545F4354 
 5219      53535F4E 
 5219      4F544946 
 5220              	.LASF282:
 5221 26ff 4359424C 		.ascii	"CYBLE_EVT_BLSS_INDICATION_DISABLED\000"
 5221      455F4556 
 5221      545F424C 
 5221      53535F49 
 5221      4E444943 
 5222              	.LASF199:
 5223 2722 4359424C 		.ascii	"CYBLE_DIS_REG_CERT_DATA\000"
 5223      455F4449 
 5223      535F5245 
 5223      475F4345 
 5223      52545F44 
 5224              	.LASF467:
 5225 273a 4359424C 		.ascii	"CYBLE_EVT_SCPSS_NOTIFICATION_DISABLED\000"
 5225      455F4556 
 5225      545F5343 
 5225      5053535F 
 5225      4E4F5449 
 5226              	.LASF347:
 5227 2760 4359424C 		.ascii	"CYBLE_EVT_ESSS_INDICATION_CONFIRMATION\000"
 5227      455F4556 
 5227      545F4553 
 5227      53535F49 
 5227      4E444943 
 5228              	.LASF443:
 5229 2787 4359424C 		.ascii	"CYBLE_EVT_PLXSS_INDICATION_ENABLED\000"
 5229      455F4556 
 5229      545F504C 
 5229      5853535F 
 5229      494E4449 
 5230              	.LASF146:
 5231 27aa 4359424C 		.ascii	"CYBLE_GATTS_ERR_PROCEDURE_ALREADY_IN_PROGRESS\000"
 5231      455F4741 
 5231      5454535F 
ARM GAS  C:\Users\User\AppData\Local\Temp\ccR9uRpe.s 			page 126


 5231      4552525F 
 5231      50524F43 
 5232              	.LASF250:
 5233 27d8 4359424C 		.ascii	"CYBLE_EVT_AIOSC_WRITE_DESCR_RESPONSE\000"
 5233      455F4556 
 5233      545F4149 
 5233      4F53435F 
 5233      57524954 
 5234              	.LASF220:
 5235 27fd 4359424C 		.ascii	"CYBLE_AUTHENTICATION_REQUEST_REPLY\000"
 5235      455F4155 
 5235      5448454E 
 5235      54494341 
 5235      54494F4E 
 5236              	.LASF102:
 5237 2820 4359424C 		.ascii	"CYBLE_ERROR_L2CAP_PSM_WRONG_ENCODING\000"
 5237      455F4552 
 5237      524F525F 
 5237      4C324341 
 5237      505F5053 
 5238              	.LASF285:
 5239 2845 4359424C 		.ascii	"CYBLE_EVT_BLSS_NOTIFICATION_DISABLED\000"
 5239      455F4556 
 5239      545F424C 
 5239      53535F4E 
 5239      4F544946 
 5240              	.LASF133:
 5241 286a 4359424C 		.ascii	"CYBLE_GATT_ERR_ATTRIBUTE_NOT_FOUND\000"
 5241      455F4741 
 5241      54545F45 
 5241      52525F41 
 5241      54545249 
 5242              	.LASF405:
 5243 288d 4359424C 		.ascii	"CYBLE_EVT_HTSC_WRITE_CHAR_RESPONSE\000"
 5243      455F4556 
 5243      545F4854 
 5243      53435F57 
 5243      52495445 
 5244              	.LASF505:
 5245 28b0 4359424C 		.ascii	"CYBLE_EVT_WSSS_INDICATION_DISABLED\000"
 5245      455F4556 
 5245      545F5753 
 5245      53535F49 
 5245      4E444943 
 5246              	.LASF387:
 5247 28d3 4359424C 		.ascii	"CYBLE_EVT_HPSC_WRITE_CHAR_RESPONSE\000"
 5247      455F4556 
 5247      545F4850 
 5247      53435F57 
 5247      52495445 
 5248              	.LASF88:
 5249 28f6 4359424C 		.ascii	"CYBLE_EVT_MAX\000"
 5249      455F4556 
 5249      545F4D41 
 5249      5800
 5250              	.LASF35:
 5251 2904 4359424C 		.ascii	"CYBLE_EVT_GAPC_SCAN_START_STOP\000"
ARM GAS  C:\Users\User\AppData\Local\Temp\ccR9uRpe.s 			page 127


 5251      455F4556 
 5251      545F4741 
 5251      50435F53 
 5251      43414E5F 
 5252              	.LASF260:
 5253 2923 4359424C 		.ascii	"CYBLE_EVT_ANSS_NOTIFICATION_ENABLED\000"
 5253      455F4556 
 5253      545F414E 
 5253      53535F4E 
 5253      4F544946 
 5254              	.LASF60:
 5255 2947 4359424C 		.ascii	"CYBLE_EVT_GATTS_WRITE_REQ\000"
 5255      455F4556 
 5255      545F4741 
 5255      5454535F 
 5255      57524954 
 5256              	.LASF488:
 5257 2961 4359424C 		.ascii	"CYBLE_EVT_UDSC_WRITE_CHAR_RESPONSE\000"
 5257      455F4556 
 5257      545F5544 
 5257      53435F57 
 5257      52495445 
 5258              	.LASF499:
 5259 2984 4359424C 		.ascii	"CYBLE_EVT_WPTSC_INDICATION\000"
 5259      455F4556 
 5259      545F5750 
 5259      5453435F 
 5259      494E4449 
 5260              	.LASF27:
 5261 299f 4359424C 		.ascii	"CYBLE_EVT_GAP_PASSKEY_DISPLAY_REQUEST\000"
 5261      455F4556 
 5261      545F4741 
 5261      505F5041 
 5261      53534B45 
 5262              	.LASF118:
 5263 29c5 4359424C 		.ascii	"CYBLE_ERROR_IND_DISABLED\000"
 5263      455F4552 
 5263      524F525F 
 5263      494E445F 
 5263      44495341 
 5264              	.LASF117:
 5265 29de 4359424C 		.ascii	"CYBLE_ERROR_NTF_DISABLED\000"
 5265      455F4552 
 5265      524F525F 
 5265      4E54465F 
 5265      44495341 
 5266              	.LASF541:
 5267 29f7 4379426C 		.ascii	"CyBle_HtsRegisterAttrCallback\000"
 5267      655F4874 
 5267      73526567 
 5267      69737465 
 5267      72417474 
 5268              	.LASF57:
 5269 2a15 4359424C 		.ascii	"CYBLE_EVT_GATTC_READ_RSP\000"
 5269      455F4556 
 5269      545F4741 
 5269      5454435F 
ARM GAS  C:\Users\User\AppData\Local\Temp\ccR9uRpe.s 			page 128


 5269      52454144 
 5270              	.LASF316:
 5271 2a2e 4359424C 		.ascii	"CYBLE_EVT_CPSC_INDICATION\000"
 5271      455F4556 
 5271      545F4350 
 5271      53435F49 
 5271      4E444943 
 5272              	.LASF130:
 5273 2a48 4359424C 		.ascii	"CYBLE_GATT_ERR_INVALID_OFFSET\000"
 5273      455F4741 
 5273      54545F45 
 5273      52525F49 
 5273      4E56414C 
 5274              	.LASF342:
 5275 2a66 4359424C 		.ascii	"CYBLE_EVT_DISC_READ_CHAR_RESPONSE\000"
 5275      455F4556 
 5275      545F4449 
 5275      53435F52 
 5275      4541445F 
 5276              	.LASF77:
 5277 2a88 4359424C 		.ascii	"CYBLE_EVT_L2CAP_CBFC_CONN_CNF\000"
 5277      455F4556 
 5277      545F4C32 
 5277      4341505F 
 5277      43424643 
 5278              	.LASF178:
 5279 2aa6 4359424C 		.ascii	"CYBLE_GATTS_ATT_GEN_VAL_LEN_T\000"
 5279      455F4741 
 5279      5454535F 
 5279      4154545F 
 5279      47454E5F 
 5280              	.LASF406:
 5281 2ac4 4359424C 		.ascii	"CYBLE_EVT_HTSC_READ_DESCR_RESPONSE\000"
 5281      455F4556 
 5281      545F4854 
 5281      53435F52 
 5281      4541445F 
 5282              	.LASF511:
 5283 2ae7 4359424C 		.ascii	"CYBLE_DEBUG_EVT_BLESS_INT\000"
 5283      455F4445 
 5283      4255475F 
 5283      4556545F 
 5283      424C4553 
 5284              	.LASF161:
 5285 2b01 4359424C 		.ascii	"CYBLE_GATT_ERR_OUT_OF_RANGE\000"
 5285      455F4741 
 5285      54545F45 
 5285      52525F4F 
 5285      55545F4F 
 5286              	.LASF361:
 5287 2b1d 4359424C 		.ascii	"CYBLE_EVT_GLSS_WRITE_CHAR\000"
 5287      455F4556 
 5287      545F474C 
 5287      53535F57 
 5287      52495445 
 5288              	.LASF87:
 5289 2b37 4359424C 		.ascii	"CYBLE_EVT_FLASH_CORRUPT\000"
ARM GAS  C:\Users\User\AppData\Local\Temp\ccR9uRpe.s 			page 129


 5289      455F4556 
 5289      545F464C 
 5289      4153485F 
 5289      434F5252 
 5290              	.LASF15:
 5291 2b4f 6C6F6E67 		.ascii	"long double\000"
 5291      20646F75 
 5291      626C6500 
 5292              	.LASF298:
 5293 2b5b 4359424C 		.ascii	"CYBLE_EVT_CGMSS_NOTIFICATION_ENABLED\000"
 5293      455F4556 
 5293      545F4347 
 5293      4D53535F 
 5293      4E4F5449 
 5294              	.LASF391:
 5295 2b80 4359424C 		.ascii	"CYBLE_EVT_HRSC_NOTIFICATION\000"
 5295      455F4556 
 5295      545F4852 
 5295      53435F4E 
 5295      4F544946 
 5296              	.LASF23:
 5297 2b9c 4359424C 		.ascii	"CYBLE_EVT_MEMORY_REQUEST\000"
 5297      455F4556 
 5297      545F4D45 
 5297      4D4F5259 
 5297      5F524551 
 5298              	.LASF247:
 5299 2bb5 4359424C 		.ascii	"CYBLE_EVT_AIOSC_READ_CHAR_RESPONSE\000"
 5299      455F4556 
 5299      545F4149 
 5299      4F53435F 
 5299      52454144 
 5300              	.LASF533:
 5301 2bd8 6C6F6352 		.ascii	"locReqHandle\000"
 5301      65714861 
 5301      6E646C65 
 5301      00
 5302              	.LASF456:
 5303 2be5 4359424C 		.ascii	"CYBLE_EVT_RSCSS_INDICATION_CONFIRMATION\000"
 5303      455F4556 
 5303      545F5253 
 5303      4353535F 
 5303      494E4449 
 5304              	.LASF534:
 5305 2c0d 6C6F6341 		.ascii	"locAttrValue\000"
 5305      74747256 
 5305      616C7565 
 5305      00
 5306              	.LASF378:
 5307 2c1a 4359424C 		.ascii	"CYBLE_EVT_HIDSC_READ_DESCR_RESPONSE\000"
 5307      455F4556 
 5307      545F4849 
 5307      4453435F 
 5307      52454144 
 5308              	.LASF211:
 5309 2c3e 4359424C 		.ascii	"CYBLE_HTS_DESCR_INDEX_T\000"
 5309      455F4854 
ARM GAS  C:\Users\User\AppData\Local\Temp\ccR9uRpe.s 			page 130


 5309      535F4445 
 5309      5343525F 
 5309      494E4445 
 5310              	.LASF392:
 5311 2c56 4359424C 		.ascii	"CYBLE_EVT_HRSC_READ_CHAR_RESPONSE\000"
 5311      455F4556 
 5311      545F4852 
 5311      53435F52 
 5311      4541445F 
 5312              	.LASF270:
 5313 2c78 4359424C 		.ascii	"CYBLE_EVT_BASC_NOTIFICATION\000"
 5313      455F4556 
 5313      545F4241 
 5313      53435F4E 
 5313      4F544946 
 5314              	.LASF33:
 5315 2c94 4359424C 		.ascii	"CYBLE_EVT_GAP_ENCRYPT_CHANGE\000"
 5315      455F4556 
 5315      545F4741 
 5315      505F454E 
 5315      43525950 
 5316              	.LASF432:
 5317 2cb1 4359424C 		.ascii	"CYBLE_EVT_NDCSC_READ_CHAR_RESPONSE\000"
 5317      455F4556 
 5317      545F4E44 
 5317      4353435F 
 5317      52454144 
 5318              	.LASF233:
 5319 2cd4 4359424C 		.ascii	"CYBLE_EVT_GATTC_DESCR_DUPLICATION\000"
 5319      455F4556 
 5319      545F4741 
 5319      5454435F 
 5319      44455343 
 5320              	.LASF206:
 5321 2cf6 4359424C 		.ascii	"CYBLE_HTS_CHAR_COUNT\000"
 5321      455F4854 
 5321      535F4348 
 5321      41525F43 
 5321      4F554E54 
 5322              	.LASF51:
 5323 2d0b 4359424C 		.ascii	"CYBLE_EVT_GATTS_XCNHG_MTU_REQ\000"
 5323      455F4556 
 5323      545F4741 
 5323      5454535F 
 5323      58434E48 
 5324              	.LASF381:
 5325 2d29 4359424C 		.ascii	"CYBLE_EVT_HPSS_NOTIFICATION_DISABLED\000"
 5325      455F4556 
 5325      545F4850 
 5325      53535F4E 
 5325      4F544946 
 5326              	.LASF530:
 5327 2d4e 6C6F6343 		.ascii	"locCharIndex\000"
 5327      68617249 
 5327      6E646578 
 5327      00
 5328              	.LASF481:
ARM GAS  C:\Users\User\AppData\Local\Temp\ccR9uRpe.s 			page 131


 5329 2d5b 4359424C 		.ascii	"CYBLE_EVT_UDSS_NOTIFICATION_ENABLED\000"
 5329      455F4556 
 5329      545F5544 
 5329      53535F4E 
 5329      4F544946 
 5330              	.LASF242:
 5331 2d7f 4359424C 		.ascii	"CYBLE_EVT_AIOSS_INDICATION_CONFIRMED\000"
 5331      455F4556 
 5331      545F4149 
 5331      4F53535F 
 5331      494E4449 
 5332              	.LASF422:
 5333 2da4 4359424C 		.ascii	"CYBLE_EVT_LNSS_INDICATION_CONFIRMED\000"
 5333      455F4556 
 5333      545F4C4E 
 5333      53535F49 
 5333      4E444943 
 5334              	.LASF47:
 5335 2dc8 4359424C 		.ascii	"CYBLE_EVT_GAP_SMP_LOC_P256_KEYS_GEN_AND_SET_COMPLET"
 5335      455F4556 
 5335      545F4741 
 5335      505F534D 
 5335      505F4C4F 
 5336 2dfb 4500     		.ascii	"E\000"
 5337              	.LASF267:
 5338 2dfd 4359424C 		.ascii	"CYBLE_EVT_ANSC_WRITE_DESCR_RESPONSE\000"
 5338      455F4556 
 5338      545F414E 
 5338      53435F57 
 5338      52495445 
 5339              	.LASF428:
 5340 2e21 4359424C 		.ascii	"CYBLE_EVT_LNSC_READ_CHAR_RESPONSE\000"
 5340      455F4556 
 5340      545F4C4E 
 5340      53435F52 
 5340      4541445F 
 5341              	.LASF192:
 5342 2e43 4359424C 		.ascii	"CYBLE_DIS_MANUFACTURER_NAME\000"
 5342      455F4449 
 5342      535F4D41 
 5342      4E554641 
 5342      43545552 
 5343              	.LASF358:
 5344 2e5f 4359424C 		.ascii	"CYBLE_EVT_GLSS_INDICATION_CONFIRMED\000"
 5344      455F4556 
 5344      545F474C 
 5344      53535F49 
 5344      4E444943 
 5345              	.LASF517:
 5346 2e83 4359424C 		.ascii	"CYBLE_STATE_T\000"
 5346      455F5354 
 5346      4154455F 
 5346      5400
 5347              	.LASF224:
 5348 2e91 4359424C 		.ascii	"CYBLE_EVT_GATTS_INDICATION_ENABLED\000"
 5348      455F4556 
 5348      545F4741 
ARM GAS  C:\Users\User\AppData\Local\Temp\ccR9uRpe.s 			page 132


 5348      5454535F 
 5348      494E4449 
 5349              	.LASF7:
 5350 2eb4 6C6F6E67 		.ascii	"long long unsigned int\000"
 5350      206C6F6E 
 5350      6720756E 
 5350      7369676E 
 5350      65642069 
 5351              	.LASF124:
 5352 2ecb 4359424C 		.ascii	"CYBLE_GATT_ERR_INVALID_HANDLE\000"
 5352      455F4741 
 5352      54545F45 
 5352      52525F49 
 5352      4E56414C 
 5353              	.LASF19:
 5354 2ee9 4359424C 		.ascii	"CYBLE_EVT_TIMEOUT\000"
 5354      455F4556 
 5354      545F5449 
 5354      4D454F55 
 5354      5400
 5355              	.LASF339:
 5356 2efb 4359424C 		.ascii	"CYBLE_EVT_CTSC_READ_DESCR_RESPONSE\000"
 5356      455F4556 
 5356      545F4354 
 5356      53435F52 
 5356      4541445F 
 5357              	.LASF148:
 5358 2f1e 4359424C 		.ascii	"CYBLE_GATT_ERR_MISSING_CRC\000"
 5358      455F4741 
 5358      54545F45 
 5358      52525F4D 
 5358      49535349 
 5359              	.LASF120:
 5360 2f39 4359424C 		.ascii	"CYBLE_ERROR_INVALID_STATE\000"
 5360      455F4552 
 5360      524F525F 
 5360      494E5641 
 5360      4C49445F 
 5361              	.LASF163:
 5362 2f53 4359424C 		.ascii	"CYBLE_GATT_DB_ATTR_HANDLE_T\000"
 5362      455F4741 
 5362      54545F44 
 5362      425F4154 
 5362      54525F48 
 5363              	.LASF240:
 5364 2f6f 4359424C 		.ascii	"CYBLE_EVT_AIOSS_INDICATION_ENABLED\000"
 5364      455F4556 
 5364      545F4149 
 5364      4F53535F 
 5364      494E4449 
 5365              	.LASF80:
 5366 2f92 4359424C 		.ascii	"CYBLE_EVT_L2CAP_CBFC_DATA_READ\000"
 5366      455F4556 
 5366      545F4C32 
 5366      4341505F 
 5366      43424643 
 5367              	.LASF123:
ARM GAS  C:\Users\User\AppData\Local\Temp\ccR9uRpe.s 			page 133


 5368 2fb1 4359424C 		.ascii	"CYBLE_GATT_ERR_NONE\000"
 5368      455F4741 
 5368      54545F45 
 5368      52525F4E 
 5368      4F4E4500 
 5369              	.LASF169:
 5370 2fc5 76616C75 		.ascii	"value\000"
 5370      6500
 5371              	.LASF315:
 5372 2fcb 4359424C 		.ascii	"CYBLE_EVT_CPSC_NOTIFICATION\000"
 5372      455F4556 
 5372      545F4350 
 5372      53435F4E 
 5372      4F544946 
 5373              	.LASF290:
 5374 2fe7 4359424C 		.ascii	"CYBLE_EVT_BLSC_WRITE_DESCR_RESPONSE\000"
 5374      455F4556 
 5374      545F424C 
 5374      53435F57 
 5374      52495445 
 5375              	.LASF203:
 5376 300b 4359424C 		.ascii	"CYBLE_HTS_TEMP_TYPE\000"
 5376      455F4854 
 5376      535F5445 
 5376      4D505F54 
 5376      59504500 
 5377              	.LASF189:
 5378 301f 61747456 		.ascii	"attValue\000"
 5378      616C7565 
 5378      00
 5379              	.LASF427:
 5380 3028 4359424C 		.ascii	"CYBLE_EVT_LNSC_NOTIFICATION\000"
 5380      455F4556 
 5380      545F4C4E 
 5380      53435F4E 
 5380      4F544946 
 5381              	.LASF337:
 5382 3044 4359424C 		.ascii	"CYBLE_EVT_CTSC_NOTIFICATION\000"
 5382      455F4556 
 5382      545F4354 
 5382      53435F4E 
 5382      4F544946 
 5383              	.LASF114:
 5384 3060 4359424C 		.ascii	"CYBLE_ERROR_FLASH_WRITE\000"
 5384      455F4552 
 5384      524F525F 
 5384      464C4153 
 5384      485F5752 
 5385              	.LASF357:
 5386 3078 4359424C 		.ascii	"CYBLE_EVT_GLSS_INDICATION_DISABLED\000"
 5386      455F4556 
 5386      545F474C 
 5386      53535F49 
 5386      4E444943 
 5387              	.LASF145:
 5388 309b 4359424C 		.ascii	"CYBLE_GATT_ERR_HTS_OUT_OF_RANGE\000"
 5388      455F4741 
ARM GAS  C:\Users\User\AppData\Local\Temp\ccR9uRpe.s 			page 134


 5388      54545F45 
 5388      52525F48 
 5388      54535F4F 
 5389              	.LASF243:
 5390 30bb 4359424C 		.ascii	"CYBLE_EVT_AIOSS_CHAR_WRITE\000"
 5390      455F4556 
 5390      545F4149 
 5390      4F53535F 
 5390      43484152 
 5391              	.LASF231:
 5392 30d6 4359424C 		.ascii	"CYBLE_EVT_GATTC_SRVC_DUPLICATION\000"
 5392      455F4556 
 5392      545F4741 
 5392      5454435F 
 5392      53525643 
 5393              	.LASF420:
 5394 30f7 4359424C 		.ascii	"CYBLE_EVT_LNSS_INDICATION_ENABLED\000"
 5394      455F4556 
 5394      545F4C4E 
 5394      53535F49 
 5394      4E444943 
 5395              	.LASF433:
 5396 3119 4359424C 		.ascii	"CYBLE_EVT_PASSS_NOTIFICATION_ENABLED\000"
 5396      455F4556 
 5396      545F5041 
 5396      5353535F 
 5396      4E4F5449 
 5397              	.LASF253:
 5398 313e 4359424C 		.ascii	"CYBLE_EVT_ANCSS_NOTIFICATION_DISABLED\000"
 5398      455F4556 
 5398      545F414E 
 5398      4353535F 
 5398      4E4F5449 
 5399              	.LASF544:
 5400 3164 6379426C 		.ascii	"cyBle_htssReqHandle\000"
 5400      655F6874 
 5400      73735265 
 5400      7148616E 
 5400      646C6500 
 5401              	.LASF173:
 5402 3178 636F6E6E 		.ascii	"connHandle\000"
 5402      48616E64 
 5402      6C6500
 5403              	.LASF554:
 5404 3183 4379426C 		.ascii	"CyBle_HtsInit\000"
 5404      655F4874 
 5404      73496E69 
 5404      7400
 5405              	.LASF176:
 5406 3191 61637475 		.ascii	"actualLength\000"
 5406      616C4C65 
 5406      6E677468 
 5406      00
 5407              	.LASF269:
 5408 319e 4359424C 		.ascii	"CYBLE_EVT_BASS_NOTIFICATION_DISABLED\000"
 5408      455F4556 
 5408      545F4241 
ARM GAS  C:\Users\User\AppData\Local\Temp\ccR9uRpe.s 			page 135


 5408      53535F4E 
 5408      4F544946 
 5409              	.LASF440:
 5410 31c3 4359424C 		.ascii	"CYBLE_EVT_PLXSS_WRITE_CHAR\000"
 5410      455F4556 
 5410      545F504C 
 5410      5853535F 
 5410      57524954 
 5411              	.LASF307:
 5412 31de 4359424C 		.ascii	"CYBLE_EVT_CPSS_NOTIFICATION_ENABLED\000"
 5412      455F4556 
 5412      545F4350 
 5412      53535F4E 
 5412      4F544946 
 5413              	.LASF476:
 5414 3202 4359424C 		.ascii	"CYBLE_EVT_TPSC_READ_DESCR_RESPONSE\000"
 5414      455F4556 
 5414      545F5450 
 5414      53435F52 
 5414      4541445F 
 5415              	.LASF546:
 5416 3225 6379426C 		.ascii	"cyBle_pendingFlashWrite\000"
 5416      655F7065 
 5416      6E64696E 
 5416      67466C61 
 5416      73685772 
 5417              	.LASF491:
 5418 323d 4359424C 		.ascii	"CYBLE_EVT_UDSC_ERROR_RESPONSE\000"
 5418      455F4556 
 5418      545F5544 
 5418      53435F45 
 5418      52524F52 
 5419              	.LASF55:
 5420 325b 4359424C 		.ascii	"CYBLE_EVT_GATTC_FIND_INFO_RSP\000"
 5420      455F4556 
 5420      545F4741 
 5420      5454435F 
 5420      46494E44 
 5421              	.LASF54:
 5422 3279 4359424C 		.ascii	"CYBLE_EVT_GATTC_READ_BY_TYPE_RSP\000"
 5422      455F4556 
 5422      545F4741 
 5422      5454435F 
 5422      52454144 
 5423              	.LASF434:
 5424 329a 4359424C 		.ascii	"CYBLE_EVT_PASSS_NOTIFICATION_DISABLED\000"
 5424      455F4556 
 5424      545F5041 
 5424      5353535F 
 5424      4E4F5449 
 5425              	.LASF305:
 5426 32c0 4359424C 		.ascii	"CYBLE_EVT_CGMSC_READ_DESCR_RESPONSE\000"
 5426      455F4556 
 5426      545F4347 
 5426      4D53435F 
 5426      52454144 
 5427              	.LASF376:
ARM GAS  C:\Users\User\AppData\Local\Temp\ccR9uRpe.s 			page 136


 5428 32e4 4359424C 		.ascii	"CYBLE_EVT_HIDSC_READ_CHAR_RESPONSE\000"
 5428      455F4556 
 5428      545F4849 
 5428      4453435F 
 5428      52454144 
 5429              	.LASF150:
 5430 3307 4359424C 		.ascii	"CYBLE_GATTS_ERR_OPERATION_FAILED\000"
 5430      455F4741 
 5430      5454535F 
 5430      4552525F 
 5430      4F504552 
 5431              	.LASF521:
 5432 3328 61706952 		.ascii	"apiResult\000"
 5432      6573756C 
 5432      7400
 5433              	.LASF550:
 5434 3332 6379426C 		.ascii	"cyBle_state\000"
 5434      655F7374 
 5434      61746500 
 5435              	.LASF473:
 5436 333e 4359424C 		.ascii	"CYBLE_EVT_TPSS_NOTIFICATION_DISABLED\000"
 5436      455F4556 
 5436      545F5450 
 5436      53535F4E 
 5436      4F544946 
 5437              	.LASF470:
 5438 3363 4359424C 		.ascii	"CYBLE_EVT_SCPSC_READ_DESCR_RESPONSE\000"
 5438      455F4556 
 5438      545F5343 
 5438      5053435F 
 5438      52454144 
 5439              	.LASF395:
 5440 3387 4359424C 		.ascii	"CYBLE_EVT_HRSC_WRITE_DESCR_RESPONSE\000"
 5440      455F4556 
 5440      545F4852 
 5440      53435F57 
 5440      52495445 
 5441              	.LASF540:
 5442 33ab 4379426C 		.ascii	"CyBle_HtssSendIndication\000"
 5442      655F4874 
 5442      73735365 
 5442      6E64496E 
 5442      64696361 
 5443              	.LASF425:
 5444 33c4 4359424C 		.ascii	"CYBLE_EVT_LNSS_WRITE_CHAR\000"
 5444      455F4556 
 5444      545F4C4E 
 5444      53535F57 
 5444      52495445 
 5445              	.LASF348:
 5446 33de 4359424C 		.ascii	"CYBLE_EVT_ESSS_CHAR_WRITE\000"
 5446      455F4556 
 5446      545F4553 
 5446      53535F43 
 5446      4841525F 
 5447              	.LASF61:
 5448 33f8 4359424C 		.ascii	"CYBLE_EVT_GATTC_WRITE_RSP\000"
ARM GAS  C:\Users\User\AppData\Local\Temp\ccR9uRpe.s 			page 137


 5448      455F4556 
 5448      545F4741 
 5448      5454435F 
 5448      57524954 
 5449              	.LASF343:
 5450 3412 4359424C 		.ascii	"CYBLE_EVT_ESSS_NOTIFICATION_ENABLED\000"
 5450      455F4556 
 5450      545F4553 
 5450      53535F4E 
 5450      4F544946 
 5451              	.LASF516:
 5452 3436 4359424C 		.ascii	"CYBLE_STATE_DISCONNECTED\000"
 5452      455F5354 
 5452      4154455F 
 5452      44495343 
 5452      4F4E4E45 
 5453              	.LASF184:
 5454 344f 4359424C 		.ascii	"CYBLE_GATTS_ATT_VALUE_T\000"
 5454      455F4741 
 5454      5454535F 
 5454      4154545F 
 5454      56414C55 
 5455              	.LASF458:
 5456 3467 4359424C 		.ascii	"CYBLE_EVT_RSCSC_NOTIFICATION\000"
 5456      455F4556 
 5456      545F5253 
 5456      4353435F 
 5456      4E4F5449 
 5457              	.LASF181:
 5458 3484 4359424C 		.ascii	"CYBLE_GATTS_ATT_PACK_VAL_LEN_T\000"
 5458      455F4741 
 5458      5454535F 
 5458      4154545F 
 5458      5041434B 
 5459              	.LASF30:
 5460 34a3 4359424C 		.ascii	"CYBLE_EVT_GAPP_ADVERTISEMENT_START_STOP\000"
 5460      455F4556 
 5460      545F4741 
 5460      50505F41 
 5460      44564552 
 5461              	.LASF283:
 5462 34cb 4359424C 		.ascii	"CYBLE_EVT_BLSS_INDICATION_CONFIRMED\000"
 5462      455F4556 
 5462      545F424C 
 5462      53535F49 
 5462      4E444943 
 5463              	.LASF502:
 5464 34ef 4359424C 		.ascii	"CYBLE_EVT_WPTSC_READ_DESCR_RESPONSE\000"
 5464      455F4556 
 5464      545F5750 
 5464      5453435F 
 5464      52454144 
 5465              	.LASF255:
 5466 3513 4359424C 		.ascii	"CYBLE_EVT_ANCSC_NOTIFICATION\000"
 5466      455F4556 
 5466      545F414E 
 5466      4353435F 
ARM GAS  C:\Users\User\AppData\Local\Temp\ccR9uRpe.s 			page 138


 5466      4E4F5449 
 5467              	.LASF177:
 5468 3530 61747447 		.ascii	"attGenericVal\000"
 5468      656E6572 
 5468      69635661 
 5468      6C00
 5469              	.LASF212:
 5470 353e 63686172 		.ascii	"charHandle\000"
 5470      48616E64 
 5470      6C6500
 5471              	.LASF304:
 5472 3549 4359424C 		.ascii	"CYBLE_EVT_CGMSC_WRITE_CHAR_RESPONSE\000"
 5472      455F4556 
 5472      545F4347 
 5472      4D53435F 
 5472      57524954 
 5473              	.LASF9:
 5474 356d 75696E74 		.ascii	"uint8\000"
 5474      3800
 5475              	.LASF404:
 5476 3573 4359424C 		.ascii	"CYBLE_EVT_HTSC_READ_CHAR_RESPONSE\000"
 5476      455F4556 
 5476      545F4854 
 5476      53435F52 
 5476      4541445F 
 5477              	.LASF38:
 5478 3595 4359424C 		.ascii	"CYBLE_EVT_GAP_KEYPRESS_NOTIFICATION\000"
 5478      455F4556 
 5478      545F4741 
 5478      505F4B45 
 5478      59505245 
 5479              	.LASF439:
 5480 35b9 4359424C 		.ascii	"CYBLE_EVT_PASSC_WRITE_DESCR_RESPONSE\000"
 5480      455F4556 
 5480      545F5041 
 5480      5353435F 
 5480      57524954 
 5481              	.LASF424:
 5482 35de 4359424C 		.ascii	"CYBLE_EVT_LNSS_NOTIFICATION_DISABLED\000"
 5482      455F4556 
 5482      545F4C4E 
 5482      53535F4E 
 5482      4F544946 
 5483              	.LASF2:
 5484 3603 73686F72 		.ascii	"short int\000"
 5484      7420696E 
 5484      7400
 5485              	.LASF174:
 5486 360d 68616E64 		.ascii	"handleValPair\000"
 5486      6C655661 
 5486      6C506169 
 5486      7200
 5487              	.LASF291:
 5488 361b 4359424C 		.ascii	"CYBLE_EVT_BMSS_WRITE_CHAR\000"
 5488      455F4556 
 5488      545F424D 
 5488      53535F57 
ARM GAS  C:\Users\User\AppData\Local\Temp\ccR9uRpe.s 			page 139


 5488      52495445 
 5489              	.LASF180:
 5490 3635 61747447 		.ascii	"attGenericValLen\000"
 5490      656E6572 
 5490      69635661 
 5490      6C4C656E 
 5490      00
 5491              	.LASF182:
 5492 3646 61747446 		.ascii	"attFormatValue\000"
 5492      6F726D61 
 5492      7456616C 
 5492      756500
 5493              	.LASF248:
 5494 3655 4359424C 		.ascii	"CYBLE_EVT_AIOSC_WRITE_CHAR_RESPONSE\000"
 5494      455F4556 
 5494      545F4149 
 5494      4F53435F 
 5494      57524954 
 5495              	.LASF112:
 5496 3679 4359424C 		.ascii	"CYBLE_ERROR_HARDWARE_FAILURE\000"
 5496      455F4552 
 5496      524F525F 
 5496      48415244 
 5496      57415245 
 5497              	.LASF144:
 5498 3696 4359424C 		.ascii	"CYBLE_GATT_ERR_CPS_INAPPROPRIATE_CONNECTION_PARAMET"
 5498      455F4741 
 5498      54545F45 
 5498      52525F43 
 5498      50535F49 
 5499 36c9 45525300 		.ascii	"ERS\000"
 5500              	.LASF302:
 5501 36cd 4359424C 		.ascii	"CYBLE_EVT_CGMSC_NOTIFICATION\000"
 5501      455F4556 
 5501      545F4347 
 5501      4D53435F 
 5501      4E4F5449 
 5502              	.LASF129:
 5503 36ea 4359424C 		.ascii	"CYBLE_GATT_ERR_REQUEST_NOT_SUPPORTED\000"
 5503      455F4741 
 5503      54545F45 
 5503      52525F52 
 5503      45515545 
 5504              	.LASF202:
 5505 370f 4359424C 		.ascii	"CYBLE_HTS_TEMP_MEASURE\000"
 5505      455F4854 
 5505      535F5445 
 5505      4D505F4D 
 5505      45415355 
 5506              	.LASF48:
 5507 3726 4359424C 		.ascii	"CYBLE_EVT_GATTC_ERROR_RSP\000"
 5507      455F4556 
 5507      545F4741 
 5507      5454435F 
 5507      4552524F 
 5508              	.LASF353:
 5509 3740 4359424C 		.ascii	"CYBLE_EVT_ESSC_WRITE_CHAR_RESPONSE\000"
ARM GAS  C:\Users\User\AppData\Local\Temp\ccR9uRpe.s 			page 140


 5509      455F4556 
 5509      545F4553 
 5509      53435F57 
 5509      52495445 
 5510              	.LASF259:
 5511 3763 4359424C 		.ascii	"CYBLE_EVT_ANCSC_ERROR_RESPONSE\000"
 5511      455F4556 
 5511      545F414E 
 5511      4353435F 
 5511      4552524F 
 5512              	.LASF273:
 5513 3782 4359424C 		.ascii	"CYBLE_EVT_BASC_WRITE_DESCR_RESPONSE\000"
 5513      455F4556 
 5513      545F4241 
 5513      53435F57 
 5513      52495445 
 5514              	.LASF227:
 5515 37a6 4359424C 		.ascii	"CYBLE_EVT_GATTC_SRVC_DISCOVERY_FAILED\000"
 5515      455F4556 
 5515      545F4741 
 5515      5454435F 
 5515      53525643 
 5516              	.LASF356:
 5517 37cc 4359424C 		.ascii	"CYBLE_EVT_GLSS_INDICATION_ENABLED\000"
 5517      455F4556 
 5517      545F474C 
 5517      53535F49 
 5517      4E444943 
 5518              	.LASF262:
 5519 37ee 4359424C 		.ascii	"CYBLE_EVT_ANSS_CHAR_WRITE\000"
 5519      455F4556 
 5519      545F414E 
 5519      53535F43 
 5519      4841525F 
 5520              	.LASF76:
 5521 3808 4359424C 		.ascii	"CYBLE_EVT_L2CAP_CBFC_CONN_IND\000"
 5521      455F4556 
 5521      545F4C32 
 5521      4341505F 
 5521      43424643 
 5522              	.LASF64:
 5523 3826 4359424C 		.ascii	"CYBLE_EVT_GATTS_EXEC_WRITE_REQ\000"
 5523      455F4556 
 5523      545F4741 
 5523      5454535F 
 5523      45584543 
 5524              	.LASF24:
 5525 3845 4359424C 		.ascii	"CYBLE_EVT_GAPC_SCAN_PROGRESS_RESULT\000"
 5525      455F4556 
 5525      545F4741 
 5525      50435F53 
 5525      43414E5F 
 5526              	.LASF385:
 5527 3869 4359424C 		.ascii	"CYBLE_EVT_HPSC_READ_DESCR_RESPONSE\000"
 5527      455F4556 
 5527      545F4850 
 5527      53435F52 
ARM GAS  C:\Users\User\AppData\Local\Temp\ccR9uRpe.s 			page 141


 5527      4541445F 
 5528              	.LASF336:
 5529 388c 4359424C 		.ascii	"CYBLE_EVT_CTSS_CHAR_WRITE\000"
 5529      455F4556 
 5529      545F4354 
 5529      53535F43 
 5529      4841525F 
 5530              	.LASF478:
 5531 38a6 4359424C 		.ascii	"CYBLE_EVT_UDSS_INDICATION_ENABLED\000"
 5531      455F4556 
 5531      545F5544 
 5531      53535F49 
 5531      4E444943 
 5532              	.LASF416:
 5533 38c8 4359424C 		.ascii	"CYBLE_EVT_IPSC_READ_BLOB_RSP\000"
 5533      455F4556 
 5533      545F4950 
 5533      53435F52 
 5533      4541445F 
 5534              	.LASF162:
 5535 38e5 4359424C 		.ascii	"CYBLE_GATT_ERR_CODE_T\000"
 5535      455F4741 
 5535      54545F45 
 5535      52525F43 
 5535      4F44455F 
 5536              	.LASF157:
 5537 38fb 4359424C 		.ascii	"CYBLE_GATT_ERR_ANCS_INVALID_PARAMETER\000"
 5537      455F4741 
 5537      54545F45 
 5537      52525F41 
 5537      4E43535F 
 5538              	.LASF98:
 5539 3921 4359424C 		.ascii	"CYBLE_ERROR_GAP_ROLE\000"
 5539      455F4552 
 5539      524F525F 
 5539      4741505F 
 5539      524F4C45 
 5540              	.LASF398:
 5541 3936 4359424C 		.ascii	"CYBLE_EVT_HTSS_INDICATION_ENABLED\000"
 5541      455F4556 
 5541      545F4854 
 5541      53535F49 
 5541      4E444943 
 5542              	.LASF489:
 5543 3958 4359424C 		.ascii	"CYBLE_EVT_UDSC_READ_DESCR_RESPONSE\000"
 5543      455F4556 
 5543      545F5544 
 5543      53435F52 
 5543      4541445F 
 5544              	.LASF244:
 5545 397b 4359424C 		.ascii	"CYBLE_EVT_AIOSS_DESCR_WRITE\000"
 5545      455F4556 
 5545      545F4149 
 5545      4F53535F 
 5545      44455343 
 5546              	.LASF45:
 5547 3997 4359424C 		.ascii	"CYBLE_EVT_GAP_SCAN_REQ_RECVD\000"
ARM GAS  C:\Users\User\AppData\Local\Temp\ccR9uRpe.s 			page 142


 5547      455F4556 
 5547      545F4741 
 5547      505F5343 
 5547      414E5F52 
 5548              	.LASF271:
 5549 39b4 4359424C 		.ascii	"CYBLE_EVT_BASC_READ_CHAR_RESPONSE\000"
 5549      455F4556 
 5549      545F4241 
 5549      53435F52 
 5549      4541445F 
 5550              	.LASF363:
 5551 39d6 4359424C 		.ascii	"CYBLE_EVT_GLSC_NOTIFICATION\000"
 5551      455F4556 
 5551      545F474C 
 5551      53435F4E 
 5551      4F544946 
 5552              	.LASF154:
 5553 39f2 4359424C 		.ascii	"CYBLE_GATT_ERR_ANS_COMMAND_NOT_SUPPORTED\000"
 5553      455F4741 
 5553      54545F45 
 5553      52525F41 
 5553      4E535F43 
 5554              	.LASF468:
 5555 3a1b 4359424C 		.ascii	"CYBLE_EVT_SCPSS_SCAN_INT_WIN_CHAR_WRITE\000"
 5555      455F4556 
 5555      545F5343 
 5555      5053535F 
 5555      5343414E 
 5556              	.LASF545:
 5557 3a43 6379426C 		.ascii	"cyBle_eventHandlerFlag\000"
 5557      655F6576 
 5557      656E7448 
 5557      616E646C 
 5557      6572466C 
 5558              	.LASF216:
 5559 3a5a 63686172 		.ascii	"charInfo\000"
 5559      496E666F 
 5559      00
 5560              	.LASF95:
 5561 3a63 4359424C 		.ascii	"CYBLE_ERROR_NO_CONNECTION\000"
 5561      455F4552 
 5561      524F525F 
 5561      4E4F5F43 
 5561      4F4E4E45 
 5562              	.LASF294:
 5563 3a7d 4359424C 		.ascii	"CYBLE_EVT_BMSC_READ_DESCR_RESPONSE\000"
 5563      455F4556 
 5563      545F424D 
 5563      53435F52 
 5563      4541445F 
 5564              	.LASF85:
 5565 3aa0 4359424C 		.ascii	"CYBLE_EVT_LE_PING_AUTH_TIMEOUT\000"
 5565      455F4556 
 5565      545F4C45 
 5565      5F50494E 
 5565      475F4155 
 5566              	.LASF122:
ARM GAS  C:\Users\User\AppData\Local\Temp\ccR9uRpe.s 			page 143


 5567 3abf 4359424C 		.ascii	"CYBLE_API_RESULT_T\000"
 5567      455F4150 
 5567      495F5245 
 5567      53554C54 
 5567      5F5400
 5568              	.LASF296:
 5569 3ad2 4359424C 		.ascii	"CYBLE_EVT_CGMSS_INDICATION_DISABLED\000"
 5569      455F4556 
 5569      545F4347 
 5569      4D53535F 
 5569      494E4449 
 5570              	.LASF237:
 5571 3af6 4359424C 		.ascii	"CYBLE_EVT_GATTC_DISCOVERY_COMPLETE\000"
 5571      455F4556 
 5571      545F4741 
 5571      5454435F 
 5571      44495343 
 5572              	.LASF300:
 5573 3b19 4359424C 		.ascii	"CYBLE_EVT_CGMSS_WRITE_CHAR\000"
 5573      455F4556 
 5573      545F4347 
 5573      4D53535F 
 5573      57524954 
 5574              	.LASF367:
 5575 3b34 4359424C 		.ascii	"CYBLE_EVT_GLSC_WRITE_DESCR_RESPONSE\000"
 5575      455F4556 
 5575      545F474C 
 5575      53435F57 
 5575      52495445 
 5576              	.LASF67:
 5577 3b58 4359424C 		.ascii	"CYBLE_EVT_GATTC_HANDLE_VALUE_IND\000"
 5577      455F4556 
 5577      545F4741 
 5577      5454435F 
 5577      48414E44 
 5578              	.LASF321:
 5579 3b79 4359424C 		.ascii	"CYBLE_EVT_CPSC_SCAN_PROGRESS_RESULT\000"
 5579      455F4556 
 5579      545F4350 
 5579      53435F53 
 5579      43414E5F 
 5580              	.LASF462:
 5581 3b9d 4359424C 		.ascii	"CYBLE_EVT_RSCSC_READ_DESCR_RESPONSE\000"
 5581      455F4556 
 5581      545F5253 
 5581      4353435F 
 5581      52454144 
 5582              	.LASF101:
 5583 3bc1 4359424C 		.ascii	"CYBLE_ERROR_SEC_FAILED\000"
 5583      455F4552 
 5583      524F525F 
 5583      5345435F 
 5583      4641494C 
 5584              	.LASF22:
 5585 3bd8 4359424C 		.ascii	"CYBLE_EVT_STACK_BUSY_STATUS\000"
 5585      455F4556 
 5585      545F5354 
ARM GAS  C:\Users\User\AppData\Local\Temp\ccR9uRpe.s 			page 144


 5585      41434B5F 
 5585      42555359 
 5586              	.LASF415:
 5587 3bf4 4359424C 		.ascii	"CYBLE_EVT_IPSC_ERROR_RESPONSE\000"
 5587      455F4556 
 5587      545F4950 
 5587      53435F45 
 5587      52524F52 
 5588              	.LASF407:
 5589 3c12 4359424C 		.ascii	"CYBLE_EVT_HTSC_WRITE_DESCR_RESPONSE\000"
 5589      455F4556 
 5589      545F4854 
 5589      53435F57 
 5589      52495445 
 5590              	.LASF36:
 5591 3c36 4359424C 		.ascii	"CYBLE_EVT_GAP_KEYINFO_EXCHNGE_CMPLT\000"
 5591      455F4556 
 5591      545F4741 
 5591      505F4B45 
 5591      59494E46 
 5592              	.LASF539:
 5593 3c5a 6E746652 		.ascii	"ntfReqParam\000"
 5593      65715061 
 5593      72616D00 
 5594              	.LASF503:
 5595 3c66 4359424C 		.ascii	"CYBLE_EVT_WPTSC_WRITE_DESCR_RESPONSE\000"
 5595      455F4556 
 5595      545F5750 
 5595      5453435F 
 5595      57524954 
 5596              	.LASF73:
 5597 3c8b 4359424C 		.ascii	"CYBLE_EVT_L2CAP_CONN_PARAM_UPDATE_REQ\000"
 5597      455F4556 
 5597      545F4C32 
 5597      4341505F 
 5597      434F4E4E 
 5598              	.LASF299:
 5599 3cb1 4359424C 		.ascii	"CYBLE_EVT_CGMSS_NOTIFICATION_DISABLED\000"
 5599      455F4556 
 5599      545F4347 
 5599      4D53535F 
 5599      4E4F5449 
 5600              	.LASF217:
 5601 3cd7 4359424C 		.ascii	"CYBLE_HTSS_T\000"
 5601      455F4854 
 5601      53535F54 
 5601      00
 5602              	.LASF532:
 5603 3ce4 67617474 		.ascii	"gattErr\000"
 5603      45727200 
 5604              	.LASF228:
 5605 3cec 4359424C 		.ascii	"CYBLE_EVT_GATTC_INCL_DISCOVERY_FAILED\000"
 5605      455F4556 
 5605      545F4741 
 5605      5454435F 
 5605      494E434C 
 5606              	.LASF126:
ARM GAS  C:\Users\User\AppData\Local\Temp\ccR9uRpe.s 			page 145


 5607 3d12 4359424C 		.ascii	"CYBLE_GATT_ERR_WRITE_NOT_PERMITTED\000"
 5607      455F4741 
 5607      54545F45 
 5607      52525F57 
 5607      52495445 
 5608              	.LASF225:
 5609 3d35 4359424C 		.ascii	"CYBLE_EVT_GATTS_INDICATION_DISABLED\000"
 5609      455F4556 
 5609      545F4741 
 5609      5454535F 
 5609      494E4449 
 5610              	.LASF3:
 5611 3d59 73686F72 		.ascii	"short unsigned int\000"
 5611      7420756E 
 5611      7369676E 
 5611      65642069 
 5611      6E7400
 5612              	.LASF138:
 5613 3d6c 4359424C 		.ascii	"CYBLE_GATT_ERR_INSUFFICIENT_ENCRYPTION\000"
 5613      455F4741 
 5613      54545F45 
 5613      52525F49 
 5613      4E535546 
 5614              	.LASF265:
 5615 3d93 4359424C 		.ascii	"CYBLE_EVT_ANSC_WRITE_CHAR_RESPONSE\000"
 5615      455F4556 
 5615      545F414E 
 5615      53435F57 
 5615      52495445 
 5616              	.LASF365:
 5617 3db6 4359424C 		.ascii	"CYBLE_EVT_GLSC_WRITE_CHAR_RESPONSE\000"
 5617      455F4556 
 5617      545F474C 
 5617      53435F57 
 5617      52495445 
 5618              	.LASF430:
 5619 3dd9 4359424C 		.ascii	"CYBLE_EVT_LNSC_READ_DESCR_RESPONSE\000"
 5619      455F4556 
 5619      545F4C4E 
 5619      53435F52 
 5619      4541445F 
 5620              	.LASF514:
 5621 3dfc 4359424C 		.ascii	"CYBLE_STATE_CONNECTED\000"
 5621      455F5354 
 5621      4154455F 
 5621      434F4E4E 
 5621      45435445 
 5622              	.LASF167:
 5623 3e12 61637475 		.ascii	"actualLen\000"
 5623      616C4C65 
 5623      6E00
 5624              	.LASF254:
 5625 3e1c 4359424C 		.ascii	"CYBLE_EVT_ANCSS_WRITE_CHAR\000"
 5625      455F4556 
 5625      545F414E 
 5625      4353535F 
 5625      57524954 
ARM GAS  C:\Users\User\AppData\Local\Temp\ccR9uRpe.s 			page 146


 5626              	.LASF362:
 5627 3e37 4359424C 		.ascii	"CYBLE_EVT_GLSC_INDICATION\000"
 5627      455F4556 
 5627      545F474C 
 5627      53435F49 
 5627      4E444943 
 5628              	.LASF313:
 5629 3e51 4359424C 		.ascii	"CYBLE_EVT_CPSS_BROADCAST_DISABLED\000"
 5629      455F4556 
 5629      545F4350 
 5629      53535F42 
 5629      524F4144 
 5630              	.LASF165:
 5631 3e73 61747449 		.ascii	"attId\000"
 5631      6400
 5632              	.LASF91:
 5633 3e79 4359424C 		.ascii	"CYBLE_ERROR_INVALID_OPERATION\000"
 5633      455F4552 
 5633      524F525F 
 5633      494E5641 
 5633      4C49445F 
 5634              	.LASF21:
 5635 3e97 4359424C 		.ascii	"CYBLE_EVT_HCI_STATUS\000"
 5635      455F4556 
 5635      545F4843 
 5635      495F5354 
 5635      41545553 
 5636              	.LASF50:
 5637 3eac 4359424C 		.ascii	"CYBLE_EVT_GATT_DISCONNECT_IND\000"
 5637      455F4556 
 5637      545F4741 
 5637      54545F44 
 5637      4953434F 
 5638              	.LASF223:
 5639 3eca 4359424C 		.ascii	"CYBLE_KEY_EXCHANGE_INFO_REQUEST_REPLY\000"
 5639      455F4B45 
 5639      595F4558 
 5639      4348414E 
 5639      47455F49 
 5640              	.LASF83:
 5641 3ef0 4359424C 		.ascii	"CYBLE_EVT_L2CAP_CBFC_DATA_WRITE_IND\000"
 5641      455F4556 
 5641      545F4C32 
 5641      4341505F 
 5641      43424643 
 5642              	.LASF221:
 5643 3f14 4359424C 		.ascii	"CYBLE_PASSKEY_ENTRY_REQUEST_REPLY\000"
 5643      455F5041 
 5643      53534B45 
 5643      595F454E 
 5643      5452595F 
 5644              	.LASF280:
 5645 3f36 4359424C 		.ascii	"CYBLE_EVT_BCSC_WRITE_DESCR_RESPONSE\000"
 5645      455F4556 
 5645      545F4243 
 5645      53435F57 
 5645      52495445 
ARM GAS  C:\Users\User\AppData\Local\Temp\ccR9uRpe.s 			page 147


 5646              	.LASF508:
 5647 3f5a 4359424C 		.ascii	"CYBLE_EVT_WSSC_READ_CHAR_RESPONSE\000"
 5647      455F4556 
 5647      545F5753 
 5647      53435F52 
 5647      4541445F 
 5648              	.LASF72:
 5649 3f7c 4359424C 		.ascii	"CYBLE_EVT_GATTC_LONG_PROCEDURE_END\000"
 5649      455F4556 
 5649      545F4741 
 5649      5454435F 
 5649      4C4F4E47 
 5650              	.LASF263:
 5651 3f9f 4359424C 		.ascii	"CYBLE_EVT_ANSC_NOTIFICATION\000"
 5651      455F4556 
 5651      545F414E 
 5651      53435F4E 
 5651      4F544946 
 5652              	.LASF32:
 5653 3fbb 4359424C 		.ascii	"CYBLE_EVT_GAP_DEVICE_DISCONNECTED\000"
 5653      455F4556 
 5653      545F4741 
 5653      505F4445 
 5653      56494345 
 5654              	.LASF370:
 5655 3fdd 4359424C 		.ascii	"CYBLE_EVT_HIDSS_BOOT_MODE_ENTER\000"
 5655      455F4556 
 5655      545F4849 
 5655      4453535F 
 5655      424F4F54 
 5656              	.LASF68:
 5657 3ffd 4359424C 		.ascii	"CYBLE_EVT_GATTS_HANDLE_VALUE_CNF\000"
 5657      455F4556 
 5657      545F4741 
 5657      5454535F 
 5657      48414E44 
 5658              	.LASF411:
 5659 401e 4359424C 		.ascii	"CYBLE_EVT_IPSC_READ_MULTIPLE_CHAR_RESPONSE\000"
 5659      455F4556 
 5659      545F4950 
 5659      53435F52 
 5659      4541445F 
 5660              	.LASF332:
 5661 4049 4359424C 		.ascii	"CYBLE_EVT_CSCSC_READ_DESCR_RESPONSE\000"
 5661      455F4556 
 5661      545F4353 
 5661      4353435F 
 5661      52454144 
 5662              	.LASF10:
 5663 406d 75696E74 		.ascii	"uint16\000"
 5663      313600
 5664              	.LASF256:
 5665 4074 4359424C 		.ascii	"CYBLE_EVT_ANCSC_WRITE_CHAR_RESPONSE\000"
 5665      455F4556 
 5665      545F414E 
 5665      4353435F 
 5665      57524954 
ARM GAS  C:\Users\User\AppData\Local\Temp\ccR9uRpe.s 			page 148


 5666              	.LASF99:
 5667 4098 4359424C 		.ascii	"CYBLE_ERROR_TX_POWER_READ\000"
 5667      455F4552 
 5667      524F525F 
 5667      54585F50 
 5667      4F574552 
 5668              	.LASF452:
 5669 40b2 4359424C 		.ascii	"CYBLE_EVT_RSCSS_NOTIFICATION_ENABLED\000"
 5669      455F4556 
 5669      545F5253 
 5669      4353535F 
 5669      4E4F5449 
 5670              	.LASF261:
 5671 40d7 4359424C 		.ascii	"CYBLE_EVT_ANSS_NOTIFICATION_DISABLED\000"
 5671      455F4556 
 5671      545F414E 
 5671      53535F4E 
 5671      4F544946 
 5672              	.LASF403:
 5673 40fc 4359424C 		.ascii	"CYBLE_EVT_HTSC_INDICATION\000"
 5673      455F4556 
 5673      545F4854 
 5673      53435F49 
 5673      4E444943 
 5674              	.LASF368:
 5675 4116 4359424C 		.ascii	"CYBLE_EVT_HIDSS_NOTIFICATION_ENABLED\000"
 5675      455F4556 
 5675      545F4849 
 5675      4453535F 
 5675      4E4F5449 
 5676              	.LASF400:
 5677 413b 4359424C 		.ascii	"CYBLE_EVT_HTSS_INDICATION_CONFIRMED\000"
 5677      455F4556 
 5677      545F4854 
 5677      53535F49 
 5677      4E444943 
 5678              	.LASF239:
 5679 415f 4359424C 		.ascii	"CYBLE_EVT_AIOSS_NOTIFICATION_DISABLED\000"
 5679      455F4556 
 5679      545F4149 
 5679      4F53535F 
 5679      4E4F5449 
 5680              	.LASF496:
 5681 4185 4359424C 		.ascii	"CYBLE_EVT_WPTSS_INDICATION_CONFIRMED\000"
 5681      455F4556 
 5681      545F5750 
 5681      5453535F 
 5681      494E4449 
 5682              	.LASF390:
 5683 41aa 4359424C 		.ascii	"CYBLE_EVT_HRSS_NOTIFICATION_DISABLED\000"
 5683      455F4556 
 5683      545F4852 
 5683      53535F4E 
 5683      4F544946 
 5684              		.ident	"GCC: (GNU Tools for ARM Embedded Processors) 5.4.1 20160609 (release) [ARM/embedded-5-bran
