ARM GAS  C:\Users\User\AppData\Local\Temp\cckOmu7k.s 			page 1


   1              		.syntax unified
   2              		.cpu cortex-m0
   3              		.fpu softvfp
   4              		.eabi_attribute 20, 1
   5              		.eabi_attribute 21, 1
   6              		.eabi_attribute 23, 3
   7              		.eabi_attribute 24, 1
   8              		.eabi_attribute 25, 1
   9              		.eabi_attribute 26, 1
  10              		.eabi_attribute 30, 6
  11              		.eabi_attribute 34, 0
  12              		.eabi_attribute 18, 4
  13              		.thumb
  14              		.syntax unified
  15              		.file	"main.c"
  16              		.text
  17              	.Ltext0:
  18              		.cfi_sections	.debug_frame
  19              		.comm	OneWire_Sensor,32,4
  20              		.comm	OneWire_DataReady,1,1
  21              		.bss
  22              	flag_Timer:
  23 0000 00       		.space	1
  24              		.global	__aeabi_f2uiz
  25              		.section	.text.main,"ax",%progbits
  26              		.align	2
  27              		.global	main
  28              		.code	16
  29              		.thumb_func
  30              		.type	main, %function
  31              	main:
  32              	.LFB36:
  33              		.file 1 "main.c"
   1:main.c        **** /****************************************************************************
   2:main.c        **** * File Name: main.c
   3:main.c        **** *
   4:main.c        **** * Description:
   5:main.c        **** * This file merges the whole code and send temperature
   6:main.c        **** * measurements via BLE and UART.
   7:main.c        **** *
   8:main.c        **** * Authors: Yaroslav Morozevych, Sophiia Myntiuk, Yana Mularska
   9:main.c        **** *
  10:main.c        **** *****************************************************************************/
  11:main.c        **** 
  12:main.c        **** 
  13:main.c        **** /*****************************************************************************
  14:main.c        **** * Included common headers
  15:main.c        **** *****************************************************************************/
  16:main.c        **** #include <project.h>
  17:main.c        **** #include <stdlib.h>
  18:main.c        **** #include <stdio.h>
  19:main.c        **** 
  20:main.c        **** 
  21:main.c        **** /*****************************************************************************
  22:main.c        **** * Included header files with the initialization of all need functions
  23:main.c        **** *****************************************************************************/
  24:main.c        **** #include "CommonFunctions.h"
ARM GAS  C:\Users\User\AppData\Local\Temp\cckOmu7k.s 			page 2


  25:main.c        **** #include "WatchdogTimer.h"
  26:main.c        **** #include "BLE_HTSS.h"
  27:main.c        **** #include "Temperature.h"
  28:main.c        **** 
  29:main.c        **** 
  30:main.c        **** /*****************************************************************************
  31:main.c        **** * Function Name: main()
  32:main.c        **** ******************************************************************************
  33:main.c        **** * Description:
  34:main.c        **** * Measure temperature every second and  
  35:main.c        **** * Send result to Terminal using UART and via BLE
  36:main.c        **** *
  37:main.c        **** *****************************************************************************/
  38:main.c        **** int main()
  39:main.c        **** {
  34              		.loc 1 39 0
  35              		.cfi_startproc
  36              		@ args = 0, pretend = 0, frame = 8
  37              		@ frame_needed = 1, uses_anonymous_args = 0
  38 0000 80B5     		push	{r7, lr}
  39              		.cfi_def_cfa_offset 8
  40              		.cfi_offset 7, -8
  41              		.cfi_offset 14, -4
  42 0002 82B0     		sub	sp, sp, #8
  43              		.cfi_def_cfa_offset 16
  44 0004 00AF     		add	r7, sp, #0
  45              		.cfi_def_cfa_register 7
  40:main.c        ****     /* Local variable used to store temperature information */
  41:main.c        ****     float temperature;
  42:main.c        ****     
  43:main.c        ****     /* Initialize the complete system */
  44:main.c        ****     InitializeSystem();
  46              		.loc 1 44 0
  47 0006 FFF7FEFF 		bl	InitializeSystem
  45:main.c        ****     /* Force first measument instantly */
  46:main.c        ****     flag_Timer = 1;
  48              		.loc 1 46 0
  49 000a 134B     		ldr	r3, .L4
  50 000c 0122     		movs	r2, #1
  51 000e 1A70     		strb	r2, [r3]
  52              	.L3:
  47:main.c        ****     
  48:main.c        ****     for(;;) 
  49:main.c        ****     { 
  50:main.c        ****         /* Process all pending BLE events in the stack */
  51:main.c        ****         CyBle_ProcessEvents();
  53              		.loc 1 51 0
  54 0010 FFF7FEFF 		bl	CyBle_ProcessEvents
  52:main.c        ****         
  53:main.c        ****         /***********************************************************************
  54:main.c        ****         * Wait for connection established with Central device
  55:main.c        ****         ***********************************************************************/
  56:main.c        ****         if(CyBle_GetState() == CYBLE_STATE_CONNECTED)
  55              		.loc 1 56 0
  56 0014 114B     		ldr	r3, .L4+4
  57 0016 1B78     		ldrb	r3, [r3]
  58 0018 022B     		cmp	r3, #2
ARM GAS  C:\Users\User\AppData\Local\Temp\cckOmu7k.s 			page 3


  59 001a F9D1     		bne	.L3
  57:main.c        ****         {
  58:main.c        ****             /* Process all pending BLE events in the stack */
  59:main.c        ****             CyBle_ProcessEvents();
  60              		.loc 1 59 0
  61 001c FFF7FEFF 		bl	CyBle_ProcessEvents
  60:main.c        ****             /* Periodically measure temperature and send results to the Client */
  61:main.c        ****             if(SystemFlag & WAKEUP_SOURCE_WDT)
  62              		.loc 1 61 0
  63 0020 0F4B     		ldr	r3, .L4+8
  64 0022 1B68     		ldr	r3, [r3]
  65 0024 0122     		movs	r2, #1
  66 0026 1340     		ands	r3, r2
  67 0028 F2D0     		beq	.L3
  62:main.c        ****             {
  63:main.c        ****                 /* Clear WDT wakeup source flag */
  64:main.c        ****                 SystemFlag &= ~WAKEUP_SOURCE_WDT;
  68              		.loc 1 64 0
  69 002a 0D4B     		ldr	r3, .L4+8
  70 002c 1B68     		ldr	r3, [r3]
  71 002e 0122     		movs	r2, #1
  72 0030 9343     		bics	r3, r2
  73 0032 1A00     		movs	r2, r3
  74 0034 0A4B     		ldr	r3, .L4+8
  75 0036 1A60     		str	r2, [r3]
  65:main.c        ****                 /* Measure temperature */
  66:main.c        ****                 temperature = ProcessTemperature(flag_Timer);
  76              		.loc 1 66 0
  77 0038 074B     		ldr	r3, .L4
  78 003a 1B78     		ldrb	r3, [r3]
  79 003c DBB2     		uxtb	r3, r3
  80 003e 1800     		movs	r0, r3
  81 0040 FFF7FEFF 		bl	ProcessTemperature
  82 0044 031C     		adds	r3, r0, #0
  83 0046 7B60     		str	r3, [r7, #4]
  67:main.c        ****                 /* Send temperature information over BLE */
  68:main.c        ****                 ProcessBLE(temperature);
  84              		.loc 1 68 0
  85 0048 7868     		ldr	r0, [r7, #4]
  86 004a FFF7FEFF 		bl	__aeabi_f2uiz
  87 004e 0300     		movs	r3, r0
  88 0050 1800     		movs	r0, r3
  89 0052 FFF7FEFF 		bl	ProcessBLE
  69:main.c        ****             }
  70:main.c        ****         }
  71:main.c        ****     }
  90              		.loc 1 71 0
  91 0056 DBE7     		b	.L3
  92              	.L5:
  93              		.align	2
  94              	.L4:
  95 0058 00000000 		.word	flag_Timer
  96 005c 00000000 		.word	cyBle_state
  97 0060 00000000 		.word	SystemFlag
  98              		.cfi_endproc
  99              	.LFE36:
 100              		.size	main, .-main
ARM GAS  C:\Users\User\AppData\Local\Temp\cckOmu7k.s 			page 4


 101              		.text
 102              	.Letext0:
 103              		.file 2 "Generated_Source\\PSoC4/cytypes.h"
 104              		.file 3 "Generated_Source\\PSoC4/OneWire.h"
 105              		.file 4 "Generated_Source\\PSoC4/BLE_Stack.h"
 106              		.file 5 "Generated_Source\\PSoC4/BLE_dis.h"
 107              		.file 6 "Generated_Source\\PSoC4/BLE_hts.h"
 108              		.file 7 "Generated_Source\\PSoC4/BLE_eventHandler.h"
 109              		.file 8 "Temperature.h"
 110              		.file 9 "CommonFunctions.h"