ARM GAS  C:\Users\User\AppData\Local\Temp\ccELIHfu.s 			page 1


   1              		.syntax unified
   2              		.cpu cortex-m0
   3              		.fpu softvfp
   4              		.eabi_attribute 20, 1
   5              		.eabi_attribute 21, 1
   6              		.eabi_attribute 23, 3
   7              		.eabi_attribute 24, 1
   8              		.eabi_attribute 25, 1
   9              		.eabi_attribute 26, 1
  10              		.eabi_attribute 30, 6
  11              		.eabi_attribute 34, 0
  12              		.eabi_attribute 18, 4
  13              		.thumb
  14              		.syntax unified
  15              		.file	"OneWire_ControlReg_SEL_PM.c"
  16              		.text
  17              	.Ltext0:
  18              		.cfi_sections	.debug_frame
  19              		.bss
  20              		.align	2
  21              	OneWire_ControlReg_SEL_backup:
  22 0000 00       		.space	1
  23              		.section	.text.OneWire_ControlReg_SEL_SaveConfig,"ax",%progbits
  24              		.align	2
  25              		.global	OneWire_ControlReg_SEL_SaveConfig
  26              		.code	16
  27              		.thumb_func
  28              		.type	OneWire_ControlReg_SEL_SaveConfig, %function
  29              	OneWire_ControlReg_SEL_SaveConfig:
  30              	.LFB0:
  31              		.file 1 "Generated_Source\\PSoC4\\OneWire_ControlReg_SEL_PM.c"
   1:Generated_Source\PSoC4/OneWire_ControlReg_SEL_PM.c **** /*******************************************************************************
   2:Generated_Source\PSoC4/OneWire_ControlReg_SEL_PM.c **** * File Name: OneWire_ControlReg_SEL_PM.c
   3:Generated_Source\PSoC4/OneWire_ControlReg_SEL_PM.c **** * Version 1.80
   4:Generated_Source\PSoC4/OneWire_ControlReg_SEL_PM.c **** *
   5:Generated_Source\PSoC4/OneWire_ControlReg_SEL_PM.c **** * Description:
   6:Generated_Source\PSoC4/OneWire_ControlReg_SEL_PM.c **** *  This file contains the setup, control, and status commands to support 
   7:Generated_Source\PSoC4/OneWire_ControlReg_SEL_PM.c **** *  the component operation in the low power mode. 
   8:Generated_Source\PSoC4/OneWire_ControlReg_SEL_PM.c **** *
   9:Generated_Source\PSoC4/OneWire_ControlReg_SEL_PM.c **** * Note:
  10:Generated_Source\PSoC4/OneWire_ControlReg_SEL_PM.c **** *
  11:Generated_Source\PSoC4/OneWire_ControlReg_SEL_PM.c **** ********************************************************************************
  12:Generated_Source\PSoC4/OneWire_ControlReg_SEL_PM.c **** * Copyright 2015, Cypress Semiconductor Corporation.  All rights reserved.
  13:Generated_Source\PSoC4/OneWire_ControlReg_SEL_PM.c **** * You may use this file only in accordance with the license, terms, conditions, 
  14:Generated_Source\PSoC4/OneWire_ControlReg_SEL_PM.c **** * disclaimers, and limitations in the end user license agreement accompanying 
  15:Generated_Source\PSoC4/OneWire_ControlReg_SEL_PM.c **** * the software package with which this file was provided.
  16:Generated_Source\PSoC4/OneWire_ControlReg_SEL_PM.c **** *******************************************************************************/
  17:Generated_Source\PSoC4/OneWire_ControlReg_SEL_PM.c **** 
  18:Generated_Source\PSoC4/OneWire_ControlReg_SEL_PM.c **** #include "OneWire_ControlReg_SEL.h"
  19:Generated_Source\PSoC4/OneWire_ControlReg_SEL_PM.c **** 
  20:Generated_Source\PSoC4/OneWire_ControlReg_SEL_PM.c **** /* Check for removal by optimization */
  21:Generated_Source\PSoC4/OneWire_ControlReg_SEL_PM.c **** #if !defined(OneWire_ControlReg_SEL_Sync_ctrl_reg__REMOVED)
  22:Generated_Source\PSoC4/OneWire_ControlReg_SEL_PM.c **** 
  23:Generated_Source\PSoC4/OneWire_ControlReg_SEL_PM.c **** static OneWire_ControlReg_SEL_BACKUP_STRUCT  OneWire_ControlReg_SEL_backup = {0u};
  24:Generated_Source\PSoC4/OneWire_ControlReg_SEL_PM.c **** 
  25:Generated_Source\PSoC4/OneWire_ControlReg_SEL_PM.c ****     
  26:Generated_Source\PSoC4/OneWire_ControlReg_SEL_PM.c **** /*******************************************************************************
ARM GAS  C:\Users\User\AppData\Local\Temp\ccELIHfu.s 			page 2


  27:Generated_Source\PSoC4/OneWire_ControlReg_SEL_PM.c **** * Function Name: OneWire_ControlReg_SEL_SaveConfig
  28:Generated_Source\PSoC4/OneWire_ControlReg_SEL_PM.c **** ********************************************************************************
  29:Generated_Source\PSoC4/OneWire_ControlReg_SEL_PM.c **** *
  30:Generated_Source\PSoC4/OneWire_ControlReg_SEL_PM.c **** * Summary:
  31:Generated_Source\PSoC4/OneWire_ControlReg_SEL_PM.c **** *  Saves the control register value.
  32:Generated_Source\PSoC4/OneWire_ControlReg_SEL_PM.c **** *
  33:Generated_Source\PSoC4/OneWire_ControlReg_SEL_PM.c **** * Parameters:
  34:Generated_Source\PSoC4/OneWire_ControlReg_SEL_PM.c **** *  None
  35:Generated_Source\PSoC4/OneWire_ControlReg_SEL_PM.c **** *
  36:Generated_Source\PSoC4/OneWire_ControlReg_SEL_PM.c **** * Return:
  37:Generated_Source\PSoC4/OneWire_ControlReg_SEL_PM.c **** *  None
  38:Generated_Source\PSoC4/OneWire_ControlReg_SEL_PM.c **** *
  39:Generated_Source\PSoC4/OneWire_ControlReg_SEL_PM.c **** *******************************************************************************/
  40:Generated_Source\PSoC4/OneWire_ControlReg_SEL_PM.c **** void OneWire_ControlReg_SEL_SaveConfig(void) 
  41:Generated_Source\PSoC4/OneWire_ControlReg_SEL_PM.c **** {
  32              		.loc 1 41 0
  33              		.cfi_startproc
  34              		@ args = 0, pretend = 0, frame = 0
  35              		@ frame_needed = 1, uses_anonymous_args = 0
  36 0000 80B5     		push	{r7, lr}
  37              		.cfi_def_cfa_offset 8
  38              		.cfi_offset 7, -8
  39              		.cfi_offset 14, -4
  40 0002 00AF     		add	r7, sp, #0
  41              		.cfi_def_cfa_register 7
  42:Generated_Source\PSoC4/OneWire_ControlReg_SEL_PM.c ****     OneWire_ControlReg_SEL_backup.controlState = OneWire_ControlReg_SEL_Control;
  42              		.loc 1 42 0
  43 0004 034B     		ldr	r3, .L2
  44 0006 1B78     		ldrb	r3, [r3]
  45 0008 DAB2     		uxtb	r2, r3
  46 000a 034B     		ldr	r3, .L2+4
  47 000c 1A70     		strb	r2, [r3]
  43:Generated_Source\PSoC4/OneWire_ControlReg_SEL_PM.c **** }
  48              		.loc 1 43 0
  49 000e C046     		nop
  50 0010 BD46     		mov	sp, r7
  51              		@ sp needed
  52 0012 80BD     		pop	{r7, pc}
  53              	.L3:
  54              		.align	2
  55              	.L2:
  56 0014 73000F40 		.word	1074724979
  57 0018 00000000 		.word	OneWire_ControlReg_SEL_backup
  58              		.cfi_endproc
  59              	.LFE0:
  60              		.size	OneWire_ControlReg_SEL_SaveConfig, .-OneWire_ControlReg_SEL_SaveConfig
  61              		.section	.text.OneWire_ControlReg_SEL_RestoreConfig,"ax",%progbits
  62              		.align	2
  63              		.global	OneWire_ControlReg_SEL_RestoreConfig
  64              		.code	16
  65              		.thumb_func
  66              		.type	OneWire_ControlReg_SEL_RestoreConfig, %function
  67              	OneWire_ControlReg_SEL_RestoreConfig:
  68              	.LFB1:
  44:Generated_Source\PSoC4/OneWire_ControlReg_SEL_PM.c **** 
  45:Generated_Source\PSoC4/OneWire_ControlReg_SEL_PM.c **** 
  46:Generated_Source\PSoC4/OneWire_ControlReg_SEL_PM.c **** /*******************************************************************************
ARM GAS  C:\Users\User\AppData\Local\Temp\ccELIHfu.s 			page 3


  47:Generated_Source\PSoC4/OneWire_ControlReg_SEL_PM.c **** * Function Name: OneWire_ControlReg_SEL_RestoreConfig
  48:Generated_Source\PSoC4/OneWire_ControlReg_SEL_PM.c **** ********************************************************************************
  49:Generated_Source\PSoC4/OneWire_ControlReg_SEL_PM.c **** *
  50:Generated_Source\PSoC4/OneWire_ControlReg_SEL_PM.c **** * Summary:
  51:Generated_Source\PSoC4/OneWire_ControlReg_SEL_PM.c **** *  Restores the control register value.
  52:Generated_Source\PSoC4/OneWire_ControlReg_SEL_PM.c **** *
  53:Generated_Source\PSoC4/OneWire_ControlReg_SEL_PM.c **** * Parameters:
  54:Generated_Source\PSoC4/OneWire_ControlReg_SEL_PM.c **** *  None
  55:Generated_Source\PSoC4/OneWire_ControlReg_SEL_PM.c **** *
  56:Generated_Source\PSoC4/OneWire_ControlReg_SEL_PM.c **** * Return:
  57:Generated_Source\PSoC4/OneWire_ControlReg_SEL_PM.c **** *  None
  58:Generated_Source\PSoC4/OneWire_ControlReg_SEL_PM.c **** *
  59:Generated_Source\PSoC4/OneWire_ControlReg_SEL_PM.c **** *
  60:Generated_Source\PSoC4/OneWire_ControlReg_SEL_PM.c **** *******************************************************************************/
  61:Generated_Source\PSoC4/OneWire_ControlReg_SEL_PM.c **** void OneWire_ControlReg_SEL_RestoreConfig(void) 
  62:Generated_Source\PSoC4/OneWire_ControlReg_SEL_PM.c **** {
  69              		.loc 1 62 0
  70              		.cfi_startproc
  71              		@ args = 0, pretend = 0, frame = 0
  72              		@ frame_needed = 1, uses_anonymous_args = 0
  73 0000 80B5     		push	{r7, lr}
  74              		.cfi_def_cfa_offset 8
  75              		.cfi_offset 7, -8
  76              		.cfi_offset 14, -4
  77 0002 00AF     		add	r7, sp, #0
  78              		.cfi_def_cfa_register 7
  63:Generated_Source\PSoC4/OneWire_ControlReg_SEL_PM.c ****      OneWire_ControlReg_SEL_Control = OneWire_ControlReg_SEL_backup.controlState;
  79              		.loc 1 63 0
  80 0004 034A     		ldr	r2, .L5
  81 0006 044B     		ldr	r3, .L5+4
  82 0008 1B78     		ldrb	r3, [r3]
  83 000a 1370     		strb	r3, [r2]
  64:Generated_Source\PSoC4/OneWire_ControlReg_SEL_PM.c **** }
  84              		.loc 1 64 0
  85 000c C046     		nop
  86 000e BD46     		mov	sp, r7
  87              		@ sp needed
  88 0010 80BD     		pop	{r7, pc}
  89              	.L6:
  90 0012 C046     		.align	2
  91              	.L5:
  92 0014 73000F40 		.word	1074724979
  93 0018 00000000 		.word	OneWire_ControlReg_SEL_backup
  94              		.cfi_endproc
  95              	.LFE1:
  96              		.size	OneWire_ControlReg_SEL_RestoreConfig, .-OneWire_ControlReg_SEL_RestoreConfig
  97              		.section	.text.OneWire_ControlReg_SEL_Sleep,"ax",%progbits
  98              		.align	2
  99              		.global	OneWire_ControlReg_SEL_Sleep
 100              		.code	16
 101              		.thumb_func
 102              		.type	OneWire_ControlReg_SEL_Sleep, %function
 103              	OneWire_ControlReg_SEL_Sleep:
 104              	.LFB2:
  65:Generated_Source\PSoC4/OneWire_ControlReg_SEL_PM.c **** 
  66:Generated_Source\PSoC4/OneWire_ControlReg_SEL_PM.c **** 
  67:Generated_Source\PSoC4/OneWire_ControlReg_SEL_PM.c **** /*******************************************************************************
ARM GAS  C:\Users\User\AppData\Local\Temp\ccELIHfu.s 			page 4


  68:Generated_Source\PSoC4/OneWire_ControlReg_SEL_PM.c **** * Function Name: OneWire_ControlReg_SEL_Sleep
  69:Generated_Source\PSoC4/OneWire_ControlReg_SEL_PM.c **** ********************************************************************************
  70:Generated_Source\PSoC4/OneWire_ControlReg_SEL_PM.c **** *
  71:Generated_Source\PSoC4/OneWire_ControlReg_SEL_PM.c **** * Summary:
  72:Generated_Source\PSoC4/OneWire_ControlReg_SEL_PM.c **** *  Prepares the component for entering the low power mode.
  73:Generated_Source\PSoC4/OneWire_ControlReg_SEL_PM.c **** *
  74:Generated_Source\PSoC4/OneWire_ControlReg_SEL_PM.c **** * Parameters:
  75:Generated_Source\PSoC4/OneWire_ControlReg_SEL_PM.c **** *  None
  76:Generated_Source\PSoC4/OneWire_ControlReg_SEL_PM.c **** *
  77:Generated_Source\PSoC4/OneWire_ControlReg_SEL_PM.c **** * Return:
  78:Generated_Source\PSoC4/OneWire_ControlReg_SEL_PM.c **** *  None
  79:Generated_Source\PSoC4/OneWire_ControlReg_SEL_PM.c **** *
  80:Generated_Source\PSoC4/OneWire_ControlReg_SEL_PM.c **** *******************************************************************************/
  81:Generated_Source\PSoC4/OneWire_ControlReg_SEL_PM.c **** void OneWire_ControlReg_SEL_Sleep(void) 
  82:Generated_Source\PSoC4/OneWire_ControlReg_SEL_PM.c **** {
 105              		.loc 1 82 0
 106              		.cfi_startproc
 107              		@ args = 0, pretend = 0, frame = 0
 108              		@ frame_needed = 1, uses_anonymous_args = 0
 109 0000 80B5     		push	{r7, lr}
 110              		.cfi_def_cfa_offset 8
 111              		.cfi_offset 7, -8
 112              		.cfi_offset 14, -4
 113 0002 00AF     		add	r7, sp, #0
 114              		.cfi_def_cfa_register 7
  83:Generated_Source\PSoC4/OneWire_ControlReg_SEL_PM.c ****     OneWire_ControlReg_SEL_SaveConfig();
 115              		.loc 1 83 0
 116 0004 FFF7FEFF 		bl	OneWire_ControlReg_SEL_SaveConfig
  84:Generated_Source\PSoC4/OneWire_ControlReg_SEL_PM.c **** }
 117              		.loc 1 84 0
 118 0008 C046     		nop
 119 000a BD46     		mov	sp, r7
 120              		@ sp needed
 121 000c 80BD     		pop	{r7, pc}
 122              		.cfi_endproc
 123              	.LFE2:
 124              		.size	OneWire_ControlReg_SEL_Sleep, .-OneWire_ControlReg_SEL_Sleep
 125 000e C046     		.section	.text.OneWire_ControlReg_SEL_Wakeup,"ax",%progbits
 126              		.align	2
 127              		.global	OneWire_ControlReg_SEL_Wakeup
 128              		.code	16
 129              		.thumb_func
 130              		.type	OneWire_ControlReg_SEL_Wakeup, %function
 131              	OneWire_ControlReg_SEL_Wakeup:
 132              	.LFB3:
  85:Generated_Source\PSoC4/OneWire_ControlReg_SEL_PM.c **** 
  86:Generated_Source\PSoC4/OneWire_ControlReg_SEL_PM.c **** 
  87:Generated_Source\PSoC4/OneWire_ControlReg_SEL_PM.c **** /*******************************************************************************
  88:Generated_Source\PSoC4/OneWire_ControlReg_SEL_PM.c **** * Function Name: OneWire_ControlReg_SEL_Wakeup
  89:Generated_Source\PSoC4/OneWire_ControlReg_SEL_PM.c **** ********************************************************************************
  90:Generated_Source\PSoC4/OneWire_ControlReg_SEL_PM.c **** *
  91:Generated_Source\PSoC4/OneWire_ControlReg_SEL_PM.c **** * Summary:
  92:Generated_Source\PSoC4/OneWire_ControlReg_SEL_PM.c **** *  Restores the component after waking up from the low power mode.
  93:Generated_Source\PSoC4/OneWire_ControlReg_SEL_PM.c **** *
  94:Generated_Source\PSoC4/OneWire_ControlReg_SEL_PM.c **** * Parameters:
  95:Generated_Source\PSoC4/OneWire_ControlReg_SEL_PM.c **** *  None
  96:Generated_Source\PSoC4/OneWire_ControlReg_SEL_PM.c **** *
ARM GAS  C:\Users\User\AppData\Local\Temp\ccELIHfu.s 			page 5


  97:Generated_Source\PSoC4/OneWire_ControlReg_SEL_PM.c **** * Return:
  98:Generated_Source\PSoC4/OneWire_ControlReg_SEL_PM.c **** *  None
  99:Generated_Source\PSoC4/OneWire_ControlReg_SEL_PM.c **** *
 100:Generated_Source\PSoC4/OneWire_ControlReg_SEL_PM.c **** *******************************************************************************/
 101:Generated_Source\PSoC4/OneWire_ControlReg_SEL_PM.c **** void OneWire_ControlReg_SEL_Wakeup(void)  
 102:Generated_Source\PSoC4/OneWire_ControlReg_SEL_PM.c **** {
 133              		.loc 1 102 0
 134              		.cfi_startproc
 135              		@ args = 0, pretend = 0, frame = 0
 136              		@ frame_needed = 1, uses_anonymous_args = 0
 137 0000 80B5     		push	{r7, lr}
 138              		.cfi_def_cfa_offset 8
 139              		.cfi_offset 7, -8
 140              		.cfi_offset 14, -4
 141 0002 00AF     		add	r7, sp, #0
 142              		.cfi_def_cfa_register 7
 103:Generated_Source\PSoC4/OneWire_ControlReg_SEL_PM.c ****     OneWire_ControlReg_SEL_RestoreConfig();
 143              		.loc 1 103 0
 144 0004 FFF7FEFF 		bl	OneWire_ControlReg_SEL_RestoreConfig
 104:Generated_Source\PSoC4/OneWire_ControlReg_SEL_PM.c **** }
 145              		.loc 1 104 0
 146 0008 C046     		nop
 147 000a BD46     		mov	sp, r7
 148              		@ sp needed
 149 000c 80BD     		pop	{r7, pc}
 150              		.cfi_endproc
 151              	.LFE3:
 152              		.size	OneWire_ControlReg_SEL_Wakeup, .-OneWire_ControlReg_SEL_Wakeup
 153 000e C046     		.text
 154              	.Letext0:
 155              		.file 2 "Generated_Source\\PSoC4\\cytypes.h"
 156              		.file 3 "Generated_Source\\PSoC4\\OneWire_ControlReg_SEL.h"