ARM GAS  C:\Users\User\AppData\Local\Temp\cclEK6aU.s 			page 1


   1              		.syntax unified
   2              		.cpu cortex-m0
   3              		.fpu softvfp
   4              		.eabi_attribute 20, 1
   5              		.eabi_attribute 21, 1
   6              		.eabi_attribute 23, 3
   7              		.eabi_attribute 24, 1
   8              		.eabi_attribute 25, 1
   9              		.eabi_attribute 26, 1
  10              		.eabi_attribute 30, 6
  11              		.eabi_attribute 34, 0
  12              		.eabi_attribute 18, 4
  13              		.thumb
  14              		.syntax unified
  15              		.file	"Temperature.c"
  16              		.text
  17              	.Ltext0:
  18              		.cfi_sections	.debug_frame
  19              		.comm	OneWire_Sensor,32,4
  20              		.comm	OneWire_DataReady,1,1
  21              		.bss
  22              	flag_Timer:
  23 0000 00       		.space	1
  24              		.section	.text.isr_Timer,"ax",%progbits
  25              		.align	2
  26              		.global	isr_Timer
  27              		.code	16
  28              		.thumb_func
  29              		.type	isr_Timer, %function
  30              	isr_Timer:
  31              	.LFB35:
  32              		.file 1 "Temperature.c"
   1:Temperature.c **** /****************************************************************************
   2:Temperature.c **** * File Name: Temperature.c
   3:Temperature.c **** *
   4:Temperature.c **** * Description:
   5:Temperature.c **** * This file implements the common functions for temperature measuring.
   6:Temperature.c **** *
   7:Temperature.c **** * Authors: Yaroslav Morozevych, Sophiia Myntiuk, Yana Mularska
   8:Temperature.c **** *
   9:Temperature.c **** *****************************************************************************/
  10:Temperature.c **** 
  11:Temperature.c **** 
  12:Temperature.c **** /*****************************************************************************
  13:Temperature.c **** * Included headers
  14:Temperature.c **** *****************************************************************************/
  15:Temperature.c **** #include <project.h>
  16:Temperature.c **** #include "Temperature.h"
  17:Temperature.c **** 
  18:Temperature.c **** 
  19:Temperature.c **** /* Enable Interrupts */
  20:Temperature.c **** CY_ISR(isr_Timer) 
  21:Temperature.c **** {
  33              		.loc 1 21 0
  34              		.cfi_startproc
  35              		@ args = 0, pretend = 0, frame = 0
  36              		@ frame_needed = 1, uses_anonymous_args = 0
ARM GAS  C:\Users\User\AppData\Local\Temp\cclEK6aU.s 			page 2


  37 0000 80B5     		push	{r7, lr}
  38              		.cfi_def_cfa_offset 8
  39              		.cfi_offset 7, -8
  40              		.cfi_offset 14, -4
  41 0002 00AF     		add	r7, sp, #0
  42              		.cfi_def_cfa_register 7
  22:Temperature.c ****     flag_Timer = 1;
  43              		.loc 1 22 0
  44 0004 024B     		ldr	r3, .L2
  45 0006 0122     		movs	r2, #1
  46 0008 1A70     		strb	r2, [r3]
  23:Temperature.c **** }
  47              		.loc 1 23 0
  48 000a C046     		nop
  49 000c BD46     		mov	sp, r7
  50              		@ sp needed
  51 000e 80BD     		pop	{r7, pc}
  52              	.L3:
  53              		.align	2
  54              	.L2:
  55 0010 00000000 		.word	flag_Timer
  56              		.cfi_endproc
  57              	.LFE35:
  58              		.size	isr_Timer, .-isr_Timer
  59              		.section	.text.ProcessTemperature,"ax",%progbits
  60              		.align	2
  61              		.global	ProcessTemperature
  62              		.code	16
  63              		.thumb_func
  64              		.type	ProcessTemperature, %function
  65              	ProcessTemperature:
  66              	.LFB36:
  24:Temperature.c **** 
  25:Temperature.c **** 
  26:Temperature.c **** /*****************************************************************************
  27:Temperature.c **** * Function Name: ProcessTemperature()
  28:Temperature.c **** ******************************************************************************
  29:Temperature.c **** * Description:
  30:Temperature.c **** * Returns temperature measured by DS18S20 sensor when data is ready
  31:Temperature.c **** *
  32:Temperature.c **** * Parameters:
  33:Temperature.c **** * (CYBIT) flag_Timer - timer used by DS18S20 (look for in TopDesign.cysch)
  34:Temperature.c **** *
  35:Temperature.c **** * Return:
  36:Temperature.c **** * (float) temperature - temperature
  37:Temperature.c **** *
  38:Temperature.c **** *****************************************************************************/
  39:Temperature.c **** float ProcessTemperature(CYBIT flag_Timer) {
  67              		.loc 1 39 0
  68              		.cfi_startproc
  69              		@ args = 0, pretend = 0, frame = 16
  70              		@ frame_needed = 1, uses_anonymous_args = 0
  71 0000 80B5     		push	{r7, lr}
  72              		.cfi_def_cfa_offset 8
  73              		.cfi_offset 7, -8
  74              		.cfi_offset 14, -4
  75 0002 84B0     		sub	sp, sp, #16
ARM GAS  C:\Users\User\AppData\Local\Temp\cclEK6aU.s 			page 3


  76              		.cfi_def_cfa_offset 24
  77 0004 00AF     		add	r7, sp, #0
  78              		.cfi_def_cfa_register 7
  79 0006 0200     		movs	r2, r0
  80 0008 FB1D     		adds	r3, r7, #7
  81 000a 1A70     		strb	r2, [r3]
  40:Temperature.c ****     float temperature = 0;
  82              		.loc 1 40 0
  83 000c 0023     		movs	r3, #0
  84 000e FB60     		str	r3, [r7, #12]
  41:Temperature.c ****  
  42:Temperature.c ****     if(flag_Timer) //read DS18B20 on timer, intervals > 1sec
  85              		.loc 1 42 0
  86 0010 FB1D     		adds	r3, r7, #7
  87 0012 1B78     		ldrb	r3, [r3]
  88 0014 002B     		cmp	r3, #0
  89 0016 04D0     		beq	.L5
  43:Temperature.c **** 	{   
  44:Temperature.c ****         flag_Timer = 0;
  90              		.loc 1 44 0
  91 0018 FB1D     		adds	r3, r7, #7
  92 001a 0022     		movs	r2, #0
  93 001c 1A70     		strb	r2, [r3]
  45:Temperature.c ****         OneWire_SendTemperatureRequest();                                       
  94              		.loc 1 45 0
  95 001e FFF7FEFF 		bl	OneWire_SendTemperatureRequest
  96              	.L5:
  46:Temperature.c ****     }
  47:Temperature.c ****     
  48:Temperature.c ****     if (OneWire_DataReady) // DS18 completed temperature measurement - begin read dataa
  97              		.loc 1 48 0
  98 0022 084B     		ldr	r3, .L8
  99 0024 1B78     		ldrb	r3, [r3]
 100 0026 DBB2     		uxtb	r3, r3
 101 0028 002B     		cmp	r3, #0
 102 002a 05D0     		beq	.L6
  49:Temperature.c **** 	{   
  50:Temperature.c ****         OneWire_ReadTemperature();
 103              		.loc 1 50 0
 104 002c FFF7FEFF 		bl	OneWire_ReadTemperature
  51:Temperature.c ****         temperature = ReportTemperature();
 105              		.loc 1 51 0
 106 0030 FFF7FEFF 		bl	ReportTemperature
 107 0034 031C     		adds	r3, r0, #0
 108 0036 FB60     		str	r3, [r7, #12]
 109              	.L6:
  52:Temperature.c ****     }
  53:Temperature.c ****     return temperature;
 110              		.loc 1 53 0
 111 0038 FB68     		ldr	r3, [r7, #12]
  54:Temperature.c **** }
 112              		.loc 1 54 0
 113 003a 181C     		adds	r0, r3, #0
 114 003c BD46     		mov	sp, r7
 115 003e 04B0     		add	sp, sp, #16
 116              		@ sp needed
 117 0040 80BD     		pop	{r7, pc}
ARM GAS  C:\Users\User\AppData\Local\Temp\cclEK6aU.s 			page 4


 118              	.L9:
 119 0042 C046     		.align	2
 120              	.L8:
 121 0044 00000000 		.word	OneWire_DataReady
 122              		.cfi_endproc
 123              	.LFE36:
 124              		.size	ProcessTemperature, .-ProcessTemperature
 125              		.section	.rodata
 126              		.align	2
 127              	.LC3:
 128 0000 0900     		.ascii	"\011\000"
 129              		.section	.text.ReportTemperature,"ax",%progbits
 130              		.align	2
 131              		.global	ReportTemperature
 132              		.code	16
 133              		.thumb_func
 134              		.type	ReportTemperature, %function
 135              	ReportTemperature:
 136              	.LFB37:
  55:Temperature.c **** 
  56:Temperature.c **** 
  57:Temperature.c **** 
  58:Temperature.c **** /*****************************************************************************
  59:Temperature.c **** * Function Name: ReportTemperature()
  60:Temperature.c **** ******************************************************************************
  61:Temperature.c **** * Description:
  62:Temperature.c **** * Convert temperature code to degC and 
  63:Temperature.c **** * Send result to Terminal using UART
  64:Temperature.c **** *
  65:Temperature.c **** * Parameters:
  66:Temperature.c **** * None
  67:Temperature.c **** *
  68:Temperature.c **** * Return:
  69:Temperature.c **** * (float) temperature - temperature
  70:Temperature.c **** *
  71:Temperature.c **** *****************************************************************************/
  72:Temperature.c **** float ReportTemperature(void) 
  73:Temperature.c **** {
 137              		.loc 1 73 0
 138              		.cfi_startproc
 139              		@ args = 0, pretend = 0, frame = 96
 140              		@ frame_needed = 1, uses_anonymous_args = 0
 141 0000 80B5     		push	{r7, lr}
 142              		.cfi_def_cfa_offset 8
 143              		.cfi_offset 7, -8
 144              		.cfi_offset 14, -4
 145 0002 98B0     		sub	sp, sp, #96
 146              		.cfi_def_cfa_offset 104
 147 0004 00AF     		add	r7, sp, #0
 148              		.cfi_def_cfa_register 7
  74:Temperature.c ****     char strMsg[80]={};         // output UART buffer
 149              		.loc 1 74 0
 150 0006 0C23     		movs	r3, #12
 151 0008 FB18     		adds	r3, r7, r3
 152 000a 1800     		movs	r0, r3
 153 000c 5023     		movs	r3, #80
 154 000e 1A00     		movs	r2, r3
ARM GAS  C:\Users\User\AppData\Local\Temp\cclEK6aU.s 			page 5


 155 0010 0021     		movs	r1, #0
 156 0012 FFF7FEFF 		bl	memset
  75:Temperature.c ****     char buf[8];                // temp buffer
  76:Temperature.c ****     static uint32 counter = 0;  // sample counter
  77:Temperature.c ****     
  78:Temperature.c ****     counter++; 
 157              		.loc 1 78 0
 158 0016 294B     		ldr	r3, .L12
 159 0018 1B68     		ldr	r3, [r3]
 160 001a 5A1C     		adds	r2, r3, #1
 161 001c 274B     		ldr	r3, .L12
 162 001e 1A60     		str	r2, [r3]
  79:Temperature.c ****     float temperature = OneWire_GetTemperatureAsFloat(0);
 163              		.loc 1 79 0
 164 0020 0020     		movs	r0, #0
 165 0022 FFF7FEFF 		bl	OneWire_GetTemperatureAsFloat
 166 0026 031C     		adds	r3, r0, #0
 167 0028 FB65     		str	r3, [r7, #92]
  80:Temperature.c ****     
  81:Temperature.c ****     strcat(strMsg, itoa10(counter, buf)); strcat(strMsg, "\t");
 168              		.loc 1 81 0
 169 002a 244B     		ldr	r3, .L12
 170 002c 1B68     		ldr	r3, [r3]
 171 002e 1A00     		movs	r2, r3
 172 0030 3B1D     		adds	r3, r7, #4
 173 0032 1900     		movs	r1, r3
 174 0034 1000     		movs	r0, r2
 175 0036 FFF7FEFF 		bl	itoa10
 176 003a 0200     		movs	r2, r0
 177 003c 0C23     		movs	r3, #12
 178 003e FB18     		adds	r3, r7, r3
 179 0040 1100     		movs	r1, r2
 180 0042 1800     		movs	r0, r3
 181 0044 FFF7FEFF 		bl	strcat
 182 0048 0C23     		movs	r3, #12
 183 004a FB18     		adds	r3, r7, r3
 184 004c 1800     		movs	r0, r3
 185 004e FFF7FEFF 		bl	strlen
 186 0052 0300     		movs	r3, r0
 187 0054 1A00     		movs	r2, r3
 188 0056 0C23     		movs	r3, #12
 189 0058 FB18     		adds	r3, r7, r3
 190 005a 9A18     		adds	r2, r3, r2
 191 005c 184B     		ldr	r3, .L12+4
 192 005e 1000     		movs	r0, r2
 193 0060 1900     		movs	r1, r3
 194 0062 0223     		movs	r3, #2
 195 0064 1A00     		movs	r2, r3
 196 0066 FFF7FEFF 		bl	memcpy
  82:Temperature.c ****     strcat(strMsg, OneWire_GetTemperatureAsString(0)); strcat(strMsg, "\t");
 197              		.loc 1 82 0
 198 006a 0020     		movs	r0, #0
 199 006c FFF7FEFF 		bl	OneWire_GetTemperatureAsString
 200 0070 0200     		movs	r2, r0
 201 0072 0C23     		movs	r3, #12
 202 0074 FB18     		adds	r3, r7, r3
 203 0076 1100     		movs	r1, r2
ARM GAS  C:\Users\User\AppData\Local\Temp\cclEK6aU.s 			page 6


 204 0078 1800     		movs	r0, r3
 205 007a FFF7FEFF 		bl	strcat
 206 007e 0C23     		movs	r3, #12
 207 0080 FB18     		adds	r3, r7, r3
 208 0082 1800     		movs	r0, r3
 209 0084 FFF7FEFF 		bl	strlen
 210 0088 0300     		movs	r3, r0
 211 008a 1A00     		movs	r2, r3
 212 008c 0C23     		movs	r3, #12
 213 008e FB18     		adds	r3, r7, r3
 214 0090 9A18     		adds	r2, r3, r2
 215 0092 0B4B     		ldr	r3, .L12+4
 216 0094 1000     		movs	r0, r2
 217 0096 1900     		movs	r1, r3
 218 0098 0223     		movs	r3, #2
 219 009a 1A00     		movs	r2, r3
 220 009c FFF7FEFF 		bl	memcpy
  83:Temperature.c **** 
  84:Temperature.c ****     UART_DEB_UartPutString(strMsg);  
 221              		.loc 1 84 0
 222 00a0 0C23     		movs	r3, #12
 223 00a2 FB18     		adds	r3, r7, r3
 224 00a4 1800     		movs	r0, r3
 225 00a6 FFF7FEFF 		bl	UART_DEB_UartPutString
  85:Temperature.c ****     UART_DEB_UartPutCRLF(' ');
 226              		.loc 1 85 0
 227 00aa 2020     		movs	r0, #32
 228 00ac FFF7FEFF 		bl	UART_DEB_UartPutCRLF
  86:Temperature.c ****     return temperature;
 229              		.loc 1 86 0
 230 00b0 FB6D     		ldr	r3, [r7, #92]
  87:Temperature.c **** }
 231              		.loc 1 87 0
 232 00b2 181C     		adds	r0, r3, #0
 233 00b4 BD46     		mov	sp, r7
 234 00b6 18B0     		add	sp, sp, #96
 235              		@ sp needed
 236 00b8 80BD     		pop	{r7, pc}
 237              	.L13:
 238 00ba C046     		.align	2
 239              	.L12:
 240 00bc 04000000 		.word	counter.7700
 241 00c0 00000000 		.word	.LC3
 242              		.cfi_endproc
 243              	.LFE37:
 244              		.size	ReportTemperature, .-ReportTemperature
 245              		.bss
 246 0001 000000   		.align	2
 247              	counter.7700:
 248 0004 00000000 		.space	4
 249              		.text
 250              	.Letext0:
 251              		.file 2 "Generated_Source\\PSoC4/cytypes.h"
 252              		.file 3 "Generated_Source\\PSoC4/OneWire.h"
 253              		.file 4 "Generated_Source\\PSoC4/BLE_Stack.h"
 254              		.file 5 "Generated_Source\\PSoC4/BLE_dis.h"
 255              		.file 6 "Generated_Source\\PSoC4/BLE_hts.h"
ARM GAS  C:\Users\User\AppData\Local\Temp\cclEK6aU.s 			page 7


 256              		.file 7 "Temperature.h"