ARM GAS  C:\Users\User\AppData\Local\Temp\ccRKpflr.s 			page 1


   1              		.syntax unified
   2              		.cpu cortex-m0
   3              		.fpu softvfp
   4              		.eabi_attribute 20, 1
   5              		.eabi_attribute 21, 1
   6              		.eabi_attribute 23, 3
   7              		.eabi_attribute 24, 1
   8              		.eabi_attribute 25, 1
   9              		.eabi_attribute 26, 1
  10              		.eabi_attribute 30, 6
  11              		.eabi_attribute 34, 0
  12              		.eabi_attribute 18, 4
  13              		.thumb
  14              		.syntax unified
  15              		.file	"WatchdogTimer.c"
  16              		.text
  17              	.Ltext0:
  18              		.cfi_sections	.debug_frame
  19              		.comm	OneWire_Sensor,32,4
  20              		.comm	OneWire_DataReady,1,1
  21              		.data
  22              		.align	2
  23              		.type	watchdogPeriodMs, %object
  24              		.size	watchdogPeriodMs, 4
  25              	watchdogPeriodMs:
  26 0000 14000000 		.word	20
  27              		.align	2
  28              		.type	nextTicks, %object
  29              		.size	nextTicks, 4
  30              	nextTicks:
  31 0004 80020000 		.word	640
  32              		.section	.text.WatchdogTimer_Lock,"ax",%progbits
  33              		.align	2
  34              		.code	16
  35              		.thumb_func
  36              		.type	WatchdogTimer_Lock, %function
  37              	WatchdogTimer_Lock:
  38              	.LFB35:
  39              		.file 1 "WatchdogTimer.c"
   1:WatchdogTimer.c **** /*****************************************************************************
   2:WatchdogTimer.c **** * File Name: WatchdogTimer.c
   3:WatchdogTimer.c **** *
   4:WatchdogTimer.c **** * Version: 1.0
   5:WatchdogTimer.c **** *
   6:WatchdogTimer.c **** * Description:
   7:WatchdogTimer.c **** * This file implements the watchdog timer for a deep-sleep wakeup source, 
   8:WatchdogTimer.c **** * and also to keep the timestamp.
   9:WatchdogTimer.c **** *
  10:WatchdogTimer.c **** * Note:
  11:WatchdogTimer.c **** * 
  12:WatchdogTimer.c **** * Owner:
  13:WatchdogTimer.c **** * PMAD
  14:WatchdogTimer.c **** *
  15:WatchdogTimer.c **** ******************************************************************************
  16:WatchdogTimer.c **** * Copyright (2014), Cypress Semiconductor Corporation.
  17:WatchdogTimer.c **** ******************************************************************************
  18:WatchdogTimer.c **** * This software is owned by Cypress Semiconductor Corporation (Cypress) and is
ARM GAS  C:\Users\User\AppData\Local\Temp\ccRKpflr.s 			page 2


  19:WatchdogTimer.c **** * protected by and subject to worldwide patent protection (United States and
  20:WatchdogTimer.c **** * foreign), United States copyright laws and international treaty provisions.
  21:WatchdogTimer.c **** * Cypress hereby grants to licensee a personal, non-exclusive, non-transferable
  22:WatchdogTimer.c **** * license to copy, use, modify, create derivative works of, and compile the
  23:WatchdogTimer.c **** * Cypress Source Code and derivative works for the sole purpose of creating
  24:WatchdogTimer.c **** * custom software in support of licensee product to be used only in conjunction
  25:WatchdogTimer.c **** * with a Cypress integrated circuit as specified in the applicable agreement.
  26:WatchdogTimer.c **** * Any reproduction, modification, translation, compilation, or representation of
  27:WatchdogTimer.c **** * this software except as specified above is prohibited without the express
  28:WatchdogTimer.c **** * written permission of Cypress.
  29:WatchdogTimer.c **** *
  30:WatchdogTimer.c **** * Disclaimer: CYPRESS MAKES NO WARRANTY OF ANY KIND, EXPRESS OR IMPLIED, WITH
  31:WatchdogTimer.c **** * REGARD TO THIS MATERIAL, INCLUDING, BUT NOT LIMITED TO, THE IMPLIED
  32:WatchdogTimer.c **** * WARRANTIES OF MERCHANTABILITY AND FITNESS FOR A PARTICULAR PURPOSE.
  33:WatchdogTimer.c **** * Cypress reserves the right to make changes without further notice to the
  34:WatchdogTimer.c **** * materials described herein. Cypress does not assume any liability arising out
  35:WatchdogTimer.c **** * of the application or use of any product or circuit described herein. Cypress
  36:WatchdogTimer.c **** * does not authorize its products for use as critical components in life-support
  37:WatchdogTimer.c **** * systems where a malfunction or failure may reasonably be expected to result in
  38:WatchdogTimer.c **** * significant injury to the user. The inclusion of Cypress' product in a life-
  39:WatchdogTimer.c **** * support systems application implies that the manufacturer assumes all risk of
  40:WatchdogTimer.c **** * such use and in doing so indemnifies Cypress against all charges. Use may be
  41:WatchdogTimer.c **** * limited by and subject to the applicable Cypress software license agreement.
  42:WatchdogTimer.c **** *****************************************************************************/
  43:WatchdogTimer.c **** 
  44:WatchdogTimer.c **** 
  45:WatchdogTimer.c **** /*****************************************************************************
  46:WatchdogTimer.c **** * Included headers
  47:WatchdogTimer.c **** *****************************************************************************/
  48:WatchdogTimer.c **** #include "CommonFunctions.h"
  49:WatchdogTimer.c **** #include "BLE_HTSS.h"
  50:WatchdogTimer.c **** 
  51:WatchdogTimer.c **** /*****************************************************************************
  52:WatchdogTimer.c **** * Macros and constants
  53:WatchdogTimer.c **** *****************************************************************************/
  54:WatchdogTimer.c **** #define WDT_INTERRUPT_NUM           (8)
  55:WatchdogTimer.c **** #define WATCHDOG_DEFAULT_PERIOD_MS  (20)
  56:WatchdogTimer.c **** #define WATCHDOG_TICKS_PER_MS       (32)
  57:WatchdogTimer.c **** #define CLK_ILO_CONFIG_ILO_ENABLE   (1u << 31)
  58:WatchdogTimer.c **** #define WDT_CONFIG_WDT_MODE0_INT    (1u << 0)    
  59:WatchdogTimer.c **** #define WDT_CONTROL_WDT_ENABLE0     (1u << 0)
  60:WatchdogTimer.c **** #define WDT_CONTROL_WDT_ENABLED0    (1u << 1)
  61:WatchdogTimer.c **** #define WDT_CONTROL_WDT_INT0        (1u << 2)
  62:WatchdogTimer.c **** #define CLK_SELECT_WDT_LOCK_SET01   ((1u << 14) | (1u << 15))
  63:WatchdogTimer.c **** #define CLK_SELECT_WDT_LOCK_CLR0    (1u << 14)
  64:WatchdogTimer.c **** #define CLK_SELECT_WDT_LOCK_CLR1    (1u << 15)
  65:WatchdogTimer.c **** #define UPDATE_WDT_MATCH(value)     CY_SET_REG32(CYREG_WDT_MATCH, \
  66:WatchdogTimer.c ****                                     (CY_GET_REG32(CYREG_WDT_MATCH) & 0xFFFF0000) + (uint16)value)
  67:WatchdogTimer.c **** 
  68:WatchdogTimer.c **** 
  69:WatchdogTimer.c **** /*****************************************************************************
  70:WatchdogTimer.c **** * Global variables
  71:WatchdogTimer.c **** *****************************************************************************/
  72:WatchdogTimer.c **** volatile static uint32 watchdogPeriodMs = WATCHDOG_DEFAULT_PERIOD_MS;
  73:WatchdogTimer.c **** volatile static uint32 nextTicks = WATCHDOG_DEFAULT_PERIOD_MS * WATCHDOG_TICKS_PER_MS;
  74:WatchdogTimer.c **** 
  75:WatchdogTimer.c **** /*****************************************************************************
ARM GAS  C:\Users\User\AppData\Local\Temp\ccRKpflr.s 			page 3


  76:WatchdogTimer.c **** * Function Definitions
  77:WatchdogTimer.c **** *****************************************************************************/
  78:WatchdogTimer.c **** 
  79:WatchdogTimer.c **** /*****************************************************************************
  80:WatchdogTimer.c **** * Static Functions
  81:WatchdogTimer.c **** *****************************************************************************/
  82:WatchdogTimer.c **** 
  83:WatchdogTimer.c **** /*****************************************************************************
  84:WatchdogTimer.c **** * Function Name: WatchdogTimer_Lock()
  85:WatchdogTimer.c **** ******************************************************************************
  86:WatchdogTimer.c **** * Summary:
  87:WatchdogTimer.c **** * Locks the watchdog timer to prevent configuration changes.
  88:WatchdogTimer.c **** *
  89:WatchdogTimer.c **** * Parameters:
  90:WatchdogTimer.c **** * None
  91:WatchdogTimer.c **** *
  92:WatchdogTimer.c **** * Return:
  93:WatchdogTimer.c **** * None
  94:WatchdogTimer.c **** *
  95:WatchdogTimer.c **** * Theory:
  96:WatchdogTimer.c **** * The CLK_SELECT register is written to, such that watchdog timer is now 
  97:WatchdogTimer.c **** * locked. Any further changes to watchdog timer registers are then ignored.
  98:WatchdogTimer.c **** *
  99:WatchdogTimer.c **** * Side Effects:
 100:WatchdogTimer.c **** * None
 101:WatchdogTimer.c **** *
 102:WatchdogTimer.c **** * Note:
 103:WatchdogTimer.c **** *
 104:WatchdogTimer.c **** *****************************************************************************/
 105:WatchdogTimer.c **** static void WatchdogTimer_Lock(void)
 106:WatchdogTimer.c **** {
  40              		.loc 1 106 0
  41              		.cfi_startproc
  42              		@ args = 0, pretend = 0, frame = 8
  43              		@ frame_needed = 1, uses_anonymous_args = 0
  44 0000 80B5     		push	{r7, lr}
  45              		.cfi_def_cfa_offset 8
  46              		.cfi_offset 7, -8
  47              		.cfi_offset 14, -4
  48 0002 82B0     		sub	sp, sp, #8
  49              		.cfi_def_cfa_offset 16
  50 0004 00AF     		add	r7, sp, #0
  51              		.cfi_def_cfa_register 7
 107:WatchdogTimer.c ****     uint32 ClkSelectValue;
 108:WatchdogTimer.c **** 
 109:WatchdogTimer.c ****     /* Update CLK_SELECT register to lock watchdog timer */
 110:WatchdogTimer.c ****     ClkSelectValue = CY_GET_REG32(CYREG_CLK_SELECT) | CLK_SELECT_WDT_LOCK_SET01;
  52              		.loc 1 110 0
  53 0006 064B     		ldr	r3, .L2
  54 0008 1B68     		ldr	r3, [r3]
  55 000a C022     		movs	r2, #192
  56 000c 1202     		lsls	r2, r2, #8
  57 000e 1343     		orrs	r3, r2
  58 0010 7B60     		str	r3, [r7, #4]
 111:WatchdogTimer.c ****     CY_SET_REG32(CYREG_CLK_SELECT, ClkSelectValue);
  59              		.loc 1 111 0
  60 0012 034B     		ldr	r3, .L2
ARM GAS  C:\Users\User\AppData\Local\Temp\ccRKpflr.s 			page 4


  61 0014 7A68     		ldr	r2, [r7, #4]
  62 0016 1A60     		str	r2, [r3]
 112:WatchdogTimer.c **** }
  63              		.loc 1 112 0
  64 0018 C046     		nop
  65 001a BD46     		mov	sp, r7
  66 001c 02B0     		add	sp, sp, #8
  67              		@ sp needed
  68 001e 80BD     		pop	{r7, pc}
  69              	.L3:
  70              		.align	2
  71              	.L2:
  72 0020 00010B40 		.word	1074462976
  73              		.cfi_endproc
  74              	.LFE35:
  75              		.size	WatchdogTimer_Lock, .-WatchdogTimer_Lock
  76              		.section	.text.WatchdogTimer_Unlock,"ax",%progbits
  77              		.align	2
  78              		.code	16
  79              		.thumb_func
  80              		.type	WatchdogTimer_Unlock, %function
  81              	WatchdogTimer_Unlock:
  82              	.LFB36:
 113:WatchdogTimer.c **** 
 114:WatchdogTimer.c **** 
 115:WatchdogTimer.c **** /*****************************************************************************
 116:WatchdogTimer.c **** * Function Name: WatchdogTimer_Unlock()
 117:WatchdogTimer.c **** ******************************************************************************
 118:WatchdogTimer.c **** * Summary:
 119:WatchdogTimer.c **** * Unlocks the watchdog timer to allow configuration changes.
 120:WatchdogTimer.c **** *
 121:WatchdogTimer.c **** * Parameters:
 122:WatchdogTimer.c **** * None
 123:WatchdogTimer.c **** *
 124:WatchdogTimer.c **** * Return:
 125:WatchdogTimer.c **** * None
 126:WatchdogTimer.c **** *
 127:WatchdogTimer.c **** * Theory:
 128:WatchdogTimer.c **** * The CLK_SELECT register is written to, such that watchdog timer is now 
 129:WatchdogTimer.c **** * unlocked. The watchdog timer registers can then be modified.
 130:WatchdogTimer.c **** *
 131:WatchdogTimer.c **** * Side Effects:
 132:WatchdogTimer.c **** * None
 133:WatchdogTimer.c **** *
 134:WatchdogTimer.c **** * Note:
 135:WatchdogTimer.c **** *
 136:WatchdogTimer.c **** *****************************************************************************/
 137:WatchdogTimer.c **** static void WatchdogTimer_Unlock(void)
 138:WatchdogTimer.c **** {
  83              		.loc 1 138 0
  84              		.cfi_startproc
  85              		@ args = 0, pretend = 0, frame = 8
  86              		@ frame_needed = 1, uses_anonymous_args = 0
  87 0000 80B5     		push	{r7, lr}
  88              		.cfi_def_cfa_offset 8
  89              		.cfi_offset 7, -8
  90              		.cfi_offset 14, -4
ARM GAS  C:\Users\User\AppData\Local\Temp\ccRKpflr.s 			page 5


  91 0002 82B0     		sub	sp, sp, #8
  92              		.cfi_def_cfa_offset 16
  93 0004 00AF     		add	r7, sp, #0
  94              		.cfi_def_cfa_register 7
 139:WatchdogTimer.c ****     uint32 ClkSelectValue;
 140:WatchdogTimer.c **** 
 141:WatchdogTimer.c ****     /* Update CLK_SELECT register to unlock watchdog timer */
 142:WatchdogTimer.c ****     ClkSelectValue = CY_GET_REG32(CYREG_CLK_SELECT) & ~CLK_SELECT_WDT_LOCK_SET01;
  95              		.loc 1 142 0
  96 0006 0A4B     		ldr	r3, .L5
  97 0008 1B68     		ldr	r3, [r3]
  98 000a 0A4A     		ldr	r2, .L5+4
  99 000c 1340     		ands	r3, r2
 100 000e 7B60     		str	r3, [r7, #4]
 143:WatchdogTimer.c ****     CY_SET_REG32(CYREG_CLK_SELECT, ClkSelectValue | CLK_SELECT_WDT_LOCK_CLR0);
 101              		.loc 1 143 0
 102 0010 074B     		ldr	r3, .L5
 103 0012 7A68     		ldr	r2, [r7, #4]
 104 0014 8021     		movs	r1, #128
 105 0016 C901     		lsls	r1, r1, #7
 106 0018 0A43     		orrs	r2, r1
 107 001a 1A60     		str	r2, [r3]
 144:WatchdogTimer.c ****     CY_SET_REG32(CYREG_CLK_SELECT, ClkSelectValue | CLK_SELECT_WDT_LOCK_CLR1);
 108              		.loc 1 144 0
 109 001c 044B     		ldr	r3, .L5
 110 001e 7A68     		ldr	r2, [r7, #4]
 111 0020 8021     		movs	r1, #128
 112 0022 0902     		lsls	r1, r1, #8
 113 0024 0A43     		orrs	r2, r1
 114 0026 1A60     		str	r2, [r3]
 145:WatchdogTimer.c **** }
 115              		.loc 1 145 0
 116 0028 C046     		nop
 117 002a BD46     		mov	sp, r7
 118 002c 02B0     		add	sp, sp, #8
 119              		@ sp needed
 120 002e 80BD     		pop	{r7, pc}
 121              	.L6:
 122              		.align	2
 123              	.L5:
 124 0030 00010B40 		.word	1074462976
 125 0034 FF3FFFFF 		.word	-49153
 126              		.cfi_endproc
 127              	.LFE36:
 128              		.size	WatchdogTimer_Unlock, .-WatchdogTimer_Unlock
 129              		.section	.text.WatchdogTimer_Isr,"ax",%progbits
 130              		.align	2
 131              		.global	WatchdogTimer_Isr
 132              		.code	16
 133              		.thumb_func
 134              		.type	WatchdogTimer_Isr, %function
 135              	WatchdogTimer_Isr:
 136              	.LFB37:
 146:WatchdogTimer.c **** 
 147:WatchdogTimer.c **** 
 148:WatchdogTimer.c **** /*****************************************************************************
 149:WatchdogTimer.c **** * Public Functions
ARM GAS  C:\Users\User\AppData\Local\Temp\ccRKpflr.s 			page 6


 150:WatchdogTimer.c **** *****************************************************************************/
 151:WatchdogTimer.c **** 
 152:WatchdogTimer.c **** /*****************************************************************************
 153:WatchdogTimer.c **** * Function Name: WatchdogTimer_Isr()
 154:WatchdogTimer.c **** ******************************************************************************
 155:WatchdogTimer.c **** * Summary:
 156:WatchdogTimer.c **** * The ISR for the watchdog timer. 
 157:WatchdogTimer.c **** *
 158:WatchdogTimer.c **** * Parameters:
 159:WatchdogTimer.c **** * None
 160:WatchdogTimer.c **** *
 161:WatchdogTimer.c **** * Return:
 162:WatchdogTimer.c **** * None
 163:WatchdogTimer.c **** *
 164:WatchdogTimer.c **** * Theory:
 165:WatchdogTimer.c **** * The ISR checks if the WDT interrupt source is timer 0. If yes, then it 
 166:WatchdogTimer.c **** * updates the WDT_MATCH register to prepare for the next interrupt and
 167:WatchdogTimer.c **** * updates the flags for measurement interval. 
 168:WatchdogTimer.c **** *
 169:WatchdogTimer.c **** * Side Effects:
 170:WatchdogTimer.c **** * None
 171:WatchdogTimer.c **** *
 172:WatchdogTimer.c **** * Note:
 173:WatchdogTimer.c **** *
 174:WatchdogTimer.c **** *****************************************************************************/
 175:WatchdogTimer.c **** CY_ISR(WatchdogTimer_Isr)
 176:WatchdogTimer.c **** {
 137              		.loc 1 176 0
 138              		.cfi_startproc
 139              		@ args = 0, pretend = 0, frame = 0
 140              		@ frame_needed = 1, uses_anonymous_args = 0
 141 0000 80B5     		push	{r7, lr}
 142              		.cfi_def_cfa_offset 8
 143              		.cfi_offset 7, -8
 144              		.cfi_offset 14, -4
 145 0002 00AF     		add	r7, sp, #0
 146              		.cfi_def_cfa_register 7
 177:WatchdogTimer.c ****     /* Initializes the interval timer with default measurement interval */
 178:WatchdogTimer.c ****     static uint32 intervalTimer = DEFAULT_MEASUREMENT_INTERVAL;
 179:WatchdogTimer.c ****     
 180:WatchdogTimer.c ****     /* Unlock watchdog timer to enable configuration changes*/
 181:WatchdogTimer.c ****     WatchdogTimer_Unlock();
 147              		.loc 1 181 0
 148 0004 FFF7FEFF 		bl	WatchdogTimer_Unlock
 182:WatchdogTimer.c **** 
 183:WatchdogTimer.c ****     /* Update WDT match register for next interrupt */
 184:WatchdogTimer.c ****     UPDATE_WDT_MATCH((uint16)(CY_GET_REG32(CYREG_WDT_MATCH) + nextTicks));
 149              		.loc 1 184 0
 150 0008 194A     		ldr	r2, .L9
 151 000a 194B     		ldr	r3, .L9
 152 000c 1B68     		ldr	r3, [r3]
 153 000e 1B0C     		lsrs	r3, r3, #16
 154 0010 1904     		lsls	r1, r3, #16
 155 0012 174B     		ldr	r3, .L9
 156 0014 1B68     		ldr	r3, [r3]
 157 0016 98B2     		uxth	r0, r3
 158 0018 164B     		ldr	r3, .L9+4
ARM GAS  C:\Users\User\AppData\Local\Temp\ccRKpflr.s 			page 7


 159 001a 1B68     		ldr	r3, [r3]
 160 001c 9BB2     		uxth	r3, r3
 161 001e C318     		adds	r3, r0, r3
 162 0020 9BB2     		uxth	r3, r3
 163 0022 CB18     		adds	r3, r1, r3
 164 0024 1360     		str	r3, [r2]
 185:WatchdogTimer.c ****     
 186:WatchdogTimer.c ****     /* Clear WDT pending interrupt */
 187:WatchdogTimer.c ****     CY_SET_REG32(CYREG_WDT_CONTROL, CY_GET_REG32(CYREG_WDT_CONTROL) | WDT_CONTROL_WDT_INT0);
 165              		.loc 1 187 0
 166 0026 144B     		ldr	r3, .L9+8
 167 0028 134A     		ldr	r2, .L9+8
 168 002a 1268     		ldr	r2, [r2]
 169 002c 0421     		movs	r1, #4
 170 002e 0A43     		orrs	r2, r1
 171 0030 1A60     		str	r2, [r3]
 188:WatchdogTimer.c **** 
 189:WatchdogTimer.c ****     /* Lock watchdog timer to prevent configuration changes */
 190:WatchdogTimer.c ****     WatchdogTimer_Lock();
 172              		.loc 1 190 0
 173 0032 FFF7FEFF 		bl	WatchdogTimer_Lock
 191:WatchdogTimer.c ****     
 192:WatchdogTimer.c ****     /* Decrement interval timer */
 193:WatchdogTimer.c ****     intervalTimer--;    
 174              		.loc 1 193 0
 175 0036 114B     		ldr	r3, .L9+12
 176 0038 1B68     		ldr	r3, [r3]
 177 003a 5A1E     		subs	r2, r3, #1
 178 003c 0F4B     		ldr	r3, .L9+12
 179 003e 1A60     		str	r2, [r3]
 194:WatchdogTimer.c ****     
 195:WatchdogTimer.c ****     /* If interval timer has elapsed then enable MEASUREMENT_INTERVAL flag */
 196:WatchdogTimer.c ****     if(intervalTimer == 0)
 180              		.loc 1 196 0
 181 0040 0E4B     		ldr	r3, .L9+12
 182 0042 1B68     		ldr	r3, [r3]
 183 0044 002B     		cmp	r3, #0
 184 0046 09D1     		bne	.L8
 197:WatchdogTimer.c ****     {
 198:WatchdogTimer.c ****         /* Initialize interval timer and set MEASUREMENT_INTERVAL flag */
 199:WatchdogTimer.c ****         intervalTimer = htssInterval;
 185              		.loc 1 199 0
 186 0048 0D4B     		ldr	r3, .L9+16
 187 004a 1A68     		ldr	r2, [r3]
 188 004c 0B4B     		ldr	r3, .L9+12
 189 004e 1A60     		str	r2, [r3]
 200:WatchdogTimer.c ****         SystemFlag |= MEASUREMENT_INTERVAL;
 190              		.loc 1 200 0
 191 0050 0C4B     		ldr	r3, .L9+20
 192 0052 1B68     		ldr	r3, [r3]
 193 0054 0222     		movs	r2, #2
 194 0056 1A43     		orrs	r2, r3
 195 0058 0A4B     		ldr	r3, .L9+20
 196 005a 1A60     		str	r2, [r3]
 197              	.L8:
 201:WatchdogTimer.c ****     }
 202:WatchdogTimer.c ****     
ARM GAS  C:\Users\User\AppData\Local\Temp\ccRKpflr.s 			page 8


 203:WatchdogTimer.c ****     /* Set WDT flag for application processing */
 204:WatchdogTimer.c ****     SystemFlag |= WAKEUP_SOURCE_WDT;        
 198              		.loc 1 204 0
 199 005c 094B     		ldr	r3, .L9+20
 200 005e 1B68     		ldr	r3, [r3]
 201 0060 0122     		movs	r2, #1
 202 0062 1A43     		orrs	r2, r3
 203 0064 074B     		ldr	r3, .L9+20
 204 0066 1A60     		str	r2, [r3]
 205:WatchdogTimer.c **** }
 205              		.loc 1 205 0
 206 0068 C046     		nop
 207 006a BD46     		mov	sp, r7
 208              		@ sp needed
 209 006c 80BD     		pop	{r7, pc}
 210              	.L10:
 211 006e C046     		.align	2
 212              	.L9:
 213 0070 08020B40 		.word	1074463240
 214 0074 04000000 		.word	nextTicks
 215 0078 10020B40 		.word	1074463248
 216 007c 08000000 		.word	intervalTimer.7702
 217 0080 00000000 		.word	htssInterval
 218 0084 00000000 		.word	SystemFlag
 219              		.cfi_endproc
 220              	.LFE37:
 221              		.size	WatchdogTimer_Isr, .-WatchdogTimer_Isr
 222              		.section	.text.WatchdogTimer_Start,"ax",%progbits
 223              		.align	2
 224              		.global	WatchdogTimer_Start
 225              		.code	16
 226              		.thumb_func
 227              		.type	WatchdogTimer_Start, %function
 228              	WatchdogTimer_Start:
 229              	.LFB38:
 206:WatchdogTimer.c **** 
 207:WatchdogTimer.c **** 
 208:WatchdogTimer.c **** /*****************************************************************************
 209:WatchdogTimer.c **** * Function Name: WatchdogTimer_Start()
 210:WatchdogTimer.c **** ******************************************************************************
 211:WatchdogTimer.c **** * Summary:
 212:WatchdogTimer.c **** * Initializes the watchdog timer 0.
 213:WatchdogTimer.c **** *
 214:WatchdogTimer.c **** * Parameters:
 215:WatchdogTimer.c **** * wdtPeriodMs - The watchdog timer period to set, in milliseconds.
 216:WatchdogTimer.c **** *
 217:WatchdogTimer.c **** * Return:
 218:WatchdogTimer.c **** * None
 219:WatchdogTimer.c **** *
 220:WatchdogTimer.c **** * Theory:
 221:WatchdogTimer.c **** * Writes to the SRSS registers to start the low frequency clock and configure 
 222:WatchdogTimer.c **** * the watchdog timer 0. The watchdog timer is configured for 16-bit timing, 
 223:WatchdogTimer.c **** * and to generate an interrupt on match. 
 224:WatchdogTimer.c **** *
 225:WatchdogTimer.c **** * Side Effects:
 226:WatchdogTimer.c **** * None
 227:WatchdogTimer.c **** *
ARM GAS  C:\Users\User\AppData\Local\Temp\ccRKpflr.s 			page 9


 228:WatchdogTimer.c **** * Note:
 229:WatchdogTimer.c **** *
 230:WatchdogTimer.c **** *****************************************************************************/
 231:WatchdogTimer.c **** void WatchdogTimer_Start(uint32 wdtPeriodMs)
 232:WatchdogTimer.c **** {
 230              		.loc 1 232 0
 231              		.cfi_startproc
 232              		@ args = 0, pretend = 0, frame = 8
 233              		@ frame_needed = 1, uses_anonymous_args = 0
 234 0000 80B5     		push	{r7, lr}
 235              		.cfi_def_cfa_offset 8
 236              		.cfi_offset 7, -8
 237              		.cfi_offset 14, -4
 238 0002 82B0     		sub	sp, sp, #8
 239              		.cfi_def_cfa_offset 16
 240 0004 00AF     		add	r7, sp, #0
 241              		.cfi_def_cfa_register 7
 242 0006 7860     		str	r0, [r7, #4]
 233:WatchdogTimer.c ****     CyIntSetVector(WDT_INTERRUPT_NUM, &WatchdogTimer_Isr);
 243              		.loc 1 233 0
 244 0008 1A4B     		ldr	r3, .L13
 245 000a 1900     		movs	r1, r3
 246 000c 0820     		movs	r0, #8
 247 000e FFF7FEFF 		bl	CyIntSetVector
 234:WatchdogTimer.c ****     
 235:WatchdogTimer.c ****     WatchdogTimer_Unlock();
 248              		.loc 1 235 0
 249 0012 FFF7FEFF 		bl	WatchdogTimer_Unlock
 236:WatchdogTimer.c **** 
 237:WatchdogTimer.c ****     /* Set the WDT period */
 238:WatchdogTimer.c ****     watchdogPeriodMs = wdtPeriodMs;
 250              		.loc 1 238 0
 251 0016 184B     		ldr	r3, .L13+4
 252 0018 7A68     		ldr	r2, [r7, #4]
 253 001a 1A60     		str	r2, [r3]
 239:WatchdogTimer.c ****     nextTicks = watchdogPeriodMs * WATCHDOG_TICKS_PER_MS;
 254              		.loc 1 239 0
 255 001c 164B     		ldr	r3, .L13+4
 256 001e 1B68     		ldr	r3, [r3]
 257 0020 5A01     		lsls	r2, r3, #5
 258 0022 164B     		ldr	r3, .L13+8
 259 0024 1A60     		str	r2, [r3]
 240:WatchdogTimer.c ****     UPDATE_WDT_MATCH(nextTicks);
 260              		.loc 1 240 0
 261 0026 164A     		ldr	r2, .L13+12
 262 0028 154B     		ldr	r3, .L13+12
 263 002a 1B68     		ldr	r3, [r3]
 264 002c 1B0C     		lsrs	r3, r3, #16
 265 002e 1904     		lsls	r1, r3, #16
 266 0030 124B     		ldr	r3, .L13+8
 267 0032 1B68     		ldr	r3, [r3]
 268 0034 1B04     		lsls	r3, r3, #16
 269 0036 1B0C     		lsrs	r3, r3, #16
 270 0038 CB18     		adds	r3, r1, r3
 271 003a 1360     		str	r3, [r2]
 241:WatchdogTimer.c ****         
 242:WatchdogTimer.c ****     /* Set WDT_CONFIG register */
ARM GAS  C:\Users\User\AppData\Local\Temp\ccRKpflr.s 			page 10


 243:WatchdogTimer.c ****     CY_SET_REG32(CYREG_WDT_CONFIG, CY_GET_REG32(CYREG_WDT_CONFIG) | WDT_CONFIG_WDT_MODE0_INT);
 272              		.loc 1 243 0
 273 003c 114B     		ldr	r3, .L13+16
 274 003e 114A     		ldr	r2, .L13+16
 275 0040 1268     		ldr	r2, [r2]
 276 0042 0121     		movs	r1, #1
 277 0044 0A43     		orrs	r2, r1
 278 0046 1A60     		str	r2, [r3]
 244:WatchdogTimer.c **** 
 245:WatchdogTimer.c ****     /* Enable WDT interrupt for the NVIC */
 246:WatchdogTimer.c ****     CyIntEnable(WDT_INTERRUPT_NUM);
 279              		.loc 1 246 0
 280 0048 0820     		movs	r0, #8
 281 004a FFF7FEFF 		bl	CyIntEnable
 247:WatchdogTimer.c **** 
 248:WatchdogTimer.c ****     /* Set WDT_CONTROL register */
 249:WatchdogTimer.c ****     CY_SET_REG32(CYREG_WDT_CONTROL, CY_GET_REG32(CYREG_WDT_CONTROL) | WDT_CONTROL_WDT_ENABLE0);
 282              		.loc 1 249 0
 283 004e 0E4B     		ldr	r3, .L13+20
 284 0050 0D4A     		ldr	r2, .L13+20
 285 0052 1268     		ldr	r2, [r2]
 286 0054 0121     		movs	r1, #1
 287 0056 0A43     		orrs	r2, r1
 288 0058 1A60     		str	r2, [r3]
 250:WatchdogTimer.c **** 
 251:WatchdogTimer.c ****     /* Wait for the WDT enable to complete */
 252:WatchdogTimer.c ****     while((CY_GET_REG32(CYREG_WDT_CONTROL) & WDT_CONTROL_WDT_ENABLED0) == 0);
 289              		.loc 1 252 0
 290 005a C046     		nop
 291              	.L12:
 292              		.loc 1 252 0 is_stmt 0 discriminator 1
 293 005c 0A4B     		ldr	r3, .L13+20
 294 005e 1B68     		ldr	r3, [r3]
 295 0060 0222     		movs	r2, #2
 296 0062 1340     		ands	r3, r2
 297 0064 FAD0     		beq	.L12
 253:WatchdogTimer.c ****     
 254:WatchdogTimer.c ****     WatchdogTimer_Lock();
 298              		.loc 1 254 0 is_stmt 1
 299 0066 FFF7FEFF 		bl	WatchdogTimer_Lock
 255:WatchdogTimer.c **** }
 300              		.loc 1 255 0
 301 006a C046     		nop
 302 006c BD46     		mov	sp, r7
 303 006e 02B0     		add	sp, sp, #8
 304              		@ sp needed
 305 0070 80BD     		pop	{r7, pc}
 306              	.L14:
 307 0072 C046     		.align	2
 308              	.L13:
 309 0074 00000000 		.word	WatchdogTimer_Isr
 310 0078 00000000 		.word	watchdogPeriodMs
 311 007c 04000000 		.word	nextTicks
 312 0080 08020B40 		.word	1074463240
 313 0084 0C020B40 		.word	1074463244
 314 0088 10020B40 		.word	1074463248
 315              		.cfi_endproc
ARM GAS  C:\Users\User\AppData\Local\Temp\ccRKpflr.s 			page 11


 316              	.LFE38:
 317              		.size	WatchdogTimer_Start, .-WatchdogTimer_Start
 318              		.section	.text.WatchdogTimer_Stop,"ax",%progbits
 319              		.align	2
 320              		.global	WatchdogTimer_Stop
 321              		.code	16
 322              		.thumb_func
 323              		.type	WatchdogTimer_Stop, %function
 324              	WatchdogTimer_Stop:
 325              	.LFB39:
 256:WatchdogTimer.c **** 
 257:WatchdogTimer.c **** /*****************************************************************************
 258:WatchdogTimer.c **** * Function Name: WatchdogTimer_Stop()
 259:WatchdogTimer.c **** ******************************************************************************
 260:WatchdogTimer.c **** * Summary:
 261:WatchdogTimer.c **** * Disables the watchdog timer.
 262:WatchdogTimer.c **** *
 263:WatchdogTimer.c **** * Parameters:
 264:WatchdogTimer.c **** * None
 265:WatchdogTimer.c **** *
 266:WatchdogTimer.c **** * Return:
 267:WatchdogTimer.c **** * None
 268:WatchdogTimer.c **** *
 269:WatchdogTimer.c **** * Theory:
 270:WatchdogTimer.c **** * Disables the watchdog timer 0.
 271:WatchdogTimer.c **** *
 272:WatchdogTimer.c **** * Side Effects:
 273:WatchdogTimer.c **** * None
 274:WatchdogTimer.c **** *
 275:WatchdogTimer.c **** * Note:
 276:WatchdogTimer.c **** *
 277:WatchdogTimer.c **** *****************************************************************************/
 278:WatchdogTimer.c **** void WatchdogTimer_Stop (void)
 279:WatchdogTimer.c **** {
 326              		.loc 1 279 0
 327              		.cfi_startproc
 328              		@ args = 0, pretend = 0, frame = 0
 329              		@ frame_needed = 1, uses_anonymous_args = 0
 330 0000 80B5     		push	{r7, lr}
 331              		.cfi_def_cfa_offset 8
 332              		.cfi_offset 7, -8
 333              		.cfi_offset 14, -4
 334 0002 00AF     		add	r7, sp, #0
 335              		.cfi_def_cfa_register 7
 280:WatchdogTimer.c ****     WatchdogTimer_Unlock();
 336              		.loc 1 280 0
 337 0004 FFF7FEFF 		bl	WatchdogTimer_Unlock
 281:WatchdogTimer.c **** 
 282:WatchdogTimer.c ****     /* Clear WDT_CONFIG register */
 283:WatchdogTimer.c ****     CY_SET_REG32(CYREG_WDT_CONFIG, CY_GET_REG32(CYREG_WDT_CONFIG) & ~WDT_CONFIG_WDT_MODE0_INT);
 338              		.loc 1 283 0
 339 0008 084B     		ldr	r3, .L16
 340 000a 084A     		ldr	r2, .L16
 341 000c 1268     		ldr	r2, [r2]
 342 000e 0121     		movs	r1, #1
 343 0010 8A43     		bics	r2, r1
 344 0012 1A60     		str	r2, [r3]
ARM GAS  C:\Users\User\AppData\Local\Temp\ccRKpflr.s 			page 12


 284:WatchdogTimer.c **** 
 285:WatchdogTimer.c ****     /* Clear WDT pending interrupt */
 286:WatchdogTimer.c ****     CY_SET_REG32(CYREG_WDT_CONTROL, CY_GET_REG32(CYREG_WDT_CONTROL) | WDT_CONTROL_WDT_INT0);
 345              		.loc 1 286 0
 346 0014 064B     		ldr	r3, .L16+4
 347 0016 064A     		ldr	r2, .L16+4
 348 0018 1268     		ldr	r2, [r2]
 349 001a 0421     		movs	r1, #4
 350 001c 0A43     		orrs	r2, r1
 351 001e 1A60     		str	r2, [r3]
 287:WatchdogTimer.c **** 
 288:WatchdogTimer.c ****     WatchdogTimer_Lock();
 352              		.loc 1 288 0
 353 0020 FFF7FEFF 		bl	WatchdogTimer_Lock
 289:WatchdogTimer.c **** }
 354              		.loc 1 289 0
 355 0024 C046     		nop
 356 0026 BD46     		mov	sp, r7
 357              		@ sp needed
 358 0028 80BD     		pop	{r7, pc}
 359              	.L17:
 360 002a C046     		.align	2
 361              	.L16:
 362 002c 0C020B40 		.word	1074463244
 363 0030 10020B40 		.word	1074463248
 364              		.cfi_endproc
 365              	.LFE39:
 366              		.size	WatchdogTimer_Stop, .-WatchdogTimer_Stop
 367              		.data
 368              		.align	2
 369              		.type	intervalTimer.7702, %object
 370              		.size	intervalTimer.7702, 4
 371              	intervalTimer.7702:
 372 0008 01000000 		.word	1
 373              		.text
 374              	.Letext0:
 375              		.file 2 "Generated_Source\\PSoC4/cytypes.h"
 376              		.file 3 "Generated_Source\\PSoC4/OneWire.h"
 377              		.file 4 "Generated_Source\\PSoC4/BLE_Stack.h"
 378              		.file 5 "Generated_Source\\PSoC4/BLE_dis.h"
 379              		.file 6 "Generated_Source\\PSoC4/BLE_hts.h"
 380              		.file 7 "CommonFunctions.h"
 381              		.file 8 "BLE_HTSS.h"